
Veliki_Robot_2015.elf:     file format elf32-avr

Sections:
Idx Name          Size      VMA       LMA       File off  Algn
  0 .data         00000074  00800100  00006de2  00006e96  2**0
                  CONTENTS, ALLOC, LOAD, DATA
  1 .text         00006de2  00000000  00000000  000000b4  2**1
                  CONTENTS, ALLOC, LOAD, READONLY, CODE
  2 .bss          00000184  00800174  00800174  00006f0a  2**0
                  ALLOC
  3 .fuse         00000003  00820000  00820000  00006f0a  2**0
                  CONTENTS, ALLOC, LOAD, DATA
  4 .comment      0000005c  00000000  00000000  00006f0d  2**0
                  CONTENTS, READONLY

Disassembly of section .text:

00000000 <__vectors>:
       0:	49 c0       	rjmp	.+146    	; 0x94 <__ctors_end>
       2:	00 00       	nop
       4:	66 c0       	rjmp	.+204    	; 0xd2 <__bad_interrupt>
       6:	00 00       	nop
       8:	64 c0       	rjmp	.+200    	; 0xd2 <__bad_interrupt>
       a:	00 00       	nop
       c:	62 c0       	rjmp	.+196    	; 0xd2 <__bad_interrupt>
       e:	00 00       	nop
      10:	60 c0       	rjmp	.+192    	; 0xd2 <__bad_interrupt>
      12:	00 00       	nop
      14:	5e c0       	rjmp	.+188    	; 0xd2 <__bad_interrupt>
      16:	00 00       	nop
      18:	5c c0       	rjmp	.+184    	; 0xd2 <__bad_interrupt>
      1a:	00 00       	nop
      1c:	5a c0       	rjmp	.+180    	; 0xd2 <__bad_interrupt>
      1e:	00 00       	nop
      20:	58 c0       	rjmp	.+176    	; 0xd2 <__bad_interrupt>
      22:	00 00       	nop
      24:	56 c0       	rjmp	.+172    	; 0xd2 <__bad_interrupt>
      26:	00 00       	nop
      28:	54 c0       	rjmp	.+168    	; 0xd2 <__bad_interrupt>
      2a:	00 00       	nop
      2c:	52 c0       	rjmp	.+164    	; 0xd2 <__bad_interrupt>
      2e:	00 00       	nop
      30:	0c 94 da 2d 	jmp	0x5bb4	; 0x5bb4 <__vector_12>
      34:	4e c0       	rjmp	.+156    	; 0xd2 <__bad_interrupt>
      36:	00 00       	nop
      38:	4c c0       	rjmp	.+152    	; 0xd2 <__bad_interrupt>
      3a:	00 00       	nop
      3c:	4a c0       	rjmp	.+148    	; 0xd2 <__bad_interrupt>
      3e:	00 00       	nop
      40:	48 c0       	rjmp	.+144    	; 0xd2 <__bad_interrupt>
      42:	00 00       	nop
      44:	46 c0       	rjmp	.+140    	; 0xd2 <__bad_interrupt>
      46:	00 00       	nop
      48:	0c 94 d2 08 	jmp	0x11a4	; 0x11a4 <__vector_18>
      4c:	42 c0       	rjmp	.+132    	; 0xd2 <__bad_interrupt>
      4e:	00 00       	nop
      50:	40 c0       	rjmp	.+128    	; 0xd2 <__bad_interrupt>
      52:	00 00       	nop
      54:	0c 94 87 2f 	jmp	0x5f0e	; 0x5f0e <__vector_21>
      58:	3c c0       	rjmp	.+120    	; 0xd2 <__bad_interrupt>
      5a:	00 00       	nop
      5c:	0c 94 45 2f 	jmp	0x5e8a	; 0x5e8a <__vector_23>
      60:	38 c0       	rjmp	.+112    	; 0xd2 <__bad_interrupt>
      62:	00 00       	nop
      64:	36 c0       	rjmp	.+108    	; 0xd2 <__bad_interrupt>
      66:	00 00       	nop
      68:	34 c0       	rjmp	.+104    	; 0xd2 <__bad_interrupt>
      6a:	00 00       	nop
      6c:	32 c0       	rjmp	.+100    	; 0xd2 <__bad_interrupt>
      6e:	00 00       	nop
      70:	30 c0       	rjmp	.+96     	; 0xd2 <__bad_interrupt>
      72:	00 00       	nop
      74:	2e c0       	rjmp	.+92     	; 0xd2 <__bad_interrupt>
      76:	00 00       	nop
      78:	2c c0       	rjmp	.+88     	; 0xd2 <__bad_interrupt>
      7a:	00 00       	nop
      7c:	2a c0       	rjmp	.+84     	; 0xd2 <__bad_interrupt>
      7e:	00 00       	nop
      80:	0c 94 15 30 	jmp	0x602a	; 0x602a <__vector_32>
      84:	26 c0       	rjmp	.+76     	; 0xd2 <__bad_interrupt>
      86:	00 00       	nop
      88:	0c 94 d3 2f 	jmp	0x5fa6	; 0x5fa6 <__vector_34>
      8c:	22 c0       	rjmp	.+68     	; 0xd2 <__bad_interrupt>
      8e:	00 00       	nop
      90:	20 c0       	rjmp	.+64     	; 0xd2 <__bad_interrupt>
	...

00000094 <__ctors_end>:
      94:	11 24       	eor	r1, r1
      96:	1f be       	out	0x3f, r1	; 63
      98:	cf ef       	ldi	r28, 0xFF	; 255
      9a:	d0 e1       	ldi	r29, 0x10	; 16
      9c:	de bf       	out	0x3e, r29	; 62
      9e:	cd bf       	out	0x3d, r28	; 61

000000a0 <__do_copy_data>:
      a0:	11 e0       	ldi	r17, 0x01	; 1
      a2:	a0 e0       	ldi	r26, 0x00	; 0
      a4:	b1 e0       	ldi	r27, 0x01	; 1
      a6:	e2 ee       	ldi	r30, 0xE2	; 226
      a8:	fd e6       	ldi	r31, 0x6D	; 109
      aa:	00 e0       	ldi	r16, 0x00	; 0
      ac:	0b bf       	out	0x3b, r16	; 59
      ae:	02 c0       	rjmp	.+4      	; 0xb4 <__do_copy_data+0x14>
      b0:	07 90       	elpm	r0, Z+
      b2:	0d 92       	st	X+, r0
      b4:	a4 37       	cpi	r26, 0x74	; 116
      b6:	b1 07       	cpc	r27, r17
      b8:	d9 f7       	brne	.-10     	; 0xb0 <__do_copy_data+0x10>

000000ba <__do_clear_bss>:
      ba:	22 e0       	ldi	r18, 0x02	; 2
      bc:	a4 e7       	ldi	r26, 0x74	; 116
      be:	b1 e0       	ldi	r27, 0x01	; 1
      c0:	01 c0       	rjmp	.+2      	; 0xc4 <.do_clear_bss_start>

000000c2 <.do_clear_bss_loop>:
      c2:	1d 92       	st	X+, r1

000000c4 <.do_clear_bss_start>:
      c4:	a8 3f       	cpi	r26, 0xF8	; 248
      c6:	b2 07       	cpc	r27, r18
      c8:	e1 f7       	brne	.-8      	; 0xc2 <.do_clear_bss_loop>
      ca:	0e 94 9c 20 	call	0x4138	; 0x4138 <main>
      ce:	0c 94 ef 36 	jmp	0x6dde	; 0x6dde <_exit>

000000d2 <__bad_interrupt>:
      d2:	96 cf       	rjmp	.-212    	; 0x0 <__vectors>

000000d4 <knockDownTheClapperboards>:
      d4:	cf 93       	push	r28
      d6:	df 93       	push	r29
      d8:	cd b7       	in	r28, 0x3d	; 61
      da:	de b7       	in	r29, 0x3e	; 62
      dc:	a6 97       	sbiw	r28, 0x26	; 38
      de:	0f b6       	in	r0, 0x3f	; 63
      e0:	f8 94       	cli
      e2:	de bf       	out	0x3e, r29	; 62
      e4:	0f be       	out	0x3f, r0	; 63
      e6:	cd bf       	out	0x3d, r28	; 61
      e8:	8d a3       	std	Y+37, r24	; 0x25
      ea:	6e a3       	std	Y+38, r22	; 0x26
      ec:	81 e4       	ldi	r24, 0x41	; 65
      ee:	8d 8f       	std	Y+29, r24	; 0x1d
      f0:	8d a1       	ldd	r24, Y+37	; 0x25
      f2:	81 30       	cpi	r24, 0x01	; 1
      f4:	19 f4       	brne	.+6      	; 0xfc <knockDownTheClapperboards+0x28>
      f6:	81 e0       	ldi	r24, 0x01	; 1
      f8:	8e 8f       	std	Y+30, r24	; 0x1e
      fa:	02 c0       	rjmp	.+4      	; 0x100 <knockDownTheClapperboards+0x2c>
      fc:	8f ef       	ldi	r24, 0xFF	; 255
      fe:	8e 8f       	std	Y+30, r24	; 0x1e
     100:	8e a1       	ldd	r24, Y+38	; 0x26
     102:	81 30       	cpi	r24, 0x01	; 1
     104:	09 f0       	breq	.+2      	; 0x108 <knockDownTheClapperboards+0x34>
     106:	7e c0       	rjmp	.+252    	; 0x204 <knockDownTheClapperboards+0x130>
     108:	81 e0       	ldi	r24, 0x01	; 1
     10a:	8f 8f       	std	Y+31, r24	; 0x1f
     10c:	72 c0       	rjmp	.+228    	; 0x1f2 <knockDownTheClapperboards+0x11e>
     10e:	80 e0       	ldi	r24, 0x00	; 0
     110:	90 e0       	ldi	r25, 0x00	; 0
     112:	a8 e4       	ldi	r26, 0x48	; 72
     114:	b2 e4       	ldi	r27, 0x42	; 66
     116:	89 83       	std	Y+1, r24	; 0x01
     118:	9a 83       	std	Y+2, r25	; 0x02
     11a:	ab 83       	std	Y+3, r26	; 0x03
     11c:	bc 83       	std	Y+4, r27	; 0x04
     11e:	20 e0       	ldi	r18, 0x00	; 0
     120:	30 e4       	ldi	r19, 0x40	; 64
     122:	4c e1       	ldi	r20, 0x1C	; 28
     124:	55 e4       	ldi	r21, 0x45	; 69
     126:	69 81       	ldd	r22, Y+1	; 0x01
     128:	7a 81       	ldd	r23, Y+2	; 0x02
     12a:	8b 81       	ldd	r24, Y+3	; 0x03
     12c:	9c 81       	ldd	r25, Y+4	; 0x04
     12e:	0e 94 52 32 	call	0x64a4	; 0x64a4 <__mulsf3>
     132:	dc 01       	movw	r26, r24
     134:	cb 01       	movw	r24, r22
     136:	8d 83       	std	Y+5, r24	; 0x05
     138:	9e 83       	std	Y+6, r25	; 0x06
     13a:	af 83       	std	Y+7, r26	; 0x07
     13c:	b8 87       	std	Y+8, r27	; 0x08
     13e:	20 e0       	ldi	r18, 0x00	; 0
     140:	30 e0       	ldi	r19, 0x00	; 0
     142:	40 e8       	ldi	r20, 0x80	; 128
     144:	5f e3       	ldi	r21, 0x3F	; 63
     146:	6d 81       	ldd	r22, Y+5	; 0x05
     148:	7e 81       	ldd	r23, Y+6	; 0x06
     14a:	8f 81       	ldd	r24, Y+7	; 0x07
     14c:	98 85       	ldd	r25, Y+8	; 0x08
     14e:	0e 94 c6 30 	call	0x618c	; 0x618c <__cmpsf2>
     152:	88 23       	and	r24, r24
     154:	2c f4       	brge	.+10     	; 0x160 <knockDownTheClapperboards+0x8c>
     156:	81 e0       	ldi	r24, 0x01	; 1
     158:	90 e0       	ldi	r25, 0x00	; 0
     15a:	9a 87       	std	Y+10, r25	; 0x0a
     15c:	89 87       	std	Y+9, r24	; 0x09
     15e:	3f c0       	rjmp	.+126    	; 0x1de <knockDownTheClapperboards+0x10a>
     160:	20 e0       	ldi	r18, 0x00	; 0
     162:	3f ef       	ldi	r19, 0xFF	; 255
     164:	4f e7       	ldi	r20, 0x7F	; 127
     166:	57 e4       	ldi	r21, 0x47	; 71
     168:	6d 81       	ldd	r22, Y+5	; 0x05
     16a:	7e 81       	ldd	r23, Y+6	; 0x06
     16c:	8f 81       	ldd	r24, Y+7	; 0x07
     16e:	98 85       	ldd	r25, Y+8	; 0x08
     170:	0e 94 4e 32 	call	0x649c	; 0x649c <__gesf2>
     174:	18 16       	cp	r1, r24
     176:	4c f5       	brge	.+82     	; 0x1ca <knockDownTheClapperboards+0xf6>
     178:	20 e0       	ldi	r18, 0x00	; 0
     17a:	30 e0       	ldi	r19, 0x00	; 0
     17c:	40 e2       	ldi	r20, 0x20	; 32
     17e:	51 e4       	ldi	r21, 0x41	; 65
     180:	69 81       	ldd	r22, Y+1	; 0x01
     182:	7a 81       	ldd	r23, Y+2	; 0x02
     184:	8b 81       	ldd	r24, Y+3	; 0x03
     186:	9c 81       	ldd	r25, Y+4	; 0x04
     188:	0e 94 52 32 	call	0x64a4	; 0x64a4 <__mulsf3>
     18c:	dc 01       	movw	r26, r24
     18e:	cb 01       	movw	r24, r22
     190:	bc 01       	movw	r22, r24
     192:	cd 01       	movw	r24, r26
     194:	0e 94 32 31 	call	0x6264	; 0x6264 <__fixunssfsi>
     198:	dc 01       	movw	r26, r24
     19a:	cb 01       	movw	r24, r22
     19c:	9a 87       	std	Y+10, r25	; 0x0a
     19e:	89 87       	std	Y+9, r24	; 0x09
     1a0:	0f c0       	rjmp	.+30     	; 0x1c0 <knockDownTheClapperboards+0xec>
     1a2:	8a ef       	ldi	r24, 0xFA	; 250
     1a4:	90 e0       	ldi	r25, 0x00	; 0
     1a6:	9c 87       	std	Y+12, r25	; 0x0c
     1a8:	8b 87       	std	Y+11, r24	; 0x0b
     1aa:	8b 85       	ldd	r24, Y+11	; 0x0b
     1ac:	9c 85       	ldd	r25, Y+12	; 0x0c
     1ae:	01 97       	sbiw	r24, 0x01	; 1
     1b0:	f1 f7       	brne	.-4      	; 0x1ae <knockDownTheClapperboards+0xda>
     1b2:	9c 87       	std	Y+12, r25	; 0x0c
     1b4:	8b 87       	std	Y+11, r24	; 0x0b
     1b6:	89 85       	ldd	r24, Y+9	; 0x09
     1b8:	9a 85       	ldd	r25, Y+10	; 0x0a
     1ba:	01 97       	sbiw	r24, 0x01	; 1
     1bc:	9a 87       	std	Y+10, r25	; 0x0a
     1be:	89 87       	std	Y+9, r24	; 0x09
     1c0:	89 85       	ldd	r24, Y+9	; 0x09
     1c2:	9a 85       	ldd	r25, Y+10	; 0x0a
     1c4:	00 97       	sbiw	r24, 0x00	; 0
     1c6:	69 f7       	brne	.-38     	; 0x1a2 <knockDownTheClapperboards+0xce>
     1c8:	14 c0       	rjmp	.+40     	; 0x1f2 <knockDownTheClapperboards+0x11e>
     1ca:	6d 81       	ldd	r22, Y+5	; 0x05
     1cc:	7e 81       	ldd	r23, Y+6	; 0x06
     1ce:	8f 81       	ldd	r24, Y+7	; 0x07
     1d0:	98 85       	ldd	r25, Y+8	; 0x08
     1d2:	0e 94 32 31 	call	0x6264	; 0x6264 <__fixunssfsi>
     1d6:	dc 01       	movw	r26, r24
     1d8:	cb 01       	movw	r24, r22
     1da:	9a 87       	std	Y+10, r25	; 0x0a
     1dc:	89 87       	std	Y+9, r24	; 0x09
     1de:	89 85       	ldd	r24, Y+9	; 0x09
     1e0:	9a 85       	ldd	r25, Y+10	; 0x0a
     1e2:	9e 87       	std	Y+14, r25	; 0x0e
     1e4:	8d 87       	std	Y+13, r24	; 0x0d
     1e6:	8d 85       	ldd	r24, Y+13	; 0x0d
     1e8:	9e 85       	ldd	r25, Y+14	; 0x0e
     1ea:	01 97       	sbiw	r24, 0x01	; 1
     1ec:	f1 f7       	brne	.-4      	; 0x1ea <knockDownTheClapperboards+0x116>
     1ee:	9e 87       	std	Y+14, r25	; 0x0e
     1f0:	8d 87       	std	Y+13, r24	; 0x0d
     1f2:	ce 01       	movw	r24, r28
     1f4:	4d 96       	adiw	r24, 0x1d	; 29
     1f6:	64 ed       	ldi	r22, 0xD4	; 212
     1f8:	0e 94 6f 0b 	call	0x16de	; 0x16de <CAN_Write>
     1fc:	88 23       	and	r24, r24
     1fe:	09 f0       	breq	.+2      	; 0x202 <knockDownTheClapperboards+0x12e>
     200:	86 cf       	rjmp	.-244    	; 0x10e <knockDownTheClapperboards+0x3a>
     202:	81 c0       	rjmp	.+258    	; 0x306 <knockDownTheClapperboards+0x232>
     204:	8e a1       	ldd	r24, Y+38	; 0x26
     206:	8f 3f       	cpi	r24, 0xFF	; 255
     208:	09 f0       	breq	.+2      	; 0x20c <knockDownTheClapperboards+0x138>
     20a:	7d c0       	rjmp	.+250    	; 0x306 <knockDownTheClapperboards+0x232>
     20c:	8f ef       	ldi	r24, 0xFF	; 255
     20e:	8f 8f       	std	Y+31, r24	; 0x1f
     210:	72 c0       	rjmp	.+228    	; 0x2f6 <knockDownTheClapperboards+0x222>
     212:	80 e0       	ldi	r24, 0x00	; 0
     214:	90 e0       	ldi	r25, 0x00	; 0
     216:	a8 e4       	ldi	r26, 0x48	; 72
     218:	b2 e4       	ldi	r27, 0x42	; 66
     21a:	8f 87       	std	Y+15, r24	; 0x0f
     21c:	98 8b       	std	Y+16, r25	; 0x10
     21e:	a9 8b       	std	Y+17, r26	; 0x11
     220:	ba 8b       	std	Y+18, r27	; 0x12
     222:	20 e0       	ldi	r18, 0x00	; 0
     224:	30 e4       	ldi	r19, 0x40	; 64
     226:	4c e1       	ldi	r20, 0x1C	; 28
     228:	55 e4       	ldi	r21, 0x45	; 69
     22a:	6f 85       	ldd	r22, Y+15	; 0x0f
     22c:	78 89       	ldd	r23, Y+16	; 0x10
     22e:	89 89       	ldd	r24, Y+17	; 0x11
     230:	9a 89       	ldd	r25, Y+18	; 0x12
     232:	0e 94 52 32 	call	0x64a4	; 0x64a4 <__mulsf3>
     236:	dc 01       	movw	r26, r24
     238:	cb 01       	movw	r24, r22
     23a:	8b 8b       	std	Y+19, r24	; 0x13
     23c:	9c 8b       	std	Y+20, r25	; 0x14
     23e:	ad 8b       	std	Y+21, r26	; 0x15
     240:	be 8b       	std	Y+22, r27	; 0x16
     242:	20 e0       	ldi	r18, 0x00	; 0
     244:	30 e0       	ldi	r19, 0x00	; 0
     246:	40 e8       	ldi	r20, 0x80	; 128
     248:	5f e3       	ldi	r21, 0x3F	; 63
     24a:	6b 89       	ldd	r22, Y+19	; 0x13
     24c:	7c 89       	ldd	r23, Y+20	; 0x14
     24e:	8d 89       	ldd	r24, Y+21	; 0x15
     250:	9e 89       	ldd	r25, Y+22	; 0x16
     252:	0e 94 c6 30 	call	0x618c	; 0x618c <__cmpsf2>
     256:	88 23       	and	r24, r24
     258:	2c f4       	brge	.+10     	; 0x264 <knockDownTheClapperboards+0x190>
     25a:	81 e0       	ldi	r24, 0x01	; 1
     25c:	90 e0       	ldi	r25, 0x00	; 0
     25e:	98 8f       	std	Y+24, r25	; 0x18
     260:	8f 8b       	std	Y+23, r24	; 0x17
     262:	3f c0       	rjmp	.+126    	; 0x2e2 <knockDownTheClapperboards+0x20e>
     264:	20 e0       	ldi	r18, 0x00	; 0
     266:	3f ef       	ldi	r19, 0xFF	; 255
     268:	4f e7       	ldi	r20, 0x7F	; 127
     26a:	57 e4       	ldi	r21, 0x47	; 71
     26c:	6b 89       	ldd	r22, Y+19	; 0x13
     26e:	7c 89       	ldd	r23, Y+20	; 0x14
     270:	8d 89       	ldd	r24, Y+21	; 0x15
     272:	9e 89       	ldd	r25, Y+22	; 0x16
     274:	0e 94 4e 32 	call	0x649c	; 0x649c <__gesf2>
     278:	18 16       	cp	r1, r24
     27a:	4c f5       	brge	.+82     	; 0x2ce <knockDownTheClapperboards+0x1fa>
     27c:	20 e0       	ldi	r18, 0x00	; 0
     27e:	30 e0       	ldi	r19, 0x00	; 0
     280:	40 e2       	ldi	r20, 0x20	; 32
     282:	51 e4       	ldi	r21, 0x41	; 65
     284:	6f 85       	ldd	r22, Y+15	; 0x0f
     286:	78 89       	ldd	r23, Y+16	; 0x10
     288:	89 89       	ldd	r24, Y+17	; 0x11
     28a:	9a 89       	ldd	r25, Y+18	; 0x12
     28c:	0e 94 52 32 	call	0x64a4	; 0x64a4 <__mulsf3>
     290:	dc 01       	movw	r26, r24
     292:	cb 01       	movw	r24, r22
     294:	bc 01       	movw	r22, r24
     296:	cd 01       	movw	r24, r26
     298:	0e 94 32 31 	call	0x6264	; 0x6264 <__fixunssfsi>
     29c:	dc 01       	movw	r26, r24
     29e:	cb 01       	movw	r24, r22
     2a0:	98 8f       	std	Y+24, r25	; 0x18
     2a2:	8f 8b       	std	Y+23, r24	; 0x17
     2a4:	0f c0       	rjmp	.+30     	; 0x2c4 <knockDownTheClapperboards+0x1f0>
     2a6:	8a ef       	ldi	r24, 0xFA	; 250
     2a8:	90 e0       	ldi	r25, 0x00	; 0
     2aa:	9a 8f       	std	Y+26, r25	; 0x1a
     2ac:	89 8f       	std	Y+25, r24	; 0x19
     2ae:	89 8d       	ldd	r24, Y+25	; 0x19
     2b0:	9a 8d       	ldd	r25, Y+26	; 0x1a
     2b2:	01 97       	sbiw	r24, 0x01	; 1
     2b4:	f1 f7       	brne	.-4      	; 0x2b2 <knockDownTheClapperboards+0x1de>
     2b6:	9a 8f       	std	Y+26, r25	; 0x1a
     2b8:	89 8f       	std	Y+25, r24	; 0x19
     2ba:	8f 89       	ldd	r24, Y+23	; 0x17
     2bc:	98 8d       	ldd	r25, Y+24	; 0x18
     2be:	01 97       	sbiw	r24, 0x01	; 1
     2c0:	98 8f       	std	Y+24, r25	; 0x18
     2c2:	8f 8b       	std	Y+23, r24	; 0x17
     2c4:	8f 89       	ldd	r24, Y+23	; 0x17
     2c6:	98 8d       	ldd	r25, Y+24	; 0x18
     2c8:	00 97       	sbiw	r24, 0x00	; 0
     2ca:	69 f7       	brne	.-38     	; 0x2a6 <knockDownTheClapperboards+0x1d2>
     2cc:	14 c0       	rjmp	.+40     	; 0x2f6 <knockDownTheClapperboards+0x222>
     2ce:	6b 89       	ldd	r22, Y+19	; 0x13
     2d0:	7c 89       	ldd	r23, Y+20	; 0x14
     2d2:	8d 89       	ldd	r24, Y+21	; 0x15
     2d4:	9e 89       	ldd	r25, Y+22	; 0x16
     2d6:	0e 94 32 31 	call	0x6264	; 0x6264 <__fixunssfsi>
     2da:	dc 01       	movw	r26, r24
     2dc:	cb 01       	movw	r24, r22
     2de:	98 8f       	std	Y+24, r25	; 0x18
     2e0:	8f 8b       	std	Y+23, r24	; 0x17
     2e2:	8f 89       	ldd	r24, Y+23	; 0x17
     2e4:	98 8d       	ldd	r25, Y+24	; 0x18
     2e6:	9c 8f       	std	Y+28, r25	; 0x1c
     2e8:	8b 8f       	std	Y+27, r24	; 0x1b
     2ea:	8b 8d       	ldd	r24, Y+27	; 0x1b
     2ec:	9c 8d       	ldd	r25, Y+28	; 0x1c
     2ee:	01 97       	sbiw	r24, 0x01	; 1
     2f0:	f1 f7       	brne	.-4      	; 0x2ee <knockDownTheClapperboards+0x21a>
     2f2:	9c 8f       	std	Y+28, r25	; 0x1c
     2f4:	8b 8f       	std	Y+27, r24	; 0x1b
     2f6:	ce 01       	movw	r24, r28
     2f8:	4d 96       	adiw	r24, 0x1d	; 29
     2fa:	64 ed       	ldi	r22, 0xD4	; 212
     2fc:	0e 94 6f 0b 	call	0x16de	; 0x16de <CAN_Write>
     300:	88 23       	and	r24, r24
     302:	09 f0       	breq	.+2      	; 0x306 <knockDownTheClapperboards+0x232>
     304:	86 cf       	rjmp	.-244    	; 0x212 <knockDownTheClapperboards+0x13e>
     306:	a6 96       	adiw	r28, 0x26	; 38
     308:	0f b6       	in	r0, 0x3f	; 63
     30a:	f8 94       	cli
     30c:	de bf       	out	0x3e, r29	; 62
     30e:	0f be       	out	0x3f, r0	; 63
     310:	cd bf       	out	0x3d, r28	; 61
     312:	df 91       	pop	r29
     314:	cf 91       	pop	r28
     316:	08 95       	ret

00000318 <colectThePopcorn>:
     318:	0f 93       	push	r16
     31a:	1f 93       	push	r17
     31c:	cf 93       	push	r28
     31e:	df 93       	push	r29
     320:	cd b7       	in	r28, 0x3d	; 61
     322:	de b7       	in	r29, 0x3e	; 62
     324:	c0 55       	subi	r28, 0x50	; 80
     326:	d1 09       	sbc	r29, r1
     328:	0f b6       	in	r0, 0x3f	; 63
     32a:	f8 94       	cli
     32c:	de bf       	out	0x3e, r29	; 62
     32e:	0f be       	out	0x3f, r0	; 63
     330:	cd bf       	out	0x3d, r28	; 61
     332:	9e 01       	movw	r18, r28
     334:	21 5b       	subi	r18, 0xB1	; 177
     336:	3f 4f       	sbci	r19, 0xFF	; 255
     338:	f9 01       	movw	r30, r18
     33a:	80 83       	st	Z, r24
     33c:	ce 01       	movw	r24, r28
     33e:	80 5b       	subi	r24, 0xB0	; 176
     340:	9f 4f       	sbci	r25, 0xFF	; 255
     342:	fc 01       	movw	r30, r24
     344:	60 83       	st	Z, r22
     346:	ce 01       	movw	r24, r28
     348:	89 5b       	subi	r24, 0xB9	; 185
     34a:	9f 4f       	sbci	r25, 0xFF	; 255
     34c:	22 e4       	ldi	r18, 0x42	; 66
     34e:	fc 01       	movw	r30, r24
     350:	20 83       	st	Z, r18
     352:	ce 01       	movw	r24, r28
     354:	81 5b       	subi	r24, 0xB1	; 177
     356:	9f 4f       	sbci	r25, 0xFF	; 255
     358:	fc 01       	movw	r30, r24
     35a:	80 81       	ld	r24, Z
     35c:	81 30       	cpi	r24, 0x01	; 1
     35e:	09 f0       	breq	.+2      	; 0x362 <colectThePopcorn+0x4a>
     360:	83 c0       	rjmp	.+262    	; 0x468 <colectThePopcorn+0x150>
     362:	ce 01       	movw	r24, r28
     364:	89 5b       	subi	r24, 0xB9	; 185
     366:	9f 4f       	sbci	r25, 0xFF	; 255
     368:	21 e0       	ldi	r18, 0x01	; 1
     36a:	fc 01       	movw	r30, r24
     36c:	21 83       	std	Z+1, r18	; 0x01
     36e:	72 c0       	rjmp	.+228    	; 0x454 <colectThePopcorn+0x13c>
     370:	80 e0       	ldi	r24, 0x00	; 0
     372:	90 e0       	ldi	r25, 0x00	; 0
     374:	a8 e4       	ldi	r26, 0x48	; 72
     376:	b2 e4       	ldi	r27, 0x42	; 66
     378:	89 83       	std	Y+1, r24	; 0x01
     37a:	9a 83       	std	Y+2, r25	; 0x02
     37c:	ab 83       	std	Y+3, r26	; 0x03
     37e:	bc 83       	std	Y+4, r27	; 0x04
     380:	20 e0       	ldi	r18, 0x00	; 0
     382:	30 e4       	ldi	r19, 0x40	; 64
     384:	4c e1       	ldi	r20, 0x1C	; 28
     386:	55 e4       	ldi	r21, 0x45	; 69
     388:	69 81       	ldd	r22, Y+1	; 0x01
     38a:	7a 81       	ldd	r23, Y+2	; 0x02
     38c:	8b 81       	ldd	r24, Y+3	; 0x03
     38e:	9c 81       	ldd	r25, Y+4	; 0x04
     390:	0e 94 52 32 	call	0x64a4	; 0x64a4 <__mulsf3>
     394:	dc 01       	movw	r26, r24
     396:	cb 01       	movw	r24, r22
     398:	8d 83       	std	Y+5, r24	; 0x05
     39a:	9e 83       	std	Y+6, r25	; 0x06
     39c:	af 83       	std	Y+7, r26	; 0x07
     39e:	b8 87       	std	Y+8, r27	; 0x08
     3a0:	20 e0       	ldi	r18, 0x00	; 0
     3a2:	30 e0       	ldi	r19, 0x00	; 0
     3a4:	40 e8       	ldi	r20, 0x80	; 128
     3a6:	5f e3       	ldi	r21, 0x3F	; 63
     3a8:	6d 81       	ldd	r22, Y+5	; 0x05
     3aa:	7e 81       	ldd	r23, Y+6	; 0x06
     3ac:	8f 81       	ldd	r24, Y+7	; 0x07
     3ae:	98 85       	ldd	r25, Y+8	; 0x08
     3b0:	0e 94 c6 30 	call	0x618c	; 0x618c <__cmpsf2>
     3b4:	88 23       	and	r24, r24
     3b6:	2c f4       	brge	.+10     	; 0x3c2 <colectThePopcorn+0xaa>
     3b8:	81 e0       	ldi	r24, 0x01	; 1
     3ba:	90 e0       	ldi	r25, 0x00	; 0
     3bc:	9a 87       	std	Y+10, r25	; 0x0a
     3be:	89 87       	std	Y+9, r24	; 0x09
     3c0:	3f c0       	rjmp	.+126    	; 0x440 <colectThePopcorn+0x128>
     3c2:	20 e0       	ldi	r18, 0x00	; 0
     3c4:	3f ef       	ldi	r19, 0xFF	; 255
     3c6:	4f e7       	ldi	r20, 0x7F	; 127
     3c8:	57 e4       	ldi	r21, 0x47	; 71
     3ca:	6d 81       	ldd	r22, Y+5	; 0x05
     3cc:	7e 81       	ldd	r23, Y+6	; 0x06
     3ce:	8f 81       	ldd	r24, Y+7	; 0x07
     3d0:	98 85       	ldd	r25, Y+8	; 0x08
     3d2:	0e 94 4e 32 	call	0x649c	; 0x649c <__gesf2>
     3d6:	18 16       	cp	r1, r24
     3d8:	4c f5       	brge	.+82     	; 0x42c <colectThePopcorn+0x114>
     3da:	20 e0       	ldi	r18, 0x00	; 0
     3dc:	30 e0       	ldi	r19, 0x00	; 0
     3de:	40 e2       	ldi	r20, 0x20	; 32
     3e0:	51 e4       	ldi	r21, 0x41	; 65
     3e2:	69 81       	ldd	r22, Y+1	; 0x01
     3e4:	7a 81       	ldd	r23, Y+2	; 0x02
     3e6:	8b 81       	ldd	r24, Y+3	; 0x03
     3e8:	9c 81       	ldd	r25, Y+4	; 0x04
     3ea:	0e 94 52 32 	call	0x64a4	; 0x64a4 <__mulsf3>
     3ee:	dc 01       	movw	r26, r24
     3f0:	cb 01       	movw	r24, r22
     3f2:	bc 01       	movw	r22, r24
     3f4:	cd 01       	movw	r24, r26
     3f6:	0e 94 32 31 	call	0x6264	; 0x6264 <__fixunssfsi>
     3fa:	dc 01       	movw	r26, r24
     3fc:	cb 01       	movw	r24, r22
     3fe:	9a 87       	std	Y+10, r25	; 0x0a
     400:	89 87       	std	Y+9, r24	; 0x09
     402:	0f c0       	rjmp	.+30     	; 0x422 <colectThePopcorn+0x10a>
     404:	8a ef       	ldi	r24, 0xFA	; 250
     406:	90 e0       	ldi	r25, 0x00	; 0
     408:	9c 87       	std	Y+12, r25	; 0x0c
     40a:	8b 87       	std	Y+11, r24	; 0x0b
     40c:	8b 85       	ldd	r24, Y+11	; 0x0b
     40e:	9c 85       	ldd	r25, Y+12	; 0x0c
     410:	01 97       	sbiw	r24, 0x01	; 1
     412:	f1 f7       	brne	.-4      	; 0x410 <colectThePopcorn+0xf8>
     414:	9c 87       	std	Y+12, r25	; 0x0c
     416:	8b 87       	std	Y+11, r24	; 0x0b
     418:	89 85       	ldd	r24, Y+9	; 0x09
     41a:	9a 85       	ldd	r25, Y+10	; 0x0a
     41c:	01 97       	sbiw	r24, 0x01	; 1
     41e:	9a 87       	std	Y+10, r25	; 0x0a
     420:	89 87       	std	Y+9, r24	; 0x09
     422:	89 85       	ldd	r24, Y+9	; 0x09
     424:	9a 85       	ldd	r25, Y+10	; 0x0a
     426:	00 97       	sbiw	r24, 0x00	; 0
     428:	69 f7       	brne	.-38     	; 0x404 <colectThePopcorn+0xec>
     42a:	14 c0       	rjmp	.+40     	; 0x454 <colectThePopcorn+0x13c>
     42c:	6d 81       	ldd	r22, Y+5	; 0x05
     42e:	7e 81       	ldd	r23, Y+6	; 0x06
     430:	8f 81       	ldd	r24, Y+7	; 0x07
     432:	98 85       	ldd	r25, Y+8	; 0x08
     434:	0e 94 32 31 	call	0x6264	; 0x6264 <__fixunssfsi>
     438:	dc 01       	movw	r26, r24
     43a:	cb 01       	movw	r24, r22
     43c:	9a 87       	std	Y+10, r25	; 0x0a
     43e:	89 87       	std	Y+9, r24	; 0x09
     440:	89 85       	ldd	r24, Y+9	; 0x09
     442:	9a 85       	ldd	r25, Y+10	; 0x0a
     444:	9e 87       	std	Y+14, r25	; 0x0e
     446:	8d 87       	std	Y+13, r24	; 0x0d
     448:	8d 85       	ldd	r24, Y+13	; 0x0d
     44a:	9e 85       	ldd	r25, Y+14	; 0x0e
     44c:	01 97       	sbiw	r24, 0x01	; 1
     44e:	f1 f7       	brne	.-4      	; 0x44c <colectThePopcorn+0x134>
     450:	9e 87       	std	Y+14, r25	; 0x0e
     452:	8d 87       	std	Y+13, r24	; 0x0d
     454:	ce 01       	movw	r24, r28
     456:	89 5b       	subi	r24, 0xB9	; 185
     458:	9f 4f       	sbci	r25, 0xFF	; 255
     45a:	64 ed       	ldi	r22, 0xD4	; 212
     45c:	0e 94 6f 0b 	call	0x16de	; 0x16de <CAN_Write>
     460:	88 23       	and	r24, r24
     462:	09 f0       	breq	.+2      	; 0x466 <colectThePopcorn+0x14e>
     464:	85 cf       	rjmp	.-246    	; 0x370 <colectThePopcorn+0x58>
     466:	82 c0       	rjmp	.+260    	; 0x56c <colectThePopcorn+0x254>
     468:	ce 01       	movw	r24, r28
     46a:	89 5b       	subi	r24, 0xB9	; 185
     46c:	9f 4f       	sbci	r25, 0xFF	; 255
     46e:	2f ef       	ldi	r18, 0xFF	; 255
     470:	fc 01       	movw	r30, r24
     472:	21 83       	std	Z+1, r18	; 0x01
     474:	72 c0       	rjmp	.+228    	; 0x55a <colectThePopcorn+0x242>
     476:	80 e0       	ldi	r24, 0x00	; 0
     478:	90 e0       	ldi	r25, 0x00	; 0
     47a:	a8 e4       	ldi	r26, 0x48	; 72
     47c:	b2 e4       	ldi	r27, 0x42	; 66
     47e:	8f 87       	std	Y+15, r24	; 0x0f
     480:	98 8b       	std	Y+16, r25	; 0x10
     482:	a9 8b       	std	Y+17, r26	; 0x11
     484:	ba 8b       	std	Y+18, r27	; 0x12
     486:	20 e0       	ldi	r18, 0x00	; 0
     488:	30 e4       	ldi	r19, 0x40	; 64
     48a:	4c e1       	ldi	r20, 0x1C	; 28
     48c:	55 e4       	ldi	r21, 0x45	; 69
     48e:	6f 85       	ldd	r22, Y+15	; 0x0f
     490:	78 89       	ldd	r23, Y+16	; 0x10
     492:	89 89       	ldd	r24, Y+17	; 0x11
     494:	9a 89       	ldd	r25, Y+18	; 0x12
     496:	0e 94 52 32 	call	0x64a4	; 0x64a4 <__mulsf3>
     49a:	dc 01       	movw	r26, r24
     49c:	cb 01       	movw	r24, r22
     49e:	8b 8b       	std	Y+19, r24	; 0x13
     4a0:	9c 8b       	std	Y+20, r25	; 0x14
     4a2:	ad 8b       	std	Y+21, r26	; 0x15
     4a4:	be 8b       	std	Y+22, r27	; 0x16
     4a6:	20 e0       	ldi	r18, 0x00	; 0
     4a8:	30 e0       	ldi	r19, 0x00	; 0
     4aa:	40 e8       	ldi	r20, 0x80	; 128
     4ac:	5f e3       	ldi	r21, 0x3F	; 63
     4ae:	6b 89       	ldd	r22, Y+19	; 0x13
     4b0:	7c 89       	ldd	r23, Y+20	; 0x14
     4b2:	8d 89       	ldd	r24, Y+21	; 0x15
     4b4:	9e 89       	ldd	r25, Y+22	; 0x16
     4b6:	0e 94 c6 30 	call	0x618c	; 0x618c <__cmpsf2>
     4ba:	88 23       	and	r24, r24
     4bc:	2c f4       	brge	.+10     	; 0x4c8 <colectThePopcorn+0x1b0>
     4be:	81 e0       	ldi	r24, 0x01	; 1
     4c0:	90 e0       	ldi	r25, 0x00	; 0
     4c2:	98 8f       	std	Y+24, r25	; 0x18
     4c4:	8f 8b       	std	Y+23, r24	; 0x17
     4c6:	3f c0       	rjmp	.+126    	; 0x546 <colectThePopcorn+0x22e>
     4c8:	20 e0       	ldi	r18, 0x00	; 0
     4ca:	3f ef       	ldi	r19, 0xFF	; 255
     4cc:	4f e7       	ldi	r20, 0x7F	; 127
     4ce:	57 e4       	ldi	r21, 0x47	; 71
     4d0:	6b 89       	ldd	r22, Y+19	; 0x13
     4d2:	7c 89       	ldd	r23, Y+20	; 0x14
     4d4:	8d 89       	ldd	r24, Y+21	; 0x15
     4d6:	9e 89       	ldd	r25, Y+22	; 0x16
     4d8:	0e 94 4e 32 	call	0x649c	; 0x649c <__gesf2>
     4dc:	18 16       	cp	r1, r24
     4de:	4c f5       	brge	.+82     	; 0x532 <colectThePopcorn+0x21a>
     4e0:	20 e0       	ldi	r18, 0x00	; 0
     4e2:	30 e0       	ldi	r19, 0x00	; 0
     4e4:	40 e2       	ldi	r20, 0x20	; 32
     4e6:	51 e4       	ldi	r21, 0x41	; 65
     4e8:	6f 85       	ldd	r22, Y+15	; 0x0f
     4ea:	78 89       	ldd	r23, Y+16	; 0x10
     4ec:	89 89       	ldd	r24, Y+17	; 0x11
     4ee:	9a 89       	ldd	r25, Y+18	; 0x12
     4f0:	0e 94 52 32 	call	0x64a4	; 0x64a4 <__mulsf3>
     4f4:	dc 01       	movw	r26, r24
     4f6:	cb 01       	movw	r24, r22
     4f8:	bc 01       	movw	r22, r24
     4fa:	cd 01       	movw	r24, r26
     4fc:	0e 94 32 31 	call	0x6264	; 0x6264 <__fixunssfsi>
     500:	dc 01       	movw	r26, r24
     502:	cb 01       	movw	r24, r22
     504:	98 8f       	std	Y+24, r25	; 0x18
     506:	8f 8b       	std	Y+23, r24	; 0x17
     508:	0f c0       	rjmp	.+30     	; 0x528 <colectThePopcorn+0x210>
     50a:	8a ef       	ldi	r24, 0xFA	; 250
     50c:	90 e0       	ldi	r25, 0x00	; 0
     50e:	9a 8f       	std	Y+26, r25	; 0x1a
     510:	89 8f       	std	Y+25, r24	; 0x19
     512:	89 8d       	ldd	r24, Y+25	; 0x19
     514:	9a 8d       	ldd	r25, Y+26	; 0x1a
     516:	01 97       	sbiw	r24, 0x01	; 1
     518:	f1 f7       	brne	.-4      	; 0x516 <colectThePopcorn+0x1fe>
     51a:	9a 8f       	std	Y+26, r25	; 0x1a
     51c:	89 8f       	std	Y+25, r24	; 0x19
     51e:	8f 89       	ldd	r24, Y+23	; 0x17
     520:	98 8d       	ldd	r25, Y+24	; 0x18
     522:	01 97       	sbiw	r24, 0x01	; 1
     524:	98 8f       	std	Y+24, r25	; 0x18
     526:	8f 8b       	std	Y+23, r24	; 0x17
     528:	8f 89       	ldd	r24, Y+23	; 0x17
     52a:	98 8d       	ldd	r25, Y+24	; 0x18
     52c:	00 97       	sbiw	r24, 0x00	; 0
     52e:	69 f7       	brne	.-38     	; 0x50a <colectThePopcorn+0x1f2>
     530:	14 c0       	rjmp	.+40     	; 0x55a <colectThePopcorn+0x242>
     532:	6b 89       	ldd	r22, Y+19	; 0x13
     534:	7c 89       	ldd	r23, Y+20	; 0x14
     536:	8d 89       	ldd	r24, Y+21	; 0x15
     538:	9e 89       	ldd	r25, Y+22	; 0x16
     53a:	0e 94 32 31 	call	0x6264	; 0x6264 <__fixunssfsi>
     53e:	dc 01       	movw	r26, r24
     540:	cb 01       	movw	r24, r22
     542:	98 8f       	std	Y+24, r25	; 0x18
     544:	8f 8b       	std	Y+23, r24	; 0x17
     546:	8f 89       	ldd	r24, Y+23	; 0x17
     548:	98 8d       	ldd	r25, Y+24	; 0x18
     54a:	9c 8f       	std	Y+28, r25	; 0x1c
     54c:	8b 8f       	std	Y+27, r24	; 0x1b
     54e:	8b 8d       	ldd	r24, Y+27	; 0x1b
     550:	9c 8d       	ldd	r25, Y+28	; 0x1c
     552:	01 97       	sbiw	r24, 0x01	; 1
     554:	f1 f7       	brne	.-4      	; 0x552 <colectThePopcorn+0x23a>
     556:	9c 8f       	std	Y+28, r25	; 0x1c
     558:	8b 8f       	std	Y+27, r24	; 0x1b
     55a:	ce 01       	movw	r24, r28
     55c:	89 5b       	subi	r24, 0xB9	; 185
     55e:	9f 4f       	sbci	r25, 0xFF	; 255
     560:	64 ed       	ldi	r22, 0xD4	; 212
     562:	0e 94 6f 0b 	call	0x16de	; 0x16de <CAN_Write>
     566:	88 23       	and	r24, r24
     568:	09 f0       	breq	.+2      	; 0x56c <colectThePopcorn+0x254>
     56a:	85 cf       	rjmp	.-246    	; 0x476 <colectThePopcorn+0x15e>
     56c:	ce 01       	movw	r24, r28
     56e:	80 5b       	subi	r24, 0xB0	; 176
     570:	9f 4f       	sbci	r25, 0xFF	; 255
     572:	fc 01       	movw	r30, r24
     574:	80 81       	ld	r24, Z
     576:	81 30       	cpi	r24, 0x01	; 1
     578:	09 f0       	breq	.+2      	; 0x57c <colectThePopcorn+0x264>
     57a:	83 c0       	rjmp	.+262    	; 0x682 <colectThePopcorn+0x36a>
     57c:	ce 01       	movw	r24, r28
     57e:	89 5b       	subi	r24, 0xB9	; 185
     580:	9f 4f       	sbci	r25, 0xFF	; 255
     582:	21 e0       	ldi	r18, 0x01	; 1
     584:	fc 01       	movw	r30, r24
     586:	22 83       	std	Z+2, r18	; 0x02
     588:	72 c0       	rjmp	.+228    	; 0x66e <colectThePopcorn+0x356>
     58a:	80 e0       	ldi	r24, 0x00	; 0
     58c:	90 e0       	ldi	r25, 0x00	; 0
     58e:	a8 e4       	ldi	r26, 0x48	; 72
     590:	b2 e4       	ldi	r27, 0x42	; 66
     592:	8d 8f       	std	Y+29, r24	; 0x1d
     594:	9e 8f       	std	Y+30, r25	; 0x1e
     596:	af 8f       	std	Y+31, r26	; 0x1f
     598:	b8 a3       	std	Y+32, r27	; 0x20
     59a:	20 e0       	ldi	r18, 0x00	; 0
     59c:	30 e4       	ldi	r19, 0x40	; 64
     59e:	4c e1       	ldi	r20, 0x1C	; 28
     5a0:	55 e4       	ldi	r21, 0x45	; 69
     5a2:	6d 8d       	ldd	r22, Y+29	; 0x1d
     5a4:	7e 8d       	ldd	r23, Y+30	; 0x1e
     5a6:	8f 8d       	ldd	r24, Y+31	; 0x1f
     5a8:	98 a1       	ldd	r25, Y+32	; 0x20
     5aa:	0e 94 52 32 	call	0x64a4	; 0x64a4 <__mulsf3>
     5ae:	dc 01       	movw	r26, r24
     5b0:	cb 01       	movw	r24, r22
     5b2:	89 a3       	std	Y+33, r24	; 0x21
     5b4:	9a a3       	std	Y+34, r25	; 0x22
     5b6:	ab a3       	std	Y+35, r26	; 0x23
     5b8:	bc a3       	std	Y+36, r27	; 0x24
     5ba:	20 e0       	ldi	r18, 0x00	; 0
     5bc:	30 e0       	ldi	r19, 0x00	; 0
     5be:	40 e8       	ldi	r20, 0x80	; 128
     5c0:	5f e3       	ldi	r21, 0x3F	; 63
     5c2:	69 a1       	ldd	r22, Y+33	; 0x21
     5c4:	7a a1       	ldd	r23, Y+34	; 0x22
     5c6:	8b a1       	ldd	r24, Y+35	; 0x23
     5c8:	9c a1       	ldd	r25, Y+36	; 0x24
     5ca:	0e 94 c6 30 	call	0x618c	; 0x618c <__cmpsf2>
     5ce:	88 23       	and	r24, r24
     5d0:	2c f4       	brge	.+10     	; 0x5dc <colectThePopcorn+0x2c4>
     5d2:	81 e0       	ldi	r24, 0x01	; 1
     5d4:	90 e0       	ldi	r25, 0x00	; 0
     5d6:	9e a3       	std	Y+38, r25	; 0x26
     5d8:	8d a3       	std	Y+37, r24	; 0x25
     5da:	3f c0       	rjmp	.+126    	; 0x65a <colectThePopcorn+0x342>
     5dc:	20 e0       	ldi	r18, 0x00	; 0
     5de:	3f ef       	ldi	r19, 0xFF	; 255
     5e0:	4f e7       	ldi	r20, 0x7F	; 127
     5e2:	57 e4       	ldi	r21, 0x47	; 71
     5e4:	69 a1       	ldd	r22, Y+33	; 0x21
     5e6:	7a a1       	ldd	r23, Y+34	; 0x22
     5e8:	8b a1       	ldd	r24, Y+35	; 0x23
     5ea:	9c a1       	ldd	r25, Y+36	; 0x24
     5ec:	0e 94 4e 32 	call	0x649c	; 0x649c <__gesf2>
     5f0:	18 16       	cp	r1, r24
     5f2:	4c f5       	brge	.+82     	; 0x646 <colectThePopcorn+0x32e>
     5f4:	20 e0       	ldi	r18, 0x00	; 0
     5f6:	30 e0       	ldi	r19, 0x00	; 0
     5f8:	40 e2       	ldi	r20, 0x20	; 32
     5fa:	51 e4       	ldi	r21, 0x41	; 65
     5fc:	6d 8d       	ldd	r22, Y+29	; 0x1d
     5fe:	7e 8d       	ldd	r23, Y+30	; 0x1e
     600:	8f 8d       	ldd	r24, Y+31	; 0x1f
     602:	98 a1       	ldd	r25, Y+32	; 0x20
     604:	0e 94 52 32 	call	0x64a4	; 0x64a4 <__mulsf3>
     608:	dc 01       	movw	r26, r24
     60a:	cb 01       	movw	r24, r22
     60c:	bc 01       	movw	r22, r24
     60e:	cd 01       	movw	r24, r26
     610:	0e 94 32 31 	call	0x6264	; 0x6264 <__fixunssfsi>
     614:	dc 01       	movw	r26, r24
     616:	cb 01       	movw	r24, r22
     618:	9e a3       	std	Y+38, r25	; 0x26
     61a:	8d a3       	std	Y+37, r24	; 0x25
     61c:	0f c0       	rjmp	.+30     	; 0x63c <colectThePopcorn+0x324>
     61e:	8a ef       	ldi	r24, 0xFA	; 250
     620:	90 e0       	ldi	r25, 0x00	; 0
     622:	98 a7       	std	Y+40, r25	; 0x28
     624:	8f a3       	std	Y+39, r24	; 0x27
     626:	8f a1       	ldd	r24, Y+39	; 0x27
     628:	98 a5       	ldd	r25, Y+40	; 0x28
     62a:	01 97       	sbiw	r24, 0x01	; 1
     62c:	f1 f7       	brne	.-4      	; 0x62a <colectThePopcorn+0x312>
     62e:	98 a7       	std	Y+40, r25	; 0x28
     630:	8f a3       	std	Y+39, r24	; 0x27
     632:	8d a1       	ldd	r24, Y+37	; 0x25
     634:	9e a1       	ldd	r25, Y+38	; 0x26
     636:	01 97       	sbiw	r24, 0x01	; 1
     638:	9e a3       	std	Y+38, r25	; 0x26
     63a:	8d a3       	std	Y+37, r24	; 0x25
     63c:	8d a1       	ldd	r24, Y+37	; 0x25
     63e:	9e a1       	ldd	r25, Y+38	; 0x26
     640:	00 97       	sbiw	r24, 0x00	; 0
     642:	69 f7       	brne	.-38     	; 0x61e <colectThePopcorn+0x306>
     644:	14 c0       	rjmp	.+40     	; 0x66e <colectThePopcorn+0x356>
     646:	69 a1       	ldd	r22, Y+33	; 0x21
     648:	7a a1       	ldd	r23, Y+34	; 0x22
     64a:	8b a1       	ldd	r24, Y+35	; 0x23
     64c:	9c a1       	ldd	r25, Y+36	; 0x24
     64e:	0e 94 32 31 	call	0x6264	; 0x6264 <__fixunssfsi>
     652:	dc 01       	movw	r26, r24
     654:	cb 01       	movw	r24, r22
     656:	9e a3       	std	Y+38, r25	; 0x26
     658:	8d a3       	std	Y+37, r24	; 0x25
     65a:	8d a1       	ldd	r24, Y+37	; 0x25
     65c:	9e a1       	ldd	r25, Y+38	; 0x26
     65e:	9a a7       	std	Y+42, r25	; 0x2a
     660:	89 a7       	std	Y+41, r24	; 0x29
     662:	89 a5       	ldd	r24, Y+41	; 0x29
     664:	9a a5       	ldd	r25, Y+42	; 0x2a
     666:	01 97       	sbiw	r24, 0x01	; 1
     668:	f1 f7       	brne	.-4      	; 0x666 <colectThePopcorn+0x34e>
     66a:	9a a7       	std	Y+42, r25	; 0x2a
     66c:	89 a7       	std	Y+41, r24	; 0x29
     66e:	ce 01       	movw	r24, r28
     670:	89 5b       	subi	r24, 0xB9	; 185
     672:	9f 4f       	sbci	r25, 0xFF	; 255
     674:	64 ed       	ldi	r22, 0xD4	; 212
     676:	0e 94 6f 0b 	call	0x16de	; 0x16de <CAN_Write>
     67a:	88 23       	and	r24, r24
     67c:	09 f0       	breq	.+2      	; 0x680 <colectThePopcorn+0x368>
     67e:	85 cf       	rjmp	.-246    	; 0x58a <colectThePopcorn+0x272>
     680:	56 c1       	rjmp	.+684    	; 0x92e <colectThePopcorn+0x616>
     682:	ce 01       	movw	r24, r28
     684:	80 5b       	subi	r24, 0xB0	; 176
     686:	9f 4f       	sbci	r25, 0xFF	; 255
     688:	fc 01       	movw	r30, r24
     68a:	80 81       	ld	r24, Z
     68c:	8f 3f       	cpi	r24, 0xFF	; 255
     68e:	09 f0       	breq	.+2      	; 0x692 <colectThePopcorn+0x37a>
     690:	82 c0       	rjmp	.+260    	; 0x796 <colectThePopcorn+0x47e>
     692:	ce 01       	movw	r24, r28
     694:	89 5b       	subi	r24, 0xB9	; 185
     696:	9f 4f       	sbci	r25, 0xFF	; 255
     698:	2f ef       	ldi	r18, 0xFF	; 255
     69a:	fc 01       	movw	r30, r24
     69c:	22 83       	std	Z+2, r18	; 0x02
     69e:	72 c0       	rjmp	.+228    	; 0x784 <colectThePopcorn+0x46c>
     6a0:	80 e0       	ldi	r24, 0x00	; 0
     6a2:	90 e0       	ldi	r25, 0x00	; 0
     6a4:	a8 e4       	ldi	r26, 0x48	; 72
     6a6:	b2 e4       	ldi	r27, 0x42	; 66
     6a8:	8b a7       	std	Y+43, r24	; 0x2b
     6aa:	9c a7       	std	Y+44, r25	; 0x2c
     6ac:	ad a7       	std	Y+45, r26	; 0x2d
     6ae:	be a7       	std	Y+46, r27	; 0x2e
     6b0:	20 e0       	ldi	r18, 0x00	; 0
     6b2:	30 e4       	ldi	r19, 0x40	; 64
     6b4:	4c e1       	ldi	r20, 0x1C	; 28
     6b6:	55 e4       	ldi	r21, 0x45	; 69
     6b8:	6b a5       	ldd	r22, Y+43	; 0x2b
     6ba:	7c a5       	ldd	r23, Y+44	; 0x2c
     6bc:	8d a5       	ldd	r24, Y+45	; 0x2d
     6be:	9e a5       	ldd	r25, Y+46	; 0x2e
     6c0:	0e 94 52 32 	call	0x64a4	; 0x64a4 <__mulsf3>
     6c4:	dc 01       	movw	r26, r24
     6c6:	cb 01       	movw	r24, r22
     6c8:	8f a7       	std	Y+47, r24	; 0x2f
     6ca:	98 ab       	std	Y+48, r25	; 0x30
     6cc:	a9 ab       	std	Y+49, r26	; 0x31
     6ce:	ba ab       	std	Y+50, r27	; 0x32
     6d0:	20 e0       	ldi	r18, 0x00	; 0
     6d2:	30 e0       	ldi	r19, 0x00	; 0
     6d4:	40 e8       	ldi	r20, 0x80	; 128
     6d6:	5f e3       	ldi	r21, 0x3F	; 63
     6d8:	6f a5       	ldd	r22, Y+47	; 0x2f
     6da:	78 a9       	ldd	r23, Y+48	; 0x30
     6dc:	89 a9       	ldd	r24, Y+49	; 0x31
     6de:	9a a9       	ldd	r25, Y+50	; 0x32
     6e0:	0e 94 c6 30 	call	0x618c	; 0x618c <__cmpsf2>
     6e4:	88 23       	and	r24, r24
     6e6:	2c f4       	brge	.+10     	; 0x6f2 <colectThePopcorn+0x3da>
     6e8:	81 e0       	ldi	r24, 0x01	; 1
     6ea:	90 e0       	ldi	r25, 0x00	; 0
     6ec:	9c ab       	std	Y+52, r25	; 0x34
     6ee:	8b ab       	std	Y+51, r24	; 0x33
     6f0:	3f c0       	rjmp	.+126    	; 0x770 <colectThePopcorn+0x458>
     6f2:	20 e0       	ldi	r18, 0x00	; 0
     6f4:	3f ef       	ldi	r19, 0xFF	; 255
     6f6:	4f e7       	ldi	r20, 0x7F	; 127
     6f8:	57 e4       	ldi	r21, 0x47	; 71
     6fa:	6f a5       	ldd	r22, Y+47	; 0x2f
     6fc:	78 a9       	ldd	r23, Y+48	; 0x30
     6fe:	89 a9       	ldd	r24, Y+49	; 0x31
     700:	9a a9       	ldd	r25, Y+50	; 0x32
     702:	0e 94 4e 32 	call	0x649c	; 0x649c <__gesf2>
     706:	18 16       	cp	r1, r24
     708:	4c f5       	brge	.+82     	; 0x75c <colectThePopcorn+0x444>
     70a:	20 e0       	ldi	r18, 0x00	; 0
     70c:	30 e0       	ldi	r19, 0x00	; 0
     70e:	40 e2       	ldi	r20, 0x20	; 32
     710:	51 e4       	ldi	r21, 0x41	; 65
     712:	6b a5       	ldd	r22, Y+43	; 0x2b
     714:	7c a5       	ldd	r23, Y+44	; 0x2c
     716:	8d a5       	ldd	r24, Y+45	; 0x2d
     718:	9e a5       	ldd	r25, Y+46	; 0x2e
     71a:	0e 94 52 32 	call	0x64a4	; 0x64a4 <__mulsf3>
     71e:	dc 01       	movw	r26, r24
     720:	cb 01       	movw	r24, r22
     722:	bc 01       	movw	r22, r24
     724:	cd 01       	movw	r24, r26
     726:	0e 94 32 31 	call	0x6264	; 0x6264 <__fixunssfsi>
     72a:	dc 01       	movw	r26, r24
     72c:	cb 01       	movw	r24, r22
     72e:	9c ab       	std	Y+52, r25	; 0x34
     730:	8b ab       	std	Y+51, r24	; 0x33
     732:	0f c0       	rjmp	.+30     	; 0x752 <colectThePopcorn+0x43a>
     734:	8a ef       	ldi	r24, 0xFA	; 250
     736:	90 e0       	ldi	r25, 0x00	; 0
     738:	9e ab       	std	Y+54, r25	; 0x36
     73a:	8d ab       	std	Y+53, r24	; 0x35
     73c:	8d a9       	ldd	r24, Y+53	; 0x35
     73e:	9e a9       	ldd	r25, Y+54	; 0x36
     740:	01 97       	sbiw	r24, 0x01	; 1
     742:	f1 f7       	brne	.-4      	; 0x740 <colectThePopcorn+0x428>
     744:	9e ab       	std	Y+54, r25	; 0x36
     746:	8d ab       	std	Y+53, r24	; 0x35
     748:	8b a9       	ldd	r24, Y+51	; 0x33
     74a:	9c a9       	ldd	r25, Y+52	; 0x34
     74c:	01 97       	sbiw	r24, 0x01	; 1
     74e:	9c ab       	std	Y+52, r25	; 0x34
     750:	8b ab       	std	Y+51, r24	; 0x33
     752:	8b a9       	ldd	r24, Y+51	; 0x33
     754:	9c a9       	ldd	r25, Y+52	; 0x34
     756:	00 97       	sbiw	r24, 0x00	; 0
     758:	69 f7       	brne	.-38     	; 0x734 <colectThePopcorn+0x41c>
     75a:	14 c0       	rjmp	.+40     	; 0x784 <colectThePopcorn+0x46c>
     75c:	6f a5       	ldd	r22, Y+47	; 0x2f
     75e:	78 a9       	ldd	r23, Y+48	; 0x30
     760:	89 a9       	ldd	r24, Y+49	; 0x31
     762:	9a a9       	ldd	r25, Y+50	; 0x32
     764:	0e 94 32 31 	call	0x6264	; 0x6264 <__fixunssfsi>
     768:	dc 01       	movw	r26, r24
     76a:	cb 01       	movw	r24, r22
     76c:	9c ab       	std	Y+52, r25	; 0x34
     76e:	8b ab       	std	Y+51, r24	; 0x33
     770:	8b a9       	ldd	r24, Y+51	; 0x33
     772:	9c a9       	ldd	r25, Y+52	; 0x34
     774:	98 af       	std	Y+56, r25	; 0x38
     776:	8f ab       	std	Y+55, r24	; 0x37
     778:	8f a9       	ldd	r24, Y+55	; 0x37
     77a:	98 ad       	ldd	r25, Y+56	; 0x38
     77c:	01 97       	sbiw	r24, 0x01	; 1
     77e:	f1 f7       	brne	.-4      	; 0x77c <colectThePopcorn+0x464>
     780:	98 af       	std	Y+56, r25	; 0x38
     782:	8f ab       	std	Y+55, r24	; 0x37
     784:	ce 01       	movw	r24, r28
     786:	89 5b       	subi	r24, 0xB9	; 185
     788:	9f 4f       	sbci	r25, 0xFF	; 255
     78a:	64 ed       	ldi	r22, 0xD4	; 212
     78c:	a8 d7       	rcall	.+3920   	; 0x16de <CAN_Write>
     78e:	88 23       	and	r24, r24
     790:	09 f0       	breq	.+2      	; 0x794 <colectThePopcorn+0x47c>
     792:	86 cf       	rjmp	.-244    	; 0x6a0 <colectThePopcorn+0x388>
     794:	cc c0       	rjmp	.+408    	; 0x92e <colectThePopcorn+0x616>
     796:	ce 01       	movw	r24, r28
     798:	80 5b       	subi	r24, 0xB0	; 176
     79a:	9f 4f       	sbci	r25, 0xFF	; 255
     79c:	fc 01       	movw	r30, r24
     79e:	80 81       	ld	r24, Z
     7a0:	82 30       	cpi	r24, 0x02	; 2
     7a2:	09 f0       	breq	.+2      	; 0x7a6 <colectThePopcorn+0x48e>
     7a4:	c4 c0       	rjmp	.+392    	; 0x92e <colectThePopcorn+0x616>
     7a6:	ce 01       	movw	r24, r28
     7a8:	89 5b       	subi	r24, 0xB9	; 185
     7aa:	9f 4f       	sbci	r25, 0xFF	; 255
     7ac:	22 e0       	ldi	r18, 0x02	; 2
     7ae:	fc 01       	movw	r30, r24
     7b0:	22 83       	std	Z+2, r18	; 0x02
     7b2:	b5 c0       	rjmp	.+362    	; 0x91e <colectThePopcorn+0x606>
     7b4:	80 e0       	ldi	r24, 0x00	; 0
     7b6:	90 e0       	ldi	r25, 0x00	; 0
     7b8:	a8 e4       	ldi	r26, 0x48	; 72
     7ba:	b2 e4       	ldi	r27, 0x42	; 66
     7bc:	89 af       	std	Y+57, r24	; 0x39
     7be:	9a af       	std	Y+58, r25	; 0x3a
     7c0:	ab af       	std	Y+59, r26	; 0x3b
     7c2:	bc af       	std	Y+60, r27	; 0x3c
     7c4:	20 e0       	ldi	r18, 0x00	; 0
     7c6:	30 e4       	ldi	r19, 0x40	; 64
     7c8:	4c e1       	ldi	r20, 0x1C	; 28
     7ca:	55 e4       	ldi	r21, 0x45	; 69
     7cc:	69 ad       	ldd	r22, Y+57	; 0x39
     7ce:	7a ad       	ldd	r23, Y+58	; 0x3a
     7d0:	8b ad       	ldd	r24, Y+59	; 0x3b
     7d2:	9c ad       	ldd	r25, Y+60	; 0x3c
     7d4:	0e 94 52 32 	call	0x64a4	; 0x64a4 <__mulsf3>
     7d8:	dc 01       	movw	r26, r24
     7da:	cb 01       	movw	r24, r22
     7dc:	9e 01       	movw	r18, r28
     7de:	23 5c       	subi	r18, 0xC3	; 195
     7e0:	3f 4f       	sbci	r19, 0xFF	; 255
     7e2:	f9 01       	movw	r30, r18
     7e4:	80 83       	st	Z, r24
     7e6:	91 83       	std	Z+1, r25	; 0x01
     7e8:	a2 83       	std	Z+2, r26	; 0x02
     7ea:	b3 83       	std	Z+3, r27	; 0x03
     7ec:	20 e0       	ldi	r18, 0x00	; 0
     7ee:	30 e0       	ldi	r19, 0x00	; 0
     7f0:	40 e8       	ldi	r20, 0x80	; 128
     7f2:	5f e3       	ldi	r21, 0x3F	; 63
     7f4:	ce 01       	movw	r24, r28
     7f6:	cd 96       	adiw	r24, 0x3d	; 61
     7f8:	fc 01       	movw	r30, r24
     7fa:	60 81       	ld	r22, Z
     7fc:	71 81       	ldd	r23, Z+1	; 0x01
     7fe:	82 81       	ldd	r24, Z+2	; 0x02
     800:	93 81       	ldd	r25, Z+3	; 0x03
     802:	0e 94 c6 30 	call	0x618c	; 0x618c <__cmpsf2>
     806:	88 23       	and	r24, r24
     808:	4c f4       	brge	.+18     	; 0x81c <colectThePopcorn+0x504>
     80a:	ce 01       	movw	r24, r28
     80c:	8f 5b       	subi	r24, 0xBF	; 191
     80e:	9f 4f       	sbci	r25, 0xFF	; 255
     810:	21 e0       	ldi	r18, 0x01	; 1
     812:	30 e0       	ldi	r19, 0x00	; 0
     814:	fc 01       	movw	r30, r24
     816:	31 83       	std	Z+1, r19	; 0x01
     818:	20 83       	st	Z, r18
     81a:	67 c0       	rjmp	.+206    	; 0x8ea <colectThePopcorn+0x5d2>
     81c:	20 e0       	ldi	r18, 0x00	; 0
     81e:	3f ef       	ldi	r19, 0xFF	; 255
     820:	4f e7       	ldi	r20, 0x7F	; 127
     822:	57 e4       	ldi	r21, 0x47	; 71
     824:	ce 01       	movw	r24, r28
     826:	cd 96       	adiw	r24, 0x3d	; 61
     828:	fc 01       	movw	r30, r24
     82a:	60 81       	ld	r22, Z
     82c:	71 81       	ldd	r23, Z+1	; 0x01
     82e:	82 81       	ldd	r24, Z+2	; 0x02
     830:	93 81       	ldd	r25, Z+3	; 0x03
     832:	0e 94 4e 32 	call	0x649c	; 0x649c <__gesf2>
     836:	18 16       	cp	r1, r24
     838:	0c f0       	brlt	.+2      	; 0x83c <colectThePopcorn+0x524>
     83a:	46 c0       	rjmp	.+140    	; 0x8c8 <colectThePopcorn+0x5b0>
     83c:	20 e0       	ldi	r18, 0x00	; 0
     83e:	30 e0       	ldi	r19, 0x00	; 0
     840:	40 e2       	ldi	r20, 0x20	; 32
     842:	51 e4       	ldi	r21, 0x41	; 65
     844:	69 ad       	ldd	r22, Y+57	; 0x39
     846:	7a ad       	ldd	r23, Y+58	; 0x3a
     848:	8b ad       	ldd	r24, Y+59	; 0x3b
     84a:	9c ad       	ldd	r25, Y+60	; 0x3c
     84c:	0e 94 52 32 	call	0x64a4	; 0x64a4 <__mulsf3>
     850:	dc 01       	movw	r26, r24
     852:	cb 01       	movw	r24, r22
     854:	8e 01       	movw	r16, r28
     856:	0f 5b       	subi	r16, 0xBF	; 191
     858:	1f 4f       	sbci	r17, 0xFF	; 255
     85a:	bc 01       	movw	r22, r24
     85c:	cd 01       	movw	r24, r26
     85e:	0e 94 32 31 	call	0x6264	; 0x6264 <__fixunssfsi>
     862:	dc 01       	movw	r26, r24
     864:	cb 01       	movw	r24, r22
     866:	f8 01       	movw	r30, r16
     868:	91 83       	std	Z+1, r25	; 0x01
     86a:	80 83       	st	Z, r24
     86c:	24 c0       	rjmp	.+72     	; 0x8b6 <colectThePopcorn+0x59e>
     86e:	ce 01       	movw	r24, r28
     870:	8d 5b       	subi	r24, 0xBD	; 189
     872:	9f 4f       	sbci	r25, 0xFF	; 255
     874:	2a ef       	ldi	r18, 0xFA	; 250
     876:	30 e0       	ldi	r19, 0x00	; 0
     878:	fc 01       	movw	r30, r24
     87a:	31 83       	std	Z+1, r19	; 0x01
     87c:	20 83       	st	Z, r18
     87e:	ce 01       	movw	r24, r28
     880:	8d 5b       	subi	r24, 0xBD	; 189
     882:	9f 4f       	sbci	r25, 0xFF	; 255
     884:	fc 01       	movw	r30, r24
     886:	80 81       	ld	r24, Z
     888:	91 81       	ldd	r25, Z+1	; 0x01
     88a:	01 97       	sbiw	r24, 0x01	; 1
     88c:	f1 f7       	brne	.-4      	; 0x88a <colectThePopcorn+0x572>
     88e:	9e 01       	movw	r18, r28
     890:	2d 5b       	subi	r18, 0xBD	; 189
     892:	3f 4f       	sbci	r19, 0xFF	; 255
     894:	f9 01       	movw	r30, r18
     896:	91 83       	std	Z+1, r25	; 0x01
     898:	80 83       	st	Z, r24
     89a:	ce 01       	movw	r24, r28
     89c:	8f 5b       	subi	r24, 0xBF	; 191
     89e:	9f 4f       	sbci	r25, 0xFF	; 255
     8a0:	9e 01       	movw	r18, r28
     8a2:	2f 5b       	subi	r18, 0xBF	; 191
     8a4:	3f 4f       	sbci	r19, 0xFF	; 255
     8a6:	f9 01       	movw	r30, r18
     8a8:	20 81       	ld	r18, Z
     8aa:	31 81       	ldd	r19, Z+1	; 0x01
     8ac:	21 50       	subi	r18, 0x01	; 1
     8ae:	31 09       	sbc	r19, r1
     8b0:	fc 01       	movw	r30, r24
     8b2:	31 83       	std	Z+1, r19	; 0x01
     8b4:	20 83       	st	Z, r18
     8b6:	ce 01       	movw	r24, r28
     8b8:	8f 5b       	subi	r24, 0xBF	; 191
     8ba:	9f 4f       	sbci	r25, 0xFF	; 255
     8bc:	fc 01       	movw	r30, r24
     8be:	80 81       	ld	r24, Z
     8c0:	91 81       	ldd	r25, Z+1	; 0x01
     8c2:	00 97       	sbiw	r24, 0x00	; 0
     8c4:	a1 f6       	brne	.-88     	; 0x86e <colectThePopcorn+0x556>
     8c6:	2b c0       	rjmp	.+86     	; 0x91e <colectThePopcorn+0x606>
     8c8:	8e 01       	movw	r16, r28
     8ca:	0f 5b       	subi	r16, 0xBF	; 191
     8cc:	1f 4f       	sbci	r17, 0xFF	; 255
     8ce:	ce 01       	movw	r24, r28
     8d0:	cd 96       	adiw	r24, 0x3d	; 61
     8d2:	fc 01       	movw	r30, r24
     8d4:	60 81       	ld	r22, Z
     8d6:	71 81       	ldd	r23, Z+1	; 0x01
     8d8:	82 81       	ldd	r24, Z+2	; 0x02
     8da:	93 81       	ldd	r25, Z+3	; 0x03
     8dc:	0e 94 32 31 	call	0x6264	; 0x6264 <__fixunssfsi>
     8e0:	dc 01       	movw	r26, r24
     8e2:	cb 01       	movw	r24, r22
     8e4:	f8 01       	movw	r30, r16
     8e6:	91 83       	std	Z+1, r25	; 0x01
     8e8:	80 83       	st	Z, r24
     8ea:	ce 01       	movw	r24, r28
     8ec:	8b 5b       	subi	r24, 0xBB	; 187
     8ee:	9f 4f       	sbci	r25, 0xFF	; 255
     8f0:	9e 01       	movw	r18, r28
     8f2:	2f 5b       	subi	r18, 0xBF	; 191
     8f4:	3f 4f       	sbci	r19, 0xFF	; 255
     8f6:	f9 01       	movw	r30, r18
     8f8:	20 81       	ld	r18, Z
     8fa:	31 81       	ldd	r19, Z+1	; 0x01
     8fc:	fc 01       	movw	r30, r24
     8fe:	31 83       	std	Z+1, r19	; 0x01
     900:	20 83       	st	Z, r18
     902:	ce 01       	movw	r24, r28
     904:	8b 5b       	subi	r24, 0xBB	; 187
     906:	9f 4f       	sbci	r25, 0xFF	; 255
     908:	fc 01       	movw	r30, r24
     90a:	80 81       	ld	r24, Z
     90c:	91 81       	ldd	r25, Z+1	; 0x01
     90e:	01 97       	sbiw	r24, 0x01	; 1
     910:	f1 f7       	brne	.-4      	; 0x90e <colectThePopcorn+0x5f6>
     912:	9e 01       	movw	r18, r28
     914:	2b 5b       	subi	r18, 0xBB	; 187
     916:	3f 4f       	sbci	r19, 0xFF	; 255
     918:	f9 01       	movw	r30, r18
     91a:	91 83       	std	Z+1, r25	; 0x01
     91c:	80 83       	st	Z, r24
     91e:	ce 01       	movw	r24, r28
     920:	89 5b       	subi	r24, 0xB9	; 185
     922:	9f 4f       	sbci	r25, 0xFF	; 255
     924:	64 ed       	ldi	r22, 0xD4	; 212
     926:	db d6       	rcall	.+3510   	; 0x16de <CAN_Write>
     928:	88 23       	and	r24, r24
     92a:	09 f0       	breq	.+2      	; 0x92e <colectThePopcorn+0x616>
     92c:	43 cf       	rjmp	.-378    	; 0x7b4 <colectThePopcorn+0x49c>
     92e:	c0 5b       	subi	r28, 0xB0	; 176
     930:	df 4f       	sbci	r29, 0xFF	; 255
     932:	0f b6       	in	r0, 0x3f	; 63
     934:	f8 94       	cli
     936:	de bf       	out	0x3e, r29	; 62
     938:	0f be       	out	0x3f, r0	; 63
     93a:	cd bf       	out	0x3d, r28	; 61
     93c:	df 91       	pop	r29
     93e:	cf 91       	pop	r28
     940:	1f 91       	pop	r17
     942:	0f 91       	pop	r16
     944:	08 95       	ret

00000946 <leftDiafram>:
     946:	cf 93       	push	r28
     948:	df 93       	push	r29
     94a:	cd b7       	in	r28, 0x3d	; 61
     94c:	de b7       	in	r29, 0x3e	; 62
     94e:	a5 97       	sbiw	r28, 0x25	; 37
     950:	0f b6       	in	r0, 0x3f	; 63
     952:	f8 94       	cli
     954:	de bf       	out	0x3e, r29	; 62
     956:	0f be       	out	0x3f, r0	; 63
     958:	cd bf       	out	0x3d, r28	; 61
     95a:	8d a3       	std	Y+37, r24	; 0x25
     95c:	83 e4       	ldi	r24, 0x43	; 67
     95e:	8d 8f       	std	Y+29, r24	; 0x1d
     960:	8d a1       	ldd	r24, Y+37	; 0x25
     962:	81 30       	cpi	r24, 0x01	; 1
     964:	09 f0       	breq	.+2      	; 0x968 <leftDiafram+0x22>
     966:	7d c0       	rjmp	.+250    	; 0xa62 <leftDiafram+0x11c>
     968:	81 e0       	ldi	r24, 0x01	; 1
     96a:	8e 8f       	std	Y+30, r24	; 0x1e
     96c:	72 c0       	rjmp	.+228    	; 0xa52 <leftDiafram+0x10c>
     96e:	80 e0       	ldi	r24, 0x00	; 0
     970:	90 e0       	ldi	r25, 0x00	; 0
     972:	a8 e4       	ldi	r26, 0x48	; 72
     974:	b2 e4       	ldi	r27, 0x42	; 66
     976:	89 83       	std	Y+1, r24	; 0x01
     978:	9a 83       	std	Y+2, r25	; 0x02
     97a:	ab 83       	std	Y+3, r26	; 0x03
     97c:	bc 83       	std	Y+4, r27	; 0x04
     97e:	20 e0       	ldi	r18, 0x00	; 0
     980:	30 e4       	ldi	r19, 0x40	; 64
     982:	4c e1       	ldi	r20, 0x1C	; 28
     984:	55 e4       	ldi	r21, 0x45	; 69
     986:	69 81       	ldd	r22, Y+1	; 0x01
     988:	7a 81       	ldd	r23, Y+2	; 0x02
     98a:	8b 81       	ldd	r24, Y+3	; 0x03
     98c:	9c 81       	ldd	r25, Y+4	; 0x04
     98e:	0e 94 52 32 	call	0x64a4	; 0x64a4 <__mulsf3>
     992:	dc 01       	movw	r26, r24
     994:	cb 01       	movw	r24, r22
     996:	8d 83       	std	Y+5, r24	; 0x05
     998:	9e 83       	std	Y+6, r25	; 0x06
     99a:	af 83       	std	Y+7, r26	; 0x07
     99c:	b8 87       	std	Y+8, r27	; 0x08
     99e:	20 e0       	ldi	r18, 0x00	; 0
     9a0:	30 e0       	ldi	r19, 0x00	; 0
     9a2:	40 e8       	ldi	r20, 0x80	; 128
     9a4:	5f e3       	ldi	r21, 0x3F	; 63
     9a6:	6d 81       	ldd	r22, Y+5	; 0x05
     9a8:	7e 81       	ldd	r23, Y+6	; 0x06
     9aa:	8f 81       	ldd	r24, Y+7	; 0x07
     9ac:	98 85       	ldd	r25, Y+8	; 0x08
     9ae:	0e 94 c6 30 	call	0x618c	; 0x618c <__cmpsf2>
     9b2:	88 23       	and	r24, r24
     9b4:	2c f4       	brge	.+10     	; 0x9c0 <leftDiafram+0x7a>
     9b6:	81 e0       	ldi	r24, 0x01	; 1
     9b8:	90 e0       	ldi	r25, 0x00	; 0
     9ba:	9a 87       	std	Y+10, r25	; 0x0a
     9bc:	89 87       	std	Y+9, r24	; 0x09
     9be:	3f c0       	rjmp	.+126    	; 0xa3e <leftDiafram+0xf8>
     9c0:	20 e0       	ldi	r18, 0x00	; 0
     9c2:	3f ef       	ldi	r19, 0xFF	; 255
     9c4:	4f e7       	ldi	r20, 0x7F	; 127
     9c6:	57 e4       	ldi	r21, 0x47	; 71
     9c8:	6d 81       	ldd	r22, Y+5	; 0x05
     9ca:	7e 81       	ldd	r23, Y+6	; 0x06
     9cc:	8f 81       	ldd	r24, Y+7	; 0x07
     9ce:	98 85       	ldd	r25, Y+8	; 0x08
     9d0:	0e 94 4e 32 	call	0x649c	; 0x649c <__gesf2>
     9d4:	18 16       	cp	r1, r24
     9d6:	4c f5       	brge	.+82     	; 0xa2a <leftDiafram+0xe4>
     9d8:	20 e0       	ldi	r18, 0x00	; 0
     9da:	30 e0       	ldi	r19, 0x00	; 0
     9dc:	40 e2       	ldi	r20, 0x20	; 32
     9de:	51 e4       	ldi	r21, 0x41	; 65
     9e0:	69 81       	ldd	r22, Y+1	; 0x01
     9e2:	7a 81       	ldd	r23, Y+2	; 0x02
     9e4:	8b 81       	ldd	r24, Y+3	; 0x03
     9e6:	9c 81       	ldd	r25, Y+4	; 0x04
     9e8:	0e 94 52 32 	call	0x64a4	; 0x64a4 <__mulsf3>
     9ec:	dc 01       	movw	r26, r24
     9ee:	cb 01       	movw	r24, r22
     9f0:	bc 01       	movw	r22, r24
     9f2:	cd 01       	movw	r24, r26
     9f4:	0e 94 32 31 	call	0x6264	; 0x6264 <__fixunssfsi>
     9f8:	dc 01       	movw	r26, r24
     9fa:	cb 01       	movw	r24, r22
     9fc:	9a 87       	std	Y+10, r25	; 0x0a
     9fe:	89 87       	std	Y+9, r24	; 0x09
     a00:	0f c0       	rjmp	.+30     	; 0xa20 <leftDiafram+0xda>
     a02:	8a ef       	ldi	r24, 0xFA	; 250
     a04:	90 e0       	ldi	r25, 0x00	; 0
     a06:	9c 87       	std	Y+12, r25	; 0x0c
     a08:	8b 87       	std	Y+11, r24	; 0x0b
     a0a:	8b 85       	ldd	r24, Y+11	; 0x0b
     a0c:	9c 85       	ldd	r25, Y+12	; 0x0c
     a0e:	01 97       	sbiw	r24, 0x01	; 1
     a10:	f1 f7       	brne	.-4      	; 0xa0e <leftDiafram+0xc8>
     a12:	9c 87       	std	Y+12, r25	; 0x0c
     a14:	8b 87       	std	Y+11, r24	; 0x0b
     a16:	89 85       	ldd	r24, Y+9	; 0x09
     a18:	9a 85       	ldd	r25, Y+10	; 0x0a
     a1a:	01 97       	sbiw	r24, 0x01	; 1
     a1c:	9a 87       	std	Y+10, r25	; 0x0a
     a1e:	89 87       	std	Y+9, r24	; 0x09
     a20:	89 85       	ldd	r24, Y+9	; 0x09
     a22:	9a 85       	ldd	r25, Y+10	; 0x0a
     a24:	00 97       	sbiw	r24, 0x00	; 0
     a26:	69 f7       	brne	.-38     	; 0xa02 <leftDiafram+0xbc>
     a28:	14 c0       	rjmp	.+40     	; 0xa52 <leftDiafram+0x10c>
     a2a:	6d 81       	ldd	r22, Y+5	; 0x05
     a2c:	7e 81       	ldd	r23, Y+6	; 0x06
     a2e:	8f 81       	ldd	r24, Y+7	; 0x07
     a30:	98 85       	ldd	r25, Y+8	; 0x08
     a32:	0e 94 32 31 	call	0x6264	; 0x6264 <__fixunssfsi>
     a36:	dc 01       	movw	r26, r24
     a38:	cb 01       	movw	r24, r22
     a3a:	9a 87       	std	Y+10, r25	; 0x0a
     a3c:	89 87       	std	Y+9, r24	; 0x09
     a3e:	89 85       	ldd	r24, Y+9	; 0x09
     a40:	9a 85       	ldd	r25, Y+10	; 0x0a
     a42:	9e 87       	std	Y+14, r25	; 0x0e
     a44:	8d 87       	std	Y+13, r24	; 0x0d
     a46:	8d 85       	ldd	r24, Y+13	; 0x0d
     a48:	9e 85       	ldd	r25, Y+14	; 0x0e
     a4a:	01 97       	sbiw	r24, 0x01	; 1
     a4c:	f1 f7       	brne	.-4      	; 0xa4a <leftDiafram+0x104>
     a4e:	9e 87       	std	Y+14, r25	; 0x0e
     a50:	8d 87       	std	Y+13, r24	; 0x0d
     a52:	ce 01       	movw	r24, r28
     a54:	4d 96       	adiw	r24, 0x1d	; 29
     a56:	64 ed       	ldi	r22, 0xD4	; 212
     a58:	42 d6       	rcall	.+3204   	; 0x16de <CAN_Write>
     a5a:	88 23       	and	r24, r24
     a5c:	09 f0       	breq	.+2      	; 0xa60 <leftDiafram+0x11a>
     a5e:	87 cf       	rjmp	.-242    	; 0x96e <leftDiafram+0x28>
     a60:	7c c0       	rjmp	.+248    	; 0xb5a <leftDiafram+0x214>
     a62:	8f ef       	ldi	r24, 0xFF	; 255
     a64:	8e 8f       	std	Y+30, r24	; 0x1e
     a66:	72 c0       	rjmp	.+228    	; 0xb4c <leftDiafram+0x206>
     a68:	80 e0       	ldi	r24, 0x00	; 0
     a6a:	90 e0       	ldi	r25, 0x00	; 0
     a6c:	a8 e4       	ldi	r26, 0x48	; 72
     a6e:	b2 e4       	ldi	r27, 0x42	; 66
     a70:	8f 87       	std	Y+15, r24	; 0x0f
     a72:	98 8b       	std	Y+16, r25	; 0x10
     a74:	a9 8b       	std	Y+17, r26	; 0x11
     a76:	ba 8b       	std	Y+18, r27	; 0x12
     a78:	20 e0       	ldi	r18, 0x00	; 0
     a7a:	30 e4       	ldi	r19, 0x40	; 64
     a7c:	4c e1       	ldi	r20, 0x1C	; 28
     a7e:	55 e4       	ldi	r21, 0x45	; 69
     a80:	6f 85       	ldd	r22, Y+15	; 0x0f
     a82:	78 89       	ldd	r23, Y+16	; 0x10
     a84:	89 89       	ldd	r24, Y+17	; 0x11
     a86:	9a 89       	ldd	r25, Y+18	; 0x12
     a88:	0e 94 52 32 	call	0x64a4	; 0x64a4 <__mulsf3>
     a8c:	dc 01       	movw	r26, r24
     a8e:	cb 01       	movw	r24, r22
     a90:	8b 8b       	std	Y+19, r24	; 0x13
     a92:	9c 8b       	std	Y+20, r25	; 0x14
     a94:	ad 8b       	std	Y+21, r26	; 0x15
     a96:	be 8b       	std	Y+22, r27	; 0x16
     a98:	20 e0       	ldi	r18, 0x00	; 0
     a9a:	30 e0       	ldi	r19, 0x00	; 0
     a9c:	40 e8       	ldi	r20, 0x80	; 128
     a9e:	5f e3       	ldi	r21, 0x3F	; 63
     aa0:	6b 89       	ldd	r22, Y+19	; 0x13
     aa2:	7c 89       	ldd	r23, Y+20	; 0x14
     aa4:	8d 89       	ldd	r24, Y+21	; 0x15
     aa6:	9e 89       	ldd	r25, Y+22	; 0x16
     aa8:	0e 94 c6 30 	call	0x618c	; 0x618c <__cmpsf2>
     aac:	88 23       	and	r24, r24
     aae:	2c f4       	brge	.+10     	; 0xaba <leftDiafram+0x174>
     ab0:	81 e0       	ldi	r24, 0x01	; 1
     ab2:	90 e0       	ldi	r25, 0x00	; 0
     ab4:	98 8f       	std	Y+24, r25	; 0x18
     ab6:	8f 8b       	std	Y+23, r24	; 0x17
     ab8:	3f c0       	rjmp	.+126    	; 0xb38 <leftDiafram+0x1f2>
     aba:	20 e0       	ldi	r18, 0x00	; 0
     abc:	3f ef       	ldi	r19, 0xFF	; 255
     abe:	4f e7       	ldi	r20, 0x7F	; 127
     ac0:	57 e4       	ldi	r21, 0x47	; 71
     ac2:	6b 89       	ldd	r22, Y+19	; 0x13
     ac4:	7c 89       	ldd	r23, Y+20	; 0x14
     ac6:	8d 89       	ldd	r24, Y+21	; 0x15
     ac8:	9e 89       	ldd	r25, Y+22	; 0x16
     aca:	0e 94 4e 32 	call	0x649c	; 0x649c <__gesf2>
     ace:	18 16       	cp	r1, r24
     ad0:	4c f5       	brge	.+82     	; 0xb24 <leftDiafram+0x1de>
     ad2:	20 e0       	ldi	r18, 0x00	; 0
     ad4:	30 e0       	ldi	r19, 0x00	; 0
     ad6:	40 e2       	ldi	r20, 0x20	; 32
     ad8:	51 e4       	ldi	r21, 0x41	; 65
     ada:	6f 85       	ldd	r22, Y+15	; 0x0f
     adc:	78 89       	ldd	r23, Y+16	; 0x10
     ade:	89 89       	ldd	r24, Y+17	; 0x11
     ae0:	9a 89       	ldd	r25, Y+18	; 0x12
     ae2:	0e 94 52 32 	call	0x64a4	; 0x64a4 <__mulsf3>
     ae6:	dc 01       	movw	r26, r24
     ae8:	cb 01       	movw	r24, r22
     aea:	bc 01       	movw	r22, r24
     aec:	cd 01       	movw	r24, r26
     aee:	0e 94 32 31 	call	0x6264	; 0x6264 <__fixunssfsi>
     af2:	dc 01       	movw	r26, r24
     af4:	cb 01       	movw	r24, r22
     af6:	98 8f       	std	Y+24, r25	; 0x18
     af8:	8f 8b       	std	Y+23, r24	; 0x17
     afa:	0f c0       	rjmp	.+30     	; 0xb1a <leftDiafram+0x1d4>
     afc:	8a ef       	ldi	r24, 0xFA	; 250
     afe:	90 e0       	ldi	r25, 0x00	; 0
     b00:	9a 8f       	std	Y+26, r25	; 0x1a
     b02:	89 8f       	std	Y+25, r24	; 0x19
     b04:	89 8d       	ldd	r24, Y+25	; 0x19
     b06:	9a 8d       	ldd	r25, Y+26	; 0x1a
     b08:	01 97       	sbiw	r24, 0x01	; 1
     b0a:	f1 f7       	brne	.-4      	; 0xb08 <leftDiafram+0x1c2>
     b0c:	9a 8f       	std	Y+26, r25	; 0x1a
     b0e:	89 8f       	std	Y+25, r24	; 0x19
     b10:	8f 89       	ldd	r24, Y+23	; 0x17
     b12:	98 8d       	ldd	r25, Y+24	; 0x18
     b14:	01 97       	sbiw	r24, 0x01	; 1
     b16:	98 8f       	std	Y+24, r25	; 0x18
     b18:	8f 8b       	std	Y+23, r24	; 0x17
     b1a:	8f 89       	ldd	r24, Y+23	; 0x17
     b1c:	98 8d       	ldd	r25, Y+24	; 0x18
     b1e:	00 97       	sbiw	r24, 0x00	; 0
     b20:	69 f7       	brne	.-38     	; 0xafc <leftDiafram+0x1b6>
     b22:	14 c0       	rjmp	.+40     	; 0xb4c <leftDiafram+0x206>
     b24:	6b 89       	ldd	r22, Y+19	; 0x13
     b26:	7c 89       	ldd	r23, Y+20	; 0x14
     b28:	8d 89       	ldd	r24, Y+21	; 0x15
     b2a:	9e 89       	ldd	r25, Y+22	; 0x16
     b2c:	0e 94 32 31 	call	0x6264	; 0x6264 <__fixunssfsi>
     b30:	dc 01       	movw	r26, r24
     b32:	cb 01       	movw	r24, r22
     b34:	98 8f       	std	Y+24, r25	; 0x18
     b36:	8f 8b       	std	Y+23, r24	; 0x17
     b38:	8f 89       	ldd	r24, Y+23	; 0x17
     b3a:	98 8d       	ldd	r25, Y+24	; 0x18
     b3c:	9c 8f       	std	Y+28, r25	; 0x1c
     b3e:	8b 8f       	std	Y+27, r24	; 0x1b
     b40:	8b 8d       	ldd	r24, Y+27	; 0x1b
     b42:	9c 8d       	ldd	r25, Y+28	; 0x1c
     b44:	01 97       	sbiw	r24, 0x01	; 1
     b46:	f1 f7       	brne	.-4      	; 0xb44 <leftDiafram+0x1fe>
     b48:	9c 8f       	std	Y+28, r25	; 0x1c
     b4a:	8b 8f       	std	Y+27, r24	; 0x1b
     b4c:	ce 01       	movw	r24, r28
     b4e:	4d 96       	adiw	r24, 0x1d	; 29
     b50:	64 ed       	ldi	r22, 0xD4	; 212
     b52:	c5 d5       	rcall	.+2954   	; 0x16de <CAN_Write>
     b54:	88 23       	and	r24, r24
     b56:	09 f0       	breq	.+2      	; 0xb5a <leftDiafram+0x214>
     b58:	87 cf       	rjmp	.-242    	; 0xa68 <leftDiafram+0x122>
     b5a:	a5 96       	adiw	r28, 0x25	; 37
     b5c:	0f b6       	in	r0, 0x3f	; 63
     b5e:	f8 94       	cli
     b60:	de bf       	out	0x3e, r29	; 62
     b62:	0f be       	out	0x3f, r0	; 63
     b64:	cd bf       	out	0x3d, r28	; 61
     b66:	df 91       	pop	r29
     b68:	cf 91       	pop	r28
     b6a:	08 95       	ret

00000b6c <rightDiafram>:
     b6c:	cf 93       	push	r28
     b6e:	df 93       	push	r29
     b70:	cd b7       	in	r28, 0x3d	; 61
     b72:	de b7       	in	r29, 0x3e	; 62
     b74:	a5 97       	sbiw	r28, 0x25	; 37
     b76:	0f b6       	in	r0, 0x3f	; 63
     b78:	f8 94       	cli
     b7a:	de bf       	out	0x3e, r29	; 62
     b7c:	0f be       	out	0x3f, r0	; 63
     b7e:	cd bf       	out	0x3d, r28	; 61
     b80:	8d a3       	std	Y+37, r24	; 0x25
     b82:	84 e4       	ldi	r24, 0x44	; 68
     b84:	8d 8f       	std	Y+29, r24	; 0x1d
     b86:	8d a1       	ldd	r24, Y+37	; 0x25
     b88:	81 30       	cpi	r24, 0x01	; 1
     b8a:	09 f0       	breq	.+2      	; 0xb8e <rightDiafram+0x22>
     b8c:	7d c0       	rjmp	.+250    	; 0xc88 <rightDiafram+0x11c>
     b8e:	81 e0       	ldi	r24, 0x01	; 1
     b90:	8e 8f       	std	Y+30, r24	; 0x1e
     b92:	72 c0       	rjmp	.+228    	; 0xc78 <rightDiafram+0x10c>
     b94:	80 e0       	ldi	r24, 0x00	; 0
     b96:	90 e0       	ldi	r25, 0x00	; 0
     b98:	a8 e4       	ldi	r26, 0x48	; 72
     b9a:	b2 e4       	ldi	r27, 0x42	; 66
     b9c:	89 83       	std	Y+1, r24	; 0x01
     b9e:	9a 83       	std	Y+2, r25	; 0x02
     ba0:	ab 83       	std	Y+3, r26	; 0x03
     ba2:	bc 83       	std	Y+4, r27	; 0x04
     ba4:	20 e0       	ldi	r18, 0x00	; 0
     ba6:	30 e4       	ldi	r19, 0x40	; 64
     ba8:	4c e1       	ldi	r20, 0x1C	; 28
     baa:	55 e4       	ldi	r21, 0x45	; 69
     bac:	69 81       	ldd	r22, Y+1	; 0x01
     bae:	7a 81       	ldd	r23, Y+2	; 0x02
     bb0:	8b 81       	ldd	r24, Y+3	; 0x03
     bb2:	9c 81       	ldd	r25, Y+4	; 0x04
     bb4:	0e 94 52 32 	call	0x64a4	; 0x64a4 <__mulsf3>
     bb8:	dc 01       	movw	r26, r24
     bba:	cb 01       	movw	r24, r22
     bbc:	8d 83       	std	Y+5, r24	; 0x05
     bbe:	9e 83       	std	Y+6, r25	; 0x06
     bc0:	af 83       	std	Y+7, r26	; 0x07
     bc2:	b8 87       	std	Y+8, r27	; 0x08
     bc4:	20 e0       	ldi	r18, 0x00	; 0
     bc6:	30 e0       	ldi	r19, 0x00	; 0
     bc8:	40 e8       	ldi	r20, 0x80	; 128
     bca:	5f e3       	ldi	r21, 0x3F	; 63
     bcc:	6d 81       	ldd	r22, Y+5	; 0x05
     bce:	7e 81       	ldd	r23, Y+6	; 0x06
     bd0:	8f 81       	ldd	r24, Y+7	; 0x07
     bd2:	98 85       	ldd	r25, Y+8	; 0x08
     bd4:	0e 94 c6 30 	call	0x618c	; 0x618c <__cmpsf2>
     bd8:	88 23       	and	r24, r24
     bda:	2c f4       	brge	.+10     	; 0xbe6 <rightDiafram+0x7a>
     bdc:	81 e0       	ldi	r24, 0x01	; 1
     bde:	90 e0       	ldi	r25, 0x00	; 0
     be0:	9a 87       	std	Y+10, r25	; 0x0a
     be2:	89 87       	std	Y+9, r24	; 0x09
     be4:	3f c0       	rjmp	.+126    	; 0xc64 <rightDiafram+0xf8>
     be6:	20 e0       	ldi	r18, 0x00	; 0
     be8:	3f ef       	ldi	r19, 0xFF	; 255
     bea:	4f e7       	ldi	r20, 0x7F	; 127
     bec:	57 e4       	ldi	r21, 0x47	; 71
     bee:	6d 81       	ldd	r22, Y+5	; 0x05
     bf0:	7e 81       	ldd	r23, Y+6	; 0x06
     bf2:	8f 81       	ldd	r24, Y+7	; 0x07
     bf4:	98 85       	ldd	r25, Y+8	; 0x08
     bf6:	0e 94 4e 32 	call	0x649c	; 0x649c <__gesf2>
     bfa:	18 16       	cp	r1, r24
     bfc:	4c f5       	brge	.+82     	; 0xc50 <rightDiafram+0xe4>
     bfe:	20 e0       	ldi	r18, 0x00	; 0
     c00:	30 e0       	ldi	r19, 0x00	; 0
     c02:	40 e2       	ldi	r20, 0x20	; 32
     c04:	51 e4       	ldi	r21, 0x41	; 65
     c06:	69 81       	ldd	r22, Y+1	; 0x01
     c08:	7a 81       	ldd	r23, Y+2	; 0x02
     c0a:	8b 81       	ldd	r24, Y+3	; 0x03
     c0c:	9c 81       	ldd	r25, Y+4	; 0x04
     c0e:	0e 94 52 32 	call	0x64a4	; 0x64a4 <__mulsf3>
     c12:	dc 01       	movw	r26, r24
     c14:	cb 01       	movw	r24, r22
     c16:	bc 01       	movw	r22, r24
     c18:	cd 01       	movw	r24, r26
     c1a:	0e 94 32 31 	call	0x6264	; 0x6264 <__fixunssfsi>
     c1e:	dc 01       	movw	r26, r24
     c20:	cb 01       	movw	r24, r22
     c22:	9a 87       	std	Y+10, r25	; 0x0a
     c24:	89 87       	std	Y+9, r24	; 0x09
     c26:	0f c0       	rjmp	.+30     	; 0xc46 <rightDiafram+0xda>
     c28:	8a ef       	ldi	r24, 0xFA	; 250
     c2a:	90 e0       	ldi	r25, 0x00	; 0
     c2c:	9c 87       	std	Y+12, r25	; 0x0c
     c2e:	8b 87       	std	Y+11, r24	; 0x0b
     c30:	8b 85       	ldd	r24, Y+11	; 0x0b
     c32:	9c 85       	ldd	r25, Y+12	; 0x0c
     c34:	01 97       	sbiw	r24, 0x01	; 1
     c36:	f1 f7       	brne	.-4      	; 0xc34 <rightDiafram+0xc8>
     c38:	9c 87       	std	Y+12, r25	; 0x0c
     c3a:	8b 87       	std	Y+11, r24	; 0x0b
     c3c:	89 85       	ldd	r24, Y+9	; 0x09
     c3e:	9a 85       	ldd	r25, Y+10	; 0x0a
     c40:	01 97       	sbiw	r24, 0x01	; 1
     c42:	9a 87       	std	Y+10, r25	; 0x0a
     c44:	89 87       	std	Y+9, r24	; 0x09
     c46:	89 85       	ldd	r24, Y+9	; 0x09
     c48:	9a 85       	ldd	r25, Y+10	; 0x0a
     c4a:	00 97       	sbiw	r24, 0x00	; 0
     c4c:	69 f7       	brne	.-38     	; 0xc28 <rightDiafram+0xbc>
     c4e:	14 c0       	rjmp	.+40     	; 0xc78 <rightDiafram+0x10c>
     c50:	6d 81       	ldd	r22, Y+5	; 0x05
     c52:	7e 81       	ldd	r23, Y+6	; 0x06
     c54:	8f 81       	ldd	r24, Y+7	; 0x07
     c56:	98 85       	ldd	r25, Y+8	; 0x08
     c58:	0e 94 32 31 	call	0x6264	; 0x6264 <__fixunssfsi>
     c5c:	dc 01       	movw	r26, r24
     c5e:	cb 01       	movw	r24, r22
     c60:	9a 87       	std	Y+10, r25	; 0x0a
     c62:	89 87       	std	Y+9, r24	; 0x09
     c64:	89 85       	ldd	r24, Y+9	; 0x09
     c66:	9a 85       	ldd	r25, Y+10	; 0x0a
     c68:	9e 87       	std	Y+14, r25	; 0x0e
     c6a:	8d 87       	std	Y+13, r24	; 0x0d
     c6c:	8d 85       	ldd	r24, Y+13	; 0x0d
     c6e:	9e 85       	ldd	r25, Y+14	; 0x0e
     c70:	01 97       	sbiw	r24, 0x01	; 1
     c72:	f1 f7       	brne	.-4      	; 0xc70 <rightDiafram+0x104>
     c74:	9e 87       	std	Y+14, r25	; 0x0e
     c76:	8d 87       	std	Y+13, r24	; 0x0d
     c78:	ce 01       	movw	r24, r28
     c7a:	4d 96       	adiw	r24, 0x1d	; 29
     c7c:	64 ed       	ldi	r22, 0xD4	; 212
     c7e:	2f d5       	rcall	.+2654   	; 0x16de <CAN_Write>
     c80:	88 23       	and	r24, r24
     c82:	09 f0       	breq	.+2      	; 0xc86 <rightDiafram+0x11a>
     c84:	87 cf       	rjmp	.-242    	; 0xb94 <rightDiafram+0x28>
     c86:	7c c0       	rjmp	.+248    	; 0xd80 <rightDiafram+0x214>
     c88:	8f ef       	ldi	r24, 0xFF	; 255
     c8a:	8e 8f       	std	Y+30, r24	; 0x1e
     c8c:	72 c0       	rjmp	.+228    	; 0xd72 <rightDiafram+0x206>
     c8e:	80 e0       	ldi	r24, 0x00	; 0
     c90:	90 e0       	ldi	r25, 0x00	; 0
     c92:	a8 e4       	ldi	r26, 0x48	; 72
     c94:	b2 e4       	ldi	r27, 0x42	; 66
     c96:	8f 87       	std	Y+15, r24	; 0x0f
     c98:	98 8b       	std	Y+16, r25	; 0x10
     c9a:	a9 8b       	std	Y+17, r26	; 0x11
     c9c:	ba 8b       	std	Y+18, r27	; 0x12
     c9e:	20 e0       	ldi	r18, 0x00	; 0
     ca0:	30 e4       	ldi	r19, 0x40	; 64
     ca2:	4c e1       	ldi	r20, 0x1C	; 28
     ca4:	55 e4       	ldi	r21, 0x45	; 69
     ca6:	6f 85       	ldd	r22, Y+15	; 0x0f
     ca8:	78 89       	ldd	r23, Y+16	; 0x10
     caa:	89 89       	ldd	r24, Y+17	; 0x11
     cac:	9a 89       	ldd	r25, Y+18	; 0x12
     cae:	0e 94 52 32 	call	0x64a4	; 0x64a4 <__mulsf3>
     cb2:	dc 01       	movw	r26, r24
     cb4:	cb 01       	movw	r24, r22
     cb6:	8b 8b       	std	Y+19, r24	; 0x13
     cb8:	9c 8b       	std	Y+20, r25	; 0x14
     cba:	ad 8b       	std	Y+21, r26	; 0x15
     cbc:	be 8b       	std	Y+22, r27	; 0x16
     cbe:	20 e0       	ldi	r18, 0x00	; 0
     cc0:	30 e0       	ldi	r19, 0x00	; 0
     cc2:	40 e8       	ldi	r20, 0x80	; 128
     cc4:	5f e3       	ldi	r21, 0x3F	; 63
     cc6:	6b 89       	ldd	r22, Y+19	; 0x13
     cc8:	7c 89       	ldd	r23, Y+20	; 0x14
     cca:	8d 89       	ldd	r24, Y+21	; 0x15
     ccc:	9e 89       	ldd	r25, Y+22	; 0x16
     cce:	0e 94 c6 30 	call	0x618c	; 0x618c <__cmpsf2>
     cd2:	88 23       	and	r24, r24
     cd4:	2c f4       	brge	.+10     	; 0xce0 <rightDiafram+0x174>
     cd6:	81 e0       	ldi	r24, 0x01	; 1
     cd8:	90 e0       	ldi	r25, 0x00	; 0
     cda:	98 8f       	std	Y+24, r25	; 0x18
     cdc:	8f 8b       	std	Y+23, r24	; 0x17
     cde:	3f c0       	rjmp	.+126    	; 0xd5e <rightDiafram+0x1f2>
     ce0:	20 e0       	ldi	r18, 0x00	; 0
     ce2:	3f ef       	ldi	r19, 0xFF	; 255
     ce4:	4f e7       	ldi	r20, 0x7F	; 127
     ce6:	57 e4       	ldi	r21, 0x47	; 71
     ce8:	6b 89       	ldd	r22, Y+19	; 0x13
     cea:	7c 89       	ldd	r23, Y+20	; 0x14
     cec:	8d 89       	ldd	r24, Y+21	; 0x15
     cee:	9e 89       	ldd	r25, Y+22	; 0x16
     cf0:	0e 94 4e 32 	call	0x649c	; 0x649c <__gesf2>
     cf4:	18 16       	cp	r1, r24
     cf6:	4c f5       	brge	.+82     	; 0xd4a <rightDiafram+0x1de>
     cf8:	20 e0       	ldi	r18, 0x00	; 0
     cfa:	30 e0       	ldi	r19, 0x00	; 0
     cfc:	40 e2       	ldi	r20, 0x20	; 32
     cfe:	51 e4       	ldi	r21, 0x41	; 65
     d00:	6f 85       	ldd	r22, Y+15	; 0x0f
     d02:	78 89       	ldd	r23, Y+16	; 0x10
     d04:	89 89       	ldd	r24, Y+17	; 0x11
     d06:	9a 89       	ldd	r25, Y+18	; 0x12
     d08:	0e 94 52 32 	call	0x64a4	; 0x64a4 <__mulsf3>
     d0c:	dc 01       	movw	r26, r24
     d0e:	cb 01       	movw	r24, r22
     d10:	bc 01       	movw	r22, r24
     d12:	cd 01       	movw	r24, r26
     d14:	0e 94 32 31 	call	0x6264	; 0x6264 <__fixunssfsi>
     d18:	dc 01       	movw	r26, r24
     d1a:	cb 01       	movw	r24, r22
     d1c:	98 8f       	std	Y+24, r25	; 0x18
     d1e:	8f 8b       	std	Y+23, r24	; 0x17
     d20:	0f c0       	rjmp	.+30     	; 0xd40 <rightDiafram+0x1d4>
     d22:	8a ef       	ldi	r24, 0xFA	; 250
     d24:	90 e0       	ldi	r25, 0x00	; 0
     d26:	9a 8f       	std	Y+26, r25	; 0x1a
     d28:	89 8f       	std	Y+25, r24	; 0x19
     d2a:	89 8d       	ldd	r24, Y+25	; 0x19
     d2c:	9a 8d       	ldd	r25, Y+26	; 0x1a
     d2e:	01 97       	sbiw	r24, 0x01	; 1
     d30:	f1 f7       	brne	.-4      	; 0xd2e <rightDiafram+0x1c2>
     d32:	9a 8f       	std	Y+26, r25	; 0x1a
     d34:	89 8f       	std	Y+25, r24	; 0x19
     d36:	8f 89       	ldd	r24, Y+23	; 0x17
     d38:	98 8d       	ldd	r25, Y+24	; 0x18
     d3a:	01 97       	sbiw	r24, 0x01	; 1
     d3c:	98 8f       	std	Y+24, r25	; 0x18
     d3e:	8f 8b       	std	Y+23, r24	; 0x17
     d40:	8f 89       	ldd	r24, Y+23	; 0x17
     d42:	98 8d       	ldd	r25, Y+24	; 0x18
     d44:	00 97       	sbiw	r24, 0x00	; 0
     d46:	69 f7       	brne	.-38     	; 0xd22 <rightDiafram+0x1b6>
     d48:	14 c0       	rjmp	.+40     	; 0xd72 <rightDiafram+0x206>
     d4a:	6b 89       	ldd	r22, Y+19	; 0x13
     d4c:	7c 89       	ldd	r23, Y+20	; 0x14
     d4e:	8d 89       	ldd	r24, Y+21	; 0x15
     d50:	9e 89       	ldd	r25, Y+22	; 0x16
     d52:	0e 94 32 31 	call	0x6264	; 0x6264 <__fixunssfsi>
     d56:	dc 01       	movw	r26, r24
     d58:	cb 01       	movw	r24, r22
     d5a:	98 8f       	std	Y+24, r25	; 0x18
     d5c:	8f 8b       	std	Y+23, r24	; 0x17
     d5e:	8f 89       	ldd	r24, Y+23	; 0x17
     d60:	98 8d       	ldd	r25, Y+24	; 0x18
     d62:	9c 8f       	std	Y+28, r25	; 0x1c
     d64:	8b 8f       	std	Y+27, r24	; 0x1b
     d66:	8b 8d       	ldd	r24, Y+27	; 0x1b
     d68:	9c 8d       	ldd	r25, Y+28	; 0x1c
     d6a:	01 97       	sbiw	r24, 0x01	; 1
     d6c:	f1 f7       	brne	.-4      	; 0xd6a <rightDiafram+0x1fe>
     d6e:	9c 8f       	std	Y+28, r25	; 0x1c
     d70:	8b 8f       	std	Y+27, r24	; 0x1b
     d72:	ce 01       	movw	r24, r28
     d74:	4d 96       	adiw	r24, 0x1d	; 29
     d76:	64 ed       	ldi	r22, 0xD4	; 212
     d78:	b2 d4       	rcall	.+2404   	; 0x16de <CAN_Write>
     d7a:	88 23       	and	r24, r24
     d7c:	09 f0       	breq	.+2      	; 0xd80 <rightDiafram+0x214>
     d7e:	87 cf       	rjmp	.-242    	; 0xc8e <rightDiafram+0x122>
     d80:	a5 96       	adiw	r28, 0x25	; 37
     d82:	0f b6       	in	r0, 0x3f	; 63
     d84:	f8 94       	cli
     d86:	de bf       	out	0x3e, r29	; 62
     d88:	0f be       	out	0x3f, r0	; 63
     d8a:	cd bf       	out	0x3d, r28	; 61
     d8c:	df 91       	pop	r29
     d8e:	cf 91       	pop	r28
     d90:	08 95       	ret

00000d92 <liftStates>:
     d92:	cf 93       	push	r28
     d94:	df 93       	push	r29
     d96:	cd b7       	in	r28, 0x3d	; 61
     d98:	de b7       	in	r29, 0x3e	; 62
     d9a:	a5 97       	sbiw	r28, 0x25	; 37
     d9c:	0f b6       	in	r0, 0x3f	; 63
     d9e:	f8 94       	cli
     da0:	de bf       	out	0x3e, r29	; 62
     da2:	0f be       	out	0x3f, r0	; 63
     da4:	cd bf       	out	0x3d, r28	; 61
     da6:	8d a3       	std	Y+37, r24	; 0x25
     da8:	85 e4       	ldi	r24, 0x45	; 69
     daa:	8d 8f       	std	Y+29, r24	; 0x1d
     dac:	8d a1       	ldd	r24, Y+37	; 0x25
     dae:	81 30       	cpi	r24, 0x01	; 1
     db0:	09 f0       	breq	.+2      	; 0xdb4 <liftStates+0x22>
     db2:	7d c0       	rjmp	.+250    	; 0xeae <liftStates+0x11c>
     db4:	81 e0       	ldi	r24, 0x01	; 1
     db6:	8e 8f       	std	Y+30, r24	; 0x1e
     db8:	72 c0       	rjmp	.+228    	; 0xe9e <liftStates+0x10c>
     dba:	80 e0       	ldi	r24, 0x00	; 0
     dbc:	90 e0       	ldi	r25, 0x00	; 0
     dbe:	a8 e4       	ldi	r26, 0x48	; 72
     dc0:	b2 e4       	ldi	r27, 0x42	; 66
     dc2:	89 83       	std	Y+1, r24	; 0x01
     dc4:	9a 83       	std	Y+2, r25	; 0x02
     dc6:	ab 83       	std	Y+3, r26	; 0x03
     dc8:	bc 83       	std	Y+4, r27	; 0x04
     dca:	20 e0       	ldi	r18, 0x00	; 0
     dcc:	30 e4       	ldi	r19, 0x40	; 64
     dce:	4c e1       	ldi	r20, 0x1C	; 28
     dd0:	55 e4       	ldi	r21, 0x45	; 69
     dd2:	69 81       	ldd	r22, Y+1	; 0x01
     dd4:	7a 81       	ldd	r23, Y+2	; 0x02
     dd6:	8b 81       	ldd	r24, Y+3	; 0x03
     dd8:	9c 81       	ldd	r25, Y+4	; 0x04
     dda:	0e 94 52 32 	call	0x64a4	; 0x64a4 <__mulsf3>
     dde:	dc 01       	movw	r26, r24
     de0:	cb 01       	movw	r24, r22
     de2:	8d 83       	std	Y+5, r24	; 0x05
     de4:	9e 83       	std	Y+6, r25	; 0x06
     de6:	af 83       	std	Y+7, r26	; 0x07
     de8:	b8 87       	std	Y+8, r27	; 0x08
     dea:	20 e0       	ldi	r18, 0x00	; 0
     dec:	30 e0       	ldi	r19, 0x00	; 0
     dee:	40 e8       	ldi	r20, 0x80	; 128
     df0:	5f e3       	ldi	r21, 0x3F	; 63
     df2:	6d 81       	ldd	r22, Y+5	; 0x05
     df4:	7e 81       	ldd	r23, Y+6	; 0x06
     df6:	8f 81       	ldd	r24, Y+7	; 0x07
     df8:	98 85       	ldd	r25, Y+8	; 0x08
     dfa:	0e 94 c6 30 	call	0x618c	; 0x618c <__cmpsf2>
     dfe:	88 23       	and	r24, r24
     e00:	2c f4       	brge	.+10     	; 0xe0c <liftStates+0x7a>
     e02:	81 e0       	ldi	r24, 0x01	; 1
     e04:	90 e0       	ldi	r25, 0x00	; 0
     e06:	9a 87       	std	Y+10, r25	; 0x0a
     e08:	89 87       	std	Y+9, r24	; 0x09
     e0a:	3f c0       	rjmp	.+126    	; 0xe8a <liftStates+0xf8>
     e0c:	20 e0       	ldi	r18, 0x00	; 0
     e0e:	3f ef       	ldi	r19, 0xFF	; 255
     e10:	4f e7       	ldi	r20, 0x7F	; 127
     e12:	57 e4       	ldi	r21, 0x47	; 71
     e14:	6d 81       	ldd	r22, Y+5	; 0x05
     e16:	7e 81       	ldd	r23, Y+6	; 0x06
     e18:	8f 81       	ldd	r24, Y+7	; 0x07
     e1a:	98 85       	ldd	r25, Y+8	; 0x08
     e1c:	0e 94 4e 32 	call	0x649c	; 0x649c <__gesf2>
     e20:	18 16       	cp	r1, r24
     e22:	4c f5       	brge	.+82     	; 0xe76 <liftStates+0xe4>
     e24:	20 e0       	ldi	r18, 0x00	; 0
     e26:	30 e0       	ldi	r19, 0x00	; 0
     e28:	40 e2       	ldi	r20, 0x20	; 32
     e2a:	51 e4       	ldi	r21, 0x41	; 65
     e2c:	69 81       	ldd	r22, Y+1	; 0x01
     e2e:	7a 81       	ldd	r23, Y+2	; 0x02
     e30:	8b 81       	ldd	r24, Y+3	; 0x03
     e32:	9c 81       	ldd	r25, Y+4	; 0x04
     e34:	0e 94 52 32 	call	0x64a4	; 0x64a4 <__mulsf3>
     e38:	dc 01       	movw	r26, r24
     e3a:	cb 01       	movw	r24, r22
     e3c:	bc 01       	movw	r22, r24
     e3e:	cd 01       	movw	r24, r26
     e40:	0e 94 32 31 	call	0x6264	; 0x6264 <__fixunssfsi>
     e44:	dc 01       	movw	r26, r24
     e46:	cb 01       	movw	r24, r22
     e48:	9a 87       	std	Y+10, r25	; 0x0a
     e4a:	89 87       	std	Y+9, r24	; 0x09
     e4c:	0f c0       	rjmp	.+30     	; 0xe6c <liftStates+0xda>
     e4e:	8a ef       	ldi	r24, 0xFA	; 250
     e50:	90 e0       	ldi	r25, 0x00	; 0
     e52:	9c 87       	std	Y+12, r25	; 0x0c
     e54:	8b 87       	std	Y+11, r24	; 0x0b
     e56:	8b 85       	ldd	r24, Y+11	; 0x0b
     e58:	9c 85       	ldd	r25, Y+12	; 0x0c
     e5a:	01 97       	sbiw	r24, 0x01	; 1
     e5c:	f1 f7       	brne	.-4      	; 0xe5a <liftStates+0xc8>
     e5e:	9c 87       	std	Y+12, r25	; 0x0c
     e60:	8b 87       	std	Y+11, r24	; 0x0b
     e62:	89 85       	ldd	r24, Y+9	; 0x09
     e64:	9a 85       	ldd	r25, Y+10	; 0x0a
     e66:	01 97       	sbiw	r24, 0x01	; 1
     e68:	9a 87       	std	Y+10, r25	; 0x0a
     e6a:	89 87       	std	Y+9, r24	; 0x09
     e6c:	89 85       	ldd	r24, Y+9	; 0x09
     e6e:	9a 85       	ldd	r25, Y+10	; 0x0a
     e70:	00 97       	sbiw	r24, 0x00	; 0
     e72:	69 f7       	brne	.-38     	; 0xe4e <liftStates+0xbc>
     e74:	14 c0       	rjmp	.+40     	; 0xe9e <liftStates+0x10c>
     e76:	6d 81       	ldd	r22, Y+5	; 0x05
     e78:	7e 81       	ldd	r23, Y+6	; 0x06
     e7a:	8f 81       	ldd	r24, Y+7	; 0x07
     e7c:	98 85       	ldd	r25, Y+8	; 0x08
     e7e:	0e 94 32 31 	call	0x6264	; 0x6264 <__fixunssfsi>
     e82:	dc 01       	movw	r26, r24
     e84:	cb 01       	movw	r24, r22
     e86:	9a 87       	std	Y+10, r25	; 0x0a
     e88:	89 87       	std	Y+9, r24	; 0x09
     e8a:	89 85       	ldd	r24, Y+9	; 0x09
     e8c:	9a 85       	ldd	r25, Y+10	; 0x0a
     e8e:	9e 87       	std	Y+14, r25	; 0x0e
     e90:	8d 87       	std	Y+13, r24	; 0x0d
     e92:	8d 85       	ldd	r24, Y+13	; 0x0d
     e94:	9e 85       	ldd	r25, Y+14	; 0x0e
     e96:	01 97       	sbiw	r24, 0x01	; 1
     e98:	f1 f7       	brne	.-4      	; 0xe96 <liftStates+0x104>
     e9a:	9e 87       	std	Y+14, r25	; 0x0e
     e9c:	8d 87       	std	Y+13, r24	; 0x0d
     e9e:	ce 01       	movw	r24, r28
     ea0:	4d 96       	adiw	r24, 0x1d	; 29
     ea2:	64 ed       	ldi	r22, 0xD4	; 212
     ea4:	1c d4       	rcall	.+2104   	; 0x16de <CAN_Write>
     ea6:	88 23       	and	r24, r24
     ea8:	09 f0       	breq	.+2      	; 0xeac <liftStates+0x11a>
     eaa:	87 cf       	rjmp	.-242    	; 0xdba <liftStates+0x28>
     eac:	7c c0       	rjmp	.+248    	; 0xfa6 <liftStates+0x214>
     eae:	8f ef       	ldi	r24, 0xFF	; 255
     eb0:	8e 8f       	std	Y+30, r24	; 0x1e
     eb2:	72 c0       	rjmp	.+228    	; 0xf98 <liftStates+0x206>
     eb4:	80 e0       	ldi	r24, 0x00	; 0
     eb6:	90 e0       	ldi	r25, 0x00	; 0
     eb8:	a8 e4       	ldi	r26, 0x48	; 72
     eba:	b2 e4       	ldi	r27, 0x42	; 66
     ebc:	8f 87       	std	Y+15, r24	; 0x0f
     ebe:	98 8b       	std	Y+16, r25	; 0x10
     ec0:	a9 8b       	std	Y+17, r26	; 0x11
     ec2:	ba 8b       	std	Y+18, r27	; 0x12
     ec4:	20 e0       	ldi	r18, 0x00	; 0
     ec6:	30 e4       	ldi	r19, 0x40	; 64
     ec8:	4c e1       	ldi	r20, 0x1C	; 28
     eca:	55 e4       	ldi	r21, 0x45	; 69
     ecc:	6f 85       	ldd	r22, Y+15	; 0x0f
     ece:	78 89       	ldd	r23, Y+16	; 0x10
     ed0:	89 89       	ldd	r24, Y+17	; 0x11
     ed2:	9a 89       	ldd	r25, Y+18	; 0x12
     ed4:	0e 94 52 32 	call	0x64a4	; 0x64a4 <__mulsf3>
     ed8:	dc 01       	movw	r26, r24
     eda:	cb 01       	movw	r24, r22
     edc:	8b 8b       	std	Y+19, r24	; 0x13
     ede:	9c 8b       	std	Y+20, r25	; 0x14
     ee0:	ad 8b       	std	Y+21, r26	; 0x15
     ee2:	be 8b       	std	Y+22, r27	; 0x16
     ee4:	20 e0       	ldi	r18, 0x00	; 0
     ee6:	30 e0       	ldi	r19, 0x00	; 0
     ee8:	40 e8       	ldi	r20, 0x80	; 128
     eea:	5f e3       	ldi	r21, 0x3F	; 63
     eec:	6b 89       	ldd	r22, Y+19	; 0x13
     eee:	7c 89       	ldd	r23, Y+20	; 0x14
     ef0:	8d 89       	ldd	r24, Y+21	; 0x15
     ef2:	9e 89       	ldd	r25, Y+22	; 0x16
     ef4:	0e 94 c6 30 	call	0x618c	; 0x618c <__cmpsf2>
     ef8:	88 23       	and	r24, r24
     efa:	2c f4       	brge	.+10     	; 0xf06 <liftStates+0x174>
     efc:	81 e0       	ldi	r24, 0x01	; 1
     efe:	90 e0       	ldi	r25, 0x00	; 0
     f00:	98 8f       	std	Y+24, r25	; 0x18
     f02:	8f 8b       	std	Y+23, r24	; 0x17
     f04:	3f c0       	rjmp	.+126    	; 0xf84 <liftStates+0x1f2>
     f06:	20 e0       	ldi	r18, 0x00	; 0
     f08:	3f ef       	ldi	r19, 0xFF	; 255
     f0a:	4f e7       	ldi	r20, 0x7F	; 127
     f0c:	57 e4       	ldi	r21, 0x47	; 71
     f0e:	6b 89       	ldd	r22, Y+19	; 0x13
     f10:	7c 89       	ldd	r23, Y+20	; 0x14
     f12:	8d 89       	ldd	r24, Y+21	; 0x15
     f14:	9e 89       	ldd	r25, Y+22	; 0x16
     f16:	0e 94 4e 32 	call	0x649c	; 0x649c <__gesf2>
     f1a:	18 16       	cp	r1, r24
     f1c:	4c f5       	brge	.+82     	; 0xf70 <liftStates+0x1de>
     f1e:	20 e0       	ldi	r18, 0x00	; 0
     f20:	30 e0       	ldi	r19, 0x00	; 0
     f22:	40 e2       	ldi	r20, 0x20	; 32
     f24:	51 e4       	ldi	r21, 0x41	; 65
     f26:	6f 85       	ldd	r22, Y+15	; 0x0f
     f28:	78 89       	ldd	r23, Y+16	; 0x10
     f2a:	89 89       	ldd	r24, Y+17	; 0x11
     f2c:	9a 89       	ldd	r25, Y+18	; 0x12
     f2e:	0e 94 52 32 	call	0x64a4	; 0x64a4 <__mulsf3>
     f32:	dc 01       	movw	r26, r24
     f34:	cb 01       	movw	r24, r22
     f36:	bc 01       	movw	r22, r24
     f38:	cd 01       	movw	r24, r26
     f3a:	0e 94 32 31 	call	0x6264	; 0x6264 <__fixunssfsi>
     f3e:	dc 01       	movw	r26, r24
     f40:	cb 01       	movw	r24, r22
     f42:	98 8f       	std	Y+24, r25	; 0x18
     f44:	8f 8b       	std	Y+23, r24	; 0x17
     f46:	0f c0       	rjmp	.+30     	; 0xf66 <liftStates+0x1d4>
     f48:	8a ef       	ldi	r24, 0xFA	; 250
     f4a:	90 e0       	ldi	r25, 0x00	; 0
     f4c:	9a 8f       	std	Y+26, r25	; 0x1a
     f4e:	89 8f       	std	Y+25, r24	; 0x19
     f50:	89 8d       	ldd	r24, Y+25	; 0x19
     f52:	9a 8d       	ldd	r25, Y+26	; 0x1a
     f54:	01 97       	sbiw	r24, 0x01	; 1
     f56:	f1 f7       	brne	.-4      	; 0xf54 <liftStates+0x1c2>
     f58:	9a 8f       	std	Y+26, r25	; 0x1a
     f5a:	89 8f       	std	Y+25, r24	; 0x19
     f5c:	8f 89       	ldd	r24, Y+23	; 0x17
     f5e:	98 8d       	ldd	r25, Y+24	; 0x18
     f60:	01 97       	sbiw	r24, 0x01	; 1
     f62:	98 8f       	std	Y+24, r25	; 0x18
     f64:	8f 8b       	std	Y+23, r24	; 0x17
     f66:	8f 89       	ldd	r24, Y+23	; 0x17
     f68:	98 8d       	ldd	r25, Y+24	; 0x18
     f6a:	00 97       	sbiw	r24, 0x00	; 0
     f6c:	69 f7       	brne	.-38     	; 0xf48 <liftStates+0x1b6>
     f6e:	14 c0       	rjmp	.+40     	; 0xf98 <liftStates+0x206>
     f70:	6b 89       	ldd	r22, Y+19	; 0x13
     f72:	7c 89       	ldd	r23, Y+20	; 0x14
     f74:	8d 89       	ldd	r24, Y+21	; 0x15
     f76:	9e 89       	ldd	r25, Y+22	; 0x16
     f78:	0e 94 32 31 	call	0x6264	; 0x6264 <__fixunssfsi>
     f7c:	dc 01       	movw	r26, r24
     f7e:	cb 01       	movw	r24, r22
     f80:	98 8f       	std	Y+24, r25	; 0x18
     f82:	8f 8b       	std	Y+23, r24	; 0x17
     f84:	8f 89       	ldd	r24, Y+23	; 0x17
     f86:	98 8d       	ldd	r25, Y+24	; 0x18
     f88:	9c 8f       	std	Y+28, r25	; 0x1c
     f8a:	8b 8f       	std	Y+27, r24	; 0x1b
     f8c:	8b 8d       	ldd	r24, Y+27	; 0x1b
     f8e:	9c 8d       	ldd	r25, Y+28	; 0x1c
     f90:	01 97       	sbiw	r24, 0x01	; 1
     f92:	f1 f7       	brne	.-4      	; 0xf90 <liftStates+0x1fe>
     f94:	9c 8f       	std	Y+28, r25	; 0x1c
     f96:	8b 8f       	std	Y+27, r24	; 0x1b
     f98:	ce 01       	movw	r24, r28
     f9a:	4d 96       	adiw	r24, 0x1d	; 29
     f9c:	64 ed       	ldi	r22, 0xD4	; 212
     f9e:	9f d3       	rcall	.+1854   	; 0x16de <CAN_Write>
     fa0:	88 23       	and	r24, r24
     fa2:	09 f0       	breq	.+2      	; 0xfa6 <liftStates+0x214>
     fa4:	87 cf       	rjmp	.-242    	; 0xeb4 <liftStates+0x122>
     fa6:	a5 96       	adiw	r28, 0x25	; 37
     fa8:	0f b6       	in	r0, 0x3f	; 63
     faa:	f8 94       	cli
     fac:	de bf       	out	0x3e, r29	; 62
     fae:	0f be       	out	0x3f, r0	; 63
     fb0:	cd bf       	out	0x3d, r28	; 61
     fb2:	df 91       	pop	r29
     fb4:	cf 91       	pop	r28
     fb6:	08 95       	ret

00000fb8 <liftMove>:
     fb8:	cf 93       	push	r28
     fba:	df 93       	push	r29
     fbc:	00 d0       	rcall	.+0      	; 0xfbe <liftMove+0x6>
     fbe:	cd b7       	in	r28, 0x3d	; 61
     fc0:	de b7       	in	r29, 0x3e	; 62
     fc2:	89 83       	std	Y+1, r24	; 0x01
     fc4:	6a 83       	std	Y+2, r22	; 0x02
     fc6:	89 81       	ldd	r24, Y+1	; 0x01
     fc8:	81 30       	cpi	r24, 0x01	; 1
     fca:	c9 f4       	brne	.+50     	; 0xffe <liftMove+0x46>
     fcc:	8a 81       	ldd	r24, Y+2	; 0x02
     fce:	81 30       	cpi	r24, 0x01	; 1
     fd0:	19 f4       	brne	.+6      	; 0xfd8 <liftMove+0x20>
     fd2:	81 e0       	ldi	r24, 0x01	; 1
     fd4:	cb dd       	rcall	.-1130   	; 0xb6c <rightDiafram>
     fd6:	0a c0       	rjmp	.+20     	; 0xfec <liftMove+0x34>
     fd8:	8a 81       	ldd	r24, Y+2	; 0x02
     fda:	8f 3f       	cpi	r24, 0xFF	; 255
     fdc:	19 f4       	brne	.+6      	; 0xfe4 <liftMove+0x2c>
     fde:	81 e0       	ldi	r24, 0x01	; 1
     fe0:	b2 dc       	rcall	.-1692   	; 0x946 <leftDiafram>
     fe2:	04 c0       	rjmp	.+8      	; 0xfec <liftMove+0x34>
     fe4:	81 e0       	ldi	r24, 0x01	; 1
     fe6:	c2 dd       	rcall	.-1148   	; 0xb6c <rightDiafram>
     fe8:	81 e0       	ldi	r24, 0x01	; 1
     fea:	ad dc       	rcall	.-1702   	; 0x946 <leftDiafram>
     fec:	81 e0       	ldi	r24, 0x01	; 1
     fee:	d1 de       	rcall	.-606    	; 0xd92 <liftStates>
     ff0:	81 e0       	ldi	r24, 0x01	; 1
     ff2:	0e 94 9f 2e 	call	0x5d3e	; 0x5d3e <checkLiftSensor>
     ff6:	8f 3f       	cpi	r24, 0xFF	; 255
     ff8:	d9 f4       	brne	.+54     	; 0x1030 <liftMove+0x78>
     ffa:	8f ef       	ldi	r24, 0xFF	; 255
     ffc:	1a c0       	rjmp	.+52     	; 0x1032 <liftMove+0x7a>
     ffe:	8f ef       	ldi	r24, 0xFF	; 255
    1000:	c8 de       	rcall	.-624    	; 0xd92 <liftStates>
    1002:	8a 81       	ldd	r24, Y+2	; 0x02
    1004:	81 30       	cpi	r24, 0x01	; 1
    1006:	19 f4       	brne	.+6      	; 0x100e <liftMove+0x56>
    1008:	8f ef       	ldi	r24, 0xFF	; 255
    100a:	b0 dd       	rcall	.-1184   	; 0xb6c <rightDiafram>
    100c:	0a c0       	rjmp	.+20     	; 0x1022 <liftMove+0x6a>
    100e:	8a 81       	ldd	r24, Y+2	; 0x02
    1010:	8f 3f       	cpi	r24, 0xFF	; 255
    1012:	19 f4       	brne	.+6      	; 0x101a <liftMove+0x62>
    1014:	8f ef       	ldi	r24, 0xFF	; 255
    1016:	97 dc       	rcall	.-1746   	; 0x946 <leftDiafram>
    1018:	04 c0       	rjmp	.+8      	; 0x1022 <liftMove+0x6a>
    101a:	8f ef       	ldi	r24, 0xFF	; 255
    101c:	a7 dd       	rcall	.-1202   	; 0xb6c <rightDiafram>
    101e:	8f ef       	ldi	r24, 0xFF	; 255
    1020:	92 dc       	rcall	.-1756   	; 0x946 <leftDiafram>
    1022:	8f ef       	ldi	r24, 0xFF	; 255
    1024:	0e 94 9f 2e 	call	0x5d3e	; 0x5d3e <checkLiftSensor>
    1028:	8f 3f       	cpi	r24, 0xFF	; 255
    102a:	11 f4       	brne	.+4      	; 0x1030 <liftMove+0x78>
    102c:	8f ef       	ldi	r24, 0xFF	; 255
    102e:	01 c0       	rjmp	.+2      	; 0x1032 <liftMove+0x7a>
    1030:	81 e0       	ldi	r24, 0x01	; 1
    1032:	0f 90       	pop	r0
    1034:	0f 90       	pop	r0
    1036:	df 91       	pop	r29
    1038:	cf 91       	pop	r28
    103a:	08 95       	ret

0000103c <servo_init>:
    103c:	2f 92       	push	r2
    103e:	3f 92       	push	r3
    1040:	4f 92       	push	r4
    1042:	5f 92       	push	r5
    1044:	6f 92       	push	r6
    1046:	7f 92       	push	r7
    1048:	8f 92       	push	r8
    104a:	9f 92       	push	r9
    104c:	af 92       	push	r10
    104e:	bf 92       	push	r11
    1050:	cf 92       	push	r12
    1052:	df 92       	push	r13
    1054:	ef 92       	push	r14
    1056:	ff 92       	push	r15
    1058:	0f 93       	push	r16
    105a:	1f 93       	push	r17
    105c:	cf 93       	push	r28
    105e:	df 93       	push	r29
    1060:	00 d0       	rcall	.+0      	; 0x1062 <servo_init+0x26>
    1062:	00 d0       	rcall	.+0      	; 0x1064 <servo_init+0x28>
    1064:	cd b7       	in	r28, 0x3d	; 61
    1066:	de b7       	in	r29, 0x3e	; 62
    1068:	9a 83       	std	Y+2, r25	; 0x02
    106a:	89 83       	std	Y+1, r24	; 0x01
    106c:	8d e2       	ldi	r24, 0x2D	; 45
    106e:	90 e0       	ldi	r25, 0x00	; 0
    1070:	2d e2       	ldi	r18, 0x2D	; 45
    1072:	30 e0       	ldi	r19, 0x00	; 0
    1074:	f9 01       	movw	r30, r18
    1076:	20 81       	ld	r18, Z
    1078:	28 63       	ori	r18, 0x38	; 56
    107a:	fc 01       	movw	r30, r24
    107c:	20 83       	st	Z, r18
    107e:	84 e9       	ldi	r24, 0x94	; 148
    1080:	90 e0       	ldi	r25, 0x00	; 0
    1082:	fc 01       	movw	r30, r24
    1084:	11 82       	std	Z+1, r1	; 0x01
    1086:	10 82       	st	Z, r1
    1088:	88 e9       	ldi	r24, 0x98	; 152
    108a:	90 e0       	ldi	r25, 0x00	; 0
    108c:	fc 01       	movw	r30, r24
    108e:	11 82       	std	Z+1, r1	; 0x01
    1090:	10 82       	st	Z, r1
    1092:	8a e9       	ldi	r24, 0x9A	; 154
    1094:	90 e0       	ldi	r25, 0x00	; 0
    1096:	fc 01       	movw	r30, r24
    1098:	11 82       	std	Z+1, r1	; 0x01
    109a:	10 82       	st	Z, r1
    109c:	8c e9       	ldi	r24, 0x9C	; 156
    109e:	90 e0       	ldi	r25, 0x00	; 0
    10a0:	fc 01       	movw	r30, r24
    10a2:	11 82       	std	Z+1, r1	; 0x01
    10a4:	10 82       	st	Z, r1
    10a6:	80 e9       	ldi	r24, 0x90	; 144
    10a8:	90 e0       	ldi	r25, 0x00	; 0
    10aa:	2e ef       	ldi	r18, 0xFE	; 254
    10ac:	fc 01       	movw	r30, r24
    10ae:	20 83       	st	Z, r18
    10b0:	81 e9       	ldi	r24, 0x91	; 145
    10b2:	90 e0       	ldi	r25, 0x00	; 0
    10b4:	29 e1       	ldi	r18, 0x19	; 25
    10b6:	fc 01       	movw	r30, r24
    10b8:	20 83       	st	Z, r18
    10ba:	86 e9       	ldi	r24, 0x96	; 150
    10bc:	90 e0       	ldi	r25, 0x00	; 0
    10be:	9c 83       	std	Y+4, r25	; 0x04
    10c0:	8b 83       	std	Y+3, r24	; 0x03
    10c2:	89 81       	ldd	r24, Y+1	; 0x01
    10c4:	9a 81       	ldd	r25, Y+2	; 0x02
    10c6:	9c 01       	movw	r18, r24
    10c8:	40 e0       	ldi	r20, 0x00	; 0
    10ca:	50 e0       	ldi	r21, 0x00	; 0
    10cc:	60 e0       	ldi	r22, 0x00	; 0
    10ce:	70 e0       	ldi	r23, 0x00	; 0
    10d0:	cb 01       	movw	r24, r22
    10d2:	68 94       	set
    10d4:	22 24       	eor	r2, r2
    10d6:	27 f8       	bld	r2, 7
    10d8:	0f 2e       	mov	r0, r31
    10da:	f6 e9       	ldi	r31, 0x96	; 150
    10dc:	3f 2e       	mov	r3, r31
    10de:	f0 2d       	mov	r31, r0
    10e0:	0f 2e       	mov	r0, r31
    10e2:	f8 e9       	ldi	r31, 0x98	; 152
    10e4:	4f 2e       	mov	r4, r31
    10e6:	f0 2d       	mov	r31, r0
    10e8:	51 2c       	mov	r5, r1
    10ea:	61 2c       	mov	r6, r1
    10ec:	71 2c       	mov	r7, r1
    10ee:	81 2c       	mov	r8, r1
    10f0:	91 2c       	mov	r9, r1
    10f2:	a2 2e       	mov	r10, r18
    10f4:	b3 2e       	mov	r11, r19
    10f6:	c4 2e       	mov	r12, r20
    10f8:	d5 2e       	mov	r13, r21
    10fa:	e6 2e       	mov	r14, r22
    10fc:	f7 2e       	mov	r15, r23
    10fe:	08 2f       	mov	r16, r24
    1100:	19 2f       	mov	r17, r25
    1102:	22 2d       	mov	r18, r2
    1104:	33 2d       	mov	r19, r3
    1106:	44 2d       	mov	r20, r4
    1108:	55 2d       	mov	r21, r5
    110a:	66 2d       	mov	r22, r6
    110c:	77 2d       	mov	r23, r7
    110e:	88 2d       	mov	r24, r8
    1110:	99 2d       	mov	r25, r9
    1112:	0e 94 b7 32 	call	0x656e	; 0x656e <__udivdi3>
    1116:	22 2e       	mov	r2, r18
    1118:	33 2e       	mov	r3, r19
    111a:	44 2e       	mov	r4, r20
    111c:	55 2e       	mov	r5, r21
    111e:	66 2e       	mov	r6, r22
    1120:	77 2e       	mov	r7, r23
    1122:	88 2e       	mov	r8, r24
    1124:	99 2e       	mov	r9, r25
    1126:	a2 2c       	mov	r10, r2
    1128:	b3 2c       	mov	r11, r3
    112a:	c4 2c       	mov	r12, r4
    112c:	d5 2c       	mov	r13, r5
    112e:	e6 2c       	mov	r14, r6
    1130:	f7 2c       	mov	r15, r7
    1132:	08 2d       	mov	r16, r8
    1134:	19 2d       	mov	r17, r9
    1136:	2a 2d       	mov	r18, r10
    1138:	3b 2d       	mov	r19, r11
    113a:	4c 2d       	mov	r20, r12
    113c:	5d 2d       	mov	r21, r13
    113e:	6e 2d       	mov	r22, r14
    1140:	7f 2d       	mov	r23, r15
    1142:	80 2f       	mov	r24, r16
    1144:	91 2f       	mov	r25, r17
    1146:	0e 94 9b 31 	call	0x6336	; 0x6336 <__floatundisf>
    114a:	dc 01       	movw	r26, r24
    114c:	cb 01       	movw	r24, r22
    114e:	20 e0       	ldi	r18, 0x00	; 0
    1150:	30 e0       	ldi	r19, 0x00	; 0
    1152:	40 e0       	ldi	r20, 0x00	; 0
    1154:	5f e3       	ldi	r21, 0x3F	; 63
    1156:	bc 01       	movw	r22, r24
    1158:	cd 01       	movw	r24, r26
    115a:	0e 94 61 30 	call	0x60c2	; 0x60c2 <__subsf3>
    115e:	dc 01       	movw	r26, r24
    1160:	cb 01       	movw	r24, r22
    1162:	bc 01       	movw	r22, r24
    1164:	cd 01       	movw	r24, r26
    1166:	0e 94 32 31 	call	0x6264	; 0x6264 <__fixunssfsi>
    116a:	dc 01       	movw	r26, r24
    116c:	cb 01       	movw	r24, r22
    116e:	eb 81       	ldd	r30, Y+3	; 0x03
    1170:	fc 81       	ldd	r31, Y+4	; 0x04
    1172:	91 83       	std	Z+1, r25	; 0x01
    1174:	80 83       	st	Z, r24
    1176:	0f 90       	pop	r0
    1178:	0f 90       	pop	r0
    117a:	0f 90       	pop	r0
    117c:	0f 90       	pop	r0
    117e:	df 91       	pop	r29
    1180:	cf 91       	pop	r28
    1182:	1f 91       	pop	r17
    1184:	0f 91       	pop	r16
    1186:	ff 90       	pop	r15
    1188:	ef 90       	pop	r14
    118a:	df 90       	pop	r13
    118c:	cf 90       	pop	r12
    118e:	bf 90       	pop	r11
    1190:	af 90       	pop	r10
    1192:	9f 90       	pop	r9
    1194:	8f 90       	pop	r8
    1196:	7f 90       	pop	r7
    1198:	6f 90       	pop	r6
    119a:	5f 90       	pop	r5
    119c:	4f 90       	pop	r4
    119e:	3f 90       	pop	r3
    11a0:	2f 90       	pop	r2
    11a2:	08 95       	ret

000011a4 <__vector_18>:
    11a4:	1f 92       	push	r1
    11a6:	0f 92       	push	r0
    11a8:	00 90 5f 00 	lds	r0, 0x005F
    11ac:	0f 92       	push	r0
    11ae:	11 24       	eor	r1, r1
    11b0:	00 90 5b 00 	lds	r0, 0x005B
    11b4:	0f 92       	push	r0
    11b6:	2f 93       	push	r18
    11b8:	3f 93       	push	r19
    11ba:	4f 93       	push	r20
    11bc:	5f 93       	push	r21
    11be:	8f 93       	push	r24
    11c0:	9f 93       	push	r25
    11c2:	ef 93       	push	r30
    11c4:	ff 93       	push	r31
    11c6:	cf 93       	push	r28
    11c8:	df 93       	push	r29
    11ca:	00 d0       	rcall	.+0      	; 0x11cc <__vector_18+0x28>
    11cc:	00 d0       	rcall	.+0      	; 0x11ce <__vector_18+0x2a>
    11ce:	cd b7       	in	r28, 0x3d	; 61
    11d0:	de b7       	in	r29, 0x3e	; 62
    11d2:	8d ee       	ldi	r24, 0xED	; 237
    11d4:	90 e0       	ldi	r25, 0x00	; 0
    11d6:	fc 01       	movw	r30, r24
    11d8:	80 81       	ld	r24, Z
    11da:	8b 83       	std	Y+3, r24	; 0x03
    11dc:	19 82       	std	Y+1, r1	; 0x01
    11de:	a4 c0       	rjmp	.+328    	; 0x1328 <__vector_18+0x184>
    11e0:	8d ee       	ldi	r24, 0xED	; 237
    11e2:	90 e0       	ldi	r25, 0x00	; 0
    11e4:	29 81       	ldd	r18, Y+1	; 0x01
    11e6:	22 95       	swap	r18
    11e8:	20 7f       	andi	r18, 0xF0	; 240
    11ea:	fc 01       	movw	r30, r24
    11ec:	20 83       	st	Z, r18
    11ee:	8e ee       	ldi	r24, 0xEE	; 238
    11f0:	90 e0       	ldi	r25, 0x00	; 0
    11f2:	fc 01       	movw	r30, r24
    11f4:	80 81       	ld	r24, Z
    11f6:	82 95       	swap	r24
    11f8:	86 95       	lsr	r24
    11fa:	87 70       	andi	r24, 0x07	; 7
    11fc:	88 2f       	mov	r24, r24
    11fe:	90 e0       	ldi	r25, 0x00	; 0
    1200:	81 70       	andi	r24, 0x01	; 1
    1202:	99 27       	eor	r25, r25
    1204:	00 97       	sbiw	r24, 0x00	; 0
    1206:	09 f4       	brne	.+2      	; 0x120a <__vector_18+0x66>
    1208:	70 c0       	rjmp	.+224    	; 0x12ea <__vector_18+0x146>
    120a:	8f ee       	ldi	r24, 0xEF	; 239
    120c:	90 e0       	ldi	r25, 0x00	; 0
    120e:	20 e8       	ldi	r18, 0x80	; 128
    1210:	fc 01       	movw	r30, r24
    1212:	20 83       	st	Z, r18
    1214:	8e ee       	ldi	r24, 0xEE	; 238
    1216:	90 e0       	ldi	r25, 0x00	; 0
    1218:	2e ee       	ldi	r18, 0xEE	; 238
    121a:	30 e0       	ldi	r19, 0x00	; 0
    121c:	f9 01       	movw	r30, r18
    121e:	20 81       	ld	r18, Z
    1220:	2f 7d       	andi	r18, 0xDF	; 223
    1222:	fc 01       	movw	r30, r24
    1224:	20 83       	st	Z, r18
    1226:	82 ef       	ldi	r24, 0xF2	; 242
    1228:	90 e0       	ldi	r25, 0x00	; 0
    122a:	fc 01       	movw	r30, r24
    122c:	80 81       	ld	r24, Z
    122e:	82 95       	swap	r24
    1230:	86 95       	lsr	r24
    1232:	87 70       	andi	r24, 0x07	; 7
    1234:	28 2f       	mov	r18, r24
    1236:	83 ef       	ldi	r24, 0xF3	; 243
    1238:	90 e0       	ldi	r25, 0x00	; 0
    123a:	fc 01       	movw	r30, r24
    123c:	80 81       	ld	r24, Z
    123e:	88 2f       	mov	r24, r24
    1240:	90 e0       	ldi	r25, 0x00	; 0
    1242:	88 0f       	add	r24, r24
    1244:	99 1f       	adc	r25, r25
    1246:	88 0f       	add	r24, r24
    1248:	99 1f       	adc	r25, r25
    124a:	88 0f       	add	r24, r24
    124c:	99 1f       	adc	r25, r25
    124e:	82 2b       	or	r24, r18
    1250:	8c 83       	std	Y+4, r24	; 0x04
    1252:	1a 82       	std	Y+2, r1	; 0x02
    1254:	26 c0       	rjmp	.+76     	; 0x12a2 <__vector_18+0xfe>
    1256:	8c 81       	ldd	r24, Y+4	; 0x04
    1258:	88 2f       	mov	r24, r24
    125a:	90 e0       	ldi	r25, 0x00	; 0
    125c:	81 50       	subi	r24, 0x01	; 1
    125e:	90 48       	sbci	r25, 0x80	; 128
    1260:	88 0f       	add	r24, r24
    1262:	99 1f       	adc	r25, r25
    1264:	8c 58       	subi	r24, 0x8C	; 140
    1266:	9e 4f       	sbci	r25, 0xFE	; 254
    1268:	fc 01       	movw	r30, r24
    126a:	20 81       	ld	r18, Z
    126c:	31 81       	ldd	r19, Z+1	; 0x01
    126e:	8c 81       	ldd	r24, Y+4	; 0x04
    1270:	88 2f       	mov	r24, r24
    1272:	90 e0       	ldi	r25, 0x00	; 0
    1274:	01 97       	sbiw	r24, 0x01	; 1
    1276:	88 57       	subi	r24, 0x78	; 120
    1278:	9e 4f       	sbci	r25, 0xFE	; 254
    127a:	fc 01       	movw	r30, r24
    127c:	80 81       	ld	r24, Z
    127e:	48 2f       	mov	r20, r24
    1280:	50 e0       	ldi	r21, 0x00	; 0
    1282:	8a 81       	ldd	r24, Y+2	; 0x02
    1284:	88 2f       	mov	r24, r24
    1286:	90 e0       	ldi	r25, 0x00	; 0
    1288:	84 0f       	add	r24, r20
    128a:	95 1f       	adc	r25, r21
    128c:	82 0f       	add	r24, r18
    128e:	93 1f       	adc	r25, r19
    1290:	2a ef       	ldi	r18, 0xFA	; 250
    1292:	30 e0       	ldi	r19, 0x00	; 0
    1294:	f9 01       	movw	r30, r18
    1296:	20 81       	ld	r18, Z
    1298:	fc 01       	movw	r30, r24
    129a:	20 83       	st	Z, r18
    129c:	8a 81       	ldd	r24, Y+2	; 0x02
    129e:	8f 5f       	subi	r24, 0xFF	; 255
    12a0:	8a 83       	std	Y+2, r24	; 0x02
    12a2:	8a 81       	ldd	r24, Y+2	; 0x02
    12a4:	88 30       	cpi	r24, 0x08	; 8
    12a6:	b8 f2       	brcs	.-82     	; 0x1256 <__vector_18+0xb2>
    12a8:	8c 81       	ldd	r24, Y+4	; 0x04
    12aa:	88 2f       	mov	r24, r24
    12ac:	90 e0       	ldi	r25, 0x00	; 0
    12ae:	01 97       	sbiw	r24, 0x01	; 1
    12b0:	88 57       	subi	r24, 0x78	; 120
    12b2:	9e 4f       	sbci	r25, 0xFE	; 254
    12b4:	fc 01       	movw	r30, r24
    12b6:	20 81       	ld	r18, Z
    12b8:	2f 5f       	subi	r18, 0xFF	; 255
    12ba:	fc 01       	movw	r30, r24
    12bc:	20 83       	st	Z, r18
    12be:	25 30       	cpi	r18, 0x05	; 5
    12c0:	41 f4       	brne	.+16     	; 0x12d2 <__vector_18+0x12e>
    12c2:	8c 81       	ldd	r24, Y+4	; 0x04
    12c4:	88 2f       	mov	r24, r24
    12c6:	90 e0       	ldi	r25, 0x00	; 0
    12c8:	01 97       	sbiw	r24, 0x01	; 1
    12ca:	88 57       	subi	r24, 0x78	; 120
    12cc:	9e 4f       	sbci	r25, 0xFE	; 254
    12ce:	fc 01       	movw	r30, r24
    12d0:	10 82       	st	Z, r1
    12d2:	8c 81       	ldd	r24, Y+4	; 0x04
    12d4:	88 2f       	mov	r24, r24
    12d6:	90 e0       	ldi	r25, 0x00	; 0
    12d8:	01 97       	sbiw	r24, 0x01	; 1
    12da:	84 56       	subi	r24, 0x64	; 100
    12dc:	9e 4f       	sbci	r25, 0xFE	; 254
    12de:	fc 01       	movw	r30, r24
    12e0:	20 81       	ld	r18, Z
    12e2:	2f 5f       	subi	r18, 0xFF	; 255
    12e4:	fc 01       	movw	r30, r24
    12e6:	20 83       	st	Z, r18
    12e8:	23 c0       	rjmp	.+70     	; 0x1330 <__vector_18+0x18c>
    12ea:	8e ee       	ldi	r24, 0xEE	; 238
    12ec:	90 e0       	ldi	r25, 0x00	; 0
    12ee:	fc 01       	movw	r30, r24
    12f0:	80 81       	ld	r24, Z
    12f2:	82 95       	swap	r24
    12f4:	86 95       	lsr	r24
    12f6:	86 95       	lsr	r24
    12f8:	83 70       	andi	r24, 0x03	; 3
    12fa:	88 2f       	mov	r24, r24
    12fc:	90 e0       	ldi	r25, 0x00	; 0
    12fe:	81 70       	andi	r24, 0x01	; 1
    1300:	99 27       	eor	r25, r25
    1302:	00 97       	sbiw	r24, 0x00	; 0
    1304:	71 f0       	breq	.+28     	; 0x1322 <__vector_18+0x17e>
    1306:	8f ee       	ldi	r24, 0xEF	; 239
    1308:	90 e0       	ldi	r25, 0x00	; 0
    130a:	fc 01       	movw	r30, r24
    130c:	10 82       	st	Z, r1
    130e:	8e ee       	ldi	r24, 0xEE	; 238
    1310:	90 e0       	ldi	r25, 0x00	; 0
    1312:	2e ee       	ldi	r18, 0xEE	; 238
    1314:	30 e0       	ldi	r19, 0x00	; 0
    1316:	f9 01       	movw	r30, r18
    1318:	20 81       	ld	r18, Z
    131a:	2f 7b       	andi	r18, 0xBF	; 191
    131c:	fc 01       	movw	r30, r24
    131e:	20 83       	st	Z, r18
    1320:	07 c0       	rjmp	.+14     	; 0x1330 <__vector_18+0x18c>
    1322:	89 81       	ldd	r24, Y+1	; 0x01
    1324:	8f 5f       	subi	r24, 0xFF	; 255
    1326:	89 83       	std	Y+1, r24	; 0x01
    1328:	89 81       	ldd	r24, Y+1	; 0x01
    132a:	8f 30       	cpi	r24, 0x0F	; 15
    132c:	08 f4       	brcc	.+2      	; 0x1330 <__vector_18+0x18c>
    132e:	58 cf       	rjmp	.-336    	; 0x11e0 <__vector_18+0x3c>
    1330:	8d ee       	ldi	r24, 0xED	; 237
    1332:	90 e0       	ldi	r25, 0x00	; 0
    1334:	2b 81       	ldd	r18, Y+3	; 0x03
    1336:	fc 01       	movw	r30, r24
    1338:	20 83       	st	Z, r18
    133a:	8a ed       	ldi	r24, 0xDA	; 218
    133c:	90 e0       	ldi	r25, 0x00	; 0
    133e:	2a ed       	ldi	r18, 0xDA	; 218
    1340:	30 e0       	ldi	r19, 0x00	; 0
    1342:	f9 01       	movw	r30, r18
    1344:	20 81       	ld	r18, Z
    1346:	fc 01       	movw	r30, r24
    1348:	20 83       	st	Z, r18
    134a:	0f 90       	pop	r0
    134c:	0f 90       	pop	r0
    134e:	0f 90       	pop	r0
    1350:	0f 90       	pop	r0
    1352:	df 91       	pop	r29
    1354:	cf 91       	pop	r28
    1356:	ff 91       	pop	r31
    1358:	ef 91       	pop	r30
    135a:	9f 91       	pop	r25
    135c:	8f 91       	pop	r24
    135e:	5f 91       	pop	r21
    1360:	4f 91       	pop	r20
    1362:	3f 91       	pop	r19
    1364:	2f 91       	pop	r18
    1366:	0f 90       	pop	r0
    1368:	00 92 5b 00 	sts	0x005B, r0
    136c:	0f 90       	pop	r0
    136e:	00 92 5f 00 	sts	0x005F, r0
    1372:	0f 90       	pop	r0
    1374:	1f 90       	pop	r1
    1376:	18 95       	reti

00001378 <CAN_InitModule>:
    1378:	cf 93       	push	r28
    137a:	df 93       	push	r29
    137c:	00 d0       	rcall	.+0      	; 0x137e <CAN_InitModule+0x6>
    137e:	cd b7       	in	r28, 0x3d	; 61
    1380:	de b7       	in	r29, 0x3e	; 62
    1382:	88 ed       	ldi	r24, 0xD8	; 216
    1384:	90 e0       	ldi	r25, 0x00	; 0
    1386:	21 e0       	ldi	r18, 0x01	; 1
    1388:	fc 01       	movw	r30, r24
    138a:	20 83       	st	Z, r18
    138c:	19 82       	std	Y+1, r1	; 0x01
    138e:	3e c0       	rjmp	.+124    	; 0x140c <CAN_InitModule+0x94>
    1390:	8d ee       	ldi	r24, 0xED	; 237
    1392:	90 e0       	ldi	r25, 0x00	; 0
    1394:	29 81       	ldd	r18, Y+1	; 0x01
    1396:	22 95       	swap	r18
    1398:	20 7f       	andi	r18, 0xF0	; 240
    139a:	fc 01       	movw	r30, r24
    139c:	20 83       	st	Z, r18
    139e:	8e ee       	ldi	r24, 0xEE	; 238
    13a0:	90 e0       	ldi	r25, 0x00	; 0
    13a2:	fc 01       	movw	r30, r24
    13a4:	10 82       	st	Z, r1
    13a6:	8f ee       	ldi	r24, 0xEF	; 239
    13a8:	90 e0       	ldi	r25, 0x00	; 0
    13aa:	fc 01       	movw	r30, r24
    13ac:	10 82       	st	Z, r1
    13ae:	83 ef       	ldi	r24, 0xF3	; 243
    13b0:	90 e0       	ldi	r25, 0x00	; 0
    13b2:	fc 01       	movw	r30, r24
    13b4:	10 82       	st	Z, r1
    13b6:	82 ef       	ldi	r24, 0xF2	; 242
    13b8:	90 e0       	ldi	r25, 0x00	; 0
    13ba:	fc 01       	movw	r30, r24
    13bc:	10 82       	st	Z, r1
    13be:	81 ef       	ldi	r24, 0xF1	; 241
    13c0:	90 e0       	ldi	r25, 0x00	; 0
    13c2:	fc 01       	movw	r30, r24
    13c4:	10 82       	st	Z, r1
    13c6:	80 ef       	ldi	r24, 0xF0	; 240
    13c8:	90 e0       	ldi	r25, 0x00	; 0
    13ca:	fc 01       	movw	r30, r24
    13cc:	10 82       	st	Z, r1
    13ce:	87 ef       	ldi	r24, 0xF7	; 247
    13d0:	90 e0       	ldi	r25, 0x00	; 0
    13d2:	fc 01       	movw	r30, r24
    13d4:	10 82       	st	Z, r1
    13d6:	86 ef       	ldi	r24, 0xF6	; 246
    13d8:	90 e0       	ldi	r25, 0x00	; 0
    13da:	fc 01       	movw	r30, r24
    13dc:	10 82       	st	Z, r1
    13de:	85 ef       	ldi	r24, 0xF5	; 245
    13e0:	90 e0       	ldi	r25, 0x00	; 0
    13e2:	fc 01       	movw	r30, r24
    13e4:	10 82       	st	Z, r1
    13e6:	84 ef       	ldi	r24, 0xF4	; 244
    13e8:	90 e0       	ldi	r25, 0x00	; 0
    13ea:	fc 01       	movw	r30, r24
    13ec:	10 82       	st	Z, r1
    13ee:	1a 82       	std	Y+2, r1	; 0x02
    13f0:	07 c0       	rjmp	.+14     	; 0x1400 <CAN_InitModule+0x88>
    13f2:	8a ef       	ldi	r24, 0xFA	; 250
    13f4:	90 e0       	ldi	r25, 0x00	; 0
    13f6:	fc 01       	movw	r30, r24
    13f8:	10 82       	st	Z, r1
    13fa:	8a 81       	ldd	r24, Y+2	; 0x02
    13fc:	8f 5f       	subi	r24, 0xFF	; 255
    13fe:	8a 83       	std	Y+2, r24	; 0x02
    1400:	8a 81       	ldd	r24, Y+2	; 0x02
    1402:	88 30       	cpi	r24, 0x08	; 8
    1404:	b0 f3       	brcs	.-20     	; 0x13f2 <CAN_InitModule+0x7a>
    1406:	89 81       	ldd	r24, Y+1	; 0x01
    1408:	8f 5f       	subi	r24, 0xFF	; 255
    140a:	89 83       	std	Y+1, r24	; 0x01
    140c:	89 81       	ldd	r24, Y+1	; 0x01
    140e:	8f 30       	cpi	r24, 0x0F	; 15
    1410:	08 f4       	brcc	.+2      	; 0x1414 <CAN_InitModule+0x9c>
    1412:	be cf       	rjmp	.-132    	; 0x1390 <CAN_InitModule+0x18>
    1414:	88 ed       	ldi	r24, 0xD8	; 216
    1416:	90 e0       	ldi	r25, 0x00	; 0
    1418:	22 e0       	ldi	r18, 0x02	; 2
    141a:	fc 01       	movw	r30, r24
    141c:	20 83       	st	Z, r18
    141e:	82 ee       	ldi	r24, 0xE2	; 226
    1420:	90 e0       	ldi	r25, 0x00	; 0
    1422:	21 e0       	ldi	r18, 0x01	; 1
    1424:	fc 01       	movw	r30, r24
    1426:	20 83       	st	Z, r18
    1428:	83 ee       	ldi	r24, 0xE3	; 227
    142a:	90 e0       	ldi	r25, 0x00	; 0
    142c:	28 e0       	ldi	r18, 0x08	; 8
    142e:	fc 01       	movw	r30, r24
    1430:	20 83       	st	Z, r18
    1432:	84 ee       	ldi	r24, 0xE4	; 228
    1434:	90 e0       	ldi	r25, 0x00	; 0
    1436:	2e e5       	ldi	r18, 0x5E	; 94
    1438:	fc 01       	movw	r30, r24
    143a:	20 83       	st	Z, r18
    143c:	85 ee       	ldi	r24, 0xE5	; 229
    143e:	90 e0       	ldi	r25, 0x00	; 0
    1440:	fc 01       	movw	r30, r24
    1442:	10 82       	st	Z, r1
    1444:	8b ed       	ldi	r24, 0xDB	; 219
    1446:	90 e0       	ldi	r25, 0x00	; 0
    1448:	20 eb       	ldi	r18, 0xB0	; 176
    144a:	fc 01       	movw	r30, r24
    144c:	20 83       	st	Z, r18
    144e:	8f ed       	ldi	r24, 0xDF	; 223
    1450:	90 e0       	ldi	r25, 0x00	; 0
    1452:	2f e7       	ldi	r18, 0x7F	; 127
    1454:	fc 01       	movw	r30, r24
    1456:	20 83       	st	Z, r18
    1458:	8e ed       	ldi	r24, 0xDE	; 222
    145a:	90 e0       	ldi	r25, 0x00	; 0
    145c:	2f ef       	ldi	r18, 0xFF	; 255
    145e:	fc 01       	movw	r30, r24
    1460:	20 83       	st	Z, r18
    1462:	78 94       	sei
    1464:	0f 90       	pop	r0
    1466:	0f 90       	pop	r0
    1468:	df 91       	pop	r29
    146a:	cf 91       	pop	r28
    146c:	08 95       	ret

0000146e <CAN_InitRxMob>:
    146e:	cf 93       	push	r28
    1470:	df 93       	push	r29
    1472:	00 d0       	rcall	.+0      	; 0x1474 <CAN_InitRxMob+0x6>
    1474:	00 d0       	rcall	.+0      	; 0x1476 <CAN_InitRxMob+0x8>
    1476:	cd b7       	in	r28, 0x3d	; 61
    1478:	de b7       	in	r29, 0x3e	; 62
    147a:	9c 83       	std	Y+4, r25	; 0x04
    147c:	8b 83       	std	Y+3, r24	; 0x03
    147e:	8d ee       	ldi	r24, 0xED	; 237
    1480:	90 e0       	ldi	r25, 0x00	; 0
    1482:	fc 01       	movw	r30, r24
    1484:	80 81       	ld	r24, Z
    1486:	8a 83       	std	Y+2, r24	; 0x02
    1488:	00 00       	nop
    148a:	89 ed       	ldi	r24, 0xD9	; 217
    148c:	90 e0       	ldi	r25, 0x00	; 0
    148e:	fc 01       	movw	r30, r24
    1490:	80 81       	ld	r24, Z
    1492:	82 95       	swap	r24
    1494:	8f 70       	andi	r24, 0x0F	; 15
    1496:	88 2f       	mov	r24, r24
    1498:	90 e0       	ldi	r25, 0x00	; 0
    149a:	81 70       	andi	r24, 0x01	; 1
    149c:	99 27       	eor	r25, r25
    149e:	00 97       	sbiw	r24, 0x00	; 0
    14a0:	a1 f7       	brne	.-24     	; 0x148a <CAN_InitRxMob+0x1c>
    14a2:	89 ed       	ldi	r24, 0xD9	; 217
    14a4:	90 e0       	ldi	r25, 0x00	; 0
    14a6:	fc 01       	movw	r30, r24
    14a8:	80 81       	ld	r24, Z
    14aa:	86 95       	lsr	r24
    14ac:	86 95       	lsr	r24
    14ae:	86 95       	lsr	r24
    14b0:	88 2f       	mov	r24, r24
    14b2:	90 e0       	ldi	r25, 0x00	; 0
    14b4:	81 70       	andi	r24, 0x01	; 1
    14b6:	99 27       	eor	r25, r25
    14b8:	00 97       	sbiw	r24, 0x00	; 0
    14ba:	39 f7       	brne	.-50     	; 0x148a <CAN_InitRxMob+0x1c>
    14bc:	19 82       	std	Y+1, r1	; 0x01
    14be:	49 c0       	rjmp	.+146    	; 0x1552 <CAN_InitRxMob+0xe4>
    14c0:	8d ee       	ldi	r24, 0xED	; 237
    14c2:	90 e0       	ldi	r25, 0x00	; 0
    14c4:	29 81       	ldd	r18, Y+1	; 0x01
    14c6:	22 95       	swap	r18
    14c8:	20 7f       	andi	r18, 0xF0	; 240
    14ca:	fc 01       	movw	r30, r24
    14cc:	20 83       	st	Z, r18
    14ce:	8f ee       	ldi	r24, 0xEF	; 239
    14d0:	90 e0       	ldi	r25, 0x00	; 0
    14d2:	fc 01       	movw	r30, r24
    14d4:	80 81       	ld	r24, Z
    14d6:	82 95       	swap	r24
    14d8:	86 95       	lsr	r24
    14da:	86 95       	lsr	r24
    14dc:	83 70       	andi	r24, 0x03	; 3
    14de:	88 23       	and	r24, r24
    14e0:	21 f0       	breq	.+8      	; 0x14ea <CAN_InitRxMob+0x7c>
    14e2:	89 81       	ldd	r24, Y+1	; 0x01
    14e4:	8f 5f       	subi	r24, 0xFF	; 255
    14e6:	89 83       	std	Y+1, r24	; 0x01
    14e8:	34 c0       	rjmp	.+104    	; 0x1552 <CAN_InitRxMob+0xe4>
    14ea:	8f ee       	ldi	r24, 0xEF	; 239
    14ec:	90 e0       	ldi	r25, 0x00	; 0
    14ee:	2f e0       	ldi	r18, 0x0F	; 15
    14f0:	fc 01       	movw	r30, r24
    14f2:	20 83       	st	Z, r18
    14f4:	83 ef       	ldi	r24, 0xF3	; 243
    14f6:	90 e0       	ldi	r25, 0x00	; 0
    14f8:	2b 81       	ldd	r18, Y+3	; 0x03
    14fa:	3c 81       	ldd	r19, Y+4	; 0x04
    14fc:	33 27       	eor	r19, r19
    14fe:	36 95       	lsr	r19
    1500:	27 95       	ror	r18
    1502:	36 95       	lsr	r19
    1504:	27 95       	ror	r18
    1506:	36 95       	lsr	r19
    1508:	27 95       	ror	r18
    150a:	fc 01       	movw	r30, r24
    150c:	20 83       	st	Z, r18
    150e:	82 ef       	ldi	r24, 0xF2	; 242
    1510:	90 e0       	ldi	r25, 0x00	; 0
    1512:	2b 81       	ldd	r18, Y+3	; 0x03
    1514:	22 95       	swap	r18
    1516:	22 0f       	add	r18, r18
    1518:	20 7e       	andi	r18, 0xE0	; 224
    151a:	fc 01       	movw	r30, r24
    151c:	20 83       	st	Z, r18
    151e:	86 ef       	ldi	r24, 0xF6	; 246
    1520:	90 e0       	ldi	r25, 0x00	; 0
    1522:	20 ee       	ldi	r18, 0xE0	; 224
    1524:	fc 01       	movw	r30, r24
    1526:	20 83       	st	Z, r18
    1528:	87 ef       	ldi	r24, 0xF7	; 247
    152a:	90 e0       	ldi	r25, 0x00	; 0
    152c:	2f ef       	ldi	r18, 0xFF	; 255
    152e:	fc 01       	movw	r30, r24
    1530:	20 83       	st	Z, r18
    1532:	8f ee       	ldi	r24, 0xEF	; 239
    1534:	90 e0       	ldi	r25, 0x00	; 0
    1536:	2f ee       	ldi	r18, 0xEF	; 239
    1538:	30 e0       	ldi	r19, 0x00	; 0
    153a:	f9 01       	movw	r30, r18
    153c:	20 81       	ld	r18, Z
    153e:	20 68       	ori	r18, 0x80	; 128
    1540:	fc 01       	movw	r30, r24
    1542:	20 83       	st	Z, r18
    1544:	8d ee       	ldi	r24, 0xED	; 237
    1546:	90 e0       	ldi	r25, 0x00	; 0
    1548:	2a 81       	ldd	r18, Y+2	; 0x02
    154a:	fc 01       	movw	r30, r24
    154c:	20 83       	st	Z, r18
    154e:	81 e0       	ldi	r24, 0x01	; 1
    1550:	0a c0       	rjmp	.+20     	; 0x1566 <CAN_InitRxMob+0xf8>
    1552:	89 81       	ldd	r24, Y+1	; 0x01
    1554:	8f 30       	cpi	r24, 0x0F	; 15
    1556:	08 f4       	brcc	.+2      	; 0x155a <CAN_InitRxMob+0xec>
    1558:	b3 cf       	rjmp	.-154    	; 0x14c0 <CAN_InitRxMob+0x52>
    155a:	8d ee       	ldi	r24, 0xED	; 237
    155c:	90 e0       	ldi	r25, 0x00	; 0
    155e:	2a 81       	ldd	r18, Y+2	; 0x02
    1560:	fc 01       	movw	r30, r24
    1562:	20 83       	st	Z, r18
    1564:	80 e0       	ldi	r24, 0x00	; 0
    1566:	0f 90       	pop	r0
    1568:	0f 90       	pop	r0
    156a:	0f 90       	pop	r0
    156c:	0f 90       	pop	r0
    156e:	df 91       	pop	r29
    1570:	cf 91       	pop	r28
    1572:	08 95       	ret

00001574 <CAN_Init>:
    1574:	0f 93       	push	r16
    1576:	1f 93       	push	r17
    1578:	cf 93       	push	r28
    157a:	df 93       	push	r29
    157c:	00 d0       	rcall	.+0      	; 0x157e <CAN_Init+0xa>
    157e:	cd b7       	in	r28, 0x3d	; 61
    1580:	de b7       	in	r29, 0x3e	; 62
    1582:	8a 83       	std	Y+2, r24	; 0x02
    1584:	f9 de       	rcall	.-526    	; 0x1378 <CAN_InitModule>
    1586:	19 82       	std	Y+1, r1	; 0x01
    1588:	2f c0       	rjmp	.+94     	; 0x15e8 <CAN_Init+0x74>
    158a:	89 81       	ldd	r24, Y+1	; 0x01
    158c:	88 2f       	mov	r24, r24
    158e:	90 e0       	ldi	r25, 0x00	; 0
    1590:	01 96       	adiw	r24, 0x01	; 1
    1592:	6d df       	rcall	.-294    	; 0x146e <CAN_InitRxMob>
    1594:	89 81       	ldd	r24, Y+1	; 0x01
    1596:	88 2f       	mov	r24, r24
    1598:	90 e0       	ldi	r25, 0x00	; 0
    159a:	88 0f       	add	r24, r24
    159c:	99 1f       	adc	r25, r25
    159e:	8c 01       	movw	r16, r24
    15a0:	0c 58       	subi	r16, 0x8C	; 140
    15a2:	1e 4f       	sbci	r17, 0xFE	; 254
    15a4:	61 e0       	ldi	r22, 0x01	; 1
    15a6:	70 e0       	ldi	r23, 0x00	; 0
    15a8:	85 e0       	ldi	r24, 0x05	; 5
    15aa:	90 e0       	ldi	r25, 0x00	; 0
    15ac:	0e 94 13 33 	call	0x6626	; 0x6626 <calloc>
    15b0:	f8 01       	movw	r30, r16
    15b2:	91 83       	std	Z+1, r25	; 0x01
    15b4:	80 83       	st	Z, r24
    15b6:	89 81       	ldd	r24, Y+1	; 0x01
    15b8:	88 2f       	mov	r24, r24
    15ba:	90 e0       	ldi	r25, 0x00	; 0
    15bc:	29 81       	ldd	r18, Y+1	; 0x01
    15be:	22 2f       	mov	r18, r18
    15c0:	30 e0       	ldi	r19, 0x00	; 0
    15c2:	49 81       	ldd	r20, Y+1	; 0x01
    15c4:	44 2f       	mov	r20, r20
    15c6:	50 e0       	ldi	r21, 0x00	; 0
    15c8:	60 e0       	ldi	r22, 0x00	; 0
    15ca:	44 56       	subi	r20, 0x64	; 100
    15cc:	5e 4f       	sbci	r21, 0xFE	; 254
    15ce:	fa 01       	movw	r30, r20
    15d0:	60 83       	st	Z, r22
    15d2:	2e 56       	subi	r18, 0x6E	; 110
    15d4:	3e 4f       	sbci	r19, 0xFE	; 254
    15d6:	f9 01       	movw	r30, r18
    15d8:	60 83       	st	Z, r22
    15da:	88 57       	subi	r24, 0x78	; 120
    15dc:	9e 4f       	sbci	r25, 0xFE	; 254
    15de:	fc 01       	movw	r30, r24
    15e0:	60 83       	st	Z, r22
    15e2:	89 81       	ldd	r24, Y+1	; 0x01
    15e4:	8f 5f       	subi	r24, 0xFF	; 255
    15e6:	89 83       	std	Y+1, r24	; 0x01
    15e8:	99 81       	ldd	r25, Y+1	; 0x01
    15ea:	8a 81       	ldd	r24, Y+2	; 0x02
    15ec:	98 17       	cp	r25, r24
    15ee:	68 f2       	brcs	.-102    	; 0x158a <CAN_Init+0x16>
    15f0:	0f 90       	pop	r0
    15f2:	0f 90       	pop	r0
    15f4:	df 91       	pop	r29
    15f6:	cf 91       	pop	r28
    15f8:	1f 91       	pop	r17
    15fa:	0f 91       	pop	r16
    15fc:	08 95       	ret

000015fe <CAN_Read>:
    15fe:	cf 93       	push	r28
    1600:	df 93       	push	r29
    1602:	00 d0       	rcall	.+0      	; 0x1604 <CAN_Read+0x6>
    1604:	00 d0       	rcall	.+0      	; 0x1606 <CAN_Read+0x8>
    1606:	cd b7       	in	r28, 0x3d	; 61
    1608:	de b7       	in	r29, 0x3e	; 62
    160a:	9b 83       	std	Y+3, r25	; 0x03
    160c:	8a 83       	std	Y+2, r24	; 0x02
    160e:	6c 83       	std	Y+4, r22	; 0x04
    1610:	00 00       	nop
    1612:	8c 81       	ldd	r24, Y+4	; 0x04
    1614:	88 2f       	mov	r24, r24
    1616:	90 e0       	ldi	r25, 0x00	; 0
    1618:	01 97       	sbiw	r24, 0x01	; 1
    161a:	84 56       	subi	r24, 0x64	; 100
    161c:	9e 4f       	sbci	r25, 0xFE	; 254
    161e:	fc 01       	movw	r30, r24
    1620:	80 81       	ld	r24, Z
    1622:	88 23       	and	r24, r24
    1624:	b1 f3       	breq	.-20     	; 0x1612 <CAN_Read+0x14>
    1626:	19 82       	std	Y+1, r1	; 0x01
    1628:	2c c0       	rjmp	.+88     	; 0x1682 <CAN_Read+0x84>
    162a:	89 81       	ldd	r24, Y+1	; 0x01
    162c:	88 2f       	mov	r24, r24
    162e:	90 e0       	ldi	r25, 0x00	; 0
    1630:	2a 81       	ldd	r18, Y+2	; 0x02
    1632:	3b 81       	ldd	r19, Y+3	; 0x03
    1634:	82 0f       	add	r24, r18
    1636:	93 1f       	adc	r25, r19
    1638:	2c 81       	ldd	r18, Y+4	; 0x04
    163a:	22 2f       	mov	r18, r18
    163c:	30 e0       	ldi	r19, 0x00	; 0
    163e:	21 50       	subi	r18, 0x01	; 1
    1640:	30 48       	sbci	r19, 0x80	; 128
    1642:	22 0f       	add	r18, r18
    1644:	33 1f       	adc	r19, r19
    1646:	2c 58       	subi	r18, 0x8C	; 140
    1648:	3e 4f       	sbci	r19, 0xFE	; 254
    164a:	f9 01       	movw	r30, r18
    164c:	40 81       	ld	r20, Z
    164e:	51 81       	ldd	r21, Z+1	; 0x01
    1650:	2c 81       	ldd	r18, Y+4	; 0x04
    1652:	22 2f       	mov	r18, r18
    1654:	30 e0       	ldi	r19, 0x00	; 0
    1656:	21 50       	subi	r18, 0x01	; 1
    1658:	31 09       	sbc	r19, r1
    165a:	2e 56       	subi	r18, 0x6E	; 110
    165c:	3e 4f       	sbci	r19, 0xFE	; 254
    165e:	f9 01       	movw	r30, r18
    1660:	20 81       	ld	r18, Z
    1662:	62 2f       	mov	r22, r18
    1664:	70 e0       	ldi	r23, 0x00	; 0
    1666:	29 81       	ldd	r18, Y+1	; 0x01
    1668:	22 2f       	mov	r18, r18
    166a:	30 e0       	ldi	r19, 0x00	; 0
    166c:	26 0f       	add	r18, r22
    166e:	37 1f       	adc	r19, r23
    1670:	24 0f       	add	r18, r20
    1672:	35 1f       	adc	r19, r21
    1674:	f9 01       	movw	r30, r18
    1676:	20 81       	ld	r18, Z
    1678:	fc 01       	movw	r30, r24
    167a:	20 83       	st	Z, r18
    167c:	89 81       	ldd	r24, Y+1	; 0x01
    167e:	8f 5f       	subi	r24, 0xFF	; 255
    1680:	89 83       	std	Y+1, r24	; 0x01
    1682:	89 81       	ldd	r24, Y+1	; 0x01
    1684:	88 30       	cpi	r24, 0x08	; 8
    1686:	88 f2       	brcs	.-94     	; 0x162a <CAN_Read+0x2c>
    1688:	8c 81       	ldd	r24, Y+4	; 0x04
    168a:	88 2f       	mov	r24, r24
    168c:	90 e0       	ldi	r25, 0x00	; 0
    168e:	01 97       	sbiw	r24, 0x01	; 1
    1690:	8e 56       	subi	r24, 0x6E	; 110
    1692:	9e 4f       	sbci	r25, 0xFE	; 254
    1694:	fc 01       	movw	r30, r24
    1696:	20 81       	ld	r18, Z
    1698:	2f 5f       	subi	r18, 0xFF	; 255
    169a:	fc 01       	movw	r30, r24
    169c:	20 83       	st	Z, r18
    169e:	25 30       	cpi	r18, 0x05	; 5
    16a0:	41 f4       	brne	.+16     	; 0x16b2 <CAN_Read+0xb4>
    16a2:	8c 81       	ldd	r24, Y+4	; 0x04
    16a4:	88 2f       	mov	r24, r24
    16a6:	90 e0       	ldi	r25, 0x00	; 0
    16a8:	01 97       	sbiw	r24, 0x01	; 1
    16aa:	8e 56       	subi	r24, 0x6E	; 110
    16ac:	9e 4f       	sbci	r25, 0xFE	; 254
    16ae:	fc 01       	movw	r30, r24
    16b0:	10 82       	st	Z, r1
    16b2:	8c 81       	ldd	r24, Y+4	; 0x04
    16b4:	88 2f       	mov	r24, r24
    16b6:	90 e0       	ldi	r25, 0x00	; 0
    16b8:	01 97       	sbiw	r24, 0x01	; 1
    16ba:	9c 01       	movw	r18, r24
    16bc:	24 56       	subi	r18, 0x64	; 100
    16be:	3e 4f       	sbci	r19, 0xFE	; 254
    16c0:	f9 01       	movw	r30, r18
    16c2:	20 81       	ld	r18, Z
    16c4:	21 50       	subi	r18, 0x01	; 1
    16c6:	84 56       	subi	r24, 0x64	; 100
    16c8:	9e 4f       	sbci	r25, 0xFE	; 254
    16ca:	fc 01       	movw	r30, r24
    16cc:	20 83       	st	Z, r18
    16ce:	80 e0       	ldi	r24, 0x00	; 0
    16d0:	0f 90       	pop	r0
    16d2:	0f 90       	pop	r0
    16d4:	0f 90       	pop	r0
    16d6:	0f 90       	pop	r0
    16d8:	df 91       	pop	r29
    16da:	cf 91       	pop	r28
    16dc:	08 95       	ret

000016de <CAN_Write>:
    16de:	cf 93       	push	r28
    16e0:	df 93       	push	r29
    16e2:	00 d0       	rcall	.+0      	; 0x16e4 <CAN_Write+0x6>
    16e4:	00 d0       	rcall	.+0      	; 0x16e6 <CAN_Write+0x8>
    16e6:	00 d0       	rcall	.+0      	; 0x16e8 <CAN_Write+0xa>
    16e8:	cd b7       	in	r28, 0x3d	; 61
    16ea:	de b7       	in	r29, 0x3e	; 62
    16ec:	9d 83       	std	Y+5, r25	; 0x05
    16ee:	8c 83       	std	Y+4, r24	; 0x04
    16f0:	6e 83       	std	Y+6, r22	; 0x06
    16f2:	00 00       	nop
    16f4:	89 ed       	ldi	r24, 0xD9	; 217
    16f6:	90 e0       	ldi	r25, 0x00	; 0
    16f8:	fc 01       	movw	r30, r24
    16fa:	80 81       	ld	r24, Z
    16fc:	82 95       	swap	r24
    16fe:	8f 70       	andi	r24, 0x0F	; 15
    1700:	88 2f       	mov	r24, r24
    1702:	90 e0       	ldi	r25, 0x00	; 0
    1704:	81 70       	andi	r24, 0x01	; 1
    1706:	99 27       	eor	r25, r25
    1708:	00 97       	sbiw	r24, 0x00	; 0
    170a:	a1 f7       	brne	.-24     	; 0x16f4 <CAN_Write+0x16>
    170c:	89 ed       	ldi	r24, 0xD9	; 217
    170e:	90 e0       	ldi	r25, 0x00	; 0
    1710:	fc 01       	movw	r30, r24
    1712:	80 81       	ld	r24, Z
    1714:	86 95       	lsr	r24
    1716:	86 95       	lsr	r24
    1718:	86 95       	lsr	r24
    171a:	88 2f       	mov	r24, r24
    171c:	90 e0       	ldi	r25, 0x00	; 0
    171e:	81 70       	andi	r24, 0x01	; 1
    1720:	99 27       	eor	r25, r25
    1722:	00 97       	sbiw	r24, 0x00	; 0
    1724:	39 f7       	brne	.-50     	; 0x16f4 <CAN_Write+0x16>
    1726:	8d ee       	ldi	r24, 0xED	; 237
    1728:	90 e0       	ldi	r25, 0x00	; 0
    172a:	fc 01       	movw	r30, r24
    172c:	80 81       	ld	r24, Z
    172e:	8b 83       	std	Y+3, r24	; 0x03
    1730:	1a 82       	std	Y+2, r1	; 0x02
    1732:	15 c0       	rjmp	.+42     	; 0x175e <CAN_Write+0x80>
    1734:	8d ee       	ldi	r24, 0xED	; 237
    1736:	90 e0       	ldi	r25, 0x00	; 0
    1738:	2a 81       	ldd	r18, Y+2	; 0x02
    173a:	22 95       	swap	r18
    173c:	20 7f       	andi	r18, 0xF0	; 240
    173e:	fc 01       	movw	r30, r24
    1740:	20 83       	st	Z, r18
    1742:	8f ee       	ldi	r24, 0xEF	; 239
    1744:	90 e0       	ldi	r25, 0x00	; 0
    1746:	fc 01       	movw	r30, r24
    1748:	80 81       	ld	r24, Z
    174a:	82 95       	swap	r24
    174c:	86 95       	lsr	r24
    174e:	86 95       	lsr	r24
    1750:	83 70       	andi	r24, 0x03	; 3
    1752:	88 23       	and	r24, r24
    1754:	09 f4       	brne	.+2      	; 0x1758 <CAN_Write+0x7a>
    1756:	06 c0       	rjmp	.+12     	; 0x1764 <CAN_Write+0x86>
    1758:	8a 81       	ldd	r24, Y+2	; 0x02
    175a:	8f 5f       	subi	r24, 0xFF	; 255
    175c:	8a 83       	std	Y+2, r24	; 0x02
    175e:	8a 81       	ldd	r24, Y+2	; 0x02
    1760:	8f 30       	cpi	r24, 0x0F	; 15
    1762:	40 f3       	brcs	.-48     	; 0x1734 <CAN_Write+0x56>
    1764:	8a 81       	ldd	r24, Y+2	; 0x02
    1766:	8f 30       	cpi	r24, 0x0F	; 15
    1768:	11 f4       	brne	.+4      	; 0x176e <CAN_Write+0x90>
    176a:	8f ef       	ldi	r24, 0xFF	; 255
    176c:	39 c0       	rjmp	.+114    	; 0x17e0 <CAN_Write+0x102>
    176e:	82 ef       	ldi	r24, 0xF2	; 242
    1770:	90 e0       	ldi	r25, 0x00	; 0
    1772:	2e 81       	ldd	r18, Y+6	; 0x06
    1774:	22 95       	swap	r18
    1776:	22 0f       	add	r18, r18
    1778:	20 7e       	andi	r18, 0xE0	; 224
    177a:	fc 01       	movw	r30, r24
    177c:	20 83       	st	Z, r18
    177e:	83 ef       	ldi	r24, 0xF3	; 243
    1780:	90 e0       	ldi	r25, 0x00	; 0
    1782:	2e 81       	ldd	r18, Y+6	; 0x06
    1784:	26 95       	lsr	r18
    1786:	26 95       	lsr	r18
    1788:	26 95       	lsr	r18
    178a:	fc 01       	movw	r30, r24
    178c:	20 83       	st	Z, r18
    178e:	8f ee       	ldi	r24, 0xEF	; 239
    1790:	90 e0       	ldi	r25, 0x00	; 0
    1792:	28 e0       	ldi	r18, 0x08	; 8
    1794:	fc 01       	movw	r30, r24
    1796:	20 83       	st	Z, r18
    1798:	19 82       	std	Y+1, r1	; 0x01
    179a:	10 c0       	rjmp	.+32     	; 0x17bc <CAN_Write+0xde>
    179c:	8a ef       	ldi	r24, 0xFA	; 250
    179e:	90 e0       	ldi	r25, 0x00	; 0
    17a0:	29 81       	ldd	r18, Y+1	; 0x01
    17a2:	22 2f       	mov	r18, r18
    17a4:	30 e0       	ldi	r19, 0x00	; 0
    17a6:	4c 81       	ldd	r20, Y+4	; 0x04
    17a8:	5d 81       	ldd	r21, Y+5	; 0x05
    17aa:	24 0f       	add	r18, r20
    17ac:	35 1f       	adc	r19, r21
    17ae:	f9 01       	movw	r30, r18
    17b0:	20 81       	ld	r18, Z
    17b2:	fc 01       	movw	r30, r24
    17b4:	20 83       	st	Z, r18
    17b6:	89 81       	ldd	r24, Y+1	; 0x01
    17b8:	8f 5f       	subi	r24, 0xFF	; 255
    17ba:	89 83       	std	Y+1, r24	; 0x01
    17bc:	89 81       	ldd	r24, Y+1	; 0x01
    17be:	88 30       	cpi	r24, 0x08	; 8
    17c0:	68 f3       	brcs	.-38     	; 0x179c <CAN_Write+0xbe>
    17c2:	8f ee       	ldi	r24, 0xEF	; 239
    17c4:	90 e0       	ldi	r25, 0x00	; 0
    17c6:	2f ee       	ldi	r18, 0xEF	; 239
    17c8:	30 e0       	ldi	r19, 0x00	; 0
    17ca:	f9 01       	movw	r30, r18
    17cc:	20 81       	ld	r18, Z
    17ce:	20 64       	ori	r18, 0x40	; 64
    17d0:	fc 01       	movw	r30, r24
    17d2:	20 83       	st	Z, r18
    17d4:	8d ee       	ldi	r24, 0xED	; 237
    17d6:	90 e0       	ldi	r25, 0x00	; 0
    17d8:	2b 81       	ldd	r18, Y+3	; 0x03
    17da:	fc 01       	movw	r30, r24
    17dc:	20 83       	st	Z, r18
    17de:	80 e0       	ldi	r24, 0x00	; 0
    17e0:	26 96       	adiw	r28, 0x06	; 6
    17e2:	0f b6       	in	r0, 0x3f	; 63
    17e4:	f8 94       	cli
    17e6:	de bf       	out	0x3e, r29	; 62
    17e8:	0f be       	out	0x3f, r0	; 63
    17ea:	cd bf       	out	0x3d, r28	; 61
    17ec:	df 91       	pop	r29
    17ee:	cf 91       	pop	r28
    17f0:	08 95       	ret

000017f2 <sensorDetectionCollbackPosition0>:
    17f2:	cf 93       	push	r28
    17f4:	df 93       	push	r29
    17f6:	00 d0       	rcall	.+0      	; 0x17f8 <sensorDetectionCollbackPosition0+0x6>
    17f8:	00 d0       	rcall	.+0      	; 0x17fa <sensorDetectionCollbackPosition0+0x8>
    17fa:	cd b7       	in	r28, 0x3d	; 61
    17fc:	de b7       	in	r29, 0x3e	; 62
    17fe:	69 83       	std	Y+1, r22	; 0x01
    1800:	7a 83       	std	Y+2, r23	; 0x02
    1802:	8b 83       	std	Y+3, r24	; 0x03
    1804:	9c 83       	std	Y+4, r25	; 0x04
    1806:	83 e0       	ldi	r24, 0x03	; 3
    1808:	0e 94 bc 2e 	call	0x5d78	; 0x5d78 <checkFrontSensors>
    180c:	81 30       	cpi	r24, 0x01	; 1
    180e:	41 f4       	brne	.+16     	; 0x1820 <sensorDetectionCollbackPosition0+0x2e>
    1810:	83 e7       	ldi	r24, 0x73	; 115
    1812:	0e 94 1e 21 	call	0x423c	; 0x423c <stop>
    1816:	81 e0       	ldi	r24, 0x01	; 1
    1818:	80 93 eb 02 	sts	0x02EB, r24
    181c:	81 e0       	ldi	r24, 0x01	; 1
    181e:	03 c0       	rjmp	.+6      	; 0x1826 <sensorDetectionCollbackPosition0+0x34>
    1820:	10 92 eb 02 	sts	0x02EB, r1
    1824:	80 e0       	ldi	r24, 0x00	; 0
    1826:	0f 90       	pop	r0
    1828:	0f 90       	pop	r0
    182a:	0f 90       	pop	r0
    182c:	0f 90       	pop	r0
    182e:	df 91       	pop	r29
    1830:	cf 91       	pop	r28
    1832:	08 95       	ret

00001834 <sensorDetectionCollbackPosition1>:
    1834:	cf 93       	push	r28
    1836:	df 93       	push	r29
    1838:	00 d0       	rcall	.+0      	; 0x183a <sensorDetectionCollbackPosition1+0x6>
    183a:	00 d0       	rcall	.+0      	; 0x183c <sensorDetectionCollbackPosition1+0x8>
    183c:	cd b7       	in	r28, 0x3d	; 61
    183e:	de b7       	in	r29, 0x3e	; 62
    1840:	69 83       	std	Y+1, r22	; 0x01
    1842:	7a 83       	std	Y+2, r23	; 0x02
    1844:	8b 83       	std	Y+3, r24	; 0x03
    1846:	9c 83       	std	Y+4, r25	; 0x04
    1848:	83 e0       	ldi	r24, 0x03	; 3
    184a:	0e 94 bc 2e 	call	0x5d78	; 0x5d78 <checkFrontSensors>
    184e:	81 30       	cpi	r24, 0x01	; 1
    1850:	41 f4       	brne	.+16     	; 0x1862 <sensorDetectionCollbackPosition1+0x2e>
    1852:	83 e7       	ldi	r24, 0x73	; 115
    1854:	0e 94 1e 21 	call	0x423c	; 0x423c <stop>
    1858:	81 e0       	ldi	r24, 0x01	; 1
    185a:	80 93 eb 02 	sts	0x02EB, r24
    185e:	81 e0       	ldi	r24, 0x01	; 1
    1860:	03 c0       	rjmp	.+6      	; 0x1868 <sensorDetectionCollbackPosition1+0x34>
    1862:	10 92 eb 02 	sts	0x02EB, r1
    1866:	80 e0       	ldi	r24, 0x00	; 0
    1868:	0f 90       	pop	r0
    186a:	0f 90       	pop	r0
    186c:	0f 90       	pop	r0
    186e:	0f 90       	pop	r0
    1870:	df 91       	pop	r29
    1872:	cf 91       	pop	r28
    1874:	08 95       	ret

00001876 <sensorDetectionCollbackPosition2>:
    1876:	cf 93       	push	r28
    1878:	df 93       	push	r29
    187a:	00 d0       	rcall	.+0      	; 0x187c <sensorDetectionCollbackPosition2+0x6>
    187c:	00 d0       	rcall	.+0      	; 0x187e <sensorDetectionCollbackPosition2+0x8>
    187e:	cd b7       	in	r28, 0x3d	; 61
    1880:	de b7       	in	r29, 0x3e	; 62
    1882:	69 83       	std	Y+1, r22	; 0x01
    1884:	7a 83       	std	Y+2, r23	; 0x02
    1886:	8b 83       	std	Y+3, r24	; 0x03
    1888:	9c 83       	std	Y+4, r25	; 0x04
    188a:	83 e0       	ldi	r24, 0x03	; 3
    188c:	0e 94 bc 2e 	call	0x5d78	; 0x5d78 <checkFrontSensors>
    1890:	81 30       	cpi	r24, 0x01	; 1
    1892:	41 f4       	brne	.+16     	; 0x18a4 <sensorDetectionCollbackPosition2+0x2e>
    1894:	83 e7       	ldi	r24, 0x73	; 115
    1896:	0e 94 1e 21 	call	0x423c	; 0x423c <stop>
    189a:	81 e0       	ldi	r24, 0x01	; 1
    189c:	80 93 eb 02 	sts	0x02EB, r24
    18a0:	81 e0       	ldi	r24, 0x01	; 1
    18a2:	03 c0       	rjmp	.+6      	; 0x18aa <sensorDetectionCollbackPosition2+0x34>
    18a4:	10 92 eb 02 	sts	0x02EB, r1
    18a8:	80 e0       	ldi	r24, 0x00	; 0
    18aa:	0f 90       	pop	r0
    18ac:	0f 90       	pop	r0
    18ae:	0f 90       	pop	r0
    18b0:	0f 90       	pop	r0
    18b2:	df 91       	pop	r29
    18b4:	cf 91       	pop	r28
    18b6:	08 95       	ret

000018b8 <sensorDetectionCollbackPosition3>:
    18b8:	cf 93       	push	r28
    18ba:	df 93       	push	r29
    18bc:	00 d0       	rcall	.+0      	; 0x18be <sensorDetectionCollbackPosition3+0x6>
    18be:	00 d0       	rcall	.+0      	; 0x18c0 <sensorDetectionCollbackPosition3+0x8>
    18c0:	cd b7       	in	r28, 0x3d	; 61
    18c2:	de b7       	in	r29, 0x3e	; 62
    18c4:	69 83       	std	Y+1, r22	; 0x01
    18c6:	7a 83       	std	Y+2, r23	; 0x02
    18c8:	8b 83       	std	Y+3, r24	; 0x03
    18ca:	9c 83       	std	Y+4, r25	; 0x04
    18cc:	83 e0       	ldi	r24, 0x03	; 3
    18ce:	0e 94 bc 2e 	call	0x5d78	; 0x5d78 <checkFrontSensors>
    18d2:	81 30       	cpi	r24, 0x01	; 1
    18d4:	41 f4       	brne	.+16     	; 0x18e6 <sensorDetectionCollbackPosition3+0x2e>
    18d6:	83 e7       	ldi	r24, 0x73	; 115
    18d8:	0e 94 1e 21 	call	0x423c	; 0x423c <stop>
    18dc:	81 e0       	ldi	r24, 0x01	; 1
    18de:	80 93 eb 02 	sts	0x02EB, r24
    18e2:	81 e0       	ldi	r24, 0x01	; 1
    18e4:	03 c0       	rjmp	.+6      	; 0x18ec <sensorDetectionCollbackPosition3+0x34>
    18e6:	10 92 eb 02 	sts	0x02EB, r1
    18ea:	80 e0       	ldi	r24, 0x00	; 0
    18ec:	0f 90       	pop	r0
    18ee:	0f 90       	pop	r0
    18f0:	0f 90       	pop	r0
    18f2:	0f 90       	pop	r0
    18f4:	df 91       	pop	r29
    18f6:	cf 91       	pop	r28
    18f8:	08 95       	ret

000018fa <sensorDetectionCollbackPosition4>:
    18fa:	cf 93       	push	r28
    18fc:	df 93       	push	r29
    18fe:	00 d0       	rcall	.+0      	; 0x1900 <sensorDetectionCollbackPosition4+0x6>
    1900:	00 d0       	rcall	.+0      	; 0x1902 <sensorDetectionCollbackPosition4+0x8>
    1902:	cd b7       	in	r28, 0x3d	; 61
    1904:	de b7       	in	r29, 0x3e	; 62
    1906:	69 83       	std	Y+1, r22	; 0x01
    1908:	7a 83       	std	Y+2, r23	; 0x02
    190a:	8b 83       	std	Y+3, r24	; 0x03
    190c:	9c 83       	std	Y+4, r25	; 0x04
    190e:	81 e0       	ldi	r24, 0x01	; 1
    1910:	0e 94 bc 2e 	call	0x5d78	; 0x5d78 <checkFrontSensors>
    1914:	81 30       	cpi	r24, 0x01	; 1
    1916:	29 f0       	breq	.+10     	; 0x1922 <sensorDetectionCollbackPosition4+0x28>
    1918:	8e ef       	ldi	r24, 0xFE	; 254
    191a:	0e 94 bc 2e 	call	0x5d78	; 0x5d78 <checkFrontSensors>
    191e:	81 30       	cpi	r24, 0x01	; 1
    1920:	41 f4       	brne	.+16     	; 0x1932 <sensorDetectionCollbackPosition4+0x38>
    1922:	83 e7       	ldi	r24, 0x73	; 115
    1924:	0e 94 1e 21 	call	0x423c	; 0x423c <stop>
    1928:	81 e0       	ldi	r24, 0x01	; 1
    192a:	80 93 eb 02 	sts	0x02EB, r24
    192e:	81 e0       	ldi	r24, 0x01	; 1
    1930:	03 c0       	rjmp	.+6      	; 0x1938 <sensorDetectionCollbackPosition4+0x3e>
    1932:	10 92 eb 02 	sts	0x02EB, r1
    1936:	80 e0       	ldi	r24, 0x00	; 0
    1938:	0f 90       	pop	r0
    193a:	0f 90       	pop	r0
    193c:	0f 90       	pop	r0
    193e:	0f 90       	pop	r0
    1940:	df 91       	pop	r29
    1942:	cf 91       	pop	r28
    1944:	08 95       	ret

00001946 <sensorDetectionCollbackPosition6>:
    1946:	cf 93       	push	r28
    1948:	df 93       	push	r29
    194a:	00 d0       	rcall	.+0      	; 0x194c <sensorDetectionCollbackPosition6+0x6>
    194c:	00 d0       	rcall	.+0      	; 0x194e <sensorDetectionCollbackPosition6+0x8>
    194e:	cd b7       	in	r28, 0x3d	; 61
    1950:	de b7       	in	r29, 0x3e	; 62
    1952:	69 83       	std	Y+1, r22	; 0x01
    1954:	7a 83       	std	Y+2, r23	; 0x02
    1956:	8b 83       	std	Y+3, r24	; 0x03
    1958:	9c 83       	std	Y+4, r25	; 0x04
    195a:	83 e0       	ldi	r24, 0x03	; 3
    195c:	0e 94 bc 2e 	call	0x5d78	; 0x5d78 <checkFrontSensors>
    1960:	81 30       	cpi	r24, 0x01	; 1
    1962:	41 f4       	brne	.+16     	; 0x1974 <sensorDetectionCollbackPosition6+0x2e>
    1964:	83 e7       	ldi	r24, 0x73	; 115
    1966:	0e 94 1e 21 	call	0x423c	; 0x423c <stop>
    196a:	81 e0       	ldi	r24, 0x01	; 1
    196c:	80 93 eb 02 	sts	0x02EB, r24
    1970:	81 e0       	ldi	r24, 0x01	; 1
    1972:	03 c0       	rjmp	.+6      	; 0x197a <sensorDetectionCollbackPosition6+0x34>
    1974:	10 92 eb 02 	sts	0x02EB, r1
    1978:	80 e0       	ldi	r24, 0x00	; 0
    197a:	0f 90       	pop	r0
    197c:	0f 90       	pop	r0
    197e:	0f 90       	pop	r0
    1980:	0f 90       	pop	r0
    1982:	df 91       	pop	r29
    1984:	cf 91       	pop	r28
    1986:	08 95       	ret

00001988 <sensorDetectionCollbackPosition7>:
    1988:	cf 93       	push	r28
    198a:	df 93       	push	r29
    198c:	00 d0       	rcall	.+0      	; 0x198e <sensorDetectionCollbackPosition7+0x6>
    198e:	00 d0       	rcall	.+0      	; 0x1990 <sensorDetectionCollbackPosition7+0x8>
    1990:	cd b7       	in	r28, 0x3d	; 61
    1992:	de b7       	in	r29, 0x3e	; 62
    1994:	69 83       	std	Y+1, r22	; 0x01
    1996:	7a 83       	std	Y+2, r23	; 0x02
    1998:	8b 83       	std	Y+3, r24	; 0x03
    199a:	9c 83       	std	Y+4, r25	; 0x04
    199c:	83 e0       	ldi	r24, 0x03	; 3
    199e:	0e 94 f9 2e 	call	0x5df2	; 0x5df2 <checkRearSensors>
    19a2:	81 30       	cpi	r24, 0x01	; 1
    19a4:	41 f4       	brne	.+16     	; 0x19b6 <sensorDetectionCollbackPosition7+0x2e>
    19a6:	83 e7       	ldi	r24, 0x73	; 115
    19a8:	0e 94 1e 21 	call	0x423c	; 0x423c <stop>
    19ac:	81 e0       	ldi	r24, 0x01	; 1
    19ae:	80 93 eb 02 	sts	0x02EB, r24
    19b2:	81 e0       	ldi	r24, 0x01	; 1
    19b4:	03 c0       	rjmp	.+6      	; 0x19bc <sensorDetectionCollbackPosition7+0x34>
    19b6:	10 92 eb 02 	sts	0x02EB, r1
    19ba:	80 e0       	ldi	r24, 0x00	; 0
    19bc:	0f 90       	pop	r0
    19be:	0f 90       	pop	r0
    19c0:	0f 90       	pop	r0
    19c2:	0f 90       	pop	r0
    19c4:	df 91       	pop	r29
    19c6:	cf 91       	pop	r28
    19c8:	08 95       	ret

000019ca <sensorDetectionCollbackPosition8>:
    19ca:	cf 93       	push	r28
    19cc:	df 93       	push	r29
    19ce:	00 d0       	rcall	.+0      	; 0x19d0 <sensorDetectionCollbackPosition8+0x6>
    19d0:	00 d0       	rcall	.+0      	; 0x19d2 <sensorDetectionCollbackPosition8+0x8>
    19d2:	cd b7       	in	r28, 0x3d	; 61
    19d4:	de b7       	in	r29, 0x3e	; 62
    19d6:	69 83       	std	Y+1, r22	; 0x01
    19d8:	7a 83       	std	Y+2, r23	; 0x02
    19da:	8b 83       	std	Y+3, r24	; 0x03
    19dc:	9c 83       	std	Y+4, r25	; 0x04
    19de:	83 e0       	ldi	r24, 0x03	; 3
    19e0:	0e 94 bc 2e 	call	0x5d78	; 0x5d78 <checkFrontSensors>
    19e4:	81 30       	cpi	r24, 0x01	; 1
    19e6:	41 f4       	brne	.+16     	; 0x19f8 <sensorDetectionCollbackPosition8+0x2e>
    19e8:	83 e7       	ldi	r24, 0x73	; 115
    19ea:	0e 94 1e 21 	call	0x423c	; 0x423c <stop>
    19ee:	81 e0       	ldi	r24, 0x01	; 1
    19f0:	80 93 eb 02 	sts	0x02EB, r24
    19f4:	81 e0       	ldi	r24, 0x01	; 1
    19f6:	03 c0       	rjmp	.+6      	; 0x19fe <sensorDetectionCollbackPosition8+0x34>
    19f8:	10 92 eb 02 	sts	0x02EB, r1
    19fc:	80 e0       	ldi	r24, 0x00	; 0
    19fe:	0f 90       	pop	r0
    1a00:	0f 90       	pop	r0
    1a02:	0f 90       	pop	r0
    1a04:	0f 90       	pop	r0
    1a06:	df 91       	pop	r29
    1a08:	cf 91       	pop	r28
    1a0a:	08 95       	ret

00001a0c <sensorDetectionCollbackPosition10>:
    1a0c:	cf 93       	push	r28
    1a0e:	df 93       	push	r29
    1a10:	00 d0       	rcall	.+0      	; 0x1a12 <sensorDetectionCollbackPosition10+0x6>
    1a12:	00 d0       	rcall	.+0      	; 0x1a14 <sensorDetectionCollbackPosition10+0x8>
    1a14:	cd b7       	in	r28, 0x3d	; 61
    1a16:	de b7       	in	r29, 0x3e	; 62
    1a18:	69 83       	std	Y+1, r22	; 0x01
    1a1a:	7a 83       	std	Y+2, r23	; 0x02
    1a1c:	8b 83       	std	Y+3, r24	; 0x03
    1a1e:	9c 83       	std	Y+4, r25	; 0x04
    1a20:	83 e0       	ldi	r24, 0x03	; 3
    1a22:	0e 94 bc 2e 	call	0x5d78	; 0x5d78 <checkFrontSensors>
    1a26:	81 30       	cpi	r24, 0x01	; 1
    1a28:	41 f4       	brne	.+16     	; 0x1a3a <sensorDetectionCollbackPosition10+0x2e>
    1a2a:	83 e7       	ldi	r24, 0x73	; 115
    1a2c:	0e 94 1e 21 	call	0x423c	; 0x423c <stop>
    1a30:	81 e0       	ldi	r24, 0x01	; 1
    1a32:	80 93 eb 02 	sts	0x02EB, r24
    1a36:	81 e0       	ldi	r24, 0x01	; 1
    1a38:	03 c0       	rjmp	.+6      	; 0x1a40 <sensorDetectionCollbackPosition10+0x34>
    1a3a:	10 92 eb 02 	sts	0x02EB, r1
    1a3e:	80 e0       	ldi	r24, 0x00	; 0
    1a40:	0f 90       	pop	r0
    1a42:	0f 90       	pop	r0
    1a44:	0f 90       	pop	r0
    1a46:	0f 90       	pop	r0
    1a48:	df 91       	pop	r29
    1a4a:	cf 91       	pop	r28
    1a4c:	08 95       	ret

00001a4e <releaseLeftStand>:
    1a4e:	cf 93       	push	r28
    1a50:	df 93       	push	r29
    1a52:	cd b7       	in	r28, 0x3d	; 61
    1a54:	de b7       	in	r29, 0x3e	; 62
    1a56:	62 97       	sbiw	r28, 0x12	; 18
    1a58:	0f b6       	in	r0, 0x3f	; 63
    1a5a:	f8 94       	cli
    1a5c:	de bf       	out	0x3e, r29	; 62
    1a5e:	0f be       	out	0x3f, r0	; 63
    1a60:	cd bf       	out	0x3d, r28	; 61
    1a62:	6f 87       	std	Y+15, r22	; 0x0f
    1a64:	78 8b       	std	Y+16, r23	; 0x10
    1a66:	89 8b       	std	Y+17, r24	; 0x11
    1a68:	9a 8b       	std	Y+18, r25	; 0x12
    1a6a:	83 e0       	ldi	r24, 0x03	; 3
    1a6c:	0e 94 bc 2e 	call	0x5d78	; 0x5d78 <checkFrontSensors>
    1a70:	81 30       	cpi	r24, 0x01	; 1
    1a72:	09 f0       	breq	.+2      	; 0x1a76 <releaseLeftStand+0x28>
    1a74:	7a c0       	rjmp	.+244    	; 0x1b6a <releaseLeftStand+0x11c>
    1a76:	83 e7       	ldi	r24, 0x73	; 115
    1a78:	0e 94 1e 21 	call	0x423c	; 0x423c <stop>
    1a7c:	80 91 ec 02 	lds	r24, 0x02EC
    1a80:	81 50       	subi	r24, 0x01	; 1
    1a82:	80 93 ec 02 	sts	0x02EC, r24
    1a86:	80 e0       	ldi	r24, 0x00	; 0
    1a88:	90 e4       	ldi	r25, 0x40	; 64
    1a8a:	ac e9       	ldi	r26, 0x9C	; 156
    1a8c:	b5 e4       	ldi	r27, 0x45	; 69
    1a8e:	89 83       	std	Y+1, r24	; 0x01
    1a90:	9a 83       	std	Y+2, r25	; 0x02
    1a92:	ab 83       	std	Y+3, r26	; 0x03
    1a94:	bc 83       	std	Y+4, r27	; 0x04
    1a96:	20 e0       	ldi	r18, 0x00	; 0
    1a98:	30 e4       	ldi	r19, 0x40	; 64
    1a9a:	4c e1       	ldi	r20, 0x1C	; 28
    1a9c:	55 e4       	ldi	r21, 0x45	; 69
    1a9e:	69 81       	ldd	r22, Y+1	; 0x01
    1aa0:	7a 81       	ldd	r23, Y+2	; 0x02
    1aa2:	8b 81       	ldd	r24, Y+3	; 0x03
    1aa4:	9c 81       	ldd	r25, Y+4	; 0x04
    1aa6:	0e 94 52 32 	call	0x64a4	; 0x64a4 <__mulsf3>
    1aaa:	dc 01       	movw	r26, r24
    1aac:	cb 01       	movw	r24, r22
    1aae:	8d 83       	std	Y+5, r24	; 0x05
    1ab0:	9e 83       	std	Y+6, r25	; 0x06
    1ab2:	af 83       	std	Y+7, r26	; 0x07
    1ab4:	b8 87       	std	Y+8, r27	; 0x08
    1ab6:	20 e0       	ldi	r18, 0x00	; 0
    1ab8:	30 e0       	ldi	r19, 0x00	; 0
    1aba:	40 e8       	ldi	r20, 0x80	; 128
    1abc:	5f e3       	ldi	r21, 0x3F	; 63
    1abe:	6d 81       	ldd	r22, Y+5	; 0x05
    1ac0:	7e 81       	ldd	r23, Y+6	; 0x06
    1ac2:	8f 81       	ldd	r24, Y+7	; 0x07
    1ac4:	98 85       	ldd	r25, Y+8	; 0x08
    1ac6:	0e 94 c6 30 	call	0x618c	; 0x618c <__cmpsf2>
    1aca:	88 23       	and	r24, r24
    1acc:	2c f4       	brge	.+10     	; 0x1ad8 <releaseLeftStand+0x8a>
    1ace:	81 e0       	ldi	r24, 0x01	; 1
    1ad0:	90 e0       	ldi	r25, 0x00	; 0
    1ad2:	9a 87       	std	Y+10, r25	; 0x0a
    1ad4:	89 87       	std	Y+9, r24	; 0x09
    1ad6:	3f c0       	rjmp	.+126    	; 0x1b56 <releaseLeftStand+0x108>
    1ad8:	20 e0       	ldi	r18, 0x00	; 0
    1ada:	3f ef       	ldi	r19, 0xFF	; 255
    1adc:	4f e7       	ldi	r20, 0x7F	; 127
    1ade:	57 e4       	ldi	r21, 0x47	; 71
    1ae0:	6d 81       	ldd	r22, Y+5	; 0x05
    1ae2:	7e 81       	ldd	r23, Y+6	; 0x06
    1ae4:	8f 81       	ldd	r24, Y+7	; 0x07
    1ae6:	98 85       	ldd	r25, Y+8	; 0x08
    1ae8:	0e 94 4e 32 	call	0x649c	; 0x649c <__gesf2>
    1aec:	18 16       	cp	r1, r24
    1aee:	4c f5       	brge	.+82     	; 0x1b42 <releaseLeftStand+0xf4>
    1af0:	20 e0       	ldi	r18, 0x00	; 0
    1af2:	30 e0       	ldi	r19, 0x00	; 0
    1af4:	40 e2       	ldi	r20, 0x20	; 32
    1af6:	51 e4       	ldi	r21, 0x41	; 65
    1af8:	69 81       	ldd	r22, Y+1	; 0x01
    1afa:	7a 81       	ldd	r23, Y+2	; 0x02
    1afc:	8b 81       	ldd	r24, Y+3	; 0x03
    1afe:	9c 81       	ldd	r25, Y+4	; 0x04
    1b00:	0e 94 52 32 	call	0x64a4	; 0x64a4 <__mulsf3>
    1b04:	dc 01       	movw	r26, r24
    1b06:	cb 01       	movw	r24, r22
    1b08:	bc 01       	movw	r22, r24
    1b0a:	cd 01       	movw	r24, r26
    1b0c:	0e 94 32 31 	call	0x6264	; 0x6264 <__fixunssfsi>
    1b10:	dc 01       	movw	r26, r24
    1b12:	cb 01       	movw	r24, r22
    1b14:	9a 87       	std	Y+10, r25	; 0x0a
    1b16:	89 87       	std	Y+9, r24	; 0x09
    1b18:	0f c0       	rjmp	.+30     	; 0x1b38 <releaseLeftStand+0xea>
    1b1a:	8a ef       	ldi	r24, 0xFA	; 250
    1b1c:	90 e0       	ldi	r25, 0x00	; 0
    1b1e:	9c 87       	std	Y+12, r25	; 0x0c
    1b20:	8b 87       	std	Y+11, r24	; 0x0b
    1b22:	8b 85       	ldd	r24, Y+11	; 0x0b
    1b24:	9c 85       	ldd	r25, Y+12	; 0x0c
    1b26:	01 97       	sbiw	r24, 0x01	; 1
    1b28:	f1 f7       	brne	.-4      	; 0x1b26 <releaseLeftStand+0xd8>
    1b2a:	9c 87       	std	Y+12, r25	; 0x0c
    1b2c:	8b 87       	std	Y+11, r24	; 0x0b
    1b2e:	89 85       	ldd	r24, Y+9	; 0x09
    1b30:	9a 85       	ldd	r25, Y+10	; 0x0a
    1b32:	01 97       	sbiw	r24, 0x01	; 1
    1b34:	9a 87       	std	Y+10, r25	; 0x0a
    1b36:	89 87       	std	Y+9, r24	; 0x09
    1b38:	89 85       	ldd	r24, Y+9	; 0x09
    1b3a:	9a 85       	ldd	r25, Y+10	; 0x0a
    1b3c:	00 97       	sbiw	r24, 0x00	; 0
    1b3e:	69 f7       	brne	.-38     	; 0x1b1a <releaseLeftStand+0xcc>
    1b40:	14 c0       	rjmp	.+40     	; 0x1b6a <releaseLeftStand+0x11c>
    1b42:	6d 81       	ldd	r22, Y+5	; 0x05
    1b44:	7e 81       	ldd	r23, Y+6	; 0x06
    1b46:	8f 81       	ldd	r24, Y+7	; 0x07
    1b48:	98 85       	ldd	r25, Y+8	; 0x08
    1b4a:	0e 94 32 31 	call	0x6264	; 0x6264 <__fixunssfsi>
    1b4e:	dc 01       	movw	r26, r24
    1b50:	cb 01       	movw	r24, r22
    1b52:	9a 87       	std	Y+10, r25	; 0x0a
    1b54:	89 87       	std	Y+9, r24	; 0x09
    1b56:	89 85       	ldd	r24, Y+9	; 0x09
    1b58:	9a 85       	ldd	r25, Y+10	; 0x0a
    1b5a:	9e 87       	std	Y+14, r25	; 0x0e
    1b5c:	8d 87       	std	Y+13, r24	; 0x0d
    1b5e:	8d 85       	ldd	r24, Y+13	; 0x0d
    1b60:	9e 85       	ldd	r25, Y+14	; 0x0e
    1b62:	01 97       	sbiw	r24, 0x01	; 1
    1b64:	f1 f7       	brne	.-4      	; 0x1b62 <releaseLeftStand+0x114>
    1b66:	9e 87       	std	Y+14, r25	; 0x0e
    1b68:	8d 87       	std	Y+13, r24	; 0x0d
    1b6a:	10 92 dc 02 	sts	0x02DC, r1
    1b6e:	80 91 dc 02 	lds	r24, 0x02DC
    1b72:	88 23       	and	r24, r24
    1b74:	31 f4       	brne	.+12     	; 0x1b82 <releaseLeftStand+0x134>
    1b76:	8f ef       	ldi	r24, 0xFF	; 255
    1b78:	0e 94 a3 04 	call	0x946	; 0x946 <leftDiafram>
    1b7c:	81 e0       	ldi	r24, 0x01	; 1
    1b7e:	80 93 dc 02 	sts	0x02DC, r24
    1b82:	80 e0       	ldi	r24, 0x00	; 0
    1b84:	62 96       	adiw	r28, 0x12	; 18
    1b86:	0f b6       	in	r0, 0x3f	; 63
    1b88:	f8 94       	cli
    1b8a:	de bf       	out	0x3e, r29	; 62
    1b8c:	0f be       	out	0x3f, r0	; 63
    1b8e:	cd bf       	out	0x3d, r28	; 61
    1b90:	df 91       	pop	r29
    1b92:	cf 91       	pop	r28
    1b94:	08 95       	ret

00001b96 <releaseCupGreen>:
    1b96:	cf 93       	push	r28
    1b98:	df 93       	push	r29
    1b9a:	00 d0       	rcall	.+0      	; 0x1b9c <releaseCupGreen+0x6>
    1b9c:	00 d0       	rcall	.+0      	; 0x1b9e <releaseCupGreen+0x8>
    1b9e:	cd b7       	in	r28, 0x3d	; 61
    1ba0:	de b7       	in	r29, 0x3e	; 62
    1ba2:	69 83       	std	Y+1, r22	; 0x01
    1ba4:	7a 83       	std	Y+2, r23	; 0x02
    1ba6:	8b 83       	std	Y+3, r24	; 0x03
    1ba8:	9c 83       	std	Y+4, r25	; 0x04
    1baa:	6f ef       	ldi	r22, 0xFF	; 255
    1bac:	8f ef       	ldi	r24, 0xFF	; 255
    1bae:	0e 94 8c 01 	call	0x318	; 0x318 <colectThePopcorn>
    1bb2:	80 e0       	ldi	r24, 0x00	; 0
    1bb4:	0f 90       	pop	r0
    1bb6:	0f 90       	pop	r0
    1bb8:	0f 90       	pop	r0
    1bba:	0f 90       	pop	r0
    1bbc:	df 91       	pop	r29
    1bbe:	cf 91       	pop	r28
    1bc0:	08 95       	ret

00001bc2 <clapperboardsKnockDownGreenSide>:
    1bc2:	cf 93       	push	r28
    1bc4:	df 93       	push	r29
    1bc6:	cd b7       	in	r28, 0x3d	; 61
    1bc8:	de b7       	in	r29, 0x3e	; 62
    1bca:	ae 97       	sbiw	r28, 0x2e	; 46
    1bcc:	0f b6       	in	r0, 0x3f	; 63
    1bce:	f8 94       	cli
    1bd0:	de bf       	out	0x3e, r29	; 62
    1bd2:	0f be       	out	0x3f, r0	; 63
    1bd4:	cd bf       	out	0x3d, r28	; 61
    1bd6:	6b a7       	std	Y+43, r22	; 0x2b
    1bd8:	7c a7       	std	Y+44, r23	; 0x2c
    1bda:	8d a7       	std	Y+45, r24	; 0x2d
    1bdc:	9e a7       	std	Y+46, r25	; 0x2e
    1bde:	83 e0       	ldi	r24, 0x03	; 3
    1be0:	0e 94 f9 2e 	call	0x5df2	; 0x5df2 <checkRearSensors>
    1be4:	81 30       	cpi	r24, 0x01	; 1
    1be6:	09 f0       	breq	.+2      	; 0x1bea <clapperboardsKnockDownGreenSide+0x28>
    1be8:	7a c0       	rjmp	.+244    	; 0x1cde <clapperboardsKnockDownGreenSide+0x11c>
    1bea:	83 e7       	ldi	r24, 0x73	; 115
    1bec:	0e 94 1e 21 	call	0x423c	; 0x423c <stop>
    1bf0:	80 91 ec 02 	lds	r24, 0x02EC
    1bf4:	81 50       	subi	r24, 0x01	; 1
    1bf6:	80 93 ec 02 	sts	0x02EC, r24
    1bfa:	80 e0       	ldi	r24, 0x00	; 0
    1bfc:	90 e4       	ldi	r25, 0x40	; 64
    1bfe:	ac e9       	ldi	r26, 0x9C	; 156
    1c00:	b5 e4       	ldi	r27, 0x45	; 69
    1c02:	89 83       	std	Y+1, r24	; 0x01
    1c04:	9a 83       	std	Y+2, r25	; 0x02
    1c06:	ab 83       	std	Y+3, r26	; 0x03
    1c08:	bc 83       	std	Y+4, r27	; 0x04
    1c0a:	20 e0       	ldi	r18, 0x00	; 0
    1c0c:	30 e4       	ldi	r19, 0x40	; 64
    1c0e:	4c e1       	ldi	r20, 0x1C	; 28
    1c10:	55 e4       	ldi	r21, 0x45	; 69
    1c12:	69 81       	ldd	r22, Y+1	; 0x01
    1c14:	7a 81       	ldd	r23, Y+2	; 0x02
    1c16:	8b 81       	ldd	r24, Y+3	; 0x03
    1c18:	9c 81       	ldd	r25, Y+4	; 0x04
    1c1a:	0e 94 52 32 	call	0x64a4	; 0x64a4 <__mulsf3>
    1c1e:	dc 01       	movw	r26, r24
    1c20:	cb 01       	movw	r24, r22
    1c22:	8d 83       	std	Y+5, r24	; 0x05
    1c24:	9e 83       	std	Y+6, r25	; 0x06
    1c26:	af 83       	std	Y+7, r26	; 0x07
    1c28:	b8 87       	std	Y+8, r27	; 0x08
    1c2a:	20 e0       	ldi	r18, 0x00	; 0
    1c2c:	30 e0       	ldi	r19, 0x00	; 0
    1c2e:	40 e8       	ldi	r20, 0x80	; 128
    1c30:	5f e3       	ldi	r21, 0x3F	; 63
    1c32:	6d 81       	ldd	r22, Y+5	; 0x05
    1c34:	7e 81       	ldd	r23, Y+6	; 0x06
    1c36:	8f 81       	ldd	r24, Y+7	; 0x07
    1c38:	98 85       	ldd	r25, Y+8	; 0x08
    1c3a:	0e 94 c6 30 	call	0x618c	; 0x618c <__cmpsf2>
    1c3e:	88 23       	and	r24, r24
    1c40:	2c f4       	brge	.+10     	; 0x1c4c <clapperboardsKnockDownGreenSide+0x8a>
    1c42:	81 e0       	ldi	r24, 0x01	; 1
    1c44:	90 e0       	ldi	r25, 0x00	; 0
    1c46:	9a 87       	std	Y+10, r25	; 0x0a
    1c48:	89 87       	std	Y+9, r24	; 0x09
    1c4a:	3f c0       	rjmp	.+126    	; 0x1cca <clapperboardsKnockDownGreenSide+0x108>
    1c4c:	20 e0       	ldi	r18, 0x00	; 0
    1c4e:	3f ef       	ldi	r19, 0xFF	; 255
    1c50:	4f e7       	ldi	r20, 0x7F	; 127
    1c52:	57 e4       	ldi	r21, 0x47	; 71
    1c54:	6d 81       	ldd	r22, Y+5	; 0x05
    1c56:	7e 81       	ldd	r23, Y+6	; 0x06
    1c58:	8f 81       	ldd	r24, Y+7	; 0x07
    1c5a:	98 85       	ldd	r25, Y+8	; 0x08
    1c5c:	0e 94 4e 32 	call	0x649c	; 0x649c <__gesf2>
    1c60:	18 16       	cp	r1, r24
    1c62:	4c f5       	brge	.+82     	; 0x1cb6 <clapperboardsKnockDownGreenSide+0xf4>
    1c64:	20 e0       	ldi	r18, 0x00	; 0
    1c66:	30 e0       	ldi	r19, 0x00	; 0
    1c68:	40 e2       	ldi	r20, 0x20	; 32
    1c6a:	51 e4       	ldi	r21, 0x41	; 65
    1c6c:	69 81       	ldd	r22, Y+1	; 0x01
    1c6e:	7a 81       	ldd	r23, Y+2	; 0x02
    1c70:	8b 81       	ldd	r24, Y+3	; 0x03
    1c72:	9c 81       	ldd	r25, Y+4	; 0x04
    1c74:	0e 94 52 32 	call	0x64a4	; 0x64a4 <__mulsf3>
    1c78:	dc 01       	movw	r26, r24
    1c7a:	cb 01       	movw	r24, r22
    1c7c:	bc 01       	movw	r22, r24
    1c7e:	cd 01       	movw	r24, r26
    1c80:	0e 94 32 31 	call	0x6264	; 0x6264 <__fixunssfsi>
    1c84:	dc 01       	movw	r26, r24
    1c86:	cb 01       	movw	r24, r22
    1c88:	9a 87       	std	Y+10, r25	; 0x0a
    1c8a:	89 87       	std	Y+9, r24	; 0x09
    1c8c:	0f c0       	rjmp	.+30     	; 0x1cac <clapperboardsKnockDownGreenSide+0xea>
    1c8e:	8a ef       	ldi	r24, 0xFA	; 250
    1c90:	90 e0       	ldi	r25, 0x00	; 0
    1c92:	9c 87       	std	Y+12, r25	; 0x0c
    1c94:	8b 87       	std	Y+11, r24	; 0x0b
    1c96:	8b 85       	ldd	r24, Y+11	; 0x0b
    1c98:	9c 85       	ldd	r25, Y+12	; 0x0c
    1c9a:	01 97       	sbiw	r24, 0x01	; 1
    1c9c:	f1 f7       	brne	.-4      	; 0x1c9a <clapperboardsKnockDownGreenSide+0xd8>
    1c9e:	9c 87       	std	Y+12, r25	; 0x0c
    1ca0:	8b 87       	std	Y+11, r24	; 0x0b
    1ca2:	89 85       	ldd	r24, Y+9	; 0x09
    1ca4:	9a 85       	ldd	r25, Y+10	; 0x0a
    1ca6:	01 97       	sbiw	r24, 0x01	; 1
    1ca8:	9a 87       	std	Y+10, r25	; 0x0a
    1caa:	89 87       	std	Y+9, r24	; 0x09
    1cac:	89 85       	ldd	r24, Y+9	; 0x09
    1cae:	9a 85       	ldd	r25, Y+10	; 0x0a
    1cb0:	00 97       	sbiw	r24, 0x00	; 0
    1cb2:	69 f7       	brne	.-38     	; 0x1c8e <clapperboardsKnockDownGreenSide+0xcc>
    1cb4:	14 c0       	rjmp	.+40     	; 0x1cde <clapperboardsKnockDownGreenSide+0x11c>
    1cb6:	6d 81       	ldd	r22, Y+5	; 0x05
    1cb8:	7e 81       	ldd	r23, Y+6	; 0x06
    1cba:	8f 81       	ldd	r24, Y+7	; 0x07
    1cbc:	98 85       	ldd	r25, Y+8	; 0x08
    1cbe:	0e 94 32 31 	call	0x6264	; 0x6264 <__fixunssfsi>
    1cc2:	dc 01       	movw	r26, r24
    1cc4:	cb 01       	movw	r24, r22
    1cc6:	9a 87       	std	Y+10, r25	; 0x0a
    1cc8:	89 87       	std	Y+9, r24	; 0x09
    1cca:	89 85       	ldd	r24, Y+9	; 0x09
    1ccc:	9a 85       	ldd	r25, Y+10	; 0x0a
    1cce:	9e 87       	std	Y+14, r25	; 0x0e
    1cd0:	8d 87       	std	Y+13, r24	; 0x0d
    1cd2:	8d 85       	ldd	r24, Y+13	; 0x0d
    1cd4:	9e 85       	ldd	r25, Y+14	; 0x0e
    1cd6:	01 97       	sbiw	r24, 0x01	; 1
    1cd8:	f1 f7       	brne	.-4      	; 0x1cd6 <clapperboardsKnockDownGreenSide+0x114>
    1cda:	9e 87       	std	Y+14, r25	; 0x0e
    1cdc:	8d 87       	std	Y+13, r24	; 0x0d
    1cde:	80 91 e2 02 	lds	r24, 0x02E2
    1ce2:	88 23       	and	r24, r24
    1ce4:	09 f0       	breq	.+2      	; 0x1ce8 <clapperboardsKnockDownGreenSide+0x126>
    1ce6:	ef c0       	rjmp	.+478    	; 0x1ec6 <clapperboardsKnockDownGreenSide+0x304>
    1ce8:	80 e0       	ldi	r24, 0x00	; 0
    1cea:	90 e0       	ldi	r25, 0x00	; 0
    1cec:	af e2       	ldi	r26, 0x2F	; 47
    1cee:	b4 e4       	ldi	r27, 0x44	; 68
    1cf0:	8f 87       	std	Y+15, r24	; 0x0f
    1cf2:	98 8b       	std	Y+16, r25	; 0x10
    1cf4:	a9 8b       	std	Y+17, r26	; 0x11
    1cf6:	ba 8b       	std	Y+18, r27	; 0x12
    1cf8:	20 e0       	ldi	r18, 0x00	; 0
    1cfa:	30 e4       	ldi	r19, 0x40	; 64
    1cfc:	4c e1       	ldi	r20, 0x1C	; 28
    1cfe:	55 e4       	ldi	r21, 0x45	; 69
    1d00:	6f 85       	ldd	r22, Y+15	; 0x0f
    1d02:	78 89       	ldd	r23, Y+16	; 0x10
    1d04:	89 89       	ldd	r24, Y+17	; 0x11
    1d06:	9a 89       	ldd	r25, Y+18	; 0x12
    1d08:	0e 94 52 32 	call	0x64a4	; 0x64a4 <__mulsf3>
    1d0c:	dc 01       	movw	r26, r24
    1d0e:	cb 01       	movw	r24, r22
    1d10:	8b 8b       	std	Y+19, r24	; 0x13
    1d12:	9c 8b       	std	Y+20, r25	; 0x14
    1d14:	ad 8b       	std	Y+21, r26	; 0x15
    1d16:	be 8b       	std	Y+22, r27	; 0x16
    1d18:	20 e0       	ldi	r18, 0x00	; 0
    1d1a:	30 e0       	ldi	r19, 0x00	; 0
    1d1c:	40 e8       	ldi	r20, 0x80	; 128
    1d1e:	5f e3       	ldi	r21, 0x3F	; 63
    1d20:	6b 89       	ldd	r22, Y+19	; 0x13
    1d22:	7c 89       	ldd	r23, Y+20	; 0x14
    1d24:	8d 89       	ldd	r24, Y+21	; 0x15
    1d26:	9e 89       	ldd	r25, Y+22	; 0x16
    1d28:	0e 94 c6 30 	call	0x618c	; 0x618c <__cmpsf2>
    1d2c:	88 23       	and	r24, r24
    1d2e:	2c f4       	brge	.+10     	; 0x1d3a <clapperboardsKnockDownGreenSide+0x178>
    1d30:	81 e0       	ldi	r24, 0x01	; 1
    1d32:	90 e0       	ldi	r25, 0x00	; 0
    1d34:	98 8f       	std	Y+24, r25	; 0x18
    1d36:	8f 8b       	std	Y+23, r24	; 0x17
    1d38:	3f c0       	rjmp	.+126    	; 0x1db8 <clapperboardsKnockDownGreenSide+0x1f6>
    1d3a:	20 e0       	ldi	r18, 0x00	; 0
    1d3c:	3f ef       	ldi	r19, 0xFF	; 255
    1d3e:	4f e7       	ldi	r20, 0x7F	; 127
    1d40:	57 e4       	ldi	r21, 0x47	; 71
    1d42:	6b 89       	ldd	r22, Y+19	; 0x13
    1d44:	7c 89       	ldd	r23, Y+20	; 0x14
    1d46:	8d 89       	ldd	r24, Y+21	; 0x15
    1d48:	9e 89       	ldd	r25, Y+22	; 0x16
    1d4a:	0e 94 4e 32 	call	0x649c	; 0x649c <__gesf2>
    1d4e:	18 16       	cp	r1, r24
    1d50:	4c f5       	brge	.+82     	; 0x1da4 <clapperboardsKnockDownGreenSide+0x1e2>
    1d52:	20 e0       	ldi	r18, 0x00	; 0
    1d54:	30 e0       	ldi	r19, 0x00	; 0
    1d56:	40 e2       	ldi	r20, 0x20	; 32
    1d58:	51 e4       	ldi	r21, 0x41	; 65
    1d5a:	6f 85       	ldd	r22, Y+15	; 0x0f
    1d5c:	78 89       	ldd	r23, Y+16	; 0x10
    1d5e:	89 89       	ldd	r24, Y+17	; 0x11
    1d60:	9a 89       	ldd	r25, Y+18	; 0x12
    1d62:	0e 94 52 32 	call	0x64a4	; 0x64a4 <__mulsf3>
    1d66:	dc 01       	movw	r26, r24
    1d68:	cb 01       	movw	r24, r22
    1d6a:	bc 01       	movw	r22, r24
    1d6c:	cd 01       	movw	r24, r26
    1d6e:	0e 94 32 31 	call	0x6264	; 0x6264 <__fixunssfsi>
    1d72:	dc 01       	movw	r26, r24
    1d74:	cb 01       	movw	r24, r22
    1d76:	98 8f       	std	Y+24, r25	; 0x18
    1d78:	8f 8b       	std	Y+23, r24	; 0x17
    1d7a:	0f c0       	rjmp	.+30     	; 0x1d9a <clapperboardsKnockDownGreenSide+0x1d8>
    1d7c:	8a ef       	ldi	r24, 0xFA	; 250
    1d7e:	90 e0       	ldi	r25, 0x00	; 0
    1d80:	9a 8f       	std	Y+26, r25	; 0x1a
    1d82:	89 8f       	std	Y+25, r24	; 0x19
    1d84:	89 8d       	ldd	r24, Y+25	; 0x19
    1d86:	9a 8d       	ldd	r25, Y+26	; 0x1a
    1d88:	01 97       	sbiw	r24, 0x01	; 1
    1d8a:	f1 f7       	brne	.-4      	; 0x1d88 <clapperboardsKnockDownGreenSide+0x1c6>
    1d8c:	9a 8f       	std	Y+26, r25	; 0x1a
    1d8e:	89 8f       	std	Y+25, r24	; 0x19
    1d90:	8f 89       	ldd	r24, Y+23	; 0x17
    1d92:	98 8d       	ldd	r25, Y+24	; 0x18
    1d94:	01 97       	sbiw	r24, 0x01	; 1
    1d96:	98 8f       	std	Y+24, r25	; 0x18
    1d98:	8f 8b       	std	Y+23, r24	; 0x17
    1d9a:	8f 89       	ldd	r24, Y+23	; 0x17
    1d9c:	98 8d       	ldd	r25, Y+24	; 0x18
    1d9e:	00 97       	sbiw	r24, 0x00	; 0
    1da0:	69 f7       	brne	.-38     	; 0x1d7c <clapperboardsKnockDownGreenSide+0x1ba>
    1da2:	14 c0       	rjmp	.+40     	; 0x1dcc <clapperboardsKnockDownGreenSide+0x20a>
    1da4:	6b 89       	ldd	r22, Y+19	; 0x13
    1da6:	7c 89       	ldd	r23, Y+20	; 0x14
    1da8:	8d 89       	ldd	r24, Y+21	; 0x15
    1daa:	9e 89       	ldd	r25, Y+22	; 0x16
    1dac:	0e 94 32 31 	call	0x6264	; 0x6264 <__fixunssfsi>
    1db0:	dc 01       	movw	r26, r24
    1db2:	cb 01       	movw	r24, r22
    1db4:	98 8f       	std	Y+24, r25	; 0x18
    1db6:	8f 8b       	std	Y+23, r24	; 0x17
    1db8:	8f 89       	ldd	r24, Y+23	; 0x17
    1dba:	98 8d       	ldd	r25, Y+24	; 0x18
    1dbc:	9c 8f       	std	Y+28, r25	; 0x1c
    1dbe:	8b 8f       	std	Y+27, r24	; 0x1b
    1dc0:	8b 8d       	ldd	r24, Y+27	; 0x1b
    1dc2:	9c 8d       	ldd	r25, Y+28	; 0x1c
    1dc4:	01 97       	sbiw	r24, 0x01	; 1
    1dc6:	f1 f7       	brne	.-4      	; 0x1dc4 <clapperboardsKnockDownGreenSide+0x202>
    1dc8:	9c 8f       	std	Y+28, r25	; 0x1c
    1dca:	8b 8f       	std	Y+27, r24	; 0x1b
    1dcc:	6f ef       	ldi	r22, 0xFF	; 255
    1dce:	81 e0       	ldi	r24, 0x01	; 1
    1dd0:	0e 94 6a 00 	call	0xd4	; 0xd4 <knockDownTheClapperboards>
    1dd4:	80 e0       	ldi	r24, 0x00	; 0
    1dd6:	90 e0       	ldi	r25, 0x00	; 0
    1dd8:	a6 e9       	ldi	r26, 0x96	; 150
    1dda:	b4 e4       	ldi	r27, 0x44	; 68
    1ddc:	8d 8f       	std	Y+29, r24	; 0x1d
    1dde:	9e 8f       	std	Y+30, r25	; 0x1e
    1de0:	af 8f       	std	Y+31, r26	; 0x1f
    1de2:	b8 a3       	std	Y+32, r27	; 0x20
    1de4:	20 e0       	ldi	r18, 0x00	; 0
    1de6:	30 e4       	ldi	r19, 0x40	; 64
    1de8:	4c e1       	ldi	r20, 0x1C	; 28
    1dea:	55 e4       	ldi	r21, 0x45	; 69
    1dec:	6d 8d       	ldd	r22, Y+29	; 0x1d
    1dee:	7e 8d       	ldd	r23, Y+30	; 0x1e
    1df0:	8f 8d       	ldd	r24, Y+31	; 0x1f
    1df2:	98 a1       	ldd	r25, Y+32	; 0x20
    1df4:	0e 94 52 32 	call	0x64a4	; 0x64a4 <__mulsf3>
    1df8:	dc 01       	movw	r26, r24
    1dfa:	cb 01       	movw	r24, r22
    1dfc:	89 a3       	std	Y+33, r24	; 0x21
    1dfe:	9a a3       	std	Y+34, r25	; 0x22
    1e00:	ab a3       	std	Y+35, r26	; 0x23
    1e02:	bc a3       	std	Y+36, r27	; 0x24
    1e04:	20 e0       	ldi	r18, 0x00	; 0
    1e06:	30 e0       	ldi	r19, 0x00	; 0
    1e08:	40 e8       	ldi	r20, 0x80	; 128
    1e0a:	5f e3       	ldi	r21, 0x3F	; 63
    1e0c:	69 a1       	ldd	r22, Y+33	; 0x21
    1e0e:	7a a1       	ldd	r23, Y+34	; 0x22
    1e10:	8b a1       	ldd	r24, Y+35	; 0x23
    1e12:	9c a1       	ldd	r25, Y+36	; 0x24
    1e14:	0e 94 c6 30 	call	0x618c	; 0x618c <__cmpsf2>
    1e18:	88 23       	and	r24, r24
    1e1a:	2c f4       	brge	.+10     	; 0x1e26 <clapperboardsKnockDownGreenSide+0x264>
    1e1c:	81 e0       	ldi	r24, 0x01	; 1
    1e1e:	90 e0       	ldi	r25, 0x00	; 0
    1e20:	9e a3       	std	Y+38, r25	; 0x26
    1e22:	8d a3       	std	Y+37, r24	; 0x25
    1e24:	3f c0       	rjmp	.+126    	; 0x1ea4 <clapperboardsKnockDownGreenSide+0x2e2>
    1e26:	20 e0       	ldi	r18, 0x00	; 0
    1e28:	3f ef       	ldi	r19, 0xFF	; 255
    1e2a:	4f e7       	ldi	r20, 0x7F	; 127
    1e2c:	57 e4       	ldi	r21, 0x47	; 71
    1e2e:	69 a1       	ldd	r22, Y+33	; 0x21
    1e30:	7a a1       	ldd	r23, Y+34	; 0x22
    1e32:	8b a1       	ldd	r24, Y+35	; 0x23
    1e34:	9c a1       	ldd	r25, Y+36	; 0x24
    1e36:	0e 94 4e 32 	call	0x649c	; 0x649c <__gesf2>
    1e3a:	18 16       	cp	r1, r24
    1e3c:	4c f5       	brge	.+82     	; 0x1e90 <clapperboardsKnockDownGreenSide+0x2ce>
    1e3e:	20 e0       	ldi	r18, 0x00	; 0
    1e40:	30 e0       	ldi	r19, 0x00	; 0
    1e42:	40 e2       	ldi	r20, 0x20	; 32
    1e44:	51 e4       	ldi	r21, 0x41	; 65
    1e46:	6d 8d       	ldd	r22, Y+29	; 0x1d
    1e48:	7e 8d       	ldd	r23, Y+30	; 0x1e
    1e4a:	8f 8d       	ldd	r24, Y+31	; 0x1f
    1e4c:	98 a1       	ldd	r25, Y+32	; 0x20
    1e4e:	0e 94 52 32 	call	0x64a4	; 0x64a4 <__mulsf3>
    1e52:	dc 01       	movw	r26, r24
    1e54:	cb 01       	movw	r24, r22
    1e56:	bc 01       	movw	r22, r24
    1e58:	cd 01       	movw	r24, r26
    1e5a:	0e 94 32 31 	call	0x6264	; 0x6264 <__fixunssfsi>
    1e5e:	dc 01       	movw	r26, r24
    1e60:	cb 01       	movw	r24, r22
    1e62:	9e a3       	std	Y+38, r25	; 0x26
    1e64:	8d a3       	std	Y+37, r24	; 0x25
    1e66:	0f c0       	rjmp	.+30     	; 0x1e86 <clapperboardsKnockDownGreenSide+0x2c4>
    1e68:	8a ef       	ldi	r24, 0xFA	; 250
    1e6a:	90 e0       	ldi	r25, 0x00	; 0
    1e6c:	98 a7       	std	Y+40, r25	; 0x28
    1e6e:	8f a3       	std	Y+39, r24	; 0x27
    1e70:	8f a1       	ldd	r24, Y+39	; 0x27
    1e72:	98 a5       	ldd	r25, Y+40	; 0x28
    1e74:	01 97       	sbiw	r24, 0x01	; 1
    1e76:	f1 f7       	brne	.-4      	; 0x1e74 <clapperboardsKnockDownGreenSide+0x2b2>
    1e78:	98 a7       	std	Y+40, r25	; 0x28
    1e7a:	8f a3       	std	Y+39, r24	; 0x27
    1e7c:	8d a1       	ldd	r24, Y+37	; 0x25
    1e7e:	9e a1       	ldd	r25, Y+38	; 0x26
    1e80:	01 97       	sbiw	r24, 0x01	; 1
    1e82:	9e a3       	std	Y+38, r25	; 0x26
    1e84:	8d a3       	std	Y+37, r24	; 0x25
    1e86:	8d a1       	ldd	r24, Y+37	; 0x25
    1e88:	9e a1       	ldd	r25, Y+38	; 0x26
    1e8a:	00 97       	sbiw	r24, 0x00	; 0
    1e8c:	69 f7       	brne	.-38     	; 0x1e68 <clapperboardsKnockDownGreenSide+0x2a6>
    1e8e:	14 c0       	rjmp	.+40     	; 0x1eb8 <clapperboardsKnockDownGreenSide+0x2f6>
    1e90:	69 a1       	ldd	r22, Y+33	; 0x21
    1e92:	7a a1       	ldd	r23, Y+34	; 0x22
    1e94:	8b a1       	ldd	r24, Y+35	; 0x23
    1e96:	9c a1       	ldd	r25, Y+36	; 0x24
    1e98:	0e 94 32 31 	call	0x6264	; 0x6264 <__fixunssfsi>
    1e9c:	dc 01       	movw	r26, r24
    1e9e:	cb 01       	movw	r24, r22
    1ea0:	9e a3       	std	Y+38, r25	; 0x26
    1ea2:	8d a3       	std	Y+37, r24	; 0x25
    1ea4:	8d a1       	ldd	r24, Y+37	; 0x25
    1ea6:	9e a1       	ldd	r25, Y+38	; 0x26
    1ea8:	9a a7       	std	Y+42, r25	; 0x2a
    1eaa:	89 a7       	std	Y+41, r24	; 0x29
    1eac:	89 a5       	ldd	r24, Y+41	; 0x29
    1eae:	9a a5       	ldd	r25, Y+42	; 0x2a
    1eb0:	01 97       	sbiw	r24, 0x01	; 1
    1eb2:	f1 f7       	brne	.-4      	; 0x1eb0 <clapperboardsKnockDownGreenSide+0x2ee>
    1eb4:	9a a7       	std	Y+42, r25	; 0x2a
    1eb6:	89 a7       	std	Y+41, r24	; 0x29
    1eb8:	61 e0       	ldi	r22, 0x01	; 1
    1eba:	81 e0       	ldi	r24, 0x01	; 1
    1ebc:	0e 94 6a 00 	call	0xd4	; 0xd4 <knockDownTheClapperboards>
    1ec0:	81 e0       	ldi	r24, 0x01	; 1
    1ec2:	80 93 e2 02 	sts	0x02E2, r24
    1ec6:	80 e0       	ldi	r24, 0x00	; 0
    1ec8:	ae 96       	adiw	r28, 0x2e	; 46
    1eca:	0f b6       	in	r0, 0x3f	; 63
    1ecc:	f8 94       	cli
    1ece:	de bf       	out	0x3e, r29	; 62
    1ed0:	0f be       	out	0x3f, r0	; 63
    1ed2:	cd bf       	out	0x3d, r28	; 61
    1ed4:	df 91       	pop	r29
    1ed6:	cf 91       	pop	r28
    1ed8:	08 95       	ret

00001eda <popcornColectionGreenSide>:
    1eda:	cf 93       	push	r28
    1edc:	df 93       	push	r29
    1ede:	00 d0       	rcall	.+0      	; 0x1ee0 <popcornColectionGreenSide+0x6>
    1ee0:	00 d0       	rcall	.+0      	; 0x1ee2 <popcornColectionGreenSide+0x8>
    1ee2:	cd b7       	in	r28, 0x3d	; 61
    1ee4:	de b7       	in	r29, 0x3e	; 62
    1ee6:	69 83       	std	Y+1, r22	; 0x01
    1ee8:	7a 83       	std	Y+2, r23	; 0x02
    1eea:	8b 83       	std	Y+3, r24	; 0x03
    1eec:	9c 83       	std	Y+4, r25	; 0x04
    1eee:	80 91 ea 02 	lds	r24, 0x02EA
    1ef2:	88 23       	and	r24, r24
    1ef4:	39 f4       	brne	.+14     	; 0x1f04 <popcornColectionGreenSide+0x2a>
    1ef6:	61 e0       	ldi	r22, 0x01	; 1
    1ef8:	8f ef       	ldi	r24, 0xFF	; 255
    1efa:	0e 94 8c 01 	call	0x318	; 0x318 <colectThePopcorn>
    1efe:	81 e0       	ldi	r24, 0x01	; 1
    1f00:	80 93 ea 02 	sts	0x02EA, r24
    1f04:	80 e0       	ldi	r24, 0x00	; 0
    1f06:	0f 90       	pop	r0
    1f08:	0f 90       	pop	r0
    1f0a:	0f 90       	pop	r0
    1f0c:	0f 90       	pop	r0
    1f0e:	df 91       	pop	r29
    1f10:	cf 91       	pop	r28
    1f12:	08 95       	ret

00001f14 <greenSide>:
    1f14:	af 92       	push	r10
    1f16:	bf 92       	push	r11
    1f18:	cf 92       	push	r12
    1f1a:	df 92       	push	r13
    1f1c:	ef 92       	push	r14
    1f1e:	ff 92       	push	r15
    1f20:	0f 93       	push	r16
    1f22:	1f 93       	push	r17
    1f24:	cf 93       	push	r28
    1f26:	df 93       	push	r29
    1f28:	cd b7       	in	r28, 0x3d	; 61
    1f2a:	de b7       	in	r29, 0x3e	; 62
    1f2c:	ce 52       	subi	r28, 0x2E	; 46
    1f2e:	d1 40       	sbci	r29, 0x01	; 1
    1f30:	0f b6       	in	r0, 0x3f	; 63
    1f32:	f8 94       	cli
    1f34:	de bf       	out	0x3e, r29	; 62
    1f36:	0f be       	out	0x3f, r0	; 63
    1f38:	cd bf       	out	0x3d, r28	; 61
    1f3a:	81 e0       	ldi	r24, 0x01	; 1
    1f3c:	89 83       	std	Y+1, r24	; 0x01
    1f3e:	10 92 ec 02 	sts	0x02EC, r1
    1f42:	10 92 ed 02 	sts	0x02ED, r1
    1f46:	ce 01       	movw	r24, r28
    1f48:	87 5d       	subi	r24, 0xD7	; 215
    1f4a:	9e 4f       	sbci	r25, 0xFE	; 254
    1f4c:	2e e5       	ldi	r18, 0x5E	; 94
    1f4e:	30 e0       	ldi	r19, 0x00	; 0
    1f50:	fc 01       	movw	r30, r24
    1f52:	31 83       	std	Z+1, r19	; 0x01
    1f54:	20 83       	st	Z, r18
    1f56:	ce 01       	movw	r24, r28
    1f58:	87 5d       	subi	r24, 0xD7	; 215
    1f5a:	9e 4f       	sbci	r25, 0xFE	; 254
    1f5c:	2b e2       	ldi	r18, 0x2B	; 43
    1f5e:	34 e0       	ldi	r19, 0x04	; 4
    1f60:	fc 01       	movw	r30, r24
    1f62:	33 83       	std	Z+3, r19	; 0x03
    1f64:	22 83       	std	Z+2, r18	; 0x02
    1f66:	ce 01       	movw	r24, r28
    1f68:	87 5d       	subi	r24, 0xD7	; 215
    1f6a:	9e 4f       	sbci	r25, 0xFE	; 254
    1f6c:	fc 01       	movw	r30, r24
    1f6e:	15 82       	std	Z+5, r1	; 0x05
    1f70:	14 82       	std	Z+4, r1	; 0x04
    1f72:	9e 01       	movw	r18, r28
    1f74:	27 5d       	subi	r18, 0xD7	; 215
    1f76:	3e 4f       	sbci	r19, 0xFE	; 254
    1f78:	f9 01       	movw	r30, r18
    1f7a:	40 81       	ld	r20, Z
    1f7c:	f9 01       	movw	r30, r18
    1f7e:	51 81       	ldd	r21, Z+1	; 0x01
    1f80:	f9 01       	movw	r30, r18
    1f82:	62 81       	ldd	r22, Z+2	; 0x02
    1f84:	f9 01       	movw	r30, r18
    1f86:	73 81       	ldd	r23, Z+3	; 0x03
    1f88:	f9 01       	movw	r30, r18
    1f8a:	84 81       	ldd	r24, Z+4	; 0x04
    1f8c:	f9 01       	movw	r30, r18
    1f8e:	95 81       	ldd	r25, Z+5	; 0x05
    1f90:	0e 94 46 27 	call	0x4e8c	; 0x4e8c <setPosition>
    1f94:	89 81       	ldd	r24, Y+1	; 0x01
    1f96:	88 2f       	mov	r24, r24
    1f98:	90 e0       	ldi	r25, 0x00	; 0
    1f9a:	81 30       	cpi	r24, 0x01	; 1
    1f9c:	91 05       	cpc	r25, r1
    1f9e:	09 f0       	breq	.+2      	; 0x1fa2 <greenSide+0x8e>
    1fa0:	f9 cf       	rjmp	.-14     	; 0x1f94 <greenSide+0x80>
    1fa2:	80 91 ed 02 	lds	r24, 0x02ED
    1fa6:	80 93 ec 02 	sts	0x02EC, r24
    1faa:	0c 94 93 20 	jmp	0x4126	; 0x4126 <greenSide+0x2212>
    1fae:	80 91 ec 02 	lds	r24, 0x02EC
    1fb2:	88 2f       	mov	r24, r24
    1fb4:	90 e0       	ldi	r25, 0x00	; 0
    1fb6:	88 0f       	add	r24, r24
    1fb8:	99 1f       	adc	r25, r25
    1fba:	9c 01       	movw	r18, r24
    1fbc:	22 0f       	add	r18, r18
    1fbe:	33 1f       	adc	r19, r19
    1fc0:	22 0f       	add	r18, r18
    1fc2:	33 1f       	adc	r19, r19
    1fc4:	82 0f       	add	r24, r18
    1fc6:	93 1f       	adc	r25, r19
    1fc8:	82 5f       	subi	r24, 0xF2	; 242
    1fca:	9e 4f       	sbci	r25, 0xFE	; 254
    1fcc:	fc 01       	movw	r30, r24
    1fce:	20 81       	ld	r18, Z
    1fd0:	31 81       	ldd	r19, Z+1	; 0x01
    1fd2:	80 91 ec 02 	lds	r24, 0x02EC
    1fd6:	88 2f       	mov	r24, r24
    1fd8:	90 e0       	ldi	r25, 0x00	; 0
    1fda:	88 0f       	add	r24, r24
    1fdc:	99 1f       	adc	r25, r25
    1fde:	ac 01       	movw	r20, r24
    1fe0:	44 0f       	add	r20, r20
    1fe2:	55 1f       	adc	r21, r21
    1fe4:	44 0f       	add	r20, r20
    1fe6:	55 1f       	adc	r21, r21
    1fe8:	84 0f       	add	r24, r20
    1fea:	95 1f       	adc	r25, r21
    1fec:	83 5f       	subi	r24, 0xF3	; 243
    1fee:	9e 4f       	sbci	r25, 0xFE	; 254
    1ff0:	fc 01       	movw	r30, r24
    1ff2:	70 81       	ld	r23, Z
    1ff4:	80 91 ec 02 	lds	r24, 0x02EC
    1ff8:	88 2f       	mov	r24, r24
    1ffa:	90 e0       	ldi	r25, 0x00	; 0
    1ffc:	88 0f       	add	r24, r24
    1ffe:	99 1f       	adc	r25, r25
    2000:	ac 01       	movw	r20, r24
    2002:	44 0f       	add	r20, r20
    2004:	55 1f       	adc	r21, r21
    2006:	44 0f       	add	r20, r20
    2008:	55 1f       	adc	r21, r21
    200a:	84 0f       	add	r24, r20
    200c:	95 1f       	adc	r25, r21
    200e:	84 5f       	subi	r24, 0xF4	; 244
    2010:	9e 4f       	sbci	r25, 0xFE	; 254
    2012:	fc 01       	movw	r30, r24
    2014:	60 81       	ld	r22, Z
    2016:	80 91 ec 02 	lds	r24, 0x02EC
    201a:	88 2f       	mov	r24, r24
    201c:	90 e0       	ldi	r25, 0x00	; 0
    201e:	88 0f       	add	r24, r24
    2020:	99 1f       	adc	r25, r25
    2022:	ac 01       	movw	r20, r24
    2024:	44 0f       	add	r20, r20
    2026:	55 1f       	adc	r21, r21
    2028:	44 0f       	add	r20, r20
    202a:	55 1f       	adc	r21, r21
    202c:	84 0f       	add	r24, r20
    202e:	95 1f       	adc	r25, r21
    2030:	fc 01       	movw	r30, r24
    2032:	ea 5f       	subi	r30, 0xFA	; 250
    2034:	fe 4f       	sbci	r31, 0xFE	; 254
    2036:	79 01       	movw	r14, r18
    2038:	07 2f       	mov	r16, r23
    203a:	26 2f       	mov	r18, r22
    203c:	40 81       	ld	r20, Z
    203e:	51 81       	ldd	r21, Z+1	; 0x01
    2040:	62 81       	ldd	r22, Z+2	; 0x02
    2042:	73 81       	ldd	r23, Z+3	; 0x03
    2044:	84 81       	ldd	r24, Z+4	; 0x04
    2046:	95 81       	ldd	r25, Z+5	; 0x05
    2048:	0e 94 a3 24 	call	0x4946	; 0x4946 <gotoXY>
    204c:	8a 83       	std	Y+2, r24	; 0x02
    204e:	80 91 ec 02 	lds	r24, 0x02EC
    2052:	88 23       	and	r24, r24
    2054:	61 f4       	brne	.+24     	; 0x206e <greenSide+0x15a>
    2056:	80 91 eb 02 	lds	r24, 0x02EB
    205a:	81 30       	cpi	r24, 0x01	; 1
    205c:	11 f0       	breq	.+4      	; 0x2062 <greenSide+0x14e>
    205e:	0c 94 8e 20 	jmp	0x411c	; 0x411c <greenSide+0x2208>
    2062:	80 91 ec 02 	lds	r24, 0x02EC
    2066:	80 93 ed 02 	sts	0x02ED, r24
    206a:	0c 94 8e 20 	jmp	0x411c	; 0x411c <greenSide+0x2208>
    206e:	80 91 ec 02 	lds	r24, 0x02EC
    2072:	81 30       	cpi	r24, 0x01	; 1
    2074:	71 f4       	brne	.+28     	; 0x2092 <greenSide+0x17e>
    2076:	80 91 eb 02 	lds	r24, 0x02EB
    207a:	81 30       	cpi	r24, 0x01	; 1
    207c:	21 f4       	brne	.+8      	; 0x2086 <greenSide+0x172>
    207e:	80 91 ec 02 	lds	r24, 0x02EC
    2082:	80 93 ed 02 	sts	0x02ED, r24
    2086:	61 e0       	ldi	r22, 0x01	; 1
    2088:	81 e0       	ldi	r24, 0x01	; 1
    208a:	0e 94 dc 07 	call	0xfb8	; 0xfb8 <liftMove>
    208e:	0c 94 8e 20 	jmp	0x411c	; 0x411c <greenSide+0x2208>
    2092:	80 91 ec 02 	lds	r24, 0x02EC
    2096:	82 30       	cpi	r24, 0x02	; 2
    2098:	09 f0       	breq	.+2      	; 0x209c <greenSide+0x188>
    209a:	f9 c0       	rjmp	.+498    	; 0x228e <greenSide+0x37a>
    209c:	80 91 eb 02 	lds	r24, 0x02EB
    20a0:	81 30       	cpi	r24, 0x01	; 1
    20a2:	21 f4       	brne	.+8      	; 0x20ac <greenSide+0x198>
    20a4:	80 91 ec 02 	lds	r24, 0x02EC
    20a8:	80 93 ed 02 	sts	0x02ED, r24
    20ac:	83 e7       	ldi	r24, 0x73	; 115
    20ae:	0e 94 1e 21 	call	0x423c	; 0x423c <stop>
    20b2:	80 e0       	ldi	r24, 0x00	; 0
    20b4:	90 e0       	ldi	r25, 0x00	; 0
    20b6:	a8 e4       	ldi	r26, 0x48	; 72
    20b8:	b2 e4       	ldi	r27, 0x42	; 66
    20ba:	8b 83       	std	Y+3, r24	; 0x03
    20bc:	9c 83       	std	Y+4, r25	; 0x04
    20be:	ad 83       	std	Y+5, r26	; 0x05
    20c0:	be 83       	std	Y+6, r27	; 0x06
    20c2:	20 e0       	ldi	r18, 0x00	; 0
    20c4:	30 e4       	ldi	r19, 0x40	; 64
    20c6:	4c e1       	ldi	r20, 0x1C	; 28
    20c8:	55 e4       	ldi	r21, 0x45	; 69
    20ca:	6b 81       	ldd	r22, Y+3	; 0x03
    20cc:	7c 81       	ldd	r23, Y+4	; 0x04
    20ce:	8d 81       	ldd	r24, Y+5	; 0x05
    20d0:	9e 81       	ldd	r25, Y+6	; 0x06
    20d2:	0e 94 52 32 	call	0x64a4	; 0x64a4 <__mulsf3>
    20d6:	dc 01       	movw	r26, r24
    20d8:	cb 01       	movw	r24, r22
    20da:	8f 83       	std	Y+7, r24	; 0x07
    20dc:	98 87       	std	Y+8, r25	; 0x08
    20de:	a9 87       	std	Y+9, r26	; 0x09
    20e0:	ba 87       	std	Y+10, r27	; 0x0a
    20e2:	20 e0       	ldi	r18, 0x00	; 0
    20e4:	30 e0       	ldi	r19, 0x00	; 0
    20e6:	40 e8       	ldi	r20, 0x80	; 128
    20e8:	5f e3       	ldi	r21, 0x3F	; 63
    20ea:	6f 81       	ldd	r22, Y+7	; 0x07
    20ec:	78 85       	ldd	r23, Y+8	; 0x08
    20ee:	89 85       	ldd	r24, Y+9	; 0x09
    20f0:	9a 85       	ldd	r25, Y+10	; 0x0a
    20f2:	0e 94 c6 30 	call	0x618c	; 0x618c <__cmpsf2>
    20f6:	88 23       	and	r24, r24
    20f8:	2c f4       	brge	.+10     	; 0x2104 <greenSide+0x1f0>
    20fa:	81 e0       	ldi	r24, 0x01	; 1
    20fc:	90 e0       	ldi	r25, 0x00	; 0
    20fe:	9c 87       	std	Y+12, r25	; 0x0c
    2100:	8b 87       	std	Y+11, r24	; 0x0b
    2102:	3f c0       	rjmp	.+126    	; 0x2182 <greenSide+0x26e>
    2104:	20 e0       	ldi	r18, 0x00	; 0
    2106:	3f ef       	ldi	r19, 0xFF	; 255
    2108:	4f e7       	ldi	r20, 0x7F	; 127
    210a:	57 e4       	ldi	r21, 0x47	; 71
    210c:	6f 81       	ldd	r22, Y+7	; 0x07
    210e:	78 85       	ldd	r23, Y+8	; 0x08
    2110:	89 85       	ldd	r24, Y+9	; 0x09
    2112:	9a 85       	ldd	r25, Y+10	; 0x0a
    2114:	0e 94 4e 32 	call	0x649c	; 0x649c <__gesf2>
    2118:	18 16       	cp	r1, r24
    211a:	4c f5       	brge	.+82     	; 0x216e <greenSide+0x25a>
    211c:	20 e0       	ldi	r18, 0x00	; 0
    211e:	30 e0       	ldi	r19, 0x00	; 0
    2120:	40 e2       	ldi	r20, 0x20	; 32
    2122:	51 e4       	ldi	r21, 0x41	; 65
    2124:	6b 81       	ldd	r22, Y+3	; 0x03
    2126:	7c 81       	ldd	r23, Y+4	; 0x04
    2128:	8d 81       	ldd	r24, Y+5	; 0x05
    212a:	9e 81       	ldd	r25, Y+6	; 0x06
    212c:	0e 94 52 32 	call	0x64a4	; 0x64a4 <__mulsf3>
    2130:	dc 01       	movw	r26, r24
    2132:	cb 01       	movw	r24, r22
    2134:	bc 01       	movw	r22, r24
    2136:	cd 01       	movw	r24, r26
    2138:	0e 94 32 31 	call	0x6264	; 0x6264 <__fixunssfsi>
    213c:	dc 01       	movw	r26, r24
    213e:	cb 01       	movw	r24, r22
    2140:	9c 87       	std	Y+12, r25	; 0x0c
    2142:	8b 87       	std	Y+11, r24	; 0x0b
    2144:	0f c0       	rjmp	.+30     	; 0x2164 <greenSide+0x250>
    2146:	8a ef       	ldi	r24, 0xFA	; 250
    2148:	90 e0       	ldi	r25, 0x00	; 0
    214a:	9e 87       	std	Y+14, r25	; 0x0e
    214c:	8d 87       	std	Y+13, r24	; 0x0d
    214e:	8d 85       	ldd	r24, Y+13	; 0x0d
    2150:	9e 85       	ldd	r25, Y+14	; 0x0e
    2152:	01 97       	sbiw	r24, 0x01	; 1
    2154:	f1 f7       	brne	.-4      	; 0x2152 <greenSide+0x23e>
    2156:	9e 87       	std	Y+14, r25	; 0x0e
    2158:	8d 87       	std	Y+13, r24	; 0x0d
    215a:	8b 85       	ldd	r24, Y+11	; 0x0b
    215c:	9c 85       	ldd	r25, Y+12	; 0x0c
    215e:	01 97       	sbiw	r24, 0x01	; 1
    2160:	9c 87       	std	Y+12, r25	; 0x0c
    2162:	8b 87       	std	Y+11, r24	; 0x0b
    2164:	8b 85       	ldd	r24, Y+11	; 0x0b
    2166:	9c 85       	ldd	r25, Y+12	; 0x0c
    2168:	00 97       	sbiw	r24, 0x00	; 0
    216a:	69 f7       	brne	.-38     	; 0x2146 <greenSide+0x232>
    216c:	14 c0       	rjmp	.+40     	; 0x2196 <greenSide+0x282>
    216e:	6f 81       	ldd	r22, Y+7	; 0x07
    2170:	78 85       	ldd	r23, Y+8	; 0x08
    2172:	89 85       	ldd	r24, Y+9	; 0x09
    2174:	9a 85       	ldd	r25, Y+10	; 0x0a
    2176:	0e 94 32 31 	call	0x6264	; 0x6264 <__fixunssfsi>
    217a:	dc 01       	movw	r26, r24
    217c:	cb 01       	movw	r24, r22
    217e:	9c 87       	std	Y+12, r25	; 0x0c
    2180:	8b 87       	std	Y+11, r24	; 0x0b
    2182:	8b 85       	ldd	r24, Y+11	; 0x0b
    2184:	9c 85       	ldd	r25, Y+12	; 0x0c
    2186:	98 8b       	std	Y+16, r25	; 0x10
    2188:	8f 87       	std	Y+15, r24	; 0x0f
    218a:	8f 85       	ldd	r24, Y+15	; 0x0f
    218c:	98 89       	ldd	r25, Y+16	; 0x10
    218e:	01 97       	sbiw	r24, 0x01	; 1
    2190:	f1 f7       	brne	.-4      	; 0x218e <greenSide+0x27a>
    2192:	98 8b       	std	Y+16, r25	; 0x10
    2194:	8f 87       	std	Y+15, r24	; 0x0f
    2196:	61 e0       	ldi	r22, 0x01	; 1
    2198:	8f ef       	ldi	r24, 0xFF	; 255
    219a:	0e 94 dc 07 	call	0xfb8	; 0xfb8 <liftMove>
    219e:	80 e0       	ldi	r24, 0x00	; 0
    21a0:	90 e0       	ldi	r25, 0x00	; 0
    21a2:	aa ef       	ldi	r26, 0xFA	; 250
    21a4:	b3 e4       	ldi	r27, 0x43	; 67
    21a6:	89 8b       	std	Y+17, r24	; 0x11
    21a8:	9a 8b       	std	Y+18, r25	; 0x12
    21aa:	ab 8b       	std	Y+19, r26	; 0x13
    21ac:	bc 8b       	std	Y+20, r27	; 0x14
    21ae:	20 e0       	ldi	r18, 0x00	; 0
    21b0:	30 e4       	ldi	r19, 0x40	; 64
    21b2:	4c e1       	ldi	r20, 0x1C	; 28
    21b4:	55 e4       	ldi	r21, 0x45	; 69
    21b6:	69 89       	ldd	r22, Y+17	; 0x11
    21b8:	7a 89       	ldd	r23, Y+18	; 0x12
    21ba:	8b 89       	ldd	r24, Y+19	; 0x13
    21bc:	9c 89       	ldd	r25, Y+20	; 0x14
    21be:	0e 94 52 32 	call	0x64a4	; 0x64a4 <__mulsf3>
    21c2:	dc 01       	movw	r26, r24
    21c4:	cb 01       	movw	r24, r22
    21c6:	8d 8b       	std	Y+21, r24	; 0x15
    21c8:	9e 8b       	std	Y+22, r25	; 0x16
    21ca:	af 8b       	std	Y+23, r26	; 0x17
    21cc:	b8 8f       	std	Y+24, r27	; 0x18
    21ce:	20 e0       	ldi	r18, 0x00	; 0
    21d0:	30 e0       	ldi	r19, 0x00	; 0
    21d2:	40 e8       	ldi	r20, 0x80	; 128
    21d4:	5f e3       	ldi	r21, 0x3F	; 63
    21d6:	6d 89       	ldd	r22, Y+21	; 0x15
    21d8:	7e 89       	ldd	r23, Y+22	; 0x16
    21da:	8f 89       	ldd	r24, Y+23	; 0x17
    21dc:	98 8d       	ldd	r25, Y+24	; 0x18
    21de:	0e 94 c6 30 	call	0x618c	; 0x618c <__cmpsf2>
    21e2:	88 23       	and	r24, r24
    21e4:	2c f4       	brge	.+10     	; 0x21f0 <greenSide+0x2dc>
    21e6:	81 e0       	ldi	r24, 0x01	; 1
    21e8:	90 e0       	ldi	r25, 0x00	; 0
    21ea:	9a 8f       	std	Y+26, r25	; 0x1a
    21ec:	89 8f       	std	Y+25, r24	; 0x19
    21ee:	3f c0       	rjmp	.+126    	; 0x226e <greenSide+0x35a>
    21f0:	20 e0       	ldi	r18, 0x00	; 0
    21f2:	3f ef       	ldi	r19, 0xFF	; 255
    21f4:	4f e7       	ldi	r20, 0x7F	; 127
    21f6:	57 e4       	ldi	r21, 0x47	; 71
    21f8:	6d 89       	ldd	r22, Y+21	; 0x15
    21fa:	7e 89       	ldd	r23, Y+22	; 0x16
    21fc:	8f 89       	ldd	r24, Y+23	; 0x17
    21fe:	98 8d       	ldd	r25, Y+24	; 0x18
    2200:	0e 94 4e 32 	call	0x649c	; 0x649c <__gesf2>
    2204:	18 16       	cp	r1, r24
    2206:	4c f5       	brge	.+82     	; 0x225a <greenSide+0x346>
    2208:	20 e0       	ldi	r18, 0x00	; 0
    220a:	30 e0       	ldi	r19, 0x00	; 0
    220c:	40 e2       	ldi	r20, 0x20	; 32
    220e:	51 e4       	ldi	r21, 0x41	; 65
    2210:	69 89       	ldd	r22, Y+17	; 0x11
    2212:	7a 89       	ldd	r23, Y+18	; 0x12
    2214:	8b 89       	ldd	r24, Y+19	; 0x13
    2216:	9c 89       	ldd	r25, Y+20	; 0x14
    2218:	0e 94 52 32 	call	0x64a4	; 0x64a4 <__mulsf3>
    221c:	dc 01       	movw	r26, r24
    221e:	cb 01       	movw	r24, r22
    2220:	bc 01       	movw	r22, r24
    2222:	cd 01       	movw	r24, r26
    2224:	0e 94 32 31 	call	0x6264	; 0x6264 <__fixunssfsi>
    2228:	dc 01       	movw	r26, r24
    222a:	cb 01       	movw	r24, r22
    222c:	9a 8f       	std	Y+26, r25	; 0x1a
    222e:	89 8f       	std	Y+25, r24	; 0x19
    2230:	0f c0       	rjmp	.+30     	; 0x2250 <greenSide+0x33c>
    2232:	8a ef       	ldi	r24, 0xFA	; 250
    2234:	90 e0       	ldi	r25, 0x00	; 0
    2236:	9c 8f       	std	Y+28, r25	; 0x1c
    2238:	8b 8f       	std	Y+27, r24	; 0x1b
    223a:	8b 8d       	ldd	r24, Y+27	; 0x1b
    223c:	9c 8d       	ldd	r25, Y+28	; 0x1c
    223e:	01 97       	sbiw	r24, 0x01	; 1
    2240:	f1 f7       	brne	.-4      	; 0x223e <greenSide+0x32a>
    2242:	9c 8f       	std	Y+28, r25	; 0x1c
    2244:	8b 8f       	std	Y+27, r24	; 0x1b
    2246:	89 8d       	ldd	r24, Y+25	; 0x19
    2248:	9a 8d       	ldd	r25, Y+26	; 0x1a
    224a:	01 97       	sbiw	r24, 0x01	; 1
    224c:	9a 8f       	std	Y+26, r25	; 0x1a
    224e:	89 8f       	std	Y+25, r24	; 0x19
    2250:	89 8d       	ldd	r24, Y+25	; 0x19
    2252:	9a 8d       	ldd	r25, Y+26	; 0x1a
    2254:	00 97       	sbiw	r24, 0x00	; 0
    2256:	69 f7       	brne	.-38     	; 0x2232 <greenSide+0x31e>
    2258:	14 c0       	rjmp	.+40     	; 0x2282 <greenSide+0x36e>
    225a:	6d 89       	ldd	r22, Y+21	; 0x15
    225c:	7e 89       	ldd	r23, Y+22	; 0x16
    225e:	8f 89       	ldd	r24, Y+23	; 0x17
    2260:	98 8d       	ldd	r25, Y+24	; 0x18
    2262:	0e 94 32 31 	call	0x6264	; 0x6264 <__fixunssfsi>
    2266:	dc 01       	movw	r26, r24
    2268:	cb 01       	movw	r24, r22
    226a:	9a 8f       	std	Y+26, r25	; 0x1a
    226c:	89 8f       	std	Y+25, r24	; 0x19
    226e:	89 8d       	ldd	r24, Y+25	; 0x19
    2270:	9a 8d       	ldd	r25, Y+26	; 0x1a
    2272:	9e 8f       	std	Y+30, r25	; 0x1e
    2274:	8d 8f       	std	Y+29, r24	; 0x1d
    2276:	8d 8d       	ldd	r24, Y+29	; 0x1d
    2278:	9e 8d       	ldd	r25, Y+30	; 0x1e
    227a:	01 97       	sbiw	r24, 0x01	; 1
    227c:	f1 f7       	brne	.-4      	; 0x227a <greenSide+0x366>
    227e:	9e 8f       	std	Y+30, r25	; 0x1e
    2280:	8d 8f       	std	Y+29, r24	; 0x1d
    2282:	61 e0       	ldi	r22, 0x01	; 1
    2284:	81 e0       	ldi	r24, 0x01	; 1
    2286:	0e 94 dc 07 	call	0xfb8	; 0xfb8 <liftMove>
    228a:	0c 94 8e 20 	jmp	0x411c	; 0x411c <greenSide+0x2208>
    228e:	80 91 ec 02 	lds	r24, 0x02EC
    2292:	83 30       	cpi	r24, 0x03	; 3
    2294:	11 f4       	brne	.+4      	; 0x229a <greenSide+0x386>
    2296:	0c 94 8e 20 	jmp	0x411c	; 0x411c <greenSide+0x2208>
    229a:	80 91 ec 02 	lds	r24, 0x02EC
    229e:	84 30       	cpi	r24, 0x04	; 4
    22a0:	09 f0       	breq	.+2      	; 0x22a4 <greenSide+0x390>
    22a2:	ee c6       	rjmp	.+3548   	; 0x3080 <greenSide+0x116c>
    22a4:	83 e7       	ldi	r24, 0x73	; 115
    22a6:	0e 94 1e 21 	call	0x423c	; 0x423c <stop>
    22aa:	80 e0       	ldi	r24, 0x00	; 0
    22ac:	90 e0       	ldi	r25, 0x00	; 0
    22ae:	a8 e4       	ldi	r26, 0x48	; 72
    22b0:	b2 e4       	ldi	r27, 0x42	; 66
    22b2:	8f 8f       	std	Y+31, r24	; 0x1f
    22b4:	98 a3       	std	Y+32, r25	; 0x20
    22b6:	a9 a3       	std	Y+33, r26	; 0x21
    22b8:	ba a3       	std	Y+34, r27	; 0x22
    22ba:	20 e0       	ldi	r18, 0x00	; 0
    22bc:	30 e4       	ldi	r19, 0x40	; 64
    22be:	4c e1       	ldi	r20, 0x1C	; 28
    22c0:	55 e4       	ldi	r21, 0x45	; 69
    22c2:	6f 8d       	ldd	r22, Y+31	; 0x1f
    22c4:	78 a1       	ldd	r23, Y+32	; 0x20
    22c6:	89 a1       	ldd	r24, Y+33	; 0x21
    22c8:	9a a1       	ldd	r25, Y+34	; 0x22
    22ca:	0e 94 52 32 	call	0x64a4	; 0x64a4 <__mulsf3>
    22ce:	dc 01       	movw	r26, r24
    22d0:	cb 01       	movw	r24, r22
    22d2:	8b a3       	std	Y+35, r24	; 0x23
    22d4:	9c a3       	std	Y+36, r25	; 0x24
    22d6:	ad a3       	std	Y+37, r26	; 0x25
    22d8:	be a3       	std	Y+38, r27	; 0x26
    22da:	20 e0       	ldi	r18, 0x00	; 0
    22dc:	30 e0       	ldi	r19, 0x00	; 0
    22de:	40 e8       	ldi	r20, 0x80	; 128
    22e0:	5f e3       	ldi	r21, 0x3F	; 63
    22e2:	6b a1       	ldd	r22, Y+35	; 0x23
    22e4:	7c a1       	ldd	r23, Y+36	; 0x24
    22e6:	8d a1       	ldd	r24, Y+37	; 0x25
    22e8:	9e a1       	ldd	r25, Y+38	; 0x26
    22ea:	0e 94 c6 30 	call	0x618c	; 0x618c <__cmpsf2>
    22ee:	88 23       	and	r24, r24
    22f0:	2c f4       	brge	.+10     	; 0x22fc <greenSide+0x3e8>
    22f2:	81 e0       	ldi	r24, 0x01	; 1
    22f4:	90 e0       	ldi	r25, 0x00	; 0
    22f6:	98 a7       	std	Y+40, r25	; 0x28
    22f8:	8f a3       	std	Y+39, r24	; 0x27
    22fa:	3f c0       	rjmp	.+126    	; 0x237a <greenSide+0x466>
    22fc:	20 e0       	ldi	r18, 0x00	; 0
    22fe:	3f ef       	ldi	r19, 0xFF	; 255
    2300:	4f e7       	ldi	r20, 0x7F	; 127
    2302:	57 e4       	ldi	r21, 0x47	; 71
    2304:	6b a1       	ldd	r22, Y+35	; 0x23
    2306:	7c a1       	ldd	r23, Y+36	; 0x24
    2308:	8d a1       	ldd	r24, Y+37	; 0x25
    230a:	9e a1       	ldd	r25, Y+38	; 0x26
    230c:	0e 94 4e 32 	call	0x649c	; 0x649c <__gesf2>
    2310:	18 16       	cp	r1, r24
    2312:	4c f5       	brge	.+82     	; 0x2366 <greenSide+0x452>
    2314:	20 e0       	ldi	r18, 0x00	; 0
    2316:	30 e0       	ldi	r19, 0x00	; 0
    2318:	40 e2       	ldi	r20, 0x20	; 32
    231a:	51 e4       	ldi	r21, 0x41	; 65
    231c:	6f 8d       	ldd	r22, Y+31	; 0x1f
    231e:	78 a1       	ldd	r23, Y+32	; 0x20
    2320:	89 a1       	ldd	r24, Y+33	; 0x21
    2322:	9a a1       	ldd	r25, Y+34	; 0x22
    2324:	0e 94 52 32 	call	0x64a4	; 0x64a4 <__mulsf3>
    2328:	dc 01       	movw	r26, r24
    232a:	cb 01       	movw	r24, r22
    232c:	bc 01       	movw	r22, r24
    232e:	cd 01       	movw	r24, r26
    2330:	0e 94 32 31 	call	0x6264	; 0x6264 <__fixunssfsi>
    2334:	dc 01       	movw	r26, r24
    2336:	cb 01       	movw	r24, r22
    2338:	98 a7       	std	Y+40, r25	; 0x28
    233a:	8f a3       	std	Y+39, r24	; 0x27
    233c:	0f c0       	rjmp	.+30     	; 0x235c <greenSide+0x448>
    233e:	8a ef       	ldi	r24, 0xFA	; 250
    2340:	90 e0       	ldi	r25, 0x00	; 0
    2342:	9a a7       	std	Y+42, r25	; 0x2a
    2344:	89 a7       	std	Y+41, r24	; 0x29
    2346:	89 a5       	ldd	r24, Y+41	; 0x29
    2348:	9a a5       	ldd	r25, Y+42	; 0x2a
    234a:	01 97       	sbiw	r24, 0x01	; 1
    234c:	f1 f7       	brne	.-4      	; 0x234a <greenSide+0x436>
    234e:	9a a7       	std	Y+42, r25	; 0x2a
    2350:	89 a7       	std	Y+41, r24	; 0x29
    2352:	8f a1       	ldd	r24, Y+39	; 0x27
    2354:	98 a5       	ldd	r25, Y+40	; 0x28
    2356:	01 97       	sbiw	r24, 0x01	; 1
    2358:	98 a7       	std	Y+40, r25	; 0x28
    235a:	8f a3       	std	Y+39, r24	; 0x27
    235c:	8f a1       	ldd	r24, Y+39	; 0x27
    235e:	98 a5       	ldd	r25, Y+40	; 0x28
    2360:	00 97       	sbiw	r24, 0x00	; 0
    2362:	69 f7       	brne	.-38     	; 0x233e <greenSide+0x42a>
    2364:	14 c0       	rjmp	.+40     	; 0x238e <greenSide+0x47a>
    2366:	6b a1       	ldd	r22, Y+35	; 0x23
    2368:	7c a1       	ldd	r23, Y+36	; 0x24
    236a:	8d a1       	ldd	r24, Y+37	; 0x25
    236c:	9e a1       	ldd	r25, Y+38	; 0x26
    236e:	0e 94 32 31 	call	0x6264	; 0x6264 <__fixunssfsi>
    2372:	dc 01       	movw	r26, r24
    2374:	cb 01       	movw	r24, r22
    2376:	98 a7       	std	Y+40, r25	; 0x28
    2378:	8f a3       	std	Y+39, r24	; 0x27
    237a:	8f a1       	ldd	r24, Y+39	; 0x27
    237c:	98 a5       	ldd	r25, Y+40	; 0x28
    237e:	9c a7       	std	Y+44, r25	; 0x2c
    2380:	8b a7       	std	Y+43, r24	; 0x2b
    2382:	8b a5       	ldd	r24, Y+43	; 0x2b
    2384:	9c a5       	ldd	r25, Y+44	; 0x2c
    2386:	01 97       	sbiw	r24, 0x01	; 1
    2388:	f1 f7       	brne	.-4      	; 0x2386 <greenSide+0x472>
    238a:	9c a7       	std	Y+44, r25	; 0x2c
    238c:	8b a7       	std	Y+43, r24	; 0x2b
    238e:	61 e0       	ldi	r22, 0x01	; 1
    2390:	8f ef       	ldi	r24, 0xFF	; 255
    2392:	0e 94 dc 07 	call	0xfb8	; 0xfb8 <liftMove>
    2396:	80 e0       	ldi	r24, 0x00	; 0
    2398:	90 e0       	ldi	r25, 0x00	; 0
    239a:	aa ef       	ldi	r26, 0xFA	; 250
    239c:	b3 e4       	ldi	r27, 0x43	; 67
    239e:	8d a7       	std	Y+45, r24	; 0x2d
    23a0:	9e a7       	std	Y+46, r25	; 0x2e
    23a2:	af a7       	std	Y+47, r26	; 0x2f
    23a4:	b8 ab       	std	Y+48, r27	; 0x30
    23a6:	20 e0       	ldi	r18, 0x00	; 0
    23a8:	30 e4       	ldi	r19, 0x40	; 64
    23aa:	4c e1       	ldi	r20, 0x1C	; 28
    23ac:	55 e4       	ldi	r21, 0x45	; 69
    23ae:	6d a5       	ldd	r22, Y+45	; 0x2d
    23b0:	7e a5       	ldd	r23, Y+46	; 0x2e
    23b2:	8f a5       	ldd	r24, Y+47	; 0x2f
    23b4:	98 a9       	ldd	r25, Y+48	; 0x30
    23b6:	0e 94 52 32 	call	0x64a4	; 0x64a4 <__mulsf3>
    23ba:	dc 01       	movw	r26, r24
    23bc:	cb 01       	movw	r24, r22
    23be:	89 ab       	std	Y+49, r24	; 0x31
    23c0:	9a ab       	std	Y+50, r25	; 0x32
    23c2:	ab ab       	std	Y+51, r26	; 0x33
    23c4:	bc ab       	std	Y+52, r27	; 0x34
    23c6:	20 e0       	ldi	r18, 0x00	; 0
    23c8:	30 e0       	ldi	r19, 0x00	; 0
    23ca:	40 e8       	ldi	r20, 0x80	; 128
    23cc:	5f e3       	ldi	r21, 0x3F	; 63
    23ce:	69 a9       	ldd	r22, Y+49	; 0x31
    23d0:	7a a9       	ldd	r23, Y+50	; 0x32
    23d2:	8b a9       	ldd	r24, Y+51	; 0x33
    23d4:	9c a9       	ldd	r25, Y+52	; 0x34
    23d6:	0e 94 c6 30 	call	0x618c	; 0x618c <__cmpsf2>
    23da:	88 23       	and	r24, r24
    23dc:	2c f4       	brge	.+10     	; 0x23e8 <greenSide+0x4d4>
    23de:	81 e0       	ldi	r24, 0x01	; 1
    23e0:	90 e0       	ldi	r25, 0x00	; 0
    23e2:	9e ab       	std	Y+54, r25	; 0x36
    23e4:	8d ab       	std	Y+53, r24	; 0x35
    23e6:	3f c0       	rjmp	.+126    	; 0x2466 <greenSide+0x552>
    23e8:	20 e0       	ldi	r18, 0x00	; 0
    23ea:	3f ef       	ldi	r19, 0xFF	; 255
    23ec:	4f e7       	ldi	r20, 0x7F	; 127
    23ee:	57 e4       	ldi	r21, 0x47	; 71
    23f0:	69 a9       	ldd	r22, Y+49	; 0x31
    23f2:	7a a9       	ldd	r23, Y+50	; 0x32
    23f4:	8b a9       	ldd	r24, Y+51	; 0x33
    23f6:	9c a9       	ldd	r25, Y+52	; 0x34
    23f8:	0e 94 4e 32 	call	0x649c	; 0x649c <__gesf2>
    23fc:	18 16       	cp	r1, r24
    23fe:	4c f5       	brge	.+82     	; 0x2452 <greenSide+0x53e>
    2400:	20 e0       	ldi	r18, 0x00	; 0
    2402:	30 e0       	ldi	r19, 0x00	; 0
    2404:	40 e2       	ldi	r20, 0x20	; 32
    2406:	51 e4       	ldi	r21, 0x41	; 65
    2408:	6d a5       	ldd	r22, Y+45	; 0x2d
    240a:	7e a5       	ldd	r23, Y+46	; 0x2e
    240c:	8f a5       	ldd	r24, Y+47	; 0x2f
    240e:	98 a9       	ldd	r25, Y+48	; 0x30
    2410:	0e 94 52 32 	call	0x64a4	; 0x64a4 <__mulsf3>
    2414:	dc 01       	movw	r26, r24
    2416:	cb 01       	movw	r24, r22
    2418:	bc 01       	movw	r22, r24
    241a:	cd 01       	movw	r24, r26
    241c:	0e 94 32 31 	call	0x6264	; 0x6264 <__fixunssfsi>
    2420:	dc 01       	movw	r26, r24
    2422:	cb 01       	movw	r24, r22
    2424:	9e ab       	std	Y+54, r25	; 0x36
    2426:	8d ab       	std	Y+53, r24	; 0x35
    2428:	0f c0       	rjmp	.+30     	; 0x2448 <greenSide+0x534>
    242a:	8a ef       	ldi	r24, 0xFA	; 250
    242c:	90 e0       	ldi	r25, 0x00	; 0
    242e:	98 af       	std	Y+56, r25	; 0x38
    2430:	8f ab       	std	Y+55, r24	; 0x37
    2432:	8f a9       	ldd	r24, Y+55	; 0x37
    2434:	98 ad       	ldd	r25, Y+56	; 0x38
    2436:	01 97       	sbiw	r24, 0x01	; 1
    2438:	f1 f7       	brne	.-4      	; 0x2436 <greenSide+0x522>
    243a:	98 af       	std	Y+56, r25	; 0x38
    243c:	8f ab       	std	Y+55, r24	; 0x37
    243e:	8d a9       	ldd	r24, Y+53	; 0x35
    2440:	9e a9       	ldd	r25, Y+54	; 0x36
    2442:	01 97       	sbiw	r24, 0x01	; 1
    2444:	9e ab       	std	Y+54, r25	; 0x36
    2446:	8d ab       	std	Y+53, r24	; 0x35
    2448:	8d a9       	ldd	r24, Y+53	; 0x35
    244a:	9e a9       	ldd	r25, Y+54	; 0x36
    244c:	00 97       	sbiw	r24, 0x00	; 0
    244e:	69 f7       	brne	.-38     	; 0x242a <greenSide+0x516>
    2450:	14 c0       	rjmp	.+40     	; 0x247a <greenSide+0x566>
    2452:	69 a9       	ldd	r22, Y+49	; 0x31
    2454:	7a a9       	ldd	r23, Y+50	; 0x32
    2456:	8b a9       	ldd	r24, Y+51	; 0x33
    2458:	9c a9       	ldd	r25, Y+52	; 0x34
    245a:	0e 94 32 31 	call	0x6264	; 0x6264 <__fixunssfsi>
    245e:	dc 01       	movw	r26, r24
    2460:	cb 01       	movw	r24, r22
    2462:	9e ab       	std	Y+54, r25	; 0x36
    2464:	8d ab       	std	Y+53, r24	; 0x35
    2466:	8d a9       	ldd	r24, Y+53	; 0x35
    2468:	9e a9       	ldd	r25, Y+54	; 0x36
    246a:	9a af       	std	Y+58, r25	; 0x3a
    246c:	89 af       	std	Y+57, r24	; 0x39
    246e:	89 ad       	ldd	r24, Y+57	; 0x39
    2470:	9a ad       	ldd	r25, Y+58	; 0x3a
    2472:	01 97       	sbiw	r24, 0x01	; 1
    2474:	f1 f7       	brne	.-4      	; 0x2472 <greenSide+0x55e>
    2476:	9a af       	std	Y+58, r25	; 0x3a
    2478:	89 af       	std	Y+57, r24	; 0x39
    247a:	61 e0       	ldi	r22, 0x01	; 1
    247c:	81 e0       	ldi	r24, 0x01	; 1
    247e:	0e 94 dc 07 	call	0xfb8	; 0xfb8 <liftMove>
    2482:	4d e6       	ldi	r20, 0x6D	; 109
    2484:	5f e0       	ldi	r21, 0x0F	; 15
    2486:	62 e3       	ldi	r22, 0x32	; 50
    2488:	8a e5       	ldi	r24, 0x5A	; 90
    248a:	90 e0       	ldi	r25, 0x00	; 0
    248c:	0e 94 07 29 	call	0x520e	; 0x520e <rotate>
    2490:	40 e0       	ldi	r20, 0x00	; 0
    2492:	50 e0       	ldi	r21, 0x00	; 0
    2494:	62 e3       	ldi	r22, 0x32	; 50
    2496:	8c e3       	ldi	r24, 0x3C	; 60
    2498:	90 e0       	ldi	r25, 0x00	; 0
    249a:	0e 94 3a 22 	call	0x4474	; 0x4474 <moveOnDirection>
    249e:	6f ef       	ldi	r22, 0xFF	; 255
    24a0:	8f ef       	ldi	r24, 0xFF	; 255
    24a2:	0e 94 8c 01 	call	0x318	; 0x318 <colectThePopcorn>
    24a6:	40 e0       	ldi	r20, 0x00	; 0
    24a8:	50 e0       	ldi	r21, 0x00	; 0
    24aa:	62 e3       	ldi	r22, 0x32	; 50
    24ac:	8c e9       	ldi	r24, 0x9C	; 156
    24ae:	9f ef       	ldi	r25, 0xFF	; 255
    24b0:	0e 94 3a 22 	call	0x4474	; 0x4474 <moveOnDirection>
    24b4:	40 e0       	ldi	r20, 0x00	; 0
    24b6:	50 e0       	ldi	r21, 0x00	; 0
    24b8:	62 e3       	ldi	r22, 0x32	; 50
    24ba:	8c e9       	ldi	r24, 0x9C	; 156
    24bc:	9f ef       	ldi	r25, 0xFF	; 255
    24be:	0e 94 07 29 	call	0x520e	; 0x520e <rotate>
    24c2:	80 e0       	ldi	r24, 0x00	; 0
    24c4:	90 e0       	ldi	r25, 0x00	; 0
    24c6:	aa ef       	ldi	r26, 0xFA	; 250
    24c8:	b3 e4       	ldi	r27, 0x43	; 67
    24ca:	8b af       	std	Y+59, r24	; 0x3b
    24cc:	9c af       	std	Y+60, r25	; 0x3c
    24ce:	ad af       	std	Y+61, r26	; 0x3d
    24d0:	be af       	std	Y+62, r27	; 0x3e
    24d2:	8e 01       	movw	r16, r28
    24d4:	01 5c       	subi	r16, 0xC1	; 193
    24d6:	1f 4f       	sbci	r17, 0xFF	; 255
    24d8:	20 e0       	ldi	r18, 0x00	; 0
    24da:	30 e4       	ldi	r19, 0x40	; 64
    24dc:	4c e1       	ldi	r20, 0x1C	; 28
    24de:	55 e4       	ldi	r21, 0x45	; 69
    24e0:	6b ad       	ldd	r22, Y+59	; 0x3b
    24e2:	7c ad       	ldd	r23, Y+60	; 0x3c
    24e4:	8d ad       	ldd	r24, Y+61	; 0x3d
    24e6:	9e ad       	ldd	r25, Y+62	; 0x3e
    24e8:	0e 94 52 32 	call	0x64a4	; 0x64a4 <__mulsf3>
    24ec:	dc 01       	movw	r26, r24
    24ee:	cb 01       	movw	r24, r22
    24f0:	f8 01       	movw	r30, r16
    24f2:	80 83       	st	Z, r24
    24f4:	91 83       	std	Z+1, r25	; 0x01
    24f6:	a2 83       	std	Z+2, r26	; 0x02
    24f8:	b3 83       	std	Z+3, r27	; 0x03
    24fa:	ce 01       	movw	r24, r28
    24fc:	cf 96       	adiw	r24, 0x3f	; 63
    24fe:	20 e0       	ldi	r18, 0x00	; 0
    2500:	30 e0       	ldi	r19, 0x00	; 0
    2502:	40 e8       	ldi	r20, 0x80	; 128
    2504:	5f e3       	ldi	r21, 0x3F	; 63
    2506:	fc 01       	movw	r30, r24
    2508:	60 81       	ld	r22, Z
    250a:	71 81       	ldd	r23, Z+1	; 0x01
    250c:	82 81       	ldd	r24, Z+2	; 0x02
    250e:	93 81       	ldd	r25, Z+3	; 0x03
    2510:	0e 94 c6 30 	call	0x618c	; 0x618c <__cmpsf2>
    2514:	88 23       	and	r24, r24
    2516:	4c f4       	brge	.+18     	; 0x252a <greenSide+0x616>
    2518:	ce 01       	movw	r24, r28
    251a:	8d 5b       	subi	r24, 0xBD	; 189
    251c:	9f 4f       	sbci	r25, 0xFF	; 255
    251e:	21 e0       	ldi	r18, 0x01	; 1
    2520:	30 e0       	ldi	r19, 0x00	; 0
    2522:	fc 01       	movw	r30, r24
    2524:	31 83       	std	Z+1, r19	; 0x01
    2526:	20 83       	st	Z, r18
    2528:	67 c0       	rjmp	.+206    	; 0x25f8 <greenSide+0x6e4>
    252a:	ce 01       	movw	r24, r28
    252c:	cf 96       	adiw	r24, 0x3f	; 63
    252e:	20 e0       	ldi	r18, 0x00	; 0
    2530:	3f ef       	ldi	r19, 0xFF	; 255
    2532:	4f e7       	ldi	r20, 0x7F	; 127
    2534:	57 e4       	ldi	r21, 0x47	; 71
    2536:	fc 01       	movw	r30, r24
    2538:	60 81       	ld	r22, Z
    253a:	71 81       	ldd	r23, Z+1	; 0x01
    253c:	82 81       	ldd	r24, Z+2	; 0x02
    253e:	93 81       	ldd	r25, Z+3	; 0x03
    2540:	0e 94 4e 32 	call	0x649c	; 0x649c <__gesf2>
    2544:	18 16       	cp	r1, r24
    2546:	0c f0       	brlt	.+2      	; 0x254a <greenSide+0x636>
    2548:	46 c0       	rjmp	.+140    	; 0x25d6 <greenSide+0x6c2>
    254a:	20 e0       	ldi	r18, 0x00	; 0
    254c:	30 e0       	ldi	r19, 0x00	; 0
    254e:	40 e2       	ldi	r20, 0x20	; 32
    2550:	51 e4       	ldi	r21, 0x41	; 65
    2552:	6b ad       	ldd	r22, Y+59	; 0x3b
    2554:	7c ad       	ldd	r23, Y+60	; 0x3c
    2556:	8d ad       	ldd	r24, Y+61	; 0x3d
    2558:	9e ad       	ldd	r25, Y+62	; 0x3e
    255a:	0e 94 52 32 	call	0x64a4	; 0x64a4 <__mulsf3>
    255e:	dc 01       	movw	r26, r24
    2560:	cb 01       	movw	r24, r22
    2562:	8e 01       	movw	r16, r28
    2564:	0d 5b       	subi	r16, 0xBD	; 189
    2566:	1f 4f       	sbci	r17, 0xFF	; 255
    2568:	bc 01       	movw	r22, r24
    256a:	cd 01       	movw	r24, r26
    256c:	0e 94 32 31 	call	0x6264	; 0x6264 <__fixunssfsi>
    2570:	dc 01       	movw	r26, r24
    2572:	cb 01       	movw	r24, r22
    2574:	f8 01       	movw	r30, r16
    2576:	91 83       	std	Z+1, r25	; 0x01
    2578:	80 83       	st	Z, r24
    257a:	24 c0       	rjmp	.+72     	; 0x25c4 <greenSide+0x6b0>
    257c:	ce 01       	movw	r24, r28
    257e:	8b 5b       	subi	r24, 0xBB	; 187
    2580:	9f 4f       	sbci	r25, 0xFF	; 255
    2582:	2a ef       	ldi	r18, 0xFA	; 250
    2584:	30 e0       	ldi	r19, 0x00	; 0
    2586:	fc 01       	movw	r30, r24
    2588:	31 83       	std	Z+1, r19	; 0x01
    258a:	20 83       	st	Z, r18
    258c:	ce 01       	movw	r24, r28
    258e:	8b 5b       	subi	r24, 0xBB	; 187
    2590:	9f 4f       	sbci	r25, 0xFF	; 255
    2592:	fc 01       	movw	r30, r24
    2594:	80 81       	ld	r24, Z
    2596:	91 81       	ldd	r25, Z+1	; 0x01
    2598:	01 97       	sbiw	r24, 0x01	; 1
    259a:	f1 f7       	brne	.-4      	; 0x2598 <greenSide+0x684>
    259c:	9e 01       	movw	r18, r28
    259e:	2b 5b       	subi	r18, 0xBB	; 187
    25a0:	3f 4f       	sbci	r19, 0xFF	; 255
    25a2:	f9 01       	movw	r30, r18
    25a4:	91 83       	std	Z+1, r25	; 0x01
    25a6:	80 83       	st	Z, r24
    25a8:	ce 01       	movw	r24, r28
    25aa:	8d 5b       	subi	r24, 0xBD	; 189
    25ac:	9f 4f       	sbci	r25, 0xFF	; 255
    25ae:	9e 01       	movw	r18, r28
    25b0:	2d 5b       	subi	r18, 0xBD	; 189
    25b2:	3f 4f       	sbci	r19, 0xFF	; 255
    25b4:	f9 01       	movw	r30, r18
    25b6:	20 81       	ld	r18, Z
    25b8:	31 81       	ldd	r19, Z+1	; 0x01
    25ba:	21 50       	subi	r18, 0x01	; 1
    25bc:	31 09       	sbc	r19, r1
    25be:	fc 01       	movw	r30, r24
    25c0:	31 83       	std	Z+1, r19	; 0x01
    25c2:	20 83       	st	Z, r18
    25c4:	ce 01       	movw	r24, r28
    25c6:	8d 5b       	subi	r24, 0xBD	; 189
    25c8:	9f 4f       	sbci	r25, 0xFF	; 255
    25ca:	fc 01       	movw	r30, r24
    25cc:	80 81       	ld	r24, Z
    25ce:	91 81       	ldd	r25, Z+1	; 0x01
    25d0:	00 97       	sbiw	r24, 0x00	; 0
    25d2:	a1 f6       	brne	.-88     	; 0x257c <greenSide+0x668>
    25d4:	2b c0       	rjmp	.+86     	; 0x262c <greenSide+0x718>
    25d6:	8e 01       	movw	r16, r28
    25d8:	0d 5b       	subi	r16, 0xBD	; 189
    25da:	1f 4f       	sbci	r17, 0xFF	; 255
    25dc:	ce 01       	movw	r24, r28
    25de:	cf 96       	adiw	r24, 0x3f	; 63
    25e0:	fc 01       	movw	r30, r24
    25e2:	60 81       	ld	r22, Z
    25e4:	71 81       	ldd	r23, Z+1	; 0x01
    25e6:	82 81       	ldd	r24, Z+2	; 0x02
    25e8:	93 81       	ldd	r25, Z+3	; 0x03
    25ea:	0e 94 32 31 	call	0x6264	; 0x6264 <__fixunssfsi>
    25ee:	dc 01       	movw	r26, r24
    25f0:	cb 01       	movw	r24, r22
    25f2:	f8 01       	movw	r30, r16
    25f4:	91 83       	std	Z+1, r25	; 0x01
    25f6:	80 83       	st	Z, r24
    25f8:	ce 01       	movw	r24, r28
    25fa:	89 5b       	subi	r24, 0xB9	; 185
    25fc:	9f 4f       	sbci	r25, 0xFF	; 255
    25fe:	9e 01       	movw	r18, r28
    2600:	2d 5b       	subi	r18, 0xBD	; 189
    2602:	3f 4f       	sbci	r19, 0xFF	; 255
    2604:	f9 01       	movw	r30, r18
    2606:	20 81       	ld	r18, Z
    2608:	31 81       	ldd	r19, Z+1	; 0x01
    260a:	fc 01       	movw	r30, r24
    260c:	31 83       	std	Z+1, r19	; 0x01
    260e:	20 83       	st	Z, r18
    2610:	ce 01       	movw	r24, r28
    2612:	89 5b       	subi	r24, 0xB9	; 185
    2614:	9f 4f       	sbci	r25, 0xFF	; 255
    2616:	fc 01       	movw	r30, r24
    2618:	80 81       	ld	r24, Z
    261a:	91 81       	ldd	r25, Z+1	; 0x01
    261c:	01 97       	sbiw	r24, 0x01	; 1
    261e:	f1 f7       	brne	.-4      	; 0x261c <greenSide+0x708>
    2620:	9e 01       	movw	r18, r28
    2622:	29 5b       	subi	r18, 0xB9	; 185
    2624:	3f 4f       	sbci	r19, 0xFF	; 255
    2626:	f9 01       	movw	r30, r18
    2628:	91 83       	std	Z+1, r25	; 0x01
    262a:	80 83       	st	Z, r24
    262c:	0e 94 5e 2b 	call	0x56bc	; 0x56bc <getPosition>
    2630:	a2 2e       	mov	r10, r18
    2632:	b3 2e       	mov	r11, r19
    2634:	c4 2e       	mov	r12, r20
    2636:	d5 2e       	mov	r13, r21
    2638:	e6 2e       	mov	r14, r22
    263a:	f7 2e       	mov	r15, r23
    263c:	08 2f       	mov	r16, r24
    263e:	19 2f       	mov	r17, r25
    2640:	2a 2d       	mov	r18, r10
    2642:	3b 2d       	mov	r19, r11
    2644:	4c 2d       	mov	r20, r12
    2646:	5d 2d       	mov	r21, r13
    2648:	6e 2d       	mov	r22, r14
    264a:	7f 2d       	mov	r23, r15
    264c:	80 2f       	mov	r24, r16
    264e:	91 2f       	mov	r25, r17
    2650:	20 93 ee 02 	sts	0x02EE, r18
    2654:	30 93 ef 02 	sts	0x02EF, r19
    2658:	40 93 f0 02 	sts	0x02F0, r20
    265c:	50 93 f1 02 	sts	0x02F1, r21
    2660:	60 93 f2 02 	sts	0x02F2, r22
    2664:	70 93 f3 02 	sts	0x02F3, r23
    2668:	80 91 ee 02 	lds	r24, 0x02EE
    266c:	90 91 ef 02 	lds	r25, 0x02EF
    2670:	80 5b       	subi	r24, 0xB0	; 176
    2672:	9f 4f       	sbci	r25, 0xFF	; 255
    2674:	90 93 ef 02 	sts	0x02EF, r25
    2678:	80 93 ee 02 	sts	0x02EE, r24
    267c:	80 91 f0 02 	lds	r24, 0x02F0
    2680:	90 91 f1 02 	lds	r25, 0x02F1
    2684:	49 97       	sbiw	r24, 0x19	; 25
    2686:	90 93 f1 02 	sts	0x02F1, r25
    268a:	80 93 f0 02 	sts	0x02F0, r24
    268e:	e1 2c       	mov	r14, r1
    2690:	f1 2c       	mov	r15, r1
    2692:	0f ef       	ldi	r16, 0xFF	; 255
    2694:	22 e3       	ldi	r18, 0x32	; 50
    2696:	40 91 ee 02 	lds	r20, 0x02EE
    269a:	50 91 ef 02 	lds	r21, 0x02EF
    269e:	60 91 f0 02 	lds	r22, 0x02F0
    26a2:	70 91 f1 02 	lds	r23, 0x02F1
    26a6:	80 91 f2 02 	lds	r24, 0x02F2
    26aa:	90 91 f3 02 	lds	r25, 0x02F3
    26ae:	0e 94 a3 24 	call	0x4946	; 0x4946 <gotoXY>
    26b2:	9e 01       	movw	r18, r28
    26b4:	27 5b       	subi	r18, 0xB7	; 183
    26b6:	3f 4f       	sbci	r19, 0xFF	; 255
    26b8:	80 e0       	ldi	r24, 0x00	; 0
    26ba:	90 e0       	ldi	r25, 0x00	; 0
    26bc:	a8 e4       	ldi	r26, 0x48	; 72
    26be:	b2 e4       	ldi	r27, 0x42	; 66
    26c0:	f9 01       	movw	r30, r18
    26c2:	80 83       	st	Z, r24
    26c4:	91 83       	std	Z+1, r25	; 0x01
    26c6:	a2 83       	std	Z+2, r26	; 0x02
    26c8:	b3 83       	std	Z+3, r27	; 0x03
    26ca:	8e 01       	movw	r16, r28
    26cc:	03 5b       	subi	r16, 0xB3	; 179
    26ce:	1f 4f       	sbci	r17, 0xFF	; 255
    26d0:	ce 01       	movw	r24, r28
    26d2:	87 5b       	subi	r24, 0xB7	; 183
    26d4:	9f 4f       	sbci	r25, 0xFF	; 255
    26d6:	20 e0       	ldi	r18, 0x00	; 0
    26d8:	30 e4       	ldi	r19, 0x40	; 64
    26da:	4c e1       	ldi	r20, 0x1C	; 28
    26dc:	55 e4       	ldi	r21, 0x45	; 69
    26de:	fc 01       	movw	r30, r24
    26e0:	60 81       	ld	r22, Z
    26e2:	71 81       	ldd	r23, Z+1	; 0x01
    26e4:	82 81       	ldd	r24, Z+2	; 0x02
    26e6:	93 81       	ldd	r25, Z+3	; 0x03
    26e8:	0e 94 52 32 	call	0x64a4	; 0x64a4 <__mulsf3>
    26ec:	dc 01       	movw	r26, r24
    26ee:	cb 01       	movw	r24, r22
    26f0:	f8 01       	movw	r30, r16
    26f2:	80 83       	st	Z, r24
    26f4:	91 83       	std	Z+1, r25	; 0x01
    26f6:	a2 83       	std	Z+2, r26	; 0x02
    26f8:	b3 83       	std	Z+3, r27	; 0x03
    26fa:	ce 01       	movw	r24, r28
    26fc:	83 5b       	subi	r24, 0xB3	; 179
    26fe:	9f 4f       	sbci	r25, 0xFF	; 255
    2700:	20 e0       	ldi	r18, 0x00	; 0
    2702:	30 e0       	ldi	r19, 0x00	; 0
    2704:	40 e8       	ldi	r20, 0x80	; 128
    2706:	5f e3       	ldi	r21, 0x3F	; 63
    2708:	fc 01       	movw	r30, r24
    270a:	60 81       	ld	r22, Z
    270c:	71 81       	ldd	r23, Z+1	; 0x01
    270e:	82 81       	ldd	r24, Z+2	; 0x02
    2710:	93 81       	ldd	r25, Z+3	; 0x03
    2712:	0e 94 c6 30 	call	0x618c	; 0x618c <__cmpsf2>
    2716:	88 23       	and	r24, r24
    2718:	4c f4       	brge	.+18     	; 0x272c <greenSide+0x818>
    271a:	ce 01       	movw	r24, r28
    271c:	8f 5a       	subi	r24, 0xAF	; 175
    271e:	9f 4f       	sbci	r25, 0xFF	; 255
    2720:	21 e0       	ldi	r18, 0x01	; 1
    2722:	30 e0       	ldi	r19, 0x00	; 0
    2724:	fc 01       	movw	r30, r24
    2726:	31 83       	std	Z+1, r19	; 0x01
    2728:	20 83       	st	Z, r18
    272a:	6d c0       	rjmp	.+218    	; 0x2806 <greenSide+0x8f2>
    272c:	ce 01       	movw	r24, r28
    272e:	83 5b       	subi	r24, 0xB3	; 179
    2730:	9f 4f       	sbci	r25, 0xFF	; 255
    2732:	20 e0       	ldi	r18, 0x00	; 0
    2734:	3f ef       	ldi	r19, 0xFF	; 255
    2736:	4f e7       	ldi	r20, 0x7F	; 127
    2738:	57 e4       	ldi	r21, 0x47	; 71
    273a:	fc 01       	movw	r30, r24
    273c:	60 81       	ld	r22, Z
    273e:	71 81       	ldd	r23, Z+1	; 0x01
    2740:	82 81       	ldd	r24, Z+2	; 0x02
    2742:	93 81       	ldd	r25, Z+3	; 0x03
    2744:	0e 94 4e 32 	call	0x649c	; 0x649c <__gesf2>
    2748:	18 16       	cp	r1, r24
    274a:	0c f0       	brlt	.+2      	; 0x274e <greenSide+0x83a>
    274c:	4a c0       	rjmp	.+148    	; 0x27e2 <greenSide+0x8ce>
    274e:	ce 01       	movw	r24, r28
    2750:	87 5b       	subi	r24, 0xB7	; 183
    2752:	9f 4f       	sbci	r25, 0xFF	; 255
    2754:	20 e0       	ldi	r18, 0x00	; 0
    2756:	30 e0       	ldi	r19, 0x00	; 0
    2758:	40 e2       	ldi	r20, 0x20	; 32
    275a:	51 e4       	ldi	r21, 0x41	; 65
    275c:	fc 01       	movw	r30, r24
    275e:	60 81       	ld	r22, Z
    2760:	71 81       	ldd	r23, Z+1	; 0x01
    2762:	82 81       	ldd	r24, Z+2	; 0x02
    2764:	93 81       	ldd	r25, Z+3	; 0x03
    2766:	0e 94 52 32 	call	0x64a4	; 0x64a4 <__mulsf3>
    276a:	dc 01       	movw	r26, r24
    276c:	cb 01       	movw	r24, r22
    276e:	8e 01       	movw	r16, r28
    2770:	0f 5a       	subi	r16, 0xAF	; 175
    2772:	1f 4f       	sbci	r17, 0xFF	; 255
    2774:	bc 01       	movw	r22, r24
    2776:	cd 01       	movw	r24, r26
    2778:	0e 94 32 31 	call	0x6264	; 0x6264 <__fixunssfsi>
    277c:	dc 01       	movw	r26, r24
    277e:	cb 01       	movw	r24, r22
    2780:	f8 01       	movw	r30, r16
    2782:	91 83       	std	Z+1, r25	; 0x01
    2784:	80 83       	st	Z, r24
    2786:	24 c0       	rjmp	.+72     	; 0x27d0 <greenSide+0x8bc>
    2788:	ce 01       	movw	r24, r28
    278a:	8d 5a       	subi	r24, 0xAD	; 173
    278c:	9f 4f       	sbci	r25, 0xFF	; 255
    278e:	2a ef       	ldi	r18, 0xFA	; 250
    2790:	30 e0       	ldi	r19, 0x00	; 0
    2792:	fc 01       	movw	r30, r24
    2794:	31 83       	std	Z+1, r19	; 0x01
    2796:	20 83       	st	Z, r18
    2798:	ce 01       	movw	r24, r28
    279a:	8d 5a       	subi	r24, 0xAD	; 173
    279c:	9f 4f       	sbci	r25, 0xFF	; 255
    279e:	fc 01       	movw	r30, r24
    27a0:	80 81       	ld	r24, Z
    27a2:	91 81       	ldd	r25, Z+1	; 0x01
    27a4:	01 97       	sbiw	r24, 0x01	; 1
    27a6:	f1 f7       	brne	.-4      	; 0x27a4 <greenSide+0x890>
    27a8:	9e 01       	movw	r18, r28
    27aa:	2d 5a       	subi	r18, 0xAD	; 173
    27ac:	3f 4f       	sbci	r19, 0xFF	; 255
    27ae:	f9 01       	movw	r30, r18
    27b0:	91 83       	std	Z+1, r25	; 0x01
    27b2:	80 83       	st	Z, r24
    27b4:	ce 01       	movw	r24, r28
    27b6:	8f 5a       	subi	r24, 0xAF	; 175
    27b8:	9f 4f       	sbci	r25, 0xFF	; 255
    27ba:	9e 01       	movw	r18, r28
    27bc:	2f 5a       	subi	r18, 0xAF	; 175
    27be:	3f 4f       	sbci	r19, 0xFF	; 255
    27c0:	f9 01       	movw	r30, r18
    27c2:	20 81       	ld	r18, Z
    27c4:	31 81       	ldd	r19, Z+1	; 0x01
    27c6:	21 50       	subi	r18, 0x01	; 1
    27c8:	31 09       	sbc	r19, r1
    27ca:	fc 01       	movw	r30, r24
    27cc:	31 83       	std	Z+1, r19	; 0x01
    27ce:	20 83       	st	Z, r18
    27d0:	ce 01       	movw	r24, r28
    27d2:	8f 5a       	subi	r24, 0xAF	; 175
    27d4:	9f 4f       	sbci	r25, 0xFF	; 255
    27d6:	fc 01       	movw	r30, r24
    27d8:	80 81       	ld	r24, Z
    27da:	91 81       	ldd	r25, Z+1	; 0x01
    27dc:	00 97       	sbiw	r24, 0x00	; 0
    27de:	a1 f6       	brne	.-88     	; 0x2788 <greenSide+0x874>
    27e0:	2c c0       	rjmp	.+88     	; 0x283a <greenSide+0x926>
    27e2:	8e 01       	movw	r16, r28
    27e4:	0f 5a       	subi	r16, 0xAF	; 175
    27e6:	1f 4f       	sbci	r17, 0xFF	; 255
    27e8:	ce 01       	movw	r24, r28
    27ea:	83 5b       	subi	r24, 0xB3	; 179
    27ec:	9f 4f       	sbci	r25, 0xFF	; 255
    27ee:	fc 01       	movw	r30, r24
    27f0:	60 81       	ld	r22, Z
    27f2:	71 81       	ldd	r23, Z+1	; 0x01
    27f4:	82 81       	ldd	r24, Z+2	; 0x02
    27f6:	93 81       	ldd	r25, Z+3	; 0x03
    27f8:	0e 94 32 31 	call	0x6264	; 0x6264 <__fixunssfsi>
    27fc:	dc 01       	movw	r26, r24
    27fe:	cb 01       	movw	r24, r22
    2800:	f8 01       	movw	r30, r16
    2802:	91 83       	std	Z+1, r25	; 0x01
    2804:	80 83       	st	Z, r24
    2806:	ce 01       	movw	r24, r28
    2808:	8b 5a       	subi	r24, 0xAB	; 171
    280a:	9f 4f       	sbci	r25, 0xFF	; 255
    280c:	9e 01       	movw	r18, r28
    280e:	2f 5a       	subi	r18, 0xAF	; 175
    2810:	3f 4f       	sbci	r19, 0xFF	; 255
    2812:	f9 01       	movw	r30, r18
    2814:	20 81       	ld	r18, Z
    2816:	31 81       	ldd	r19, Z+1	; 0x01
    2818:	fc 01       	movw	r30, r24
    281a:	31 83       	std	Z+1, r19	; 0x01
    281c:	20 83       	st	Z, r18
    281e:	ce 01       	movw	r24, r28
    2820:	8b 5a       	subi	r24, 0xAB	; 171
    2822:	9f 4f       	sbci	r25, 0xFF	; 255
    2824:	fc 01       	movw	r30, r24
    2826:	80 81       	ld	r24, Z
    2828:	91 81       	ldd	r25, Z+1	; 0x01
    282a:	01 97       	sbiw	r24, 0x01	; 1
    282c:	f1 f7       	brne	.-4      	; 0x282a <greenSide+0x916>
    282e:	9e 01       	movw	r18, r28
    2830:	2b 5a       	subi	r18, 0xAB	; 171
    2832:	3f 4f       	sbci	r19, 0xFF	; 255
    2834:	f9 01       	movw	r30, r18
    2836:	91 83       	std	Z+1, r25	; 0x01
    2838:	80 83       	st	Z, r24
    283a:	40 e0       	ldi	r20, 0x00	; 0
    283c:	50 e0       	ldi	r21, 0x00	; 0
    283e:	62 e3       	ldi	r22, 0x32	; 50
    2840:	89 e1       	ldi	r24, 0x19	; 25
    2842:	90 e0       	ldi	r25, 0x00	; 0
    2844:	0e 94 07 29 	call	0x520e	; 0x520e <rotate>
    2848:	9e 01       	movw	r18, r28
    284a:	29 5a       	subi	r18, 0xA9	; 169
    284c:	3f 4f       	sbci	r19, 0xFF	; 255
    284e:	80 e0       	ldi	r24, 0x00	; 0
    2850:	90 e0       	ldi	r25, 0x00	; 0
    2852:	a8 e4       	ldi	r26, 0x48	; 72
    2854:	b2 e4       	ldi	r27, 0x42	; 66
    2856:	f9 01       	movw	r30, r18
    2858:	80 83       	st	Z, r24
    285a:	91 83       	std	Z+1, r25	; 0x01
    285c:	a2 83       	std	Z+2, r26	; 0x02
    285e:	b3 83       	std	Z+3, r27	; 0x03
    2860:	8e 01       	movw	r16, r28
    2862:	05 5a       	subi	r16, 0xA5	; 165
    2864:	1f 4f       	sbci	r17, 0xFF	; 255
    2866:	ce 01       	movw	r24, r28
    2868:	89 5a       	subi	r24, 0xA9	; 169
    286a:	9f 4f       	sbci	r25, 0xFF	; 255
    286c:	20 e0       	ldi	r18, 0x00	; 0
    286e:	30 e4       	ldi	r19, 0x40	; 64
    2870:	4c e1       	ldi	r20, 0x1C	; 28
    2872:	55 e4       	ldi	r21, 0x45	; 69
    2874:	fc 01       	movw	r30, r24
    2876:	60 81       	ld	r22, Z
    2878:	71 81       	ldd	r23, Z+1	; 0x01
    287a:	82 81       	ldd	r24, Z+2	; 0x02
    287c:	93 81       	ldd	r25, Z+3	; 0x03
    287e:	0e 94 52 32 	call	0x64a4	; 0x64a4 <__mulsf3>
    2882:	dc 01       	movw	r26, r24
    2884:	cb 01       	movw	r24, r22
    2886:	f8 01       	movw	r30, r16
    2888:	80 83       	st	Z, r24
    288a:	91 83       	std	Z+1, r25	; 0x01
    288c:	a2 83       	std	Z+2, r26	; 0x02
    288e:	b3 83       	std	Z+3, r27	; 0x03
    2890:	ce 01       	movw	r24, r28
    2892:	85 5a       	subi	r24, 0xA5	; 165
    2894:	9f 4f       	sbci	r25, 0xFF	; 255
    2896:	20 e0       	ldi	r18, 0x00	; 0
    2898:	30 e0       	ldi	r19, 0x00	; 0
    289a:	40 e8       	ldi	r20, 0x80	; 128
    289c:	5f e3       	ldi	r21, 0x3F	; 63
    289e:	fc 01       	movw	r30, r24
    28a0:	60 81       	ld	r22, Z
    28a2:	71 81       	ldd	r23, Z+1	; 0x01
    28a4:	82 81       	ldd	r24, Z+2	; 0x02
    28a6:	93 81       	ldd	r25, Z+3	; 0x03
    28a8:	0e 94 c6 30 	call	0x618c	; 0x618c <__cmpsf2>
    28ac:	88 23       	and	r24, r24
    28ae:	4c f4       	brge	.+18     	; 0x28c2 <greenSide+0x9ae>
    28b0:	ce 01       	movw	r24, r28
    28b2:	81 5a       	subi	r24, 0xA1	; 161
    28b4:	9f 4f       	sbci	r25, 0xFF	; 255
    28b6:	21 e0       	ldi	r18, 0x01	; 1
    28b8:	30 e0       	ldi	r19, 0x00	; 0
    28ba:	fc 01       	movw	r30, r24
    28bc:	31 83       	std	Z+1, r19	; 0x01
    28be:	20 83       	st	Z, r18
    28c0:	6d c0       	rjmp	.+218    	; 0x299c <greenSide+0xa88>
    28c2:	ce 01       	movw	r24, r28
    28c4:	85 5a       	subi	r24, 0xA5	; 165
    28c6:	9f 4f       	sbci	r25, 0xFF	; 255
    28c8:	20 e0       	ldi	r18, 0x00	; 0
    28ca:	3f ef       	ldi	r19, 0xFF	; 255
    28cc:	4f e7       	ldi	r20, 0x7F	; 127
    28ce:	57 e4       	ldi	r21, 0x47	; 71
    28d0:	fc 01       	movw	r30, r24
    28d2:	60 81       	ld	r22, Z
    28d4:	71 81       	ldd	r23, Z+1	; 0x01
    28d6:	82 81       	ldd	r24, Z+2	; 0x02
    28d8:	93 81       	ldd	r25, Z+3	; 0x03
    28da:	0e 94 4e 32 	call	0x649c	; 0x649c <__gesf2>
    28de:	18 16       	cp	r1, r24
    28e0:	0c f0       	brlt	.+2      	; 0x28e4 <greenSide+0x9d0>
    28e2:	4a c0       	rjmp	.+148    	; 0x2978 <greenSide+0xa64>
    28e4:	ce 01       	movw	r24, r28
    28e6:	89 5a       	subi	r24, 0xA9	; 169
    28e8:	9f 4f       	sbci	r25, 0xFF	; 255
    28ea:	20 e0       	ldi	r18, 0x00	; 0
    28ec:	30 e0       	ldi	r19, 0x00	; 0
    28ee:	40 e2       	ldi	r20, 0x20	; 32
    28f0:	51 e4       	ldi	r21, 0x41	; 65
    28f2:	fc 01       	movw	r30, r24
    28f4:	60 81       	ld	r22, Z
    28f6:	71 81       	ldd	r23, Z+1	; 0x01
    28f8:	82 81       	ldd	r24, Z+2	; 0x02
    28fa:	93 81       	ldd	r25, Z+3	; 0x03
    28fc:	0e 94 52 32 	call	0x64a4	; 0x64a4 <__mulsf3>
    2900:	dc 01       	movw	r26, r24
    2902:	cb 01       	movw	r24, r22
    2904:	8e 01       	movw	r16, r28
    2906:	01 5a       	subi	r16, 0xA1	; 161
    2908:	1f 4f       	sbci	r17, 0xFF	; 255
    290a:	bc 01       	movw	r22, r24
    290c:	cd 01       	movw	r24, r26
    290e:	0e 94 32 31 	call	0x6264	; 0x6264 <__fixunssfsi>
    2912:	dc 01       	movw	r26, r24
    2914:	cb 01       	movw	r24, r22
    2916:	f8 01       	movw	r30, r16
    2918:	91 83       	std	Z+1, r25	; 0x01
    291a:	80 83       	st	Z, r24
    291c:	24 c0       	rjmp	.+72     	; 0x2966 <greenSide+0xa52>
    291e:	ce 01       	movw	r24, r28
    2920:	8f 59       	subi	r24, 0x9F	; 159
    2922:	9f 4f       	sbci	r25, 0xFF	; 255
    2924:	2a ef       	ldi	r18, 0xFA	; 250
    2926:	30 e0       	ldi	r19, 0x00	; 0
    2928:	fc 01       	movw	r30, r24
    292a:	31 83       	std	Z+1, r19	; 0x01
    292c:	20 83       	st	Z, r18
    292e:	ce 01       	movw	r24, r28
    2930:	8f 59       	subi	r24, 0x9F	; 159
    2932:	9f 4f       	sbci	r25, 0xFF	; 255
    2934:	fc 01       	movw	r30, r24
    2936:	80 81       	ld	r24, Z
    2938:	91 81       	ldd	r25, Z+1	; 0x01
    293a:	01 97       	sbiw	r24, 0x01	; 1
    293c:	f1 f7       	brne	.-4      	; 0x293a <greenSide+0xa26>
    293e:	9e 01       	movw	r18, r28
    2940:	2f 59       	subi	r18, 0x9F	; 159
    2942:	3f 4f       	sbci	r19, 0xFF	; 255
    2944:	f9 01       	movw	r30, r18
    2946:	91 83       	std	Z+1, r25	; 0x01
    2948:	80 83       	st	Z, r24
    294a:	ce 01       	movw	r24, r28
    294c:	81 5a       	subi	r24, 0xA1	; 161
    294e:	9f 4f       	sbci	r25, 0xFF	; 255
    2950:	9e 01       	movw	r18, r28
    2952:	21 5a       	subi	r18, 0xA1	; 161
    2954:	3f 4f       	sbci	r19, 0xFF	; 255
    2956:	f9 01       	movw	r30, r18
    2958:	20 81       	ld	r18, Z
    295a:	31 81       	ldd	r19, Z+1	; 0x01
    295c:	21 50       	subi	r18, 0x01	; 1
    295e:	31 09       	sbc	r19, r1
    2960:	fc 01       	movw	r30, r24
    2962:	31 83       	std	Z+1, r19	; 0x01
    2964:	20 83       	st	Z, r18
    2966:	ce 01       	movw	r24, r28
    2968:	81 5a       	subi	r24, 0xA1	; 161
    296a:	9f 4f       	sbci	r25, 0xFF	; 255
    296c:	fc 01       	movw	r30, r24
    296e:	80 81       	ld	r24, Z
    2970:	91 81       	ldd	r25, Z+1	; 0x01
    2972:	00 97       	sbiw	r24, 0x00	; 0
    2974:	a1 f6       	brne	.-88     	; 0x291e <greenSide+0xa0a>
    2976:	2c c0       	rjmp	.+88     	; 0x29d0 <greenSide+0xabc>
    2978:	8e 01       	movw	r16, r28
    297a:	01 5a       	subi	r16, 0xA1	; 161
    297c:	1f 4f       	sbci	r17, 0xFF	; 255
    297e:	ce 01       	movw	r24, r28
    2980:	85 5a       	subi	r24, 0xA5	; 165
    2982:	9f 4f       	sbci	r25, 0xFF	; 255
    2984:	fc 01       	movw	r30, r24
    2986:	60 81       	ld	r22, Z
    2988:	71 81       	ldd	r23, Z+1	; 0x01
    298a:	82 81       	ldd	r24, Z+2	; 0x02
    298c:	93 81       	ldd	r25, Z+3	; 0x03
    298e:	0e 94 32 31 	call	0x6264	; 0x6264 <__fixunssfsi>
    2992:	dc 01       	movw	r26, r24
    2994:	cb 01       	movw	r24, r22
    2996:	f8 01       	movw	r30, r16
    2998:	91 83       	std	Z+1, r25	; 0x01
    299a:	80 83       	st	Z, r24
    299c:	ce 01       	movw	r24, r28
    299e:	8d 59       	subi	r24, 0x9D	; 157
    29a0:	9f 4f       	sbci	r25, 0xFF	; 255
    29a2:	9e 01       	movw	r18, r28
    29a4:	21 5a       	subi	r18, 0xA1	; 161
    29a6:	3f 4f       	sbci	r19, 0xFF	; 255
    29a8:	f9 01       	movw	r30, r18
    29aa:	20 81       	ld	r18, Z
    29ac:	31 81       	ldd	r19, Z+1	; 0x01
    29ae:	fc 01       	movw	r30, r24
    29b0:	31 83       	std	Z+1, r19	; 0x01
    29b2:	20 83       	st	Z, r18
    29b4:	ce 01       	movw	r24, r28
    29b6:	8d 59       	subi	r24, 0x9D	; 157
    29b8:	9f 4f       	sbci	r25, 0xFF	; 255
    29ba:	fc 01       	movw	r30, r24
    29bc:	80 81       	ld	r24, Z
    29be:	91 81       	ldd	r25, Z+1	; 0x01
    29c0:	01 97       	sbiw	r24, 0x01	; 1
    29c2:	f1 f7       	brne	.-4      	; 0x29c0 <greenSide+0xaac>
    29c4:	9e 01       	movw	r18, r28
    29c6:	2d 59       	subi	r18, 0x9D	; 157
    29c8:	3f 4f       	sbci	r19, 0xFF	; 255
    29ca:	f9 01       	movw	r30, r18
    29cc:	91 83       	std	Z+1, r25	; 0x01
    29ce:	80 83       	st	Z, r24
    29d0:	40 e0       	ldi	r20, 0x00	; 0
    29d2:	50 e0       	ldi	r21, 0x00	; 0
    29d4:	66 e9       	ldi	r22, 0x96	; 150
    29d6:	8e e0       	ldi	r24, 0x0E	; 14
    29d8:	91 e0       	ldi	r25, 0x01	; 1
    29da:	0e 94 3a 22 	call	0x4474	; 0x4474 <moveOnDirection>
    29de:	9e 01       	movw	r18, r28
    29e0:	2b 59       	subi	r18, 0x9B	; 155
    29e2:	3f 4f       	sbci	r19, 0xFF	; 255
    29e4:	80 e0       	ldi	r24, 0x00	; 0
    29e6:	90 e0       	ldi	r25, 0x00	; 0
    29e8:	a8 e4       	ldi	r26, 0x48	; 72
    29ea:	b2 e4       	ldi	r27, 0x42	; 66
    29ec:	f9 01       	movw	r30, r18
    29ee:	80 83       	st	Z, r24
    29f0:	91 83       	std	Z+1, r25	; 0x01
    29f2:	a2 83       	std	Z+2, r26	; 0x02
    29f4:	b3 83       	std	Z+3, r27	; 0x03
    29f6:	8e 01       	movw	r16, r28
    29f8:	07 59       	subi	r16, 0x97	; 151
    29fa:	1f 4f       	sbci	r17, 0xFF	; 255
    29fc:	ce 01       	movw	r24, r28
    29fe:	8b 59       	subi	r24, 0x9B	; 155
    2a00:	9f 4f       	sbci	r25, 0xFF	; 255
    2a02:	20 e0       	ldi	r18, 0x00	; 0
    2a04:	30 e4       	ldi	r19, 0x40	; 64
    2a06:	4c e1       	ldi	r20, 0x1C	; 28
    2a08:	55 e4       	ldi	r21, 0x45	; 69
    2a0a:	fc 01       	movw	r30, r24
    2a0c:	60 81       	ld	r22, Z
    2a0e:	71 81       	ldd	r23, Z+1	; 0x01
    2a10:	82 81       	ldd	r24, Z+2	; 0x02
    2a12:	93 81       	ldd	r25, Z+3	; 0x03
    2a14:	0e 94 52 32 	call	0x64a4	; 0x64a4 <__mulsf3>
    2a18:	dc 01       	movw	r26, r24
    2a1a:	cb 01       	movw	r24, r22
    2a1c:	f8 01       	movw	r30, r16
    2a1e:	80 83       	st	Z, r24
    2a20:	91 83       	std	Z+1, r25	; 0x01
    2a22:	a2 83       	std	Z+2, r26	; 0x02
    2a24:	b3 83       	std	Z+3, r27	; 0x03
    2a26:	ce 01       	movw	r24, r28
    2a28:	87 59       	subi	r24, 0x97	; 151
    2a2a:	9f 4f       	sbci	r25, 0xFF	; 255
    2a2c:	20 e0       	ldi	r18, 0x00	; 0
    2a2e:	30 e0       	ldi	r19, 0x00	; 0
    2a30:	40 e8       	ldi	r20, 0x80	; 128
    2a32:	5f e3       	ldi	r21, 0x3F	; 63
    2a34:	fc 01       	movw	r30, r24
    2a36:	60 81       	ld	r22, Z
    2a38:	71 81       	ldd	r23, Z+1	; 0x01
    2a3a:	82 81       	ldd	r24, Z+2	; 0x02
    2a3c:	93 81       	ldd	r25, Z+3	; 0x03
    2a3e:	0e 94 c6 30 	call	0x618c	; 0x618c <__cmpsf2>
    2a42:	88 23       	and	r24, r24
    2a44:	4c f4       	brge	.+18     	; 0x2a58 <greenSide+0xb44>
    2a46:	ce 01       	movw	r24, r28
    2a48:	83 59       	subi	r24, 0x93	; 147
    2a4a:	9f 4f       	sbci	r25, 0xFF	; 255
    2a4c:	21 e0       	ldi	r18, 0x01	; 1
    2a4e:	30 e0       	ldi	r19, 0x00	; 0
    2a50:	fc 01       	movw	r30, r24
    2a52:	31 83       	std	Z+1, r19	; 0x01
    2a54:	20 83       	st	Z, r18
    2a56:	6d c0       	rjmp	.+218    	; 0x2b32 <greenSide+0xc1e>
    2a58:	ce 01       	movw	r24, r28
    2a5a:	87 59       	subi	r24, 0x97	; 151
    2a5c:	9f 4f       	sbci	r25, 0xFF	; 255
    2a5e:	20 e0       	ldi	r18, 0x00	; 0
    2a60:	3f ef       	ldi	r19, 0xFF	; 255
    2a62:	4f e7       	ldi	r20, 0x7F	; 127
    2a64:	57 e4       	ldi	r21, 0x47	; 71
    2a66:	fc 01       	movw	r30, r24
    2a68:	60 81       	ld	r22, Z
    2a6a:	71 81       	ldd	r23, Z+1	; 0x01
    2a6c:	82 81       	ldd	r24, Z+2	; 0x02
    2a6e:	93 81       	ldd	r25, Z+3	; 0x03
    2a70:	0e 94 4e 32 	call	0x649c	; 0x649c <__gesf2>
    2a74:	18 16       	cp	r1, r24
    2a76:	0c f0       	brlt	.+2      	; 0x2a7a <greenSide+0xb66>
    2a78:	4a c0       	rjmp	.+148    	; 0x2b0e <greenSide+0xbfa>
    2a7a:	ce 01       	movw	r24, r28
    2a7c:	8b 59       	subi	r24, 0x9B	; 155
    2a7e:	9f 4f       	sbci	r25, 0xFF	; 255
    2a80:	20 e0       	ldi	r18, 0x00	; 0
    2a82:	30 e0       	ldi	r19, 0x00	; 0
    2a84:	40 e2       	ldi	r20, 0x20	; 32
    2a86:	51 e4       	ldi	r21, 0x41	; 65
    2a88:	fc 01       	movw	r30, r24
    2a8a:	60 81       	ld	r22, Z
    2a8c:	71 81       	ldd	r23, Z+1	; 0x01
    2a8e:	82 81       	ldd	r24, Z+2	; 0x02
    2a90:	93 81       	ldd	r25, Z+3	; 0x03
    2a92:	0e 94 52 32 	call	0x64a4	; 0x64a4 <__mulsf3>
    2a96:	dc 01       	movw	r26, r24
    2a98:	cb 01       	movw	r24, r22
    2a9a:	8e 01       	movw	r16, r28
    2a9c:	03 59       	subi	r16, 0x93	; 147
    2a9e:	1f 4f       	sbci	r17, 0xFF	; 255
    2aa0:	bc 01       	movw	r22, r24
    2aa2:	cd 01       	movw	r24, r26
    2aa4:	0e 94 32 31 	call	0x6264	; 0x6264 <__fixunssfsi>
    2aa8:	dc 01       	movw	r26, r24
    2aaa:	cb 01       	movw	r24, r22
    2aac:	f8 01       	movw	r30, r16
    2aae:	91 83       	std	Z+1, r25	; 0x01
    2ab0:	80 83       	st	Z, r24
    2ab2:	24 c0       	rjmp	.+72     	; 0x2afc <greenSide+0xbe8>
    2ab4:	ce 01       	movw	r24, r28
    2ab6:	81 59       	subi	r24, 0x91	; 145
    2ab8:	9f 4f       	sbci	r25, 0xFF	; 255
    2aba:	2a ef       	ldi	r18, 0xFA	; 250
    2abc:	30 e0       	ldi	r19, 0x00	; 0
    2abe:	fc 01       	movw	r30, r24
    2ac0:	31 83       	std	Z+1, r19	; 0x01
    2ac2:	20 83       	st	Z, r18
    2ac4:	ce 01       	movw	r24, r28
    2ac6:	81 59       	subi	r24, 0x91	; 145
    2ac8:	9f 4f       	sbci	r25, 0xFF	; 255
    2aca:	fc 01       	movw	r30, r24
    2acc:	80 81       	ld	r24, Z
    2ace:	91 81       	ldd	r25, Z+1	; 0x01
    2ad0:	01 97       	sbiw	r24, 0x01	; 1
    2ad2:	f1 f7       	brne	.-4      	; 0x2ad0 <greenSide+0xbbc>
    2ad4:	9e 01       	movw	r18, r28
    2ad6:	21 59       	subi	r18, 0x91	; 145
    2ad8:	3f 4f       	sbci	r19, 0xFF	; 255
    2ada:	f9 01       	movw	r30, r18
    2adc:	91 83       	std	Z+1, r25	; 0x01
    2ade:	80 83       	st	Z, r24
    2ae0:	ce 01       	movw	r24, r28
    2ae2:	83 59       	subi	r24, 0x93	; 147
    2ae4:	9f 4f       	sbci	r25, 0xFF	; 255
    2ae6:	9e 01       	movw	r18, r28
    2ae8:	23 59       	subi	r18, 0x93	; 147
    2aea:	3f 4f       	sbci	r19, 0xFF	; 255
    2aec:	f9 01       	movw	r30, r18
    2aee:	20 81       	ld	r18, Z
    2af0:	31 81       	ldd	r19, Z+1	; 0x01
    2af2:	21 50       	subi	r18, 0x01	; 1
    2af4:	31 09       	sbc	r19, r1
    2af6:	fc 01       	movw	r30, r24
    2af8:	31 83       	std	Z+1, r19	; 0x01
    2afa:	20 83       	st	Z, r18
    2afc:	ce 01       	movw	r24, r28
    2afe:	83 59       	subi	r24, 0x93	; 147
    2b00:	9f 4f       	sbci	r25, 0xFF	; 255
    2b02:	fc 01       	movw	r30, r24
    2b04:	80 81       	ld	r24, Z
    2b06:	91 81       	ldd	r25, Z+1	; 0x01
    2b08:	00 97       	sbiw	r24, 0x00	; 0
    2b0a:	a1 f6       	brne	.-88     	; 0x2ab4 <greenSide+0xba0>
    2b0c:	2c c0       	rjmp	.+88     	; 0x2b66 <greenSide+0xc52>
    2b0e:	8e 01       	movw	r16, r28
    2b10:	03 59       	subi	r16, 0x93	; 147
    2b12:	1f 4f       	sbci	r17, 0xFF	; 255
    2b14:	ce 01       	movw	r24, r28
    2b16:	87 59       	subi	r24, 0x97	; 151
    2b18:	9f 4f       	sbci	r25, 0xFF	; 255
    2b1a:	fc 01       	movw	r30, r24
    2b1c:	60 81       	ld	r22, Z
    2b1e:	71 81       	ldd	r23, Z+1	; 0x01
    2b20:	82 81       	ldd	r24, Z+2	; 0x02
    2b22:	93 81       	ldd	r25, Z+3	; 0x03
    2b24:	0e 94 32 31 	call	0x6264	; 0x6264 <__fixunssfsi>
    2b28:	dc 01       	movw	r26, r24
    2b2a:	cb 01       	movw	r24, r22
    2b2c:	f8 01       	movw	r30, r16
    2b2e:	91 83       	std	Z+1, r25	; 0x01
    2b30:	80 83       	st	Z, r24
    2b32:	ce 01       	movw	r24, r28
    2b34:	8f 58       	subi	r24, 0x8F	; 143
    2b36:	9f 4f       	sbci	r25, 0xFF	; 255
    2b38:	9e 01       	movw	r18, r28
    2b3a:	23 59       	subi	r18, 0x93	; 147
    2b3c:	3f 4f       	sbci	r19, 0xFF	; 255
    2b3e:	f9 01       	movw	r30, r18
    2b40:	20 81       	ld	r18, Z
    2b42:	31 81       	ldd	r19, Z+1	; 0x01
    2b44:	fc 01       	movw	r30, r24
    2b46:	31 83       	std	Z+1, r19	; 0x01
    2b48:	20 83       	st	Z, r18
    2b4a:	ce 01       	movw	r24, r28
    2b4c:	8f 58       	subi	r24, 0x8F	; 143
    2b4e:	9f 4f       	sbci	r25, 0xFF	; 255
    2b50:	fc 01       	movw	r30, r24
    2b52:	80 81       	ld	r24, Z
    2b54:	91 81       	ldd	r25, Z+1	; 0x01
    2b56:	01 97       	sbiw	r24, 0x01	; 1
    2b58:	f1 f7       	brne	.-4      	; 0x2b56 <greenSide+0xc42>
    2b5a:	9e 01       	movw	r18, r28
    2b5c:	2f 58       	subi	r18, 0x8F	; 143
    2b5e:	3f 4f       	sbci	r19, 0xFF	; 255
    2b60:	f9 01       	movw	r30, r18
    2b62:	91 83       	std	Z+1, r25	; 0x01
    2b64:	80 83       	st	Z, r24
    2b66:	40 e0       	ldi	r20, 0x00	; 0
    2b68:	50 e0       	ldi	r21, 0x00	; 0
    2b6a:	6e e1       	ldi	r22, 0x1E	; 30
    2b6c:	8d e7       	ldi	r24, 0x7D	; 125
    2b6e:	90 e0       	ldi	r25, 0x00	; 0
    2b70:	0e 94 3a 22 	call	0x4474	; 0x4474 <moveOnDirection>
    2b74:	40 e0       	ldi	r20, 0x00	; 0
    2b76:	50 e0       	ldi	r21, 0x00	; 0
    2b78:	62 e3       	ldi	r22, 0x32	; 50
    2b7a:	86 ef       	ldi	r24, 0xF6	; 246
    2b7c:	9f ef       	ldi	r25, 0xFF	; 255
    2b7e:	0e 94 07 29 	call	0x520e	; 0x520e <rotate>
    2b82:	40 e0       	ldi	r20, 0x00	; 0
    2b84:	50 e0       	ldi	r21, 0x00	; 0
    2b86:	6e e1       	ldi	r22, 0x1E	; 30
    2b88:	88 e2       	ldi	r24, 0x28	; 40
    2b8a:	90 e0       	ldi	r25, 0x00	; 0
    2b8c:	0e 94 3a 22 	call	0x4474	; 0x4474 <moveOnDirection>
    2b90:	61 e0       	ldi	r22, 0x01	; 1
    2b92:	8f ef       	ldi	r24, 0xFF	; 255
    2b94:	0e 94 dc 07 	call	0xfb8	; 0xfb8 <liftMove>
    2b98:	9e 01       	movw	r18, r28
    2b9a:	2d 58       	subi	r18, 0x8D	; 141
    2b9c:	3f 4f       	sbci	r19, 0xFF	; 255
    2b9e:	80 e0       	ldi	r24, 0x00	; 0
    2ba0:	90 e0       	ldi	r25, 0x00	; 0
    2ba2:	aa ef       	ldi	r26, 0xFA	; 250
    2ba4:	b3 e4       	ldi	r27, 0x43	; 67
    2ba6:	f9 01       	movw	r30, r18
    2ba8:	80 83       	st	Z, r24
    2baa:	91 83       	std	Z+1, r25	; 0x01
    2bac:	a2 83       	std	Z+2, r26	; 0x02
    2bae:	b3 83       	std	Z+3, r27	; 0x03
    2bb0:	8e 01       	movw	r16, r28
    2bb2:	09 58       	subi	r16, 0x89	; 137
    2bb4:	1f 4f       	sbci	r17, 0xFF	; 255
    2bb6:	ce 01       	movw	r24, r28
    2bb8:	8d 58       	subi	r24, 0x8D	; 141
    2bba:	9f 4f       	sbci	r25, 0xFF	; 255
    2bbc:	20 e0       	ldi	r18, 0x00	; 0
    2bbe:	30 e4       	ldi	r19, 0x40	; 64
    2bc0:	4c e1       	ldi	r20, 0x1C	; 28
    2bc2:	55 e4       	ldi	r21, 0x45	; 69
    2bc4:	fc 01       	movw	r30, r24
    2bc6:	60 81       	ld	r22, Z
    2bc8:	71 81       	ldd	r23, Z+1	; 0x01
    2bca:	82 81       	ldd	r24, Z+2	; 0x02
    2bcc:	93 81       	ldd	r25, Z+3	; 0x03
    2bce:	0e 94 52 32 	call	0x64a4	; 0x64a4 <__mulsf3>
    2bd2:	dc 01       	movw	r26, r24
    2bd4:	cb 01       	movw	r24, r22
    2bd6:	f8 01       	movw	r30, r16
    2bd8:	80 83       	st	Z, r24
    2bda:	91 83       	std	Z+1, r25	; 0x01
    2bdc:	a2 83       	std	Z+2, r26	; 0x02
    2bde:	b3 83       	std	Z+3, r27	; 0x03
    2be0:	ce 01       	movw	r24, r28
    2be2:	89 58       	subi	r24, 0x89	; 137
    2be4:	9f 4f       	sbci	r25, 0xFF	; 255
    2be6:	20 e0       	ldi	r18, 0x00	; 0
    2be8:	30 e0       	ldi	r19, 0x00	; 0
    2bea:	40 e8       	ldi	r20, 0x80	; 128
    2bec:	5f e3       	ldi	r21, 0x3F	; 63
    2bee:	fc 01       	movw	r30, r24
    2bf0:	60 81       	ld	r22, Z
    2bf2:	71 81       	ldd	r23, Z+1	; 0x01
    2bf4:	82 81       	ldd	r24, Z+2	; 0x02
    2bf6:	93 81       	ldd	r25, Z+3	; 0x03
    2bf8:	0e 94 c6 30 	call	0x618c	; 0x618c <__cmpsf2>
    2bfc:	88 23       	and	r24, r24
    2bfe:	4c f4       	brge	.+18     	; 0x2c12 <greenSide+0xcfe>
    2c00:	ce 01       	movw	r24, r28
    2c02:	85 58       	subi	r24, 0x85	; 133
    2c04:	9f 4f       	sbci	r25, 0xFF	; 255
    2c06:	21 e0       	ldi	r18, 0x01	; 1
    2c08:	30 e0       	ldi	r19, 0x00	; 0
    2c0a:	fc 01       	movw	r30, r24
    2c0c:	31 83       	std	Z+1, r19	; 0x01
    2c0e:	20 83       	st	Z, r18
    2c10:	6d c0       	rjmp	.+218    	; 0x2cec <greenSide+0xdd8>
    2c12:	ce 01       	movw	r24, r28
    2c14:	89 58       	subi	r24, 0x89	; 137
    2c16:	9f 4f       	sbci	r25, 0xFF	; 255
    2c18:	20 e0       	ldi	r18, 0x00	; 0
    2c1a:	3f ef       	ldi	r19, 0xFF	; 255
    2c1c:	4f e7       	ldi	r20, 0x7F	; 127
    2c1e:	57 e4       	ldi	r21, 0x47	; 71
    2c20:	fc 01       	movw	r30, r24
    2c22:	60 81       	ld	r22, Z
    2c24:	71 81       	ldd	r23, Z+1	; 0x01
    2c26:	82 81       	ldd	r24, Z+2	; 0x02
    2c28:	93 81       	ldd	r25, Z+3	; 0x03
    2c2a:	0e 94 4e 32 	call	0x649c	; 0x649c <__gesf2>
    2c2e:	18 16       	cp	r1, r24
    2c30:	0c f0       	brlt	.+2      	; 0x2c34 <greenSide+0xd20>
    2c32:	4a c0       	rjmp	.+148    	; 0x2cc8 <greenSide+0xdb4>
    2c34:	ce 01       	movw	r24, r28
    2c36:	8d 58       	subi	r24, 0x8D	; 141
    2c38:	9f 4f       	sbci	r25, 0xFF	; 255
    2c3a:	20 e0       	ldi	r18, 0x00	; 0
    2c3c:	30 e0       	ldi	r19, 0x00	; 0
    2c3e:	40 e2       	ldi	r20, 0x20	; 32
    2c40:	51 e4       	ldi	r21, 0x41	; 65
    2c42:	fc 01       	movw	r30, r24
    2c44:	60 81       	ld	r22, Z
    2c46:	71 81       	ldd	r23, Z+1	; 0x01
    2c48:	82 81       	ldd	r24, Z+2	; 0x02
    2c4a:	93 81       	ldd	r25, Z+3	; 0x03
    2c4c:	0e 94 52 32 	call	0x64a4	; 0x64a4 <__mulsf3>
    2c50:	dc 01       	movw	r26, r24
    2c52:	cb 01       	movw	r24, r22
    2c54:	8e 01       	movw	r16, r28
    2c56:	05 58       	subi	r16, 0x85	; 133
    2c58:	1f 4f       	sbci	r17, 0xFF	; 255
    2c5a:	bc 01       	movw	r22, r24
    2c5c:	cd 01       	movw	r24, r26
    2c5e:	0e 94 32 31 	call	0x6264	; 0x6264 <__fixunssfsi>
    2c62:	dc 01       	movw	r26, r24
    2c64:	cb 01       	movw	r24, r22
    2c66:	f8 01       	movw	r30, r16
    2c68:	91 83       	std	Z+1, r25	; 0x01
    2c6a:	80 83       	st	Z, r24
    2c6c:	24 c0       	rjmp	.+72     	; 0x2cb6 <greenSide+0xda2>
    2c6e:	ce 01       	movw	r24, r28
    2c70:	83 58       	subi	r24, 0x83	; 131
    2c72:	9f 4f       	sbci	r25, 0xFF	; 255
    2c74:	2a ef       	ldi	r18, 0xFA	; 250
    2c76:	30 e0       	ldi	r19, 0x00	; 0
    2c78:	fc 01       	movw	r30, r24
    2c7a:	31 83       	std	Z+1, r19	; 0x01
    2c7c:	20 83       	st	Z, r18
    2c7e:	ce 01       	movw	r24, r28
    2c80:	83 58       	subi	r24, 0x83	; 131
    2c82:	9f 4f       	sbci	r25, 0xFF	; 255
    2c84:	fc 01       	movw	r30, r24
    2c86:	80 81       	ld	r24, Z
    2c88:	91 81       	ldd	r25, Z+1	; 0x01
    2c8a:	01 97       	sbiw	r24, 0x01	; 1
    2c8c:	f1 f7       	brne	.-4      	; 0x2c8a <greenSide+0xd76>
    2c8e:	9e 01       	movw	r18, r28
    2c90:	23 58       	subi	r18, 0x83	; 131
    2c92:	3f 4f       	sbci	r19, 0xFF	; 255
    2c94:	f9 01       	movw	r30, r18
    2c96:	91 83       	std	Z+1, r25	; 0x01
    2c98:	80 83       	st	Z, r24
    2c9a:	ce 01       	movw	r24, r28
    2c9c:	85 58       	subi	r24, 0x85	; 133
    2c9e:	9f 4f       	sbci	r25, 0xFF	; 255
    2ca0:	9e 01       	movw	r18, r28
    2ca2:	25 58       	subi	r18, 0x85	; 133
    2ca4:	3f 4f       	sbci	r19, 0xFF	; 255
    2ca6:	f9 01       	movw	r30, r18
    2ca8:	20 81       	ld	r18, Z
    2caa:	31 81       	ldd	r19, Z+1	; 0x01
    2cac:	21 50       	subi	r18, 0x01	; 1
    2cae:	31 09       	sbc	r19, r1
    2cb0:	fc 01       	movw	r30, r24
    2cb2:	31 83       	std	Z+1, r19	; 0x01
    2cb4:	20 83       	st	Z, r18
    2cb6:	ce 01       	movw	r24, r28
    2cb8:	85 58       	subi	r24, 0x85	; 133
    2cba:	9f 4f       	sbci	r25, 0xFF	; 255
    2cbc:	fc 01       	movw	r30, r24
    2cbe:	80 81       	ld	r24, Z
    2cc0:	91 81       	ldd	r25, Z+1	; 0x01
    2cc2:	00 97       	sbiw	r24, 0x00	; 0
    2cc4:	a1 f6       	brne	.-88     	; 0x2c6e <greenSide+0xd5a>
    2cc6:	2c c0       	rjmp	.+88     	; 0x2d20 <greenSide+0xe0c>
    2cc8:	8e 01       	movw	r16, r28
    2cca:	05 58       	subi	r16, 0x85	; 133
    2ccc:	1f 4f       	sbci	r17, 0xFF	; 255
    2cce:	ce 01       	movw	r24, r28
    2cd0:	89 58       	subi	r24, 0x89	; 137
    2cd2:	9f 4f       	sbci	r25, 0xFF	; 255
    2cd4:	fc 01       	movw	r30, r24
    2cd6:	60 81       	ld	r22, Z
    2cd8:	71 81       	ldd	r23, Z+1	; 0x01
    2cda:	82 81       	ldd	r24, Z+2	; 0x02
    2cdc:	93 81       	ldd	r25, Z+3	; 0x03
    2cde:	0e 94 32 31 	call	0x6264	; 0x6264 <__fixunssfsi>
    2ce2:	dc 01       	movw	r26, r24
    2ce4:	cb 01       	movw	r24, r22
    2ce6:	f8 01       	movw	r30, r16
    2ce8:	91 83       	std	Z+1, r25	; 0x01
    2cea:	80 83       	st	Z, r24
    2cec:	ce 01       	movw	r24, r28
    2cee:	81 58       	subi	r24, 0x81	; 129
    2cf0:	9f 4f       	sbci	r25, 0xFF	; 255
    2cf2:	9e 01       	movw	r18, r28
    2cf4:	25 58       	subi	r18, 0x85	; 133
    2cf6:	3f 4f       	sbci	r19, 0xFF	; 255
    2cf8:	f9 01       	movw	r30, r18
    2cfa:	20 81       	ld	r18, Z
    2cfc:	31 81       	ldd	r19, Z+1	; 0x01
    2cfe:	fc 01       	movw	r30, r24
    2d00:	31 83       	std	Z+1, r19	; 0x01
    2d02:	20 83       	st	Z, r18
    2d04:	ce 01       	movw	r24, r28
    2d06:	81 58       	subi	r24, 0x81	; 129
    2d08:	9f 4f       	sbci	r25, 0xFF	; 255
    2d0a:	fc 01       	movw	r30, r24
    2d0c:	80 81       	ld	r24, Z
    2d0e:	91 81       	ldd	r25, Z+1	; 0x01
    2d10:	01 97       	sbiw	r24, 0x01	; 1
    2d12:	f1 f7       	brne	.-4      	; 0x2d10 <greenSide+0xdfc>
    2d14:	9e 01       	movw	r18, r28
    2d16:	21 58       	subi	r18, 0x81	; 129
    2d18:	3f 4f       	sbci	r19, 0xFF	; 255
    2d1a:	f9 01       	movw	r30, r18
    2d1c:	91 83       	std	Z+1, r25	; 0x01
    2d1e:	80 83       	st	Z, r24
    2d20:	81 e0       	ldi	r24, 0x01	; 1
    2d22:	0e 94 a3 04 	call	0x946	; 0x946 <leftDiafram>
    2d26:	81 e0       	ldi	r24, 0x01	; 1
    2d28:	0e 94 b6 05 	call	0xb6c	; 0xb6c <rightDiafram>
    2d2c:	9e 01       	movw	r18, r28
    2d2e:	2f 57       	subi	r18, 0x7F	; 127
    2d30:	3f 4f       	sbci	r19, 0xFF	; 255
    2d32:	80 e0       	ldi	r24, 0x00	; 0
    2d34:	90 e0       	ldi	r25, 0x00	; 0
    2d36:	a8 e4       	ldi	r26, 0x48	; 72
    2d38:	b2 e4       	ldi	r27, 0x42	; 66
    2d3a:	f9 01       	movw	r30, r18
    2d3c:	80 83       	st	Z, r24
    2d3e:	91 83       	std	Z+1, r25	; 0x01
    2d40:	a2 83       	std	Z+2, r26	; 0x02
    2d42:	b3 83       	std	Z+3, r27	; 0x03
    2d44:	8e 01       	movw	r16, r28
    2d46:	0b 57       	subi	r16, 0x7B	; 123
    2d48:	1f 4f       	sbci	r17, 0xFF	; 255
    2d4a:	ce 01       	movw	r24, r28
    2d4c:	8f 57       	subi	r24, 0x7F	; 127
    2d4e:	9f 4f       	sbci	r25, 0xFF	; 255
    2d50:	20 e0       	ldi	r18, 0x00	; 0
    2d52:	30 e4       	ldi	r19, 0x40	; 64
    2d54:	4c e1       	ldi	r20, 0x1C	; 28
    2d56:	55 e4       	ldi	r21, 0x45	; 69
    2d58:	fc 01       	movw	r30, r24
    2d5a:	60 81       	ld	r22, Z
    2d5c:	71 81       	ldd	r23, Z+1	; 0x01
    2d5e:	82 81       	ldd	r24, Z+2	; 0x02
    2d60:	93 81       	ldd	r25, Z+3	; 0x03
    2d62:	0e 94 52 32 	call	0x64a4	; 0x64a4 <__mulsf3>
    2d66:	dc 01       	movw	r26, r24
    2d68:	cb 01       	movw	r24, r22
    2d6a:	f8 01       	movw	r30, r16
    2d6c:	80 83       	st	Z, r24
    2d6e:	91 83       	std	Z+1, r25	; 0x01
    2d70:	a2 83       	std	Z+2, r26	; 0x02
    2d72:	b3 83       	std	Z+3, r27	; 0x03
    2d74:	ce 01       	movw	r24, r28
    2d76:	8b 57       	subi	r24, 0x7B	; 123
    2d78:	9f 4f       	sbci	r25, 0xFF	; 255
    2d7a:	20 e0       	ldi	r18, 0x00	; 0
    2d7c:	30 e0       	ldi	r19, 0x00	; 0
    2d7e:	40 e8       	ldi	r20, 0x80	; 128
    2d80:	5f e3       	ldi	r21, 0x3F	; 63
    2d82:	fc 01       	movw	r30, r24
    2d84:	60 81       	ld	r22, Z
    2d86:	71 81       	ldd	r23, Z+1	; 0x01
    2d88:	82 81       	ldd	r24, Z+2	; 0x02
    2d8a:	93 81       	ldd	r25, Z+3	; 0x03
    2d8c:	0e 94 c6 30 	call	0x618c	; 0x618c <__cmpsf2>
    2d90:	88 23       	and	r24, r24
    2d92:	4c f4       	brge	.+18     	; 0x2da6 <greenSide+0xe92>
    2d94:	ce 01       	movw	r24, r28
    2d96:	87 57       	subi	r24, 0x77	; 119
    2d98:	9f 4f       	sbci	r25, 0xFF	; 255
    2d9a:	21 e0       	ldi	r18, 0x01	; 1
    2d9c:	30 e0       	ldi	r19, 0x00	; 0
    2d9e:	fc 01       	movw	r30, r24
    2da0:	31 83       	std	Z+1, r19	; 0x01
    2da2:	20 83       	st	Z, r18
    2da4:	6d c0       	rjmp	.+218    	; 0x2e80 <greenSide+0xf6c>
    2da6:	ce 01       	movw	r24, r28
    2da8:	8b 57       	subi	r24, 0x7B	; 123
    2daa:	9f 4f       	sbci	r25, 0xFF	; 255
    2dac:	20 e0       	ldi	r18, 0x00	; 0
    2dae:	3f ef       	ldi	r19, 0xFF	; 255
    2db0:	4f e7       	ldi	r20, 0x7F	; 127
    2db2:	57 e4       	ldi	r21, 0x47	; 71
    2db4:	fc 01       	movw	r30, r24
    2db6:	60 81       	ld	r22, Z
    2db8:	71 81       	ldd	r23, Z+1	; 0x01
    2dba:	82 81       	ldd	r24, Z+2	; 0x02
    2dbc:	93 81       	ldd	r25, Z+3	; 0x03
    2dbe:	0e 94 4e 32 	call	0x649c	; 0x649c <__gesf2>
    2dc2:	18 16       	cp	r1, r24
    2dc4:	0c f0       	brlt	.+2      	; 0x2dc8 <greenSide+0xeb4>
    2dc6:	4a c0       	rjmp	.+148    	; 0x2e5c <greenSide+0xf48>
    2dc8:	ce 01       	movw	r24, r28
    2dca:	8f 57       	subi	r24, 0x7F	; 127
    2dcc:	9f 4f       	sbci	r25, 0xFF	; 255
    2dce:	20 e0       	ldi	r18, 0x00	; 0
    2dd0:	30 e0       	ldi	r19, 0x00	; 0
    2dd2:	40 e2       	ldi	r20, 0x20	; 32
    2dd4:	51 e4       	ldi	r21, 0x41	; 65
    2dd6:	fc 01       	movw	r30, r24
    2dd8:	60 81       	ld	r22, Z
    2dda:	71 81       	ldd	r23, Z+1	; 0x01
    2ddc:	82 81       	ldd	r24, Z+2	; 0x02
    2dde:	93 81       	ldd	r25, Z+3	; 0x03
    2de0:	0e 94 52 32 	call	0x64a4	; 0x64a4 <__mulsf3>
    2de4:	dc 01       	movw	r26, r24
    2de6:	cb 01       	movw	r24, r22
    2de8:	8e 01       	movw	r16, r28
    2dea:	07 57       	subi	r16, 0x77	; 119
    2dec:	1f 4f       	sbci	r17, 0xFF	; 255
    2dee:	bc 01       	movw	r22, r24
    2df0:	cd 01       	movw	r24, r26
    2df2:	0e 94 32 31 	call	0x6264	; 0x6264 <__fixunssfsi>
    2df6:	dc 01       	movw	r26, r24
    2df8:	cb 01       	movw	r24, r22
    2dfa:	f8 01       	movw	r30, r16
    2dfc:	91 83       	std	Z+1, r25	; 0x01
    2dfe:	80 83       	st	Z, r24
    2e00:	24 c0       	rjmp	.+72     	; 0x2e4a <greenSide+0xf36>
    2e02:	ce 01       	movw	r24, r28
    2e04:	85 57       	subi	r24, 0x75	; 117
    2e06:	9f 4f       	sbci	r25, 0xFF	; 255
    2e08:	2a ef       	ldi	r18, 0xFA	; 250
    2e0a:	30 e0       	ldi	r19, 0x00	; 0
    2e0c:	fc 01       	movw	r30, r24
    2e0e:	31 83       	std	Z+1, r19	; 0x01
    2e10:	20 83       	st	Z, r18
    2e12:	ce 01       	movw	r24, r28
    2e14:	85 57       	subi	r24, 0x75	; 117
    2e16:	9f 4f       	sbci	r25, 0xFF	; 255
    2e18:	fc 01       	movw	r30, r24
    2e1a:	80 81       	ld	r24, Z
    2e1c:	91 81       	ldd	r25, Z+1	; 0x01
    2e1e:	01 97       	sbiw	r24, 0x01	; 1
    2e20:	f1 f7       	brne	.-4      	; 0x2e1e <greenSide+0xf0a>
    2e22:	9e 01       	movw	r18, r28
    2e24:	25 57       	subi	r18, 0x75	; 117
    2e26:	3f 4f       	sbci	r19, 0xFF	; 255
    2e28:	f9 01       	movw	r30, r18
    2e2a:	91 83       	std	Z+1, r25	; 0x01
    2e2c:	80 83       	st	Z, r24
    2e2e:	ce 01       	movw	r24, r28
    2e30:	87 57       	subi	r24, 0x77	; 119
    2e32:	9f 4f       	sbci	r25, 0xFF	; 255
    2e34:	9e 01       	movw	r18, r28
    2e36:	27 57       	subi	r18, 0x77	; 119
    2e38:	3f 4f       	sbci	r19, 0xFF	; 255
    2e3a:	f9 01       	movw	r30, r18
    2e3c:	20 81       	ld	r18, Z
    2e3e:	31 81       	ldd	r19, Z+1	; 0x01
    2e40:	21 50       	subi	r18, 0x01	; 1
    2e42:	31 09       	sbc	r19, r1
    2e44:	fc 01       	movw	r30, r24
    2e46:	31 83       	std	Z+1, r19	; 0x01
    2e48:	20 83       	st	Z, r18
    2e4a:	ce 01       	movw	r24, r28
    2e4c:	87 57       	subi	r24, 0x77	; 119
    2e4e:	9f 4f       	sbci	r25, 0xFF	; 255
    2e50:	fc 01       	movw	r30, r24
    2e52:	80 81       	ld	r24, Z
    2e54:	91 81       	ldd	r25, Z+1	; 0x01
    2e56:	00 97       	sbiw	r24, 0x00	; 0
    2e58:	a1 f6       	brne	.-88     	; 0x2e02 <greenSide+0xeee>
    2e5a:	2c c0       	rjmp	.+88     	; 0x2eb4 <greenSide+0xfa0>
    2e5c:	8e 01       	movw	r16, r28
    2e5e:	07 57       	subi	r16, 0x77	; 119
    2e60:	1f 4f       	sbci	r17, 0xFF	; 255
    2e62:	ce 01       	movw	r24, r28
    2e64:	8b 57       	subi	r24, 0x7B	; 123
    2e66:	9f 4f       	sbci	r25, 0xFF	; 255
    2e68:	fc 01       	movw	r30, r24
    2e6a:	60 81       	ld	r22, Z
    2e6c:	71 81       	ldd	r23, Z+1	; 0x01
    2e6e:	82 81       	ldd	r24, Z+2	; 0x02
    2e70:	93 81       	ldd	r25, Z+3	; 0x03
    2e72:	0e 94 32 31 	call	0x6264	; 0x6264 <__fixunssfsi>
    2e76:	dc 01       	movw	r26, r24
    2e78:	cb 01       	movw	r24, r22
    2e7a:	f8 01       	movw	r30, r16
    2e7c:	91 83       	std	Z+1, r25	; 0x01
    2e7e:	80 83       	st	Z, r24
    2e80:	ce 01       	movw	r24, r28
    2e82:	83 57       	subi	r24, 0x73	; 115
    2e84:	9f 4f       	sbci	r25, 0xFF	; 255
    2e86:	9e 01       	movw	r18, r28
    2e88:	27 57       	subi	r18, 0x77	; 119
    2e8a:	3f 4f       	sbci	r19, 0xFF	; 255
    2e8c:	f9 01       	movw	r30, r18
    2e8e:	20 81       	ld	r18, Z
    2e90:	31 81       	ldd	r19, Z+1	; 0x01
    2e92:	fc 01       	movw	r30, r24
    2e94:	31 83       	std	Z+1, r19	; 0x01
    2e96:	20 83       	st	Z, r18
    2e98:	ce 01       	movw	r24, r28
    2e9a:	83 57       	subi	r24, 0x73	; 115
    2e9c:	9f 4f       	sbci	r25, 0xFF	; 255
    2e9e:	fc 01       	movw	r30, r24
    2ea0:	80 81       	ld	r24, Z
    2ea2:	91 81       	ldd	r25, Z+1	; 0x01
    2ea4:	01 97       	sbiw	r24, 0x01	; 1
    2ea6:	f1 f7       	brne	.-4      	; 0x2ea4 <greenSide+0xf90>
    2ea8:	9e 01       	movw	r18, r28
    2eaa:	23 57       	subi	r18, 0x73	; 115
    2eac:	3f 4f       	sbci	r19, 0xFF	; 255
    2eae:	f9 01       	movw	r30, r18
    2eb0:	91 83       	std	Z+1, r25	; 0x01
    2eb2:	80 83       	st	Z, r24
    2eb4:	40 e0       	ldi	r20, 0x00	; 0
    2eb6:	50 e0       	ldi	r21, 0x00	; 0
    2eb8:	62 e3       	ldi	r22, 0x32	; 50
    2eba:	8a e0       	ldi	r24, 0x0A	; 10
    2ebc:	90 e0       	ldi	r25, 0x00	; 0
    2ebe:	0e 94 07 29 	call	0x520e	; 0x520e <rotate>
    2ec2:	9e 01       	movw	r18, r28
    2ec4:	21 57       	subi	r18, 0x71	; 113
    2ec6:	3f 4f       	sbci	r19, 0xFF	; 255
    2ec8:	80 e0       	ldi	r24, 0x00	; 0
    2eca:	90 e0       	ldi	r25, 0x00	; 0
    2ecc:	a8 e4       	ldi	r26, 0x48	; 72
    2ece:	b2 e4       	ldi	r27, 0x42	; 66
    2ed0:	f9 01       	movw	r30, r18
    2ed2:	80 83       	st	Z, r24
    2ed4:	91 83       	std	Z+1, r25	; 0x01
    2ed6:	a2 83       	std	Z+2, r26	; 0x02
    2ed8:	b3 83       	std	Z+3, r27	; 0x03
    2eda:	8e 01       	movw	r16, r28
    2edc:	0d 56       	subi	r16, 0x6D	; 109
    2ede:	1f 4f       	sbci	r17, 0xFF	; 255
    2ee0:	ce 01       	movw	r24, r28
    2ee2:	81 57       	subi	r24, 0x71	; 113
    2ee4:	9f 4f       	sbci	r25, 0xFF	; 255
    2ee6:	20 e0       	ldi	r18, 0x00	; 0
    2ee8:	30 e4       	ldi	r19, 0x40	; 64
    2eea:	4c e1       	ldi	r20, 0x1C	; 28
    2eec:	55 e4       	ldi	r21, 0x45	; 69
    2eee:	fc 01       	movw	r30, r24
    2ef0:	60 81       	ld	r22, Z
    2ef2:	71 81       	ldd	r23, Z+1	; 0x01
    2ef4:	82 81       	ldd	r24, Z+2	; 0x02
    2ef6:	93 81       	ldd	r25, Z+3	; 0x03
    2ef8:	0e 94 52 32 	call	0x64a4	; 0x64a4 <__mulsf3>
    2efc:	dc 01       	movw	r26, r24
    2efe:	cb 01       	movw	r24, r22
    2f00:	f8 01       	movw	r30, r16
    2f02:	80 83       	st	Z, r24
    2f04:	91 83       	std	Z+1, r25	; 0x01
    2f06:	a2 83       	std	Z+2, r26	; 0x02
    2f08:	b3 83       	std	Z+3, r27	; 0x03
    2f0a:	ce 01       	movw	r24, r28
    2f0c:	8d 56       	subi	r24, 0x6D	; 109
    2f0e:	9f 4f       	sbci	r25, 0xFF	; 255
    2f10:	20 e0       	ldi	r18, 0x00	; 0
    2f12:	30 e0       	ldi	r19, 0x00	; 0
    2f14:	40 e8       	ldi	r20, 0x80	; 128
    2f16:	5f e3       	ldi	r21, 0x3F	; 63
    2f18:	fc 01       	movw	r30, r24
    2f1a:	60 81       	ld	r22, Z
    2f1c:	71 81       	ldd	r23, Z+1	; 0x01
    2f1e:	82 81       	ldd	r24, Z+2	; 0x02
    2f20:	93 81       	ldd	r25, Z+3	; 0x03
    2f22:	0e 94 c6 30 	call	0x618c	; 0x618c <__cmpsf2>
    2f26:	88 23       	and	r24, r24
    2f28:	4c f4       	brge	.+18     	; 0x2f3c <greenSide+0x1028>
    2f2a:	ce 01       	movw	r24, r28
    2f2c:	89 56       	subi	r24, 0x69	; 105
    2f2e:	9f 4f       	sbci	r25, 0xFF	; 255
    2f30:	21 e0       	ldi	r18, 0x01	; 1
    2f32:	30 e0       	ldi	r19, 0x00	; 0
    2f34:	fc 01       	movw	r30, r24
    2f36:	31 83       	std	Z+1, r19	; 0x01
    2f38:	20 83       	st	Z, r18
    2f3a:	6d c0       	rjmp	.+218    	; 0x3016 <greenSide+0x1102>
    2f3c:	ce 01       	movw	r24, r28
    2f3e:	8d 56       	subi	r24, 0x6D	; 109
    2f40:	9f 4f       	sbci	r25, 0xFF	; 255
    2f42:	20 e0       	ldi	r18, 0x00	; 0
    2f44:	3f ef       	ldi	r19, 0xFF	; 255
    2f46:	4f e7       	ldi	r20, 0x7F	; 127
    2f48:	57 e4       	ldi	r21, 0x47	; 71
    2f4a:	fc 01       	movw	r30, r24
    2f4c:	60 81       	ld	r22, Z
    2f4e:	71 81       	ldd	r23, Z+1	; 0x01
    2f50:	82 81       	ldd	r24, Z+2	; 0x02
    2f52:	93 81       	ldd	r25, Z+3	; 0x03
    2f54:	0e 94 4e 32 	call	0x649c	; 0x649c <__gesf2>
    2f58:	18 16       	cp	r1, r24
    2f5a:	0c f0       	brlt	.+2      	; 0x2f5e <greenSide+0x104a>
    2f5c:	4a c0       	rjmp	.+148    	; 0x2ff2 <greenSide+0x10de>
    2f5e:	ce 01       	movw	r24, r28
    2f60:	81 57       	subi	r24, 0x71	; 113
    2f62:	9f 4f       	sbci	r25, 0xFF	; 255
    2f64:	20 e0       	ldi	r18, 0x00	; 0
    2f66:	30 e0       	ldi	r19, 0x00	; 0
    2f68:	40 e2       	ldi	r20, 0x20	; 32
    2f6a:	51 e4       	ldi	r21, 0x41	; 65
    2f6c:	fc 01       	movw	r30, r24
    2f6e:	60 81       	ld	r22, Z
    2f70:	71 81       	ldd	r23, Z+1	; 0x01
    2f72:	82 81       	ldd	r24, Z+2	; 0x02
    2f74:	93 81       	ldd	r25, Z+3	; 0x03
    2f76:	0e 94 52 32 	call	0x64a4	; 0x64a4 <__mulsf3>
    2f7a:	dc 01       	movw	r26, r24
    2f7c:	cb 01       	movw	r24, r22
    2f7e:	8e 01       	movw	r16, r28
    2f80:	09 56       	subi	r16, 0x69	; 105
    2f82:	1f 4f       	sbci	r17, 0xFF	; 255
    2f84:	bc 01       	movw	r22, r24
    2f86:	cd 01       	movw	r24, r26
    2f88:	0e 94 32 31 	call	0x6264	; 0x6264 <__fixunssfsi>
    2f8c:	dc 01       	movw	r26, r24
    2f8e:	cb 01       	movw	r24, r22
    2f90:	f8 01       	movw	r30, r16
    2f92:	91 83       	std	Z+1, r25	; 0x01
    2f94:	80 83       	st	Z, r24
    2f96:	24 c0       	rjmp	.+72     	; 0x2fe0 <greenSide+0x10cc>
    2f98:	ce 01       	movw	r24, r28
    2f9a:	87 56       	subi	r24, 0x67	; 103
    2f9c:	9f 4f       	sbci	r25, 0xFF	; 255
    2f9e:	2a ef       	ldi	r18, 0xFA	; 250
    2fa0:	30 e0       	ldi	r19, 0x00	; 0
    2fa2:	fc 01       	movw	r30, r24
    2fa4:	31 83       	std	Z+1, r19	; 0x01
    2fa6:	20 83       	st	Z, r18
    2fa8:	ce 01       	movw	r24, r28
    2faa:	87 56       	subi	r24, 0x67	; 103
    2fac:	9f 4f       	sbci	r25, 0xFF	; 255
    2fae:	fc 01       	movw	r30, r24
    2fb0:	80 81       	ld	r24, Z
    2fb2:	91 81       	ldd	r25, Z+1	; 0x01
    2fb4:	01 97       	sbiw	r24, 0x01	; 1
    2fb6:	f1 f7       	brne	.-4      	; 0x2fb4 <greenSide+0x10a0>
    2fb8:	9e 01       	movw	r18, r28
    2fba:	27 56       	subi	r18, 0x67	; 103
    2fbc:	3f 4f       	sbci	r19, 0xFF	; 255
    2fbe:	f9 01       	movw	r30, r18
    2fc0:	91 83       	std	Z+1, r25	; 0x01
    2fc2:	80 83       	st	Z, r24
    2fc4:	ce 01       	movw	r24, r28
    2fc6:	89 56       	subi	r24, 0x69	; 105
    2fc8:	9f 4f       	sbci	r25, 0xFF	; 255
    2fca:	9e 01       	movw	r18, r28
    2fcc:	29 56       	subi	r18, 0x69	; 105
    2fce:	3f 4f       	sbci	r19, 0xFF	; 255
    2fd0:	f9 01       	movw	r30, r18
    2fd2:	20 81       	ld	r18, Z
    2fd4:	31 81       	ldd	r19, Z+1	; 0x01
    2fd6:	21 50       	subi	r18, 0x01	; 1
    2fd8:	31 09       	sbc	r19, r1
    2fda:	fc 01       	movw	r30, r24
    2fdc:	31 83       	std	Z+1, r19	; 0x01
    2fde:	20 83       	st	Z, r18
    2fe0:	ce 01       	movw	r24, r28
    2fe2:	89 56       	subi	r24, 0x69	; 105
    2fe4:	9f 4f       	sbci	r25, 0xFF	; 255
    2fe6:	fc 01       	movw	r30, r24
    2fe8:	80 81       	ld	r24, Z
    2fea:	91 81       	ldd	r25, Z+1	; 0x01
    2fec:	00 97       	sbiw	r24, 0x00	; 0
    2fee:	a1 f6       	brne	.-88     	; 0x2f98 <greenSide+0x1084>
    2ff0:	2c c0       	rjmp	.+88     	; 0x304a <greenSide+0x1136>
    2ff2:	8e 01       	movw	r16, r28
    2ff4:	09 56       	subi	r16, 0x69	; 105
    2ff6:	1f 4f       	sbci	r17, 0xFF	; 255
    2ff8:	ce 01       	movw	r24, r28
    2ffa:	8d 56       	subi	r24, 0x6D	; 109
    2ffc:	9f 4f       	sbci	r25, 0xFF	; 255
    2ffe:	fc 01       	movw	r30, r24
    3000:	60 81       	ld	r22, Z
    3002:	71 81       	ldd	r23, Z+1	; 0x01
    3004:	82 81       	ldd	r24, Z+2	; 0x02
    3006:	93 81       	ldd	r25, Z+3	; 0x03
    3008:	0e 94 32 31 	call	0x6264	; 0x6264 <__fixunssfsi>
    300c:	dc 01       	movw	r26, r24
    300e:	cb 01       	movw	r24, r22
    3010:	f8 01       	movw	r30, r16
    3012:	91 83       	std	Z+1, r25	; 0x01
    3014:	80 83       	st	Z, r24
    3016:	ce 01       	movw	r24, r28
    3018:	85 56       	subi	r24, 0x65	; 101
    301a:	9f 4f       	sbci	r25, 0xFF	; 255
    301c:	9e 01       	movw	r18, r28
    301e:	29 56       	subi	r18, 0x69	; 105
    3020:	3f 4f       	sbci	r19, 0xFF	; 255
    3022:	f9 01       	movw	r30, r18
    3024:	20 81       	ld	r18, Z
    3026:	31 81       	ldd	r19, Z+1	; 0x01
    3028:	fc 01       	movw	r30, r24
    302a:	31 83       	std	Z+1, r19	; 0x01
    302c:	20 83       	st	Z, r18
    302e:	ce 01       	movw	r24, r28
    3030:	85 56       	subi	r24, 0x65	; 101
    3032:	9f 4f       	sbci	r25, 0xFF	; 255
    3034:	fc 01       	movw	r30, r24
    3036:	80 81       	ld	r24, Z
    3038:	91 81       	ldd	r25, Z+1	; 0x01
    303a:	01 97       	sbiw	r24, 0x01	; 1
    303c:	f1 f7       	brne	.-4      	; 0x303a <greenSide+0x1126>
    303e:	9e 01       	movw	r18, r28
    3040:	25 56       	subi	r18, 0x65	; 101
    3042:	3f 4f       	sbci	r19, 0xFF	; 255
    3044:	f9 01       	movw	r30, r18
    3046:	91 83       	std	Z+1, r25	; 0x01
    3048:	80 83       	st	Z, r24
    304a:	40 e0       	ldi	r20, 0x00	; 0
    304c:	50 e0       	ldi	r21, 0x00	; 0
    304e:	62 e3       	ldi	r22, 0x32	; 50
    3050:	8e ec       	ldi	r24, 0xCE	; 206
    3052:	9f ef       	ldi	r25, 0xFF	; 255
    3054:	0e 94 3a 22 	call	0x4474	; 0x4474 <moveOnDirection>
    3058:	40 e0       	ldi	r20, 0x00	; 0
    305a:	50 e0       	ldi	r21, 0x00	; 0
    305c:	62 e3       	ldi	r22, 0x32	; 50
    305e:	8d ed       	ldi	r24, 0xDD	; 221
    3060:	9f ef       	ldi	r25, 0xFF	; 255
    3062:	0e 94 07 29 	call	0x520e	; 0x520e <rotate>
    3066:	61 e0       	ldi	r22, 0x01	; 1
    3068:	81 e0       	ldi	r24, 0x01	; 1
    306a:	0e 94 6a 00 	call	0xd4	; 0xd4 <knockDownTheClapperboards>
    306e:	40 e0       	ldi	r20, 0x00	; 0
    3070:	50 e0       	ldi	r21, 0x00	; 0
    3072:	62 e3       	ldi	r22, 0x32	; 50
    3074:	83 e2       	ldi	r24, 0x23	; 35
    3076:	90 e0       	ldi	r25, 0x00	; 0
    3078:	0e 94 07 29 	call	0x520e	; 0x520e <rotate>
    307c:	0c 94 8e 20 	jmp	0x411c	; 0x411c <greenSide+0x2208>
    3080:	80 91 ec 02 	lds	r24, 0x02EC
    3084:	85 30       	cpi	r24, 0x05	; 5
    3086:	31 f4       	brne	.+12     	; 0x3094 <greenSide+0x1180>
    3088:	6f ef       	ldi	r22, 0xFF	; 255
    308a:	81 e0       	ldi	r24, 0x01	; 1
    308c:	0e 94 6a 00 	call	0xd4	; 0xd4 <knockDownTheClapperboards>
    3090:	0c 94 8e 20 	jmp	0x411c	; 0x411c <greenSide+0x2208>
    3094:	80 91 ec 02 	lds	r24, 0x02EC
    3098:	86 30       	cpi	r24, 0x06	; 6
    309a:	11 f4       	brne	.+4      	; 0x30a0 <greenSide+0x118c>
    309c:	0c 94 8e 20 	jmp	0x411c	; 0x411c <greenSide+0x2208>
    30a0:	80 91 ec 02 	lds	r24, 0x02EC
    30a4:	87 30       	cpi	r24, 0x07	; 7
    30a6:	09 f0       	breq	.+2      	; 0x30aa <greenSide+0x1196>
    30a8:	46 c3       	rjmp	.+1676   	; 0x3736 <greenSide+0x1822>
    30aa:	8f ef       	ldi	r24, 0xFF	; 255
    30ac:	0e 94 b6 05 	call	0xb6c	; 0xb6c <rightDiafram>
    30b0:	9e 01       	movw	r18, r28
    30b2:	23 56       	subi	r18, 0x63	; 99
    30b4:	3f 4f       	sbci	r19, 0xFF	; 255
    30b6:	80 e0       	ldi	r24, 0x00	; 0
    30b8:	90 e4       	ldi	r25, 0x40	; 64
    30ba:	ac e9       	ldi	r26, 0x9C	; 156
    30bc:	b5 e4       	ldi	r27, 0x45	; 69
    30be:	f9 01       	movw	r30, r18
    30c0:	80 83       	st	Z, r24
    30c2:	91 83       	std	Z+1, r25	; 0x01
    30c4:	a2 83       	std	Z+2, r26	; 0x02
    30c6:	b3 83       	std	Z+3, r27	; 0x03
    30c8:	8e 01       	movw	r16, r28
    30ca:	0f 55       	subi	r16, 0x5F	; 95
    30cc:	1f 4f       	sbci	r17, 0xFF	; 255
    30ce:	ce 01       	movw	r24, r28
    30d0:	83 56       	subi	r24, 0x63	; 99
    30d2:	9f 4f       	sbci	r25, 0xFF	; 255
    30d4:	20 e0       	ldi	r18, 0x00	; 0
    30d6:	30 e4       	ldi	r19, 0x40	; 64
    30d8:	4c e1       	ldi	r20, 0x1C	; 28
    30da:	55 e4       	ldi	r21, 0x45	; 69
    30dc:	fc 01       	movw	r30, r24
    30de:	60 81       	ld	r22, Z
    30e0:	71 81       	ldd	r23, Z+1	; 0x01
    30e2:	82 81       	ldd	r24, Z+2	; 0x02
    30e4:	93 81       	ldd	r25, Z+3	; 0x03
    30e6:	0e 94 52 32 	call	0x64a4	; 0x64a4 <__mulsf3>
    30ea:	dc 01       	movw	r26, r24
    30ec:	cb 01       	movw	r24, r22
    30ee:	f8 01       	movw	r30, r16
    30f0:	80 83       	st	Z, r24
    30f2:	91 83       	std	Z+1, r25	; 0x01
    30f4:	a2 83       	std	Z+2, r26	; 0x02
    30f6:	b3 83       	std	Z+3, r27	; 0x03
    30f8:	ce 01       	movw	r24, r28
    30fa:	8f 55       	subi	r24, 0x5F	; 95
    30fc:	9f 4f       	sbci	r25, 0xFF	; 255
    30fe:	20 e0       	ldi	r18, 0x00	; 0
    3100:	30 e0       	ldi	r19, 0x00	; 0
    3102:	40 e8       	ldi	r20, 0x80	; 128
    3104:	5f e3       	ldi	r21, 0x3F	; 63
    3106:	fc 01       	movw	r30, r24
    3108:	60 81       	ld	r22, Z
    310a:	71 81       	ldd	r23, Z+1	; 0x01
    310c:	82 81       	ldd	r24, Z+2	; 0x02
    310e:	93 81       	ldd	r25, Z+3	; 0x03
    3110:	0e 94 c6 30 	call	0x618c	; 0x618c <__cmpsf2>
    3114:	88 23       	and	r24, r24
    3116:	4c f4       	brge	.+18     	; 0x312a <greenSide+0x1216>
    3118:	ce 01       	movw	r24, r28
    311a:	8b 55       	subi	r24, 0x5B	; 91
    311c:	9f 4f       	sbci	r25, 0xFF	; 255
    311e:	21 e0       	ldi	r18, 0x01	; 1
    3120:	30 e0       	ldi	r19, 0x00	; 0
    3122:	fc 01       	movw	r30, r24
    3124:	31 83       	std	Z+1, r19	; 0x01
    3126:	20 83       	st	Z, r18
    3128:	6d c0       	rjmp	.+218    	; 0x3204 <greenSide+0x12f0>
    312a:	ce 01       	movw	r24, r28
    312c:	8f 55       	subi	r24, 0x5F	; 95
    312e:	9f 4f       	sbci	r25, 0xFF	; 255
    3130:	20 e0       	ldi	r18, 0x00	; 0
    3132:	3f ef       	ldi	r19, 0xFF	; 255
    3134:	4f e7       	ldi	r20, 0x7F	; 127
    3136:	57 e4       	ldi	r21, 0x47	; 71
    3138:	fc 01       	movw	r30, r24
    313a:	60 81       	ld	r22, Z
    313c:	71 81       	ldd	r23, Z+1	; 0x01
    313e:	82 81       	ldd	r24, Z+2	; 0x02
    3140:	93 81       	ldd	r25, Z+3	; 0x03
    3142:	0e 94 4e 32 	call	0x649c	; 0x649c <__gesf2>
    3146:	18 16       	cp	r1, r24
    3148:	0c f0       	brlt	.+2      	; 0x314c <greenSide+0x1238>
    314a:	4a c0       	rjmp	.+148    	; 0x31e0 <greenSide+0x12cc>
    314c:	ce 01       	movw	r24, r28
    314e:	83 56       	subi	r24, 0x63	; 99
    3150:	9f 4f       	sbci	r25, 0xFF	; 255
    3152:	20 e0       	ldi	r18, 0x00	; 0
    3154:	30 e0       	ldi	r19, 0x00	; 0
    3156:	40 e2       	ldi	r20, 0x20	; 32
    3158:	51 e4       	ldi	r21, 0x41	; 65
    315a:	fc 01       	movw	r30, r24
    315c:	60 81       	ld	r22, Z
    315e:	71 81       	ldd	r23, Z+1	; 0x01
    3160:	82 81       	ldd	r24, Z+2	; 0x02
    3162:	93 81       	ldd	r25, Z+3	; 0x03
    3164:	0e 94 52 32 	call	0x64a4	; 0x64a4 <__mulsf3>
    3168:	dc 01       	movw	r26, r24
    316a:	cb 01       	movw	r24, r22
    316c:	8e 01       	movw	r16, r28
    316e:	0b 55       	subi	r16, 0x5B	; 91
    3170:	1f 4f       	sbci	r17, 0xFF	; 255
    3172:	bc 01       	movw	r22, r24
    3174:	cd 01       	movw	r24, r26
    3176:	0e 94 32 31 	call	0x6264	; 0x6264 <__fixunssfsi>
    317a:	dc 01       	movw	r26, r24
    317c:	cb 01       	movw	r24, r22
    317e:	f8 01       	movw	r30, r16
    3180:	91 83       	std	Z+1, r25	; 0x01
    3182:	80 83       	st	Z, r24
    3184:	24 c0       	rjmp	.+72     	; 0x31ce <greenSide+0x12ba>
    3186:	ce 01       	movw	r24, r28
    3188:	89 55       	subi	r24, 0x59	; 89
    318a:	9f 4f       	sbci	r25, 0xFF	; 255
    318c:	2a ef       	ldi	r18, 0xFA	; 250
    318e:	30 e0       	ldi	r19, 0x00	; 0
    3190:	fc 01       	movw	r30, r24
    3192:	31 83       	std	Z+1, r19	; 0x01
    3194:	20 83       	st	Z, r18
    3196:	ce 01       	movw	r24, r28
    3198:	89 55       	subi	r24, 0x59	; 89
    319a:	9f 4f       	sbci	r25, 0xFF	; 255
    319c:	fc 01       	movw	r30, r24
    319e:	80 81       	ld	r24, Z
    31a0:	91 81       	ldd	r25, Z+1	; 0x01
    31a2:	01 97       	sbiw	r24, 0x01	; 1
    31a4:	f1 f7       	brne	.-4      	; 0x31a2 <greenSide+0x128e>
    31a6:	9e 01       	movw	r18, r28
    31a8:	29 55       	subi	r18, 0x59	; 89
    31aa:	3f 4f       	sbci	r19, 0xFF	; 255
    31ac:	f9 01       	movw	r30, r18
    31ae:	91 83       	std	Z+1, r25	; 0x01
    31b0:	80 83       	st	Z, r24
    31b2:	ce 01       	movw	r24, r28
    31b4:	8b 55       	subi	r24, 0x5B	; 91
    31b6:	9f 4f       	sbci	r25, 0xFF	; 255
    31b8:	9e 01       	movw	r18, r28
    31ba:	2b 55       	subi	r18, 0x5B	; 91
    31bc:	3f 4f       	sbci	r19, 0xFF	; 255
    31be:	f9 01       	movw	r30, r18
    31c0:	20 81       	ld	r18, Z
    31c2:	31 81       	ldd	r19, Z+1	; 0x01
    31c4:	21 50       	subi	r18, 0x01	; 1
    31c6:	31 09       	sbc	r19, r1
    31c8:	fc 01       	movw	r30, r24
    31ca:	31 83       	std	Z+1, r19	; 0x01
    31cc:	20 83       	st	Z, r18
    31ce:	ce 01       	movw	r24, r28
    31d0:	8b 55       	subi	r24, 0x5B	; 91
    31d2:	9f 4f       	sbci	r25, 0xFF	; 255
    31d4:	fc 01       	movw	r30, r24
    31d6:	80 81       	ld	r24, Z
    31d8:	91 81       	ldd	r25, Z+1	; 0x01
    31da:	00 97       	sbiw	r24, 0x00	; 0
    31dc:	a1 f6       	brne	.-88     	; 0x3186 <greenSide+0x1272>
    31de:	2c c0       	rjmp	.+88     	; 0x3238 <greenSide+0x1324>
    31e0:	8e 01       	movw	r16, r28
    31e2:	0b 55       	subi	r16, 0x5B	; 91
    31e4:	1f 4f       	sbci	r17, 0xFF	; 255
    31e6:	ce 01       	movw	r24, r28
    31e8:	8f 55       	subi	r24, 0x5F	; 95
    31ea:	9f 4f       	sbci	r25, 0xFF	; 255
    31ec:	fc 01       	movw	r30, r24
    31ee:	60 81       	ld	r22, Z
    31f0:	71 81       	ldd	r23, Z+1	; 0x01
    31f2:	82 81       	ldd	r24, Z+2	; 0x02
    31f4:	93 81       	ldd	r25, Z+3	; 0x03
    31f6:	0e 94 32 31 	call	0x6264	; 0x6264 <__fixunssfsi>
    31fa:	dc 01       	movw	r26, r24
    31fc:	cb 01       	movw	r24, r22
    31fe:	f8 01       	movw	r30, r16
    3200:	91 83       	std	Z+1, r25	; 0x01
    3202:	80 83       	st	Z, r24
    3204:	ce 01       	movw	r24, r28
    3206:	87 55       	subi	r24, 0x57	; 87
    3208:	9f 4f       	sbci	r25, 0xFF	; 255
    320a:	9e 01       	movw	r18, r28
    320c:	2b 55       	subi	r18, 0x5B	; 91
    320e:	3f 4f       	sbci	r19, 0xFF	; 255
    3210:	f9 01       	movw	r30, r18
    3212:	20 81       	ld	r18, Z
    3214:	31 81       	ldd	r19, Z+1	; 0x01
    3216:	fc 01       	movw	r30, r24
    3218:	31 83       	std	Z+1, r19	; 0x01
    321a:	20 83       	st	Z, r18
    321c:	ce 01       	movw	r24, r28
    321e:	87 55       	subi	r24, 0x57	; 87
    3220:	9f 4f       	sbci	r25, 0xFF	; 255
    3222:	fc 01       	movw	r30, r24
    3224:	80 81       	ld	r24, Z
    3226:	91 81       	ldd	r25, Z+1	; 0x01
    3228:	01 97       	sbiw	r24, 0x01	; 1
    322a:	f1 f7       	brne	.-4      	; 0x3228 <greenSide+0x1314>
    322c:	9e 01       	movw	r18, r28
    322e:	27 55       	subi	r18, 0x57	; 87
    3230:	3f 4f       	sbci	r19, 0xFF	; 255
    3232:	f9 01       	movw	r30, r18
    3234:	91 83       	std	Z+1, r25	; 0x01
    3236:	80 83       	st	Z, r24
    3238:	40 e0       	ldi	r20, 0x00	; 0
    323a:	50 e0       	ldi	r21, 0x00	; 0
    323c:	66 e9       	ldi	r22, 0x96	; 150
    323e:	84 e2       	ldi	r24, 0x24	; 36
    3240:	9f ef       	ldi	r25, 0xFF	; 255
    3242:	0e 94 3a 22 	call	0x4474	; 0x4474 <moveOnDirection>
    3246:	6f ef       	ldi	r22, 0xFF	; 255
    3248:	81 e0       	ldi	r24, 0x01	; 1
    324a:	0e 94 dc 07 	call	0xfb8	; 0xfb8 <liftMove>
    324e:	4b ec       	ldi	r20, 0xCB	; 203
    3250:	5d e0       	ldi	r21, 0x0D	; 13
    3252:	62 e3       	ldi	r22, 0x32	; 50
    3254:	8a e5       	ldi	r24, 0x5A	; 90
    3256:	90 e0       	ldi	r25, 0x00	; 0
    3258:	0e 94 07 29 	call	0x520e	; 0x520e <rotate>
    325c:	9e 01       	movw	r18, r28
    325e:	25 55       	subi	r18, 0x55	; 85
    3260:	3f 4f       	sbci	r19, 0xFF	; 255
    3262:	80 e0       	ldi	r24, 0x00	; 0
    3264:	90 e0       	ldi	r25, 0x00	; 0
    3266:	a8 e4       	ldi	r26, 0x48	; 72
    3268:	b2 e4       	ldi	r27, 0x42	; 66
    326a:	f9 01       	movw	r30, r18
    326c:	80 83       	st	Z, r24
    326e:	91 83       	std	Z+1, r25	; 0x01
    3270:	a2 83       	std	Z+2, r26	; 0x02
    3272:	b3 83       	std	Z+3, r27	; 0x03
    3274:	8e 01       	movw	r16, r28
    3276:	01 55       	subi	r16, 0x51	; 81
    3278:	1f 4f       	sbci	r17, 0xFF	; 255
    327a:	ce 01       	movw	r24, r28
    327c:	85 55       	subi	r24, 0x55	; 85
    327e:	9f 4f       	sbci	r25, 0xFF	; 255
    3280:	20 e0       	ldi	r18, 0x00	; 0
    3282:	30 e4       	ldi	r19, 0x40	; 64
    3284:	4c e1       	ldi	r20, 0x1C	; 28
    3286:	55 e4       	ldi	r21, 0x45	; 69
    3288:	fc 01       	movw	r30, r24
    328a:	60 81       	ld	r22, Z
    328c:	71 81       	ldd	r23, Z+1	; 0x01
    328e:	82 81       	ldd	r24, Z+2	; 0x02
    3290:	93 81       	ldd	r25, Z+3	; 0x03
    3292:	0e 94 52 32 	call	0x64a4	; 0x64a4 <__mulsf3>
    3296:	dc 01       	movw	r26, r24
    3298:	cb 01       	movw	r24, r22
    329a:	f8 01       	movw	r30, r16
    329c:	80 83       	st	Z, r24
    329e:	91 83       	std	Z+1, r25	; 0x01
    32a0:	a2 83       	std	Z+2, r26	; 0x02
    32a2:	b3 83       	std	Z+3, r27	; 0x03
    32a4:	ce 01       	movw	r24, r28
    32a6:	81 55       	subi	r24, 0x51	; 81
    32a8:	9f 4f       	sbci	r25, 0xFF	; 255
    32aa:	20 e0       	ldi	r18, 0x00	; 0
    32ac:	30 e0       	ldi	r19, 0x00	; 0
    32ae:	40 e8       	ldi	r20, 0x80	; 128
    32b0:	5f e3       	ldi	r21, 0x3F	; 63
    32b2:	fc 01       	movw	r30, r24
    32b4:	60 81       	ld	r22, Z
    32b6:	71 81       	ldd	r23, Z+1	; 0x01
    32b8:	82 81       	ldd	r24, Z+2	; 0x02
    32ba:	93 81       	ldd	r25, Z+3	; 0x03
    32bc:	0e 94 c6 30 	call	0x618c	; 0x618c <__cmpsf2>
    32c0:	88 23       	and	r24, r24
    32c2:	4c f4       	brge	.+18     	; 0x32d6 <greenSide+0x13c2>
    32c4:	ce 01       	movw	r24, r28
    32c6:	8d 54       	subi	r24, 0x4D	; 77
    32c8:	9f 4f       	sbci	r25, 0xFF	; 255
    32ca:	21 e0       	ldi	r18, 0x01	; 1
    32cc:	30 e0       	ldi	r19, 0x00	; 0
    32ce:	fc 01       	movw	r30, r24
    32d0:	31 83       	std	Z+1, r19	; 0x01
    32d2:	20 83       	st	Z, r18
    32d4:	6d c0       	rjmp	.+218    	; 0x33b0 <greenSide+0x149c>
    32d6:	ce 01       	movw	r24, r28
    32d8:	81 55       	subi	r24, 0x51	; 81
    32da:	9f 4f       	sbci	r25, 0xFF	; 255
    32dc:	20 e0       	ldi	r18, 0x00	; 0
    32de:	3f ef       	ldi	r19, 0xFF	; 255
    32e0:	4f e7       	ldi	r20, 0x7F	; 127
    32e2:	57 e4       	ldi	r21, 0x47	; 71
    32e4:	fc 01       	movw	r30, r24
    32e6:	60 81       	ld	r22, Z
    32e8:	71 81       	ldd	r23, Z+1	; 0x01
    32ea:	82 81       	ldd	r24, Z+2	; 0x02
    32ec:	93 81       	ldd	r25, Z+3	; 0x03
    32ee:	0e 94 4e 32 	call	0x649c	; 0x649c <__gesf2>
    32f2:	18 16       	cp	r1, r24
    32f4:	0c f0       	brlt	.+2      	; 0x32f8 <greenSide+0x13e4>
    32f6:	4a c0       	rjmp	.+148    	; 0x338c <greenSide+0x1478>
    32f8:	ce 01       	movw	r24, r28
    32fa:	85 55       	subi	r24, 0x55	; 85
    32fc:	9f 4f       	sbci	r25, 0xFF	; 255
    32fe:	20 e0       	ldi	r18, 0x00	; 0
    3300:	30 e0       	ldi	r19, 0x00	; 0
    3302:	40 e2       	ldi	r20, 0x20	; 32
    3304:	51 e4       	ldi	r21, 0x41	; 65
    3306:	fc 01       	movw	r30, r24
    3308:	60 81       	ld	r22, Z
    330a:	71 81       	ldd	r23, Z+1	; 0x01
    330c:	82 81       	ldd	r24, Z+2	; 0x02
    330e:	93 81       	ldd	r25, Z+3	; 0x03
    3310:	0e 94 52 32 	call	0x64a4	; 0x64a4 <__mulsf3>
    3314:	dc 01       	movw	r26, r24
    3316:	cb 01       	movw	r24, r22
    3318:	8e 01       	movw	r16, r28
    331a:	0d 54       	subi	r16, 0x4D	; 77
    331c:	1f 4f       	sbci	r17, 0xFF	; 255
    331e:	bc 01       	movw	r22, r24
    3320:	cd 01       	movw	r24, r26
    3322:	0e 94 32 31 	call	0x6264	; 0x6264 <__fixunssfsi>
    3326:	dc 01       	movw	r26, r24
    3328:	cb 01       	movw	r24, r22
    332a:	f8 01       	movw	r30, r16
    332c:	91 83       	std	Z+1, r25	; 0x01
    332e:	80 83       	st	Z, r24
    3330:	24 c0       	rjmp	.+72     	; 0x337a <greenSide+0x1466>
    3332:	ce 01       	movw	r24, r28
    3334:	8b 54       	subi	r24, 0x4B	; 75
    3336:	9f 4f       	sbci	r25, 0xFF	; 255
    3338:	2a ef       	ldi	r18, 0xFA	; 250
    333a:	30 e0       	ldi	r19, 0x00	; 0
    333c:	fc 01       	movw	r30, r24
    333e:	31 83       	std	Z+1, r19	; 0x01
    3340:	20 83       	st	Z, r18
    3342:	ce 01       	movw	r24, r28
    3344:	8b 54       	subi	r24, 0x4B	; 75
    3346:	9f 4f       	sbci	r25, 0xFF	; 255
    3348:	fc 01       	movw	r30, r24
    334a:	80 81       	ld	r24, Z
    334c:	91 81       	ldd	r25, Z+1	; 0x01
    334e:	01 97       	sbiw	r24, 0x01	; 1
    3350:	f1 f7       	brne	.-4      	; 0x334e <greenSide+0x143a>
    3352:	9e 01       	movw	r18, r28
    3354:	2b 54       	subi	r18, 0x4B	; 75
    3356:	3f 4f       	sbci	r19, 0xFF	; 255
    3358:	f9 01       	movw	r30, r18
    335a:	91 83       	std	Z+1, r25	; 0x01
    335c:	80 83       	st	Z, r24
    335e:	ce 01       	movw	r24, r28
    3360:	8d 54       	subi	r24, 0x4D	; 77
    3362:	9f 4f       	sbci	r25, 0xFF	; 255
    3364:	9e 01       	movw	r18, r28
    3366:	2d 54       	subi	r18, 0x4D	; 77
    3368:	3f 4f       	sbci	r19, 0xFF	; 255
    336a:	f9 01       	movw	r30, r18
    336c:	20 81       	ld	r18, Z
    336e:	31 81       	ldd	r19, Z+1	; 0x01
    3370:	21 50       	subi	r18, 0x01	; 1
    3372:	31 09       	sbc	r19, r1
    3374:	fc 01       	movw	r30, r24
    3376:	31 83       	std	Z+1, r19	; 0x01
    3378:	20 83       	st	Z, r18
    337a:	ce 01       	movw	r24, r28
    337c:	8d 54       	subi	r24, 0x4D	; 77
    337e:	9f 4f       	sbci	r25, 0xFF	; 255
    3380:	fc 01       	movw	r30, r24
    3382:	80 81       	ld	r24, Z
    3384:	91 81       	ldd	r25, Z+1	; 0x01
    3386:	00 97       	sbiw	r24, 0x00	; 0
    3388:	a1 f6       	brne	.-88     	; 0x3332 <greenSide+0x141e>
    338a:	2c c0       	rjmp	.+88     	; 0x33e4 <greenSide+0x14d0>
    338c:	8e 01       	movw	r16, r28
    338e:	0d 54       	subi	r16, 0x4D	; 77
    3390:	1f 4f       	sbci	r17, 0xFF	; 255
    3392:	ce 01       	movw	r24, r28
    3394:	81 55       	subi	r24, 0x51	; 81
    3396:	9f 4f       	sbci	r25, 0xFF	; 255
    3398:	fc 01       	movw	r30, r24
    339a:	60 81       	ld	r22, Z
    339c:	71 81       	ldd	r23, Z+1	; 0x01
    339e:	82 81       	ldd	r24, Z+2	; 0x02
    33a0:	93 81       	ldd	r25, Z+3	; 0x03
    33a2:	0e 94 32 31 	call	0x6264	; 0x6264 <__fixunssfsi>
    33a6:	dc 01       	movw	r26, r24
    33a8:	cb 01       	movw	r24, r22
    33aa:	f8 01       	movw	r30, r16
    33ac:	91 83       	std	Z+1, r25	; 0x01
    33ae:	80 83       	st	Z, r24
    33b0:	ce 01       	movw	r24, r28
    33b2:	89 54       	subi	r24, 0x49	; 73
    33b4:	9f 4f       	sbci	r25, 0xFF	; 255
    33b6:	9e 01       	movw	r18, r28
    33b8:	2d 54       	subi	r18, 0x4D	; 77
    33ba:	3f 4f       	sbci	r19, 0xFF	; 255
    33bc:	f9 01       	movw	r30, r18
    33be:	20 81       	ld	r18, Z
    33c0:	31 81       	ldd	r19, Z+1	; 0x01
    33c2:	fc 01       	movw	r30, r24
    33c4:	31 83       	std	Z+1, r19	; 0x01
    33c6:	20 83       	st	Z, r18
    33c8:	ce 01       	movw	r24, r28
    33ca:	89 54       	subi	r24, 0x49	; 73
    33cc:	9f 4f       	sbci	r25, 0xFF	; 255
    33ce:	fc 01       	movw	r30, r24
    33d0:	80 81       	ld	r24, Z
    33d2:	91 81       	ldd	r25, Z+1	; 0x01
    33d4:	01 97       	sbiw	r24, 0x01	; 1
    33d6:	f1 f7       	brne	.-4      	; 0x33d4 <greenSide+0x14c0>
    33d8:	9e 01       	movw	r18, r28
    33da:	29 54       	subi	r18, 0x49	; 73
    33dc:	3f 4f       	sbci	r19, 0xFF	; 255
    33de:	f9 01       	movw	r30, r18
    33e0:	91 83       	std	Z+1, r25	; 0x01
    33e2:	80 83       	st	Z, r24
    33e4:	40 e0       	ldi	r20, 0x00	; 0
    33e6:	50 e0       	ldi	r21, 0x00	; 0
    33e8:	62 e3       	ldi	r22, 0x32	; 50
    33ea:	84 e6       	ldi	r24, 0x64	; 100
    33ec:	90 e0       	ldi	r25, 0x00	; 0
    33ee:	0e 94 3a 22 	call	0x4474	; 0x4474 <moveOnDirection>
    33f2:	9e 01       	movw	r18, r28
    33f4:	27 54       	subi	r18, 0x47	; 71
    33f6:	3f 4f       	sbci	r19, 0xFF	; 255
    33f8:	80 e0       	ldi	r24, 0x00	; 0
    33fa:	90 e0       	ldi	r25, 0x00	; 0
    33fc:	a8 ec       	ldi	r26, 0xC8	; 200
    33fe:	b2 e4       	ldi	r27, 0x42	; 66
    3400:	f9 01       	movw	r30, r18
    3402:	80 83       	st	Z, r24
    3404:	91 83       	std	Z+1, r25	; 0x01
    3406:	a2 83       	std	Z+2, r26	; 0x02
    3408:	b3 83       	std	Z+3, r27	; 0x03
    340a:	8e 01       	movw	r16, r28
    340c:	03 54       	subi	r16, 0x43	; 67
    340e:	1f 4f       	sbci	r17, 0xFF	; 255
    3410:	ce 01       	movw	r24, r28
    3412:	87 54       	subi	r24, 0x47	; 71
    3414:	9f 4f       	sbci	r25, 0xFF	; 255
    3416:	20 e0       	ldi	r18, 0x00	; 0
    3418:	30 e4       	ldi	r19, 0x40	; 64
    341a:	4c e1       	ldi	r20, 0x1C	; 28
    341c:	55 e4       	ldi	r21, 0x45	; 69
    341e:	fc 01       	movw	r30, r24
    3420:	60 81       	ld	r22, Z
    3422:	71 81       	ldd	r23, Z+1	; 0x01
    3424:	82 81       	ldd	r24, Z+2	; 0x02
    3426:	93 81       	ldd	r25, Z+3	; 0x03
    3428:	0e 94 52 32 	call	0x64a4	; 0x64a4 <__mulsf3>
    342c:	dc 01       	movw	r26, r24
    342e:	cb 01       	movw	r24, r22
    3430:	f8 01       	movw	r30, r16
    3432:	80 83       	st	Z, r24
    3434:	91 83       	std	Z+1, r25	; 0x01
    3436:	a2 83       	std	Z+2, r26	; 0x02
    3438:	b3 83       	std	Z+3, r27	; 0x03
    343a:	ce 01       	movw	r24, r28
    343c:	83 54       	subi	r24, 0x43	; 67
    343e:	9f 4f       	sbci	r25, 0xFF	; 255
    3440:	20 e0       	ldi	r18, 0x00	; 0
    3442:	30 e0       	ldi	r19, 0x00	; 0
    3444:	40 e8       	ldi	r20, 0x80	; 128
    3446:	5f e3       	ldi	r21, 0x3F	; 63
    3448:	fc 01       	movw	r30, r24
    344a:	60 81       	ld	r22, Z
    344c:	71 81       	ldd	r23, Z+1	; 0x01
    344e:	82 81       	ldd	r24, Z+2	; 0x02
    3450:	93 81       	ldd	r25, Z+3	; 0x03
    3452:	0e 94 c6 30 	call	0x618c	; 0x618c <__cmpsf2>
    3456:	88 23       	and	r24, r24
    3458:	4c f4       	brge	.+18     	; 0x346c <greenSide+0x1558>
    345a:	ce 01       	movw	r24, r28
    345c:	8f 53       	subi	r24, 0x3F	; 63
    345e:	9f 4f       	sbci	r25, 0xFF	; 255
    3460:	21 e0       	ldi	r18, 0x01	; 1
    3462:	30 e0       	ldi	r19, 0x00	; 0
    3464:	fc 01       	movw	r30, r24
    3466:	31 83       	std	Z+1, r19	; 0x01
    3468:	20 83       	st	Z, r18
    346a:	6d c0       	rjmp	.+218    	; 0x3546 <greenSide+0x1632>
    346c:	ce 01       	movw	r24, r28
    346e:	83 54       	subi	r24, 0x43	; 67
    3470:	9f 4f       	sbci	r25, 0xFF	; 255
    3472:	20 e0       	ldi	r18, 0x00	; 0
    3474:	3f ef       	ldi	r19, 0xFF	; 255
    3476:	4f e7       	ldi	r20, 0x7F	; 127
    3478:	57 e4       	ldi	r21, 0x47	; 71
    347a:	fc 01       	movw	r30, r24
    347c:	60 81       	ld	r22, Z
    347e:	71 81       	ldd	r23, Z+1	; 0x01
    3480:	82 81       	ldd	r24, Z+2	; 0x02
    3482:	93 81       	ldd	r25, Z+3	; 0x03
    3484:	0e 94 4e 32 	call	0x649c	; 0x649c <__gesf2>
    3488:	18 16       	cp	r1, r24
    348a:	0c f0       	brlt	.+2      	; 0x348e <greenSide+0x157a>
    348c:	4a c0       	rjmp	.+148    	; 0x3522 <greenSide+0x160e>
    348e:	ce 01       	movw	r24, r28
    3490:	87 54       	subi	r24, 0x47	; 71
    3492:	9f 4f       	sbci	r25, 0xFF	; 255
    3494:	20 e0       	ldi	r18, 0x00	; 0
    3496:	30 e0       	ldi	r19, 0x00	; 0
    3498:	40 e2       	ldi	r20, 0x20	; 32
    349a:	51 e4       	ldi	r21, 0x41	; 65
    349c:	fc 01       	movw	r30, r24
    349e:	60 81       	ld	r22, Z
    34a0:	71 81       	ldd	r23, Z+1	; 0x01
    34a2:	82 81       	ldd	r24, Z+2	; 0x02
    34a4:	93 81       	ldd	r25, Z+3	; 0x03
    34a6:	0e 94 52 32 	call	0x64a4	; 0x64a4 <__mulsf3>
    34aa:	dc 01       	movw	r26, r24
    34ac:	cb 01       	movw	r24, r22
    34ae:	8e 01       	movw	r16, r28
    34b0:	0f 53       	subi	r16, 0x3F	; 63
    34b2:	1f 4f       	sbci	r17, 0xFF	; 255
    34b4:	bc 01       	movw	r22, r24
    34b6:	cd 01       	movw	r24, r26
    34b8:	0e 94 32 31 	call	0x6264	; 0x6264 <__fixunssfsi>
    34bc:	dc 01       	movw	r26, r24
    34be:	cb 01       	movw	r24, r22
    34c0:	f8 01       	movw	r30, r16
    34c2:	91 83       	std	Z+1, r25	; 0x01
    34c4:	80 83       	st	Z, r24
    34c6:	24 c0       	rjmp	.+72     	; 0x3510 <greenSide+0x15fc>
    34c8:	ce 01       	movw	r24, r28
    34ca:	8d 53       	subi	r24, 0x3D	; 61
    34cc:	9f 4f       	sbci	r25, 0xFF	; 255
    34ce:	2a ef       	ldi	r18, 0xFA	; 250
    34d0:	30 e0       	ldi	r19, 0x00	; 0
    34d2:	fc 01       	movw	r30, r24
    34d4:	31 83       	std	Z+1, r19	; 0x01
    34d6:	20 83       	st	Z, r18
    34d8:	ce 01       	movw	r24, r28
    34da:	8d 53       	subi	r24, 0x3D	; 61
    34dc:	9f 4f       	sbci	r25, 0xFF	; 255
    34de:	fc 01       	movw	r30, r24
    34e0:	80 81       	ld	r24, Z
    34e2:	91 81       	ldd	r25, Z+1	; 0x01
    34e4:	01 97       	sbiw	r24, 0x01	; 1
    34e6:	f1 f7       	brne	.-4      	; 0x34e4 <greenSide+0x15d0>
    34e8:	9e 01       	movw	r18, r28
    34ea:	2d 53       	subi	r18, 0x3D	; 61
    34ec:	3f 4f       	sbci	r19, 0xFF	; 255
    34ee:	f9 01       	movw	r30, r18
    34f0:	91 83       	std	Z+1, r25	; 0x01
    34f2:	80 83       	st	Z, r24
    34f4:	ce 01       	movw	r24, r28
    34f6:	8f 53       	subi	r24, 0x3F	; 63
    34f8:	9f 4f       	sbci	r25, 0xFF	; 255
    34fa:	9e 01       	movw	r18, r28
    34fc:	2f 53       	subi	r18, 0x3F	; 63
    34fe:	3f 4f       	sbci	r19, 0xFF	; 255
    3500:	f9 01       	movw	r30, r18
    3502:	20 81       	ld	r18, Z
    3504:	31 81       	ldd	r19, Z+1	; 0x01
    3506:	21 50       	subi	r18, 0x01	; 1
    3508:	31 09       	sbc	r19, r1
    350a:	fc 01       	movw	r30, r24
    350c:	31 83       	std	Z+1, r19	; 0x01
    350e:	20 83       	st	Z, r18
    3510:	ce 01       	movw	r24, r28
    3512:	8f 53       	subi	r24, 0x3F	; 63
    3514:	9f 4f       	sbci	r25, 0xFF	; 255
    3516:	fc 01       	movw	r30, r24
    3518:	80 81       	ld	r24, Z
    351a:	91 81       	ldd	r25, Z+1	; 0x01
    351c:	00 97       	sbiw	r24, 0x00	; 0
    351e:	a1 f6       	brne	.-88     	; 0x34c8 <greenSide+0x15b4>
    3520:	2c c0       	rjmp	.+88     	; 0x357a <greenSide+0x1666>
    3522:	8e 01       	movw	r16, r28
    3524:	0f 53       	subi	r16, 0x3F	; 63
    3526:	1f 4f       	sbci	r17, 0xFF	; 255
    3528:	ce 01       	movw	r24, r28
    352a:	83 54       	subi	r24, 0x43	; 67
    352c:	9f 4f       	sbci	r25, 0xFF	; 255
    352e:	fc 01       	movw	r30, r24
    3530:	60 81       	ld	r22, Z
    3532:	71 81       	ldd	r23, Z+1	; 0x01
    3534:	82 81       	ldd	r24, Z+2	; 0x02
    3536:	93 81       	ldd	r25, Z+3	; 0x03
    3538:	0e 94 32 31 	call	0x6264	; 0x6264 <__fixunssfsi>
    353c:	dc 01       	movw	r26, r24
    353e:	cb 01       	movw	r24, r22
    3540:	f8 01       	movw	r30, r16
    3542:	91 83       	std	Z+1, r25	; 0x01
    3544:	80 83       	st	Z, r24
    3546:	ce 01       	movw	r24, r28
    3548:	8b 53       	subi	r24, 0x3B	; 59
    354a:	9f 4f       	sbci	r25, 0xFF	; 255
    354c:	9e 01       	movw	r18, r28
    354e:	2f 53       	subi	r18, 0x3F	; 63
    3550:	3f 4f       	sbci	r19, 0xFF	; 255
    3552:	f9 01       	movw	r30, r18
    3554:	20 81       	ld	r18, Z
    3556:	31 81       	ldd	r19, Z+1	; 0x01
    3558:	fc 01       	movw	r30, r24
    355a:	31 83       	std	Z+1, r19	; 0x01
    355c:	20 83       	st	Z, r18
    355e:	ce 01       	movw	r24, r28
    3560:	8b 53       	subi	r24, 0x3B	; 59
    3562:	9f 4f       	sbci	r25, 0xFF	; 255
    3564:	fc 01       	movw	r30, r24
    3566:	80 81       	ld	r24, Z
    3568:	91 81       	ldd	r25, Z+1	; 0x01
    356a:	01 97       	sbiw	r24, 0x01	; 1
    356c:	f1 f7       	brne	.-4      	; 0x356a <greenSide+0x1656>
    356e:	9e 01       	movw	r18, r28
    3570:	2b 53       	subi	r18, 0x3B	; 59
    3572:	3f 4f       	sbci	r19, 0xFF	; 255
    3574:	f9 01       	movw	r30, r18
    3576:	91 83       	std	Z+1, r25	; 0x01
    3578:	80 83       	st	Z, r24
    357a:	61 e0       	ldi	r22, 0x01	; 1
    357c:	8f ef       	ldi	r24, 0xFF	; 255
    357e:	0e 94 8c 01 	call	0x318	; 0x318 <colectThePopcorn>
    3582:	9e 01       	movw	r18, r28
    3584:	29 53       	subi	r18, 0x39	; 57
    3586:	3f 4f       	sbci	r19, 0xFF	; 255
    3588:	80 e0       	ldi	r24, 0x00	; 0
    358a:	90 e0       	ldi	r25, 0x00	; 0
    358c:	a8 ec       	ldi	r26, 0xC8	; 200
    358e:	b2 e4       	ldi	r27, 0x42	; 66
    3590:	f9 01       	movw	r30, r18
    3592:	80 83       	st	Z, r24
    3594:	91 83       	std	Z+1, r25	; 0x01
    3596:	a2 83       	std	Z+2, r26	; 0x02
    3598:	b3 83       	std	Z+3, r27	; 0x03
    359a:	8e 01       	movw	r16, r28
    359c:	05 53       	subi	r16, 0x35	; 53
    359e:	1f 4f       	sbci	r17, 0xFF	; 255
    35a0:	ce 01       	movw	r24, r28
    35a2:	89 53       	subi	r24, 0x39	; 57
    35a4:	9f 4f       	sbci	r25, 0xFF	; 255
    35a6:	20 e0       	ldi	r18, 0x00	; 0
    35a8:	30 e4       	ldi	r19, 0x40	; 64
    35aa:	4c e1       	ldi	r20, 0x1C	; 28
    35ac:	55 e4       	ldi	r21, 0x45	; 69
    35ae:	fc 01       	movw	r30, r24
    35b0:	60 81       	ld	r22, Z
    35b2:	71 81       	ldd	r23, Z+1	; 0x01
    35b4:	82 81       	ldd	r24, Z+2	; 0x02
    35b6:	93 81       	ldd	r25, Z+3	; 0x03
    35b8:	0e 94 52 32 	call	0x64a4	; 0x64a4 <__mulsf3>
    35bc:	dc 01       	movw	r26, r24
    35be:	cb 01       	movw	r24, r22
    35c0:	f8 01       	movw	r30, r16
    35c2:	80 83       	st	Z, r24
    35c4:	91 83       	std	Z+1, r25	; 0x01
    35c6:	a2 83       	std	Z+2, r26	; 0x02
    35c8:	b3 83       	std	Z+3, r27	; 0x03
    35ca:	ce 01       	movw	r24, r28
    35cc:	85 53       	subi	r24, 0x35	; 53
    35ce:	9f 4f       	sbci	r25, 0xFF	; 255
    35d0:	20 e0       	ldi	r18, 0x00	; 0
    35d2:	30 e0       	ldi	r19, 0x00	; 0
    35d4:	40 e8       	ldi	r20, 0x80	; 128
    35d6:	5f e3       	ldi	r21, 0x3F	; 63
    35d8:	fc 01       	movw	r30, r24
    35da:	60 81       	ld	r22, Z
    35dc:	71 81       	ldd	r23, Z+1	; 0x01
    35de:	82 81       	ldd	r24, Z+2	; 0x02
    35e0:	93 81       	ldd	r25, Z+3	; 0x03
    35e2:	0e 94 c6 30 	call	0x618c	; 0x618c <__cmpsf2>
    35e6:	88 23       	and	r24, r24
    35e8:	4c f4       	brge	.+18     	; 0x35fc <greenSide+0x16e8>
    35ea:	ce 01       	movw	r24, r28
    35ec:	81 53       	subi	r24, 0x31	; 49
    35ee:	9f 4f       	sbci	r25, 0xFF	; 255
    35f0:	21 e0       	ldi	r18, 0x01	; 1
    35f2:	30 e0       	ldi	r19, 0x00	; 0
    35f4:	fc 01       	movw	r30, r24
    35f6:	31 83       	std	Z+1, r19	; 0x01
    35f8:	20 83       	st	Z, r18
    35fa:	6d c0       	rjmp	.+218    	; 0x36d6 <greenSide+0x17c2>
    35fc:	ce 01       	movw	r24, r28
    35fe:	85 53       	subi	r24, 0x35	; 53
    3600:	9f 4f       	sbci	r25, 0xFF	; 255
    3602:	20 e0       	ldi	r18, 0x00	; 0
    3604:	3f ef       	ldi	r19, 0xFF	; 255
    3606:	4f e7       	ldi	r20, 0x7F	; 127
    3608:	57 e4       	ldi	r21, 0x47	; 71
    360a:	fc 01       	movw	r30, r24
    360c:	60 81       	ld	r22, Z
    360e:	71 81       	ldd	r23, Z+1	; 0x01
    3610:	82 81       	ldd	r24, Z+2	; 0x02
    3612:	93 81       	ldd	r25, Z+3	; 0x03
    3614:	0e 94 4e 32 	call	0x649c	; 0x649c <__gesf2>
    3618:	18 16       	cp	r1, r24
    361a:	0c f0       	brlt	.+2      	; 0x361e <greenSide+0x170a>
    361c:	4a c0       	rjmp	.+148    	; 0x36b2 <greenSide+0x179e>
    361e:	ce 01       	movw	r24, r28
    3620:	89 53       	subi	r24, 0x39	; 57
    3622:	9f 4f       	sbci	r25, 0xFF	; 255
    3624:	20 e0       	ldi	r18, 0x00	; 0
    3626:	30 e0       	ldi	r19, 0x00	; 0
    3628:	40 e2       	ldi	r20, 0x20	; 32
    362a:	51 e4       	ldi	r21, 0x41	; 65
    362c:	fc 01       	movw	r30, r24
    362e:	60 81       	ld	r22, Z
    3630:	71 81       	ldd	r23, Z+1	; 0x01
    3632:	82 81       	ldd	r24, Z+2	; 0x02
    3634:	93 81       	ldd	r25, Z+3	; 0x03
    3636:	0e 94 52 32 	call	0x64a4	; 0x64a4 <__mulsf3>
    363a:	dc 01       	movw	r26, r24
    363c:	cb 01       	movw	r24, r22
    363e:	8e 01       	movw	r16, r28
    3640:	01 53       	subi	r16, 0x31	; 49
    3642:	1f 4f       	sbci	r17, 0xFF	; 255
    3644:	bc 01       	movw	r22, r24
    3646:	cd 01       	movw	r24, r26
    3648:	0e 94 32 31 	call	0x6264	; 0x6264 <__fixunssfsi>
    364c:	dc 01       	movw	r26, r24
    364e:	cb 01       	movw	r24, r22
    3650:	f8 01       	movw	r30, r16
    3652:	91 83       	std	Z+1, r25	; 0x01
    3654:	80 83       	st	Z, r24
    3656:	24 c0       	rjmp	.+72     	; 0x36a0 <greenSide+0x178c>
    3658:	ce 01       	movw	r24, r28
    365a:	8f 52       	subi	r24, 0x2F	; 47
    365c:	9f 4f       	sbci	r25, 0xFF	; 255
    365e:	2a ef       	ldi	r18, 0xFA	; 250
    3660:	30 e0       	ldi	r19, 0x00	; 0
    3662:	fc 01       	movw	r30, r24
    3664:	31 83       	std	Z+1, r19	; 0x01
    3666:	20 83       	st	Z, r18
    3668:	ce 01       	movw	r24, r28
    366a:	8f 52       	subi	r24, 0x2F	; 47
    366c:	9f 4f       	sbci	r25, 0xFF	; 255
    366e:	fc 01       	movw	r30, r24
    3670:	80 81       	ld	r24, Z
    3672:	91 81       	ldd	r25, Z+1	; 0x01
    3674:	01 97       	sbiw	r24, 0x01	; 1
    3676:	f1 f7       	brne	.-4      	; 0x3674 <greenSide+0x1760>
    3678:	9e 01       	movw	r18, r28
    367a:	2f 52       	subi	r18, 0x2F	; 47
    367c:	3f 4f       	sbci	r19, 0xFF	; 255
    367e:	f9 01       	movw	r30, r18
    3680:	91 83       	std	Z+1, r25	; 0x01
    3682:	80 83       	st	Z, r24
    3684:	ce 01       	movw	r24, r28
    3686:	81 53       	subi	r24, 0x31	; 49
    3688:	9f 4f       	sbci	r25, 0xFF	; 255
    368a:	9e 01       	movw	r18, r28
    368c:	21 53       	subi	r18, 0x31	; 49
    368e:	3f 4f       	sbci	r19, 0xFF	; 255
    3690:	f9 01       	movw	r30, r18
    3692:	20 81       	ld	r18, Z
    3694:	31 81       	ldd	r19, Z+1	; 0x01
    3696:	21 50       	subi	r18, 0x01	; 1
    3698:	31 09       	sbc	r19, r1
    369a:	fc 01       	movw	r30, r24
    369c:	31 83       	std	Z+1, r19	; 0x01
    369e:	20 83       	st	Z, r18
    36a0:	ce 01       	movw	r24, r28
    36a2:	81 53       	subi	r24, 0x31	; 49
    36a4:	9f 4f       	sbci	r25, 0xFF	; 255
    36a6:	fc 01       	movw	r30, r24
    36a8:	80 81       	ld	r24, Z
    36aa:	91 81       	ldd	r25, Z+1	; 0x01
    36ac:	00 97       	sbiw	r24, 0x00	; 0
    36ae:	a1 f6       	brne	.-88     	; 0x3658 <greenSide+0x1744>
    36b0:	2c c0       	rjmp	.+88     	; 0x370a <greenSide+0x17f6>
    36b2:	8e 01       	movw	r16, r28
    36b4:	01 53       	subi	r16, 0x31	; 49
    36b6:	1f 4f       	sbci	r17, 0xFF	; 255
    36b8:	ce 01       	movw	r24, r28
    36ba:	85 53       	subi	r24, 0x35	; 53
    36bc:	9f 4f       	sbci	r25, 0xFF	; 255
    36be:	fc 01       	movw	r30, r24
    36c0:	60 81       	ld	r22, Z
    36c2:	71 81       	ldd	r23, Z+1	; 0x01
    36c4:	82 81       	ldd	r24, Z+2	; 0x02
    36c6:	93 81       	ldd	r25, Z+3	; 0x03
    36c8:	0e 94 32 31 	call	0x6264	; 0x6264 <__fixunssfsi>
    36cc:	dc 01       	movw	r26, r24
    36ce:	cb 01       	movw	r24, r22
    36d0:	f8 01       	movw	r30, r16
    36d2:	91 83       	std	Z+1, r25	; 0x01
    36d4:	80 83       	st	Z, r24
    36d6:	ce 01       	movw	r24, r28
    36d8:	8d 52       	subi	r24, 0x2D	; 45
    36da:	9f 4f       	sbci	r25, 0xFF	; 255
    36dc:	9e 01       	movw	r18, r28
    36de:	21 53       	subi	r18, 0x31	; 49
    36e0:	3f 4f       	sbci	r19, 0xFF	; 255
    36e2:	f9 01       	movw	r30, r18
    36e4:	20 81       	ld	r18, Z
    36e6:	31 81       	ldd	r19, Z+1	; 0x01
    36e8:	fc 01       	movw	r30, r24
    36ea:	31 83       	std	Z+1, r19	; 0x01
    36ec:	20 83       	st	Z, r18
    36ee:	ce 01       	movw	r24, r28
    36f0:	8d 52       	subi	r24, 0x2D	; 45
    36f2:	9f 4f       	sbci	r25, 0xFF	; 255
    36f4:	fc 01       	movw	r30, r24
    36f6:	80 81       	ld	r24, Z
    36f8:	91 81       	ldd	r25, Z+1	; 0x01
    36fa:	01 97       	sbiw	r24, 0x01	; 1
    36fc:	f1 f7       	brne	.-4      	; 0x36fa <greenSide+0x17e6>
    36fe:	9e 01       	movw	r18, r28
    3700:	2d 52       	subi	r18, 0x2D	; 45
    3702:	3f 4f       	sbci	r19, 0xFF	; 255
    3704:	f9 01       	movw	r30, r18
    3706:	91 83       	std	Z+1, r25	; 0x01
    3708:	80 83       	st	Z, r24
    370a:	40 e0       	ldi	r20, 0x00	; 0
    370c:	50 e0       	ldi	r21, 0x00	; 0
    370e:	66 e9       	ldi	r22, 0x96	; 150
    3710:	8a e1       	ldi	r24, 0x1A	; 26
    3712:	9f ef       	ldi	r25, 0xFF	; 255
    3714:	af d6       	rcall	.+3422   	; 0x4474 <moveOnDirection>
    3716:	62 e0       	ldi	r22, 0x02	; 2
    3718:	8f ef       	ldi	r24, 0xFF	; 255
    371a:	0e 94 8c 01 	call	0x318	; 0x318 <colectThePopcorn>
    371e:	6f ef       	ldi	r22, 0xFF	; 255
    3720:	81 e0       	ldi	r24, 0x01	; 1
    3722:	0e 94 dc 07 	call	0xfb8	; 0xfb8 <liftMove>
    3726:	40 e0       	ldi	r20, 0x00	; 0
    3728:	50 e0       	ldi	r21, 0x00	; 0
    372a:	66 e9       	ldi	r22, 0x96	; 150
    372c:	8c e4       	ldi	r24, 0x4C	; 76
    372e:	9f ef       	ldi	r25, 0xFF	; 255
    3730:	0e 94 07 29 	call	0x520e	; 0x520e <rotate>
    3734:	f3 c4       	rjmp	.+2534   	; 0x411c <greenSide+0x2208>
    3736:	80 91 ec 02 	lds	r24, 0x02EC
    373a:	88 30       	cpi	r24, 0x08	; 8
    373c:	09 f0       	breq	.+2      	; 0x3740 <greenSide+0x182c>
    373e:	2c c3       	rjmp	.+1624   	; 0x3d98 <greenSide+0x1e84>
    3740:	6f ef       	ldi	r22, 0xFF	; 255
    3742:	8f ef       	ldi	r24, 0xFF	; 255
    3744:	0e 94 dc 07 	call	0xfb8	; 0xfb8 <liftMove>
    3748:	9e 01       	movw	r18, r28
    374a:	2b 52       	subi	r18, 0x2B	; 43
    374c:	3f 4f       	sbci	r19, 0xFF	; 255
    374e:	80 e0       	ldi	r24, 0x00	; 0
    3750:	90 e0       	ldi	r25, 0x00	; 0
    3752:	aa ef       	ldi	r26, 0xFA	; 250
    3754:	b3 e4       	ldi	r27, 0x43	; 67
    3756:	f9 01       	movw	r30, r18
    3758:	80 83       	st	Z, r24
    375a:	91 83       	std	Z+1, r25	; 0x01
    375c:	a2 83       	std	Z+2, r26	; 0x02
    375e:	b3 83       	std	Z+3, r27	; 0x03
    3760:	8e 01       	movw	r16, r28
    3762:	07 52       	subi	r16, 0x27	; 39
    3764:	1f 4f       	sbci	r17, 0xFF	; 255
    3766:	ce 01       	movw	r24, r28
    3768:	8b 52       	subi	r24, 0x2B	; 43
    376a:	9f 4f       	sbci	r25, 0xFF	; 255
    376c:	20 e0       	ldi	r18, 0x00	; 0
    376e:	30 e4       	ldi	r19, 0x40	; 64
    3770:	4c e1       	ldi	r20, 0x1C	; 28
    3772:	55 e4       	ldi	r21, 0x45	; 69
    3774:	fc 01       	movw	r30, r24
    3776:	60 81       	ld	r22, Z
    3778:	71 81       	ldd	r23, Z+1	; 0x01
    377a:	82 81       	ldd	r24, Z+2	; 0x02
    377c:	93 81       	ldd	r25, Z+3	; 0x03
    377e:	0e 94 52 32 	call	0x64a4	; 0x64a4 <__mulsf3>
    3782:	dc 01       	movw	r26, r24
    3784:	cb 01       	movw	r24, r22
    3786:	f8 01       	movw	r30, r16
    3788:	80 83       	st	Z, r24
    378a:	91 83       	std	Z+1, r25	; 0x01
    378c:	a2 83       	std	Z+2, r26	; 0x02
    378e:	b3 83       	std	Z+3, r27	; 0x03
    3790:	ce 01       	movw	r24, r28
    3792:	87 52       	subi	r24, 0x27	; 39
    3794:	9f 4f       	sbci	r25, 0xFF	; 255
    3796:	20 e0       	ldi	r18, 0x00	; 0
    3798:	30 e0       	ldi	r19, 0x00	; 0
    379a:	40 e8       	ldi	r20, 0x80	; 128
    379c:	5f e3       	ldi	r21, 0x3F	; 63
    379e:	fc 01       	movw	r30, r24
    37a0:	60 81       	ld	r22, Z
    37a2:	71 81       	ldd	r23, Z+1	; 0x01
    37a4:	82 81       	ldd	r24, Z+2	; 0x02
    37a6:	93 81       	ldd	r25, Z+3	; 0x03
    37a8:	0e 94 c6 30 	call	0x618c	; 0x618c <__cmpsf2>
    37ac:	88 23       	and	r24, r24
    37ae:	4c f4       	brge	.+18     	; 0x37c2 <greenSide+0x18ae>
    37b0:	ce 01       	movw	r24, r28
    37b2:	83 52       	subi	r24, 0x23	; 35
    37b4:	9f 4f       	sbci	r25, 0xFF	; 255
    37b6:	21 e0       	ldi	r18, 0x01	; 1
    37b8:	30 e0       	ldi	r19, 0x00	; 0
    37ba:	fc 01       	movw	r30, r24
    37bc:	31 83       	std	Z+1, r19	; 0x01
    37be:	20 83       	st	Z, r18
    37c0:	6d c0       	rjmp	.+218    	; 0x389c <greenSide+0x1988>
    37c2:	ce 01       	movw	r24, r28
    37c4:	87 52       	subi	r24, 0x27	; 39
    37c6:	9f 4f       	sbci	r25, 0xFF	; 255
    37c8:	20 e0       	ldi	r18, 0x00	; 0
    37ca:	3f ef       	ldi	r19, 0xFF	; 255
    37cc:	4f e7       	ldi	r20, 0x7F	; 127
    37ce:	57 e4       	ldi	r21, 0x47	; 71
    37d0:	fc 01       	movw	r30, r24
    37d2:	60 81       	ld	r22, Z
    37d4:	71 81       	ldd	r23, Z+1	; 0x01
    37d6:	82 81       	ldd	r24, Z+2	; 0x02
    37d8:	93 81       	ldd	r25, Z+3	; 0x03
    37da:	0e 94 4e 32 	call	0x649c	; 0x649c <__gesf2>
    37de:	18 16       	cp	r1, r24
    37e0:	0c f0       	brlt	.+2      	; 0x37e4 <greenSide+0x18d0>
    37e2:	4a c0       	rjmp	.+148    	; 0x3878 <greenSide+0x1964>
    37e4:	ce 01       	movw	r24, r28
    37e6:	8b 52       	subi	r24, 0x2B	; 43
    37e8:	9f 4f       	sbci	r25, 0xFF	; 255
    37ea:	20 e0       	ldi	r18, 0x00	; 0
    37ec:	30 e0       	ldi	r19, 0x00	; 0
    37ee:	40 e2       	ldi	r20, 0x20	; 32
    37f0:	51 e4       	ldi	r21, 0x41	; 65
    37f2:	fc 01       	movw	r30, r24
    37f4:	60 81       	ld	r22, Z
    37f6:	71 81       	ldd	r23, Z+1	; 0x01
    37f8:	82 81       	ldd	r24, Z+2	; 0x02
    37fa:	93 81       	ldd	r25, Z+3	; 0x03
    37fc:	0e 94 52 32 	call	0x64a4	; 0x64a4 <__mulsf3>
    3800:	dc 01       	movw	r26, r24
    3802:	cb 01       	movw	r24, r22
    3804:	8e 01       	movw	r16, r28
    3806:	03 52       	subi	r16, 0x23	; 35
    3808:	1f 4f       	sbci	r17, 0xFF	; 255
    380a:	bc 01       	movw	r22, r24
    380c:	cd 01       	movw	r24, r26
    380e:	0e 94 32 31 	call	0x6264	; 0x6264 <__fixunssfsi>
    3812:	dc 01       	movw	r26, r24
    3814:	cb 01       	movw	r24, r22
    3816:	f8 01       	movw	r30, r16
    3818:	91 83       	std	Z+1, r25	; 0x01
    381a:	80 83       	st	Z, r24
    381c:	24 c0       	rjmp	.+72     	; 0x3866 <greenSide+0x1952>
    381e:	ce 01       	movw	r24, r28
    3820:	81 52       	subi	r24, 0x21	; 33
    3822:	9f 4f       	sbci	r25, 0xFF	; 255
    3824:	2a ef       	ldi	r18, 0xFA	; 250
    3826:	30 e0       	ldi	r19, 0x00	; 0
    3828:	fc 01       	movw	r30, r24
    382a:	31 83       	std	Z+1, r19	; 0x01
    382c:	20 83       	st	Z, r18
    382e:	ce 01       	movw	r24, r28
    3830:	81 52       	subi	r24, 0x21	; 33
    3832:	9f 4f       	sbci	r25, 0xFF	; 255
    3834:	fc 01       	movw	r30, r24
    3836:	80 81       	ld	r24, Z
    3838:	91 81       	ldd	r25, Z+1	; 0x01
    383a:	01 97       	sbiw	r24, 0x01	; 1
    383c:	f1 f7       	brne	.-4      	; 0x383a <greenSide+0x1926>
    383e:	9e 01       	movw	r18, r28
    3840:	21 52       	subi	r18, 0x21	; 33
    3842:	3f 4f       	sbci	r19, 0xFF	; 255
    3844:	f9 01       	movw	r30, r18
    3846:	91 83       	std	Z+1, r25	; 0x01
    3848:	80 83       	st	Z, r24
    384a:	ce 01       	movw	r24, r28
    384c:	83 52       	subi	r24, 0x23	; 35
    384e:	9f 4f       	sbci	r25, 0xFF	; 255
    3850:	9e 01       	movw	r18, r28
    3852:	23 52       	subi	r18, 0x23	; 35
    3854:	3f 4f       	sbci	r19, 0xFF	; 255
    3856:	f9 01       	movw	r30, r18
    3858:	20 81       	ld	r18, Z
    385a:	31 81       	ldd	r19, Z+1	; 0x01
    385c:	21 50       	subi	r18, 0x01	; 1
    385e:	31 09       	sbc	r19, r1
    3860:	fc 01       	movw	r30, r24
    3862:	31 83       	std	Z+1, r19	; 0x01
    3864:	20 83       	st	Z, r18
    3866:	ce 01       	movw	r24, r28
    3868:	83 52       	subi	r24, 0x23	; 35
    386a:	9f 4f       	sbci	r25, 0xFF	; 255
    386c:	fc 01       	movw	r30, r24
    386e:	80 81       	ld	r24, Z
    3870:	91 81       	ldd	r25, Z+1	; 0x01
    3872:	00 97       	sbiw	r24, 0x00	; 0
    3874:	a1 f6       	brne	.-88     	; 0x381e <greenSide+0x190a>
    3876:	2c c0       	rjmp	.+88     	; 0x38d0 <greenSide+0x19bc>
    3878:	8e 01       	movw	r16, r28
    387a:	03 52       	subi	r16, 0x23	; 35
    387c:	1f 4f       	sbci	r17, 0xFF	; 255
    387e:	ce 01       	movw	r24, r28
    3880:	87 52       	subi	r24, 0x27	; 39
    3882:	9f 4f       	sbci	r25, 0xFF	; 255
    3884:	fc 01       	movw	r30, r24
    3886:	60 81       	ld	r22, Z
    3888:	71 81       	ldd	r23, Z+1	; 0x01
    388a:	82 81       	ldd	r24, Z+2	; 0x02
    388c:	93 81       	ldd	r25, Z+3	; 0x03
    388e:	0e 94 32 31 	call	0x6264	; 0x6264 <__fixunssfsi>
    3892:	dc 01       	movw	r26, r24
    3894:	cb 01       	movw	r24, r22
    3896:	f8 01       	movw	r30, r16
    3898:	91 83       	std	Z+1, r25	; 0x01
    389a:	80 83       	st	Z, r24
    389c:	ce 01       	movw	r24, r28
    389e:	8f 51       	subi	r24, 0x1F	; 31
    38a0:	9f 4f       	sbci	r25, 0xFF	; 255
    38a2:	9e 01       	movw	r18, r28
    38a4:	23 52       	subi	r18, 0x23	; 35
    38a6:	3f 4f       	sbci	r19, 0xFF	; 255
    38a8:	f9 01       	movw	r30, r18
    38aa:	20 81       	ld	r18, Z
    38ac:	31 81       	ldd	r19, Z+1	; 0x01
    38ae:	fc 01       	movw	r30, r24
    38b0:	31 83       	std	Z+1, r19	; 0x01
    38b2:	20 83       	st	Z, r18
    38b4:	ce 01       	movw	r24, r28
    38b6:	8f 51       	subi	r24, 0x1F	; 31
    38b8:	9f 4f       	sbci	r25, 0xFF	; 255
    38ba:	fc 01       	movw	r30, r24
    38bc:	80 81       	ld	r24, Z
    38be:	91 81       	ldd	r25, Z+1	; 0x01
    38c0:	01 97       	sbiw	r24, 0x01	; 1
    38c2:	f1 f7       	brne	.-4      	; 0x38c0 <greenSide+0x19ac>
    38c4:	9e 01       	movw	r18, r28
    38c6:	2f 51       	subi	r18, 0x1F	; 31
    38c8:	3f 4f       	sbci	r19, 0xFF	; 255
    38ca:	f9 01       	movw	r30, r18
    38cc:	91 83       	std	Z+1, r25	; 0x01
    38ce:	80 83       	st	Z, r24
    38d0:	6f ef       	ldi	r22, 0xFF	; 255
    38d2:	81 e0       	ldi	r24, 0x01	; 1
    38d4:	0e 94 dc 07 	call	0xfb8	; 0xfb8 <liftMove>
    38d8:	9e 01       	movw	r18, r28
    38da:	2d 51       	subi	r18, 0x1D	; 29
    38dc:	3f 4f       	sbci	r19, 0xFF	; 255
    38de:	80 e0       	ldi	r24, 0x00	; 0
    38e0:	90 e0       	ldi	r25, 0x00	; 0
    38e2:	aa ef       	ldi	r26, 0xFA	; 250
    38e4:	b3 e4       	ldi	r27, 0x43	; 67
    38e6:	f9 01       	movw	r30, r18
    38e8:	80 83       	st	Z, r24
    38ea:	91 83       	std	Z+1, r25	; 0x01
    38ec:	a2 83       	std	Z+2, r26	; 0x02
    38ee:	b3 83       	std	Z+3, r27	; 0x03
    38f0:	8e 01       	movw	r16, r28
    38f2:	09 51       	subi	r16, 0x19	; 25
    38f4:	1f 4f       	sbci	r17, 0xFF	; 255
    38f6:	ce 01       	movw	r24, r28
    38f8:	8d 51       	subi	r24, 0x1D	; 29
    38fa:	9f 4f       	sbci	r25, 0xFF	; 255
    38fc:	20 e0       	ldi	r18, 0x00	; 0
    38fe:	30 e4       	ldi	r19, 0x40	; 64
    3900:	4c e1       	ldi	r20, 0x1C	; 28
    3902:	55 e4       	ldi	r21, 0x45	; 69
    3904:	fc 01       	movw	r30, r24
    3906:	60 81       	ld	r22, Z
    3908:	71 81       	ldd	r23, Z+1	; 0x01
    390a:	82 81       	ldd	r24, Z+2	; 0x02
    390c:	93 81       	ldd	r25, Z+3	; 0x03
    390e:	0e 94 52 32 	call	0x64a4	; 0x64a4 <__mulsf3>
    3912:	dc 01       	movw	r26, r24
    3914:	cb 01       	movw	r24, r22
    3916:	f8 01       	movw	r30, r16
    3918:	80 83       	st	Z, r24
    391a:	91 83       	std	Z+1, r25	; 0x01
    391c:	a2 83       	std	Z+2, r26	; 0x02
    391e:	b3 83       	std	Z+3, r27	; 0x03
    3920:	ce 01       	movw	r24, r28
    3922:	89 51       	subi	r24, 0x19	; 25
    3924:	9f 4f       	sbci	r25, 0xFF	; 255
    3926:	20 e0       	ldi	r18, 0x00	; 0
    3928:	30 e0       	ldi	r19, 0x00	; 0
    392a:	40 e8       	ldi	r20, 0x80	; 128
    392c:	5f e3       	ldi	r21, 0x3F	; 63
    392e:	fc 01       	movw	r30, r24
    3930:	60 81       	ld	r22, Z
    3932:	71 81       	ldd	r23, Z+1	; 0x01
    3934:	82 81       	ldd	r24, Z+2	; 0x02
    3936:	93 81       	ldd	r25, Z+3	; 0x03
    3938:	0e 94 c6 30 	call	0x618c	; 0x618c <__cmpsf2>
    393c:	88 23       	and	r24, r24
    393e:	4c f4       	brge	.+18     	; 0x3952 <greenSide+0x1a3e>
    3940:	ce 01       	movw	r24, r28
    3942:	85 51       	subi	r24, 0x15	; 21
    3944:	9f 4f       	sbci	r25, 0xFF	; 255
    3946:	21 e0       	ldi	r18, 0x01	; 1
    3948:	30 e0       	ldi	r19, 0x00	; 0
    394a:	fc 01       	movw	r30, r24
    394c:	31 83       	std	Z+1, r19	; 0x01
    394e:	20 83       	st	Z, r18
    3950:	6d c0       	rjmp	.+218    	; 0x3a2c <greenSide+0x1b18>
    3952:	ce 01       	movw	r24, r28
    3954:	89 51       	subi	r24, 0x19	; 25
    3956:	9f 4f       	sbci	r25, 0xFF	; 255
    3958:	20 e0       	ldi	r18, 0x00	; 0
    395a:	3f ef       	ldi	r19, 0xFF	; 255
    395c:	4f e7       	ldi	r20, 0x7F	; 127
    395e:	57 e4       	ldi	r21, 0x47	; 71
    3960:	fc 01       	movw	r30, r24
    3962:	60 81       	ld	r22, Z
    3964:	71 81       	ldd	r23, Z+1	; 0x01
    3966:	82 81       	ldd	r24, Z+2	; 0x02
    3968:	93 81       	ldd	r25, Z+3	; 0x03
    396a:	0e 94 4e 32 	call	0x649c	; 0x649c <__gesf2>
    396e:	18 16       	cp	r1, r24
    3970:	0c f0       	brlt	.+2      	; 0x3974 <greenSide+0x1a60>
    3972:	4a c0       	rjmp	.+148    	; 0x3a08 <greenSide+0x1af4>
    3974:	ce 01       	movw	r24, r28
    3976:	8d 51       	subi	r24, 0x1D	; 29
    3978:	9f 4f       	sbci	r25, 0xFF	; 255
    397a:	20 e0       	ldi	r18, 0x00	; 0
    397c:	30 e0       	ldi	r19, 0x00	; 0
    397e:	40 e2       	ldi	r20, 0x20	; 32
    3980:	51 e4       	ldi	r21, 0x41	; 65
    3982:	fc 01       	movw	r30, r24
    3984:	60 81       	ld	r22, Z
    3986:	71 81       	ldd	r23, Z+1	; 0x01
    3988:	82 81       	ldd	r24, Z+2	; 0x02
    398a:	93 81       	ldd	r25, Z+3	; 0x03
    398c:	0e 94 52 32 	call	0x64a4	; 0x64a4 <__mulsf3>
    3990:	dc 01       	movw	r26, r24
    3992:	cb 01       	movw	r24, r22
    3994:	8e 01       	movw	r16, r28
    3996:	05 51       	subi	r16, 0x15	; 21
    3998:	1f 4f       	sbci	r17, 0xFF	; 255
    399a:	bc 01       	movw	r22, r24
    399c:	cd 01       	movw	r24, r26
    399e:	0e 94 32 31 	call	0x6264	; 0x6264 <__fixunssfsi>
    39a2:	dc 01       	movw	r26, r24
    39a4:	cb 01       	movw	r24, r22
    39a6:	f8 01       	movw	r30, r16
    39a8:	91 83       	std	Z+1, r25	; 0x01
    39aa:	80 83       	st	Z, r24
    39ac:	24 c0       	rjmp	.+72     	; 0x39f6 <greenSide+0x1ae2>
    39ae:	ce 01       	movw	r24, r28
    39b0:	83 51       	subi	r24, 0x13	; 19
    39b2:	9f 4f       	sbci	r25, 0xFF	; 255
    39b4:	2a ef       	ldi	r18, 0xFA	; 250
    39b6:	30 e0       	ldi	r19, 0x00	; 0
    39b8:	fc 01       	movw	r30, r24
    39ba:	31 83       	std	Z+1, r19	; 0x01
    39bc:	20 83       	st	Z, r18
    39be:	ce 01       	movw	r24, r28
    39c0:	83 51       	subi	r24, 0x13	; 19
    39c2:	9f 4f       	sbci	r25, 0xFF	; 255
    39c4:	fc 01       	movw	r30, r24
    39c6:	80 81       	ld	r24, Z
    39c8:	91 81       	ldd	r25, Z+1	; 0x01
    39ca:	01 97       	sbiw	r24, 0x01	; 1
    39cc:	f1 f7       	brne	.-4      	; 0x39ca <greenSide+0x1ab6>
    39ce:	9e 01       	movw	r18, r28
    39d0:	23 51       	subi	r18, 0x13	; 19
    39d2:	3f 4f       	sbci	r19, 0xFF	; 255
    39d4:	f9 01       	movw	r30, r18
    39d6:	91 83       	std	Z+1, r25	; 0x01
    39d8:	80 83       	st	Z, r24
    39da:	ce 01       	movw	r24, r28
    39dc:	85 51       	subi	r24, 0x15	; 21
    39de:	9f 4f       	sbci	r25, 0xFF	; 255
    39e0:	9e 01       	movw	r18, r28
    39e2:	25 51       	subi	r18, 0x15	; 21
    39e4:	3f 4f       	sbci	r19, 0xFF	; 255
    39e6:	f9 01       	movw	r30, r18
    39e8:	20 81       	ld	r18, Z
    39ea:	31 81       	ldd	r19, Z+1	; 0x01
    39ec:	21 50       	subi	r18, 0x01	; 1
    39ee:	31 09       	sbc	r19, r1
    39f0:	fc 01       	movw	r30, r24
    39f2:	31 83       	std	Z+1, r19	; 0x01
    39f4:	20 83       	st	Z, r18
    39f6:	ce 01       	movw	r24, r28
    39f8:	85 51       	subi	r24, 0x15	; 21
    39fa:	9f 4f       	sbci	r25, 0xFF	; 255
    39fc:	fc 01       	movw	r30, r24
    39fe:	80 81       	ld	r24, Z
    3a00:	91 81       	ldd	r25, Z+1	; 0x01
    3a02:	00 97       	sbiw	r24, 0x00	; 0
    3a04:	a1 f6       	brne	.-88     	; 0x39ae <greenSide+0x1a9a>
    3a06:	2c c0       	rjmp	.+88     	; 0x3a60 <greenSide+0x1b4c>
    3a08:	8e 01       	movw	r16, r28
    3a0a:	05 51       	subi	r16, 0x15	; 21
    3a0c:	1f 4f       	sbci	r17, 0xFF	; 255
    3a0e:	ce 01       	movw	r24, r28
    3a10:	89 51       	subi	r24, 0x19	; 25
    3a12:	9f 4f       	sbci	r25, 0xFF	; 255
    3a14:	fc 01       	movw	r30, r24
    3a16:	60 81       	ld	r22, Z
    3a18:	71 81       	ldd	r23, Z+1	; 0x01
    3a1a:	82 81       	ldd	r24, Z+2	; 0x02
    3a1c:	93 81       	ldd	r25, Z+3	; 0x03
    3a1e:	0e 94 32 31 	call	0x6264	; 0x6264 <__fixunssfsi>
    3a22:	dc 01       	movw	r26, r24
    3a24:	cb 01       	movw	r24, r22
    3a26:	f8 01       	movw	r30, r16
    3a28:	91 83       	std	Z+1, r25	; 0x01
    3a2a:	80 83       	st	Z, r24
    3a2c:	ce 01       	movw	r24, r28
    3a2e:	81 51       	subi	r24, 0x11	; 17
    3a30:	9f 4f       	sbci	r25, 0xFF	; 255
    3a32:	9e 01       	movw	r18, r28
    3a34:	25 51       	subi	r18, 0x15	; 21
    3a36:	3f 4f       	sbci	r19, 0xFF	; 255
    3a38:	f9 01       	movw	r30, r18
    3a3a:	20 81       	ld	r18, Z
    3a3c:	31 81       	ldd	r19, Z+1	; 0x01
    3a3e:	fc 01       	movw	r30, r24
    3a40:	31 83       	std	Z+1, r19	; 0x01
    3a42:	20 83       	st	Z, r18
    3a44:	ce 01       	movw	r24, r28
    3a46:	81 51       	subi	r24, 0x11	; 17
    3a48:	9f 4f       	sbci	r25, 0xFF	; 255
    3a4a:	fc 01       	movw	r30, r24
    3a4c:	80 81       	ld	r24, Z
    3a4e:	91 81       	ldd	r25, Z+1	; 0x01
    3a50:	01 97       	sbiw	r24, 0x01	; 1
    3a52:	f1 f7       	brne	.-4      	; 0x3a50 <greenSide+0x1b3c>
    3a54:	9e 01       	movw	r18, r28
    3a56:	21 51       	subi	r18, 0x11	; 17
    3a58:	3f 4f       	sbci	r19, 0xFF	; 255
    3a5a:	f9 01       	movw	r30, r18
    3a5c:	91 83       	std	Z+1, r25	; 0x01
    3a5e:	80 83       	st	Z, r24
    3a60:	40 e0       	ldi	r20, 0x00	; 0
    3a62:	50 e0       	ldi	r21, 0x00	; 0
    3a64:	62 e3       	ldi	r22, 0x32	; 50
    3a66:	8a e5       	ldi	r24, 0x5A	; 90
    3a68:	90 e0       	ldi	r25, 0x00	; 0
    3a6a:	04 d5       	rcall	.+2568   	; 0x4474 <moveOnDirection>
    3a6c:	6f ef       	ldi	r22, 0xFF	; 255
    3a6e:	8f ef       	ldi	r24, 0xFF	; 255
    3a70:	0e 94 dc 07 	call	0xfb8	; 0xfb8 <liftMove>
    3a74:	9e 01       	movw	r18, r28
    3a76:	2f 50       	subi	r18, 0x0F	; 15
    3a78:	3f 4f       	sbci	r19, 0xFF	; 255
    3a7a:	80 e0       	ldi	r24, 0x00	; 0
    3a7c:	90 e0       	ldi	r25, 0x00	; 0
    3a7e:	aa ef       	ldi	r26, 0xFA	; 250
    3a80:	b3 e4       	ldi	r27, 0x43	; 67
    3a82:	f9 01       	movw	r30, r18
    3a84:	80 83       	st	Z, r24
    3a86:	91 83       	std	Z+1, r25	; 0x01
    3a88:	a2 83       	std	Z+2, r26	; 0x02
    3a8a:	b3 83       	std	Z+3, r27	; 0x03
    3a8c:	8e 01       	movw	r16, r28
    3a8e:	0b 50       	subi	r16, 0x0B	; 11
    3a90:	1f 4f       	sbci	r17, 0xFF	; 255
    3a92:	ce 01       	movw	r24, r28
    3a94:	8f 50       	subi	r24, 0x0F	; 15
    3a96:	9f 4f       	sbci	r25, 0xFF	; 255
    3a98:	20 e0       	ldi	r18, 0x00	; 0
    3a9a:	30 e4       	ldi	r19, 0x40	; 64
    3a9c:	4c e1       	ldi	r20, 0x1C	; 28
    3a9e:	55 e4       	ldi	r21, 0x45	; 69
    3aa0:	fc 01       	movw	r30, r24
    3aa2:	60 81       	ld	r22, Z
    3aa4:	71 81       	ldd	r23, Z+1	; 0x01
    3aa6:	82 81       	ldd	r24, Z+2	; 0x02
    3aa8:	93 81       	ldd	r25, Z+3	; 0x03
    3aaa:	0e 94 52 32 	call	0x64a4	; 0x64a4 <__mulsf3>
    3aae:	dc 01       	movw	r26, r24
    3ab0:	cb 01       	movw	r24, r22
    3ab2:	f8 01       	movw	r30, r16
    3ab4:	80 83       	st	Z, r24
    3ab6:	91 83       	std	Z+1, r25	; 0x01
    3ab8:	a2 83       	std	Z+2, r26	; 0x02
    3aba:	b3 83       	std	Z+3, r27	; 0x03
    3abc:	ce 01       	movw	r24, r28
    3abe:	8b 50       	subi	r24, 0x0B	; 11
    3ac0:	9f 4f       	sbci	r25, 0xFF	; 255
    3ac2:	20 e0       	ldi	r18, 0x00	; 0
    3ac4:	30 e0       	ldi	r19, 0x00	; 0
    3ac6:	40 e8       	ldi	r20, 0x80	; 128
    3ac8:	5f e3       	ldi	r21, 0x3F	; 63
    3aca:	fc 01       	movw	r30, r24
    3acc:	60 81       	ld	r22, Z
    3ace:	71 81       	ldd	r23, Z+1	; 0x01
    3ad0:	82 81       	ldd	r24, Z+2	; 0x02
    3ad2:	93 81       	ldd	r25, Z+3	; 0x03
    3ad4:	0e 94 c6 30 	call	0x618c	; 0x618c <__cmpsf2>
    3ad8:	88 23       	and	r24, r24
    3ada:	4c f4       	brge	.+18     	; 0x3aee <greenSide+0x1bda>
    3adc:	ce 01       	movw	r24, r28
    3ade:	87 50       	subi	r24, 0x07	; 7
    3ae0:	9f 4f       	sbci	r25, 0xFF	; 255
    3ae2:	21 e0       	ldi	r18, 0x01	; 1
    3ae4:	30 e0       	ldi	r19, 0x00	; 0
    3ae6:	fc 01       	movw	r30, r24
    3ae8:	31 83       	std	Z+1, r19	; 0x01
    3aea:	20 83       	st	Z, r18
    3aec:	6d c0       	rjmp	.+218    	; 0x3bc8 <greenSide+0x1cb4>
    3aee:	ce 01       	movw	r24, r28
    3af0:	8b 50       	subi	r24, 0x0B	; 11
    3af2:	9f 4f       	sbci	r25, 0xFF	; 255
    3af4:	20 e0       	ldi	r18, 0x00	; 0
    3af6:	3f ef       	ldi	r19, 0xFF	; 255
    3af8:	4f e7       	ldi	r20, 0x7F	; 127
    3afa:	57 e4       	ldi	r21, 0x47	; 71
    3afc:	fc 01       	movw	r30, r24
    3afe:	60 81       	ld	r22, Z
    3b00:	71 81       	ldd	r23, Z+1	; 0x01
    3b02:	82 81       	ldd	r24, Z+2	; 0x02
    3b04:	93 81       	ldd	r25, Z+3	; 0x03
    3b06:	0e 94 4e 32 	call	0x649c	; 0x649c <__gesf2>
    3b0a:	18 16       	cp	r1, r24
    3b0c:	0c f0       	brlt	.+2      	; 0x3b10 <greenSide+0x1bfc>
    3b0e:	4a c0       	rjmp	.+148    	; 0x3ba4 <greenSide+0x1c90>
    3b10:	ce 01       	movw	r24, r28
    3b12:	8f 50       	subi	r24, 0x0F	; 15
    3b14:	9f 4f       	sbci	r25, 0xFF	; 255
    3b16:	20 e0       	ldi	r18, 0x00	; 0
    3b18:	30 e0       	ldi	r19, 0x00	; 0
    3b1a:	40 e2       	ldi	r20, 0x20	; 32
    3b1c:	51 e4       	ldi	r21, 0x41	; 65
    3b1e:	fc 01       	movw	r30, r24
    3b20:	60 81       	ld	r22, Z
    3b22:	71 81       	ldd	r23, Z+1	; 0x01
    3b24:	82 81       	ldd	r24, Z+2	; 0x02
    3b26:	93 81       	ldd	r25, Z+3	; 0x03
    3b28:	0e 94 52 32 	call	0x64a4	; 0x64a4 <__mulsf3>
    3b2c:	dc 01       	movw	r26, r24
    3b2e:	cb 01       	movw	r24, r22
    3b30:	8e 01       	movw	r16, r28
    3b32:	07 50       	subi	r16, 0x07	; 7
    3b34:	1f 4f       	sbci	r17, 0xFF	; 255
    3b36:	bc 01       	movw	r22, r24
    3b38:	cd 01       	movw	r24, r26
    3b3a:	0e 94 32 31 	call	0x6264	; 0x6264 <__fixunssfsi>
    3b3e:	dc 01       	movw	r26, r24
    3b40:	cb 01       	movw	r24, r22
    3b42:	f8 01       	movw	r30, r16
    3b44:	91 83       	std	Z+1, r25	; 0x01
    3b46:	80 83       	st	Z, r24
    3b48:	24 c0       	rjmp	.+72     	; 0x3b92 <greenSide+0x1c7e>
    3b4a:	ce 01       	movw	r24, r28
    3b4c:	85 50       	subi	r24, 0x05	; 5
    3b4e:	9f 4f       	sbci	r25, 0xFF	; 255
    3b50:	2a ef       	ldi	r18, 0xFA	; 250
    3b52:	30 e0       	ldi	r19, 0x00	; 0
    3b54:	fc 01       	movw	r30, r24
    3b56:	31 83       	std	Z+1, r19	; 0x01
    3b58:	20 83       	st	Z, r18
    3b5a:	ce 01       	movw	r24, r28
    3b5c:	85 50       	subi	r24, 0x05	; 5
    3b5e:	9f 4f       	sbci	r25, 0xFF	; 255
    3b60:	fc 01       	movw	r30, r24
    3b62:	80 81       	ld	r24, Z
    3b64:	91 81       	ldd	r25, Z+1	; 0x01
    3b66:	01 97       	sbiw	r24, 0x01	; 1
    3b68:	f1 f7       	brne	.-4      	; 0x3b66 <greenSide+0x1c52>
    3b6a:	9e 01       	movw	r18, r28
    3b6c:	25 50       	subi	r18, 0x05	; 5
    3b6e:	3f 4f       	sbci	r19, 0xFF	; 255
    3b70:	f9 01       	movw	r30, r18
    3b72:	91 83       	std	Z+1, r25	; 0x01
    3b74:	80 83       	st	Z, r24
    3b76:	ce 01       	movw	r24, r28
    3b78:	87 50       	subi	r24, 0x07	; 7
    3b7a:	9f 4f       	sbci	r25, 0xFF	; 255
    3b7c:	9e 01       	movw	r18, r28
    3b7e:	27 50       	subi	r18, 0x07	; 7
    3b80:	3f 4f       	sbci	r19, 0xFF	; 255
    3b82:	f9 01       	movw	r30, r18
    3b84:	20 81       	ld	r18, Z
    3b86:	31 81       	ldd	r19, Z+1	; 0x01
    3b88:	21 50       	subi	r18, 0x01	; 1
    3b8a:	31 09       	sbc	r19, r1
    3b8c:	fc 01       	movw	r30, r24
    3b8e:	31 83       	std	Z+1, r19	; 0x01
    3b90:	20 83       	st	Z, r18
    3b92:	ce 01       	movw	r24, r28
    3b94:	87 50       	subi	r24, 0x07	; 7
    3b96:	9f 4f       	sbci	r25, 0xFF	; 255
    3b98:	fc 01       	movw	r30, r24
    3b9a:	80 81       	ld	r24, Z
    3b9c:	91 81       	ldd	r25, Z+1	; 0x01
    3b9e:	00 97       	sbiw	r24, 0x00	; 0
    3ba0:	a1 f6       	brne	.-88     	; 0x3b4a <greenSide+0x1c36>
    3ba2:	2c c0       	rjmp	.+88     	; 0x3bfc <greenSide+0x1ce8>
    3ba4:	8e 01       	movw	r16, r28
    3ba6:	07 50       	subi	r16, 0x07	; 7
    3ba8:	1f 4f       	sbci	r17, 0xFF	; 255
    3baa:	ce 01       	movw	r24, r28
    3bac:	8b 50       	subi	r24, 0x0B	; 11
    3bae:	9f 4f       	sbci	r25, 0xFF	; 255
    3bb0:	fc 01       	movw	r30, r24
    3bb2:	60 81       	ld	r22, Z
    3bb4:	71 81       	ldd	r23, Z+1	; 0x01
    3bb6:	82 81       	ldd	r24, Z+2	; 0x02
    3bb8:	93 81       	ldd	r25, Z+3	; 0x03
    3bba:	0e 94 32 31 	call	0x6264	; 0x6264 <__fixunssfsi>
    3bbe:	dc 01       	movw	r26, r24
    3bc0:	cb 01       	movw	r24, r22
    3bc2:	f8 01       	movw	r30, r16
    3bc4:	91 83       	std	Z+1, r25	; 0x01
    3bc6:	80 83       	st	Z, r24
    3bc8:	ce 01       	movw	r24, r28
    3bca:	83 50       	subi	r24, 0x03	; 3
    3bcc:	9f 4f       	sbci	r25, 0xFF	; 255
    3bce:	9e 01       	movw	r18, r28
    3bd0:	27 50       	subi	r18, 0x07	; 7
    3bd2:	3f 4f       	sbci	r19, 0xFF	; 255
    3bd4:	f9 01       	movw	r30, r18
    3bd6:	20 81       	ld	r18, Z
    3bd8:	31 81       	ldd	r19, Z+1	; 0x01
    3bda:	fc 01       	movw	r30, r24
    3bdc:	31 83       	std	Z+1, r19	; 0x01
    3bde:	20 83       	st	Z, r18
    3be0:	ce 01       	movw	r24, r28
    3be2:	83 50       	subi	r24, 0x03	; 3
    3be4:	9f 4f       	sbci	r25, 0xFF	; 255
    3be6:	fc 01       	movw	r30, r24
    3be8:	80 81       	ld	r24, Z
    3bea:	91 81       	ldd	r25, Z+1	; 0x01
    3bec:	01 97       	sbiw	r24, 0x01	; 1
    3bee:	f1 f7       	brne	.-4      	; 0x3bec <greenSide+0x1cd8>
    3bf0:	9e 01       	movw	r18, r28
    3bf2:	23 50       	subi	r18, 0x03	; 3
    3bf4:	3f 4f       	sbci	r19, 0xFF	; 255
    3bf6:	f9 01       	movw	r30, r18
    3bf8:	91 83       	std	Z+1, r25	; 0x01
    3bfa:	80 83       	st	Z, r24
    3bfc:	81 e0       	ldi	r24, 0x01	; 1
    3bfe:	0e 94 a3 04 	call	0x946	; 0x946 <leftDiafram>
    3c02:	9e 01       	movw	r18, r28
    3c04:	21 50       	subi	r18, 0x01	; 1
    3c06:	3f 4f       	sbci	r19, 0xFF	; 255
    3c08:	80 e0       	ldi	r24, 0x00	; 0
    3c0a:	90 e0       	ldi	r25, 0x00	; 0
    3c0c:	aa ef       	ldi	r26, 0xFA	; 250
    3c0e:	b3 e4       	ldi	r27, 0x43	; 67
    3c10:	f9 01       	movw	r30, r18
    3c12:	80 83       	st	Z, r24
    3c14:	91 83       	std	Z+1, r25	; 0x01
    3c16:	a2 83       	std	Z+2, r26	; 0x02
    3c18:	b3 83       	std	Z+3, r27	; 0x03
    3c1a:	8e 01       	movw	r16, r28
    3c1c:	0d 5f       	subi	r16, 0xFD	; 253
    3c1e:	1e 4f       	sbci	r17, 0xFE	; 254
    3c20:	ce 01       	movw	r24, r28
    3c22:	81 50       	subi	r24, 0x01	; 1
    3c24:	9f 4f       	sbci	r25, 0xFF	; 255
    3c26:	20 e0       	ldi	r18, 0x00	; 0
    3c28:	30 e4       	ldi	r19, 0x40	; 64
    3c2a:	4c e1       	ldi	r20, 0x1C	; 28
    3c2c:	55 e4       	ldi	r21, 0x45	; 69
    3c2e:	fc 01       	movw	r30, r24
    3c30:	60 81       	ld	r22, Z
    3c32:	71 81       	ldd	r23, Z+1	; 0x01
    3c34:	82 81       	ldd	r24, Z+2	; 0x02
    3c36:	93 81       	ldd	r25, Z+3	; 0x03
    3c38:	0e 94 52 32 	call	0x64a4	; 0x64a4 <__mulsf3>
    3c3c:	dc 01       	movw	r26, r24
    3c3e:	cb 01       	movw	r24, r22
    3c40:	f8 01       	movw	r30, r16
    3c42:	80 83       	st	Z, r24
    3c44:	91 83       	std	Z+1, r25	; 0x01
    3c46:	a2 83       	std	Z+2, r26	; 0x02
    3c48:	b3 83       	std	Z+3, r27	; 0x03
    3c4a:	ce 01       	movw	r24, r28
    3c4c:	8d 5f       	subi	r24, 0xFD	; 253
    3c4e:	9e 4f       	sbci	r25, 0xFE	; 254
    3c50:	20 e0       	ldi	r18, 0x00	; 0
    3c52:	30 e0       	ldi	r19, 0x00	; 0
    3c54:	40 e8       	ldi	r20, 0x80	; 128
    3c56:	5f e3       	ldi	r21, 0x3F	; 63
    3c58:	fc 01       	movw	r30, r24
    3c5a:	60 81       	ld	r22, Z
    3c5c:	71 81       	ldd	r23, Z+1	; 0x01
    3c5e:	82 81       	ldd	r24, Z+2	; 0x02
    3c60:	93 81       	ldd	r25, Z+3	; 0x03
    3c62:	0e 94 c6 30 	call	0x618c	; 0x618c <__cmpsf2>
    3c66:	88 23       	and	r24, r24
    3c68:	4c f4       	brge	.+18     	; 0x3c7c <greenSide+0x1d68>
    3c6a:	ce 01       	movw	r24, r28
    3c6c:	89 5f       	subi	r24, 0xF9	; 249
    3c6e:	9e 4f       	sbci	r25, 0xFE	; 254
    3c70:	21 e0       	ldi	r18, 0x01	; 1
    3c72:	30 e0       	ldi	r19, 0x00	; 0
    3c74:	fc 01       	movw	r30, r24
    3c76:	31 83       	std	Z+1, r19	; 0x01
    3c78:	20 83       	st	Z, r18
    3c7a:	6d c0       	rjmp	.+218    	; 0x3d56 <greenSide+0x1e42>
    3c7c:	ce 01       	movw	r24, r28
    3c7e:	8d 5f       	subi	r24, 0xFD	; 253
    3c80:	9e 4f       	sbci	r25, 0xFE	; 254
    3c82:	20 e0       	ldi	r18, 0x00	; 0
    3c84:	3f ef       	ldi	r19, 0xFF	; 255
    3c86:	4f e7       	ldi	r20, 0x7F	; 127
    3c88:	57 e4       	ldi	r21, 0x47	; 71
    3c8a:	fc 01       	movw	r30, r24
    3c8c:	60 81       	ld	r22, Z
    3c8e:	71 81       	ldd	r23, Z+1	; 0x01
    3c90:	82 81       	ldd	r24, Z+2	; 0x02
    3c92:	93 81       	ldd	r25, Z+3	; 0x03
    3c94:	0e 94 4e 32 	call	0x649c	; 0x649c <__gesf2>
    3c98:	18 16       	cp	r1, r24
    3c9a:	0c f0       	brlt	.+2      	; 0x3c9e <greenSide+0x1d8a>
    3c9c:	4a c0       	rjmp	.+148    	; 0x3d32 <greenSide+0x1e1e>
    3c9e:	ce 01       	movw	r24, r28
    3ca0:	81 50       	subi	r24, 0x01	; 1
    3ca2:	9f 4f       	sbci	r25, 0xFF	; 255
    3ca4:	20 e0       	ldi	r18, 0x00	; 0
    3ca6:	30 e0       	ldi	r19, 0x00	; 0
    3ca8:	40 e2       	ldi	r20, 0x20	; 32
    3caa:	51 e4       	ldi	r21, 0x41	; 65
    3cac:	fc 01       	movw	r30, r24
    3cae:	60 81       	ld	r22, Z
    3cb0:	71 81       	ldd	r23, Z+1	; 0x01
    3cb2:	82 81       	ldd	r24, Z+2	; 0x02
    3cb4:	93 81       	ldd	r25, Z+3	; 0x03
    3cb6:	0e 94 52 32 	call	0x64a4	; 0x64a4 <__mulsf3>
    3cba:	dc 01       	movw	r26, r24
    3cbc:	cb 01       	movw	r24, r22
    3cbe:	8e 01       	movw	r16, r28
    3cc0:	09 5f       	subi	r16, 0xF9	; 249
    3cc2:	1e 4f       	sbci	r17, 0xFE	; 254
    3cc4:	bc 01       	movw	r22, r24
    3cc6:	cd 01       	movw	r24, r26
    3cc8:	0e 94 32 31 	call	0x6264	; 0x6264 <__fixunssfsi>
    3ccc:	dc 01       	movw	r26, r24
    3cce:	cb 01       	movw	r24, r22
    3cd0:	f8 01       	movw	r30, r16
    3cd2:	91 83       	std	Z+1, r25	; 0x01
    3cd4:	80 83       	st	Z, r24
    3cd6:	24 c0       	rjmp	.+72     	; 0x3d20 <greenSide+0x1e0c>
    3cd8:	ce 01       	movw	r24, r28
    3cda:	87 5f       	subi	r24, 0xF7	; 247
    3cdc:	9e 4f       	sbci	r25, 0xFE	; 254
    3cde:	2a ef       	ldi	r18, 0xFA	; 250
    3ce0:	30 e0       	ldi	r19, 0x00	; 0
    3ce2:	fc 01       	movw	r30, r24
    3ce4:	31 83       	std	Z+1, r19	; 0x01
    3ce6:	20 83       	st	Z, r18
    3ce8:	ce 01       	movw	r24, r28
    3cea:	87 5f       	subi	r24, 0xF7	; 247
    3cec:	9e 4f       	sbci	r25, 0xFE	; 254
    3cee:	fc 01       	movw	r30, r24
    3cf0:	80 81       	ld	r24, Z
    3cf2:	91 81       	ldd	r25, Z+1	; 0x01
    3cf4:	01 97       	sbiw	r24, 0x01	; 1
    3cf6:	f1 f7       	brne	.-4      	; 0x3cf4 <greenSide+0x1de0>
    3cf8:	9e 01       	movw	r18, r28
    3cfa:	27 5f       	subi	r18, 0xF7	; 247
    3cfc:	3e 4f       	sbci	r19, 0xFE	; 254
    3cfe:	f9 01       	movw	r30, r18
    3d00:	91 83       	std	Z+1, r25	; 0x01
    3d02:	80 83       	st	Z, r24
    3d04:	ce 01       	movw	r24, r28
    3d06:	89 5f       	subi	r24, 0xF9	; 249
    3d08:	9e 4f       	sbci	r25, 0xFE	; 254
    3d0a:	9e 01       	movw	r18, r28
    3d0c:	29 5f       	subi	r18, 0xF9	; 249
    3d0e:	3e 4f       	sbci	r19, 0xFE	; 254
    3d10:	f9 01       	movw	r30, r18
    3d12:	20 81       	ld	r18, Z
    3d14:	31 81       	ldd	r19, Z+1	; 0x01
    3d16:	21 50       	subi	r18, 0x01	; 1
    3d18:	31 09       	sbc	r19, r1
    3d1a:	fc 01       	movw	r30, r24
    3d1c:	31 83       	std	Z+1, r19	; 0x01
    3d1e:	20 83       	st	Z, r18
    3d20:	ce 01       	movw	r24, r28
    3d22:	89 5f       	subi	r24, 0xF9	; 249
    3d24:	9e 4f       	sbci	r25, 0xFE	; 254
    3d26:	fc 01       	movw	r30, r24
    3d28:	80 81       	ld	r24, Z
    3d2a:	91 81       	ldd	r25, Z+1	; 0x01
    3d2c:	00 97       	sbiw	r24, 0x00	; 0
    3d2e:	a1 f6       	brne	.-88     	; 0x3cd8 <greenSide+0x1dc4>
    3d30:	2c c0       	rjmp	.+88     	; 0x3d8a <greenSide+0x1e76>
    3d32:	8e 01       	movw	r16, r28
    3d34:	09 5f       	subi	r16, 0xF9	; 249
    3d36:	1e 4f       	sbci	r17, 0xFE	; 254
    3d38:	ce 01       	movw	r24, r28
    3d3a:	8d 5f       	subi	r24, 0xFD	; 253
    3d3c:	9e 4f       	sbci	r25, 0xFE	; 254
    3d3e:	fc 01       	movw	r30, r24
    3d40:	60 81       	ld	r22, Z
    3d42:	71 81       	ldd	r23, Z+1	; 0x01
    3d44:	82 81       	ldd	r24, Z+2	; 0x02
    3d46:	93 81       	ldd	r25, Z+3	; 0x03
    3d48:	0e 94 32 31 	call	0x6264	; 0x6264 <__fixunssfsi>
    3d4c:	dc 01       	movw	r26, r24
    3d4e:	cb 01       	movw	r24, r22
    3d50:	f8 01       	movw	r30, r16
    3d52:	91 83       	std	Z+1, r25	; 0x01
    3d54:	80 83       	st	Z, r24
    3d56:	ce 01       	movw	r24, r28
    3d58:	85 5f       	subi	r24, 0xF5	; 245
    3d5a:	9e 4f       	sbci	r25, 0xFE	; 254
    3d5c:	9e 01       	movw	r18, r28
    3d5e:	29 5f       	subi	r18, 0xF9	; 249
    3d60:	3e 4f       	sbci	r19, 0xFE	; 254
    3d62:	f9 01       	movw	r30, r18
    3d64:	20 81       	ld	r18, Z
    3d66:	31 81       	ldd	r19, Z+1	; 0x01
    3d68:	fc 01       	movw	r30, r24
    3d6a:	31 83       	std	Z+1, r19	; 0x01
    3d6c:	20 83       	st	Z, r18
    3d6e:	ce 01       	movw	r24, r28
    3d70:	85 5f       	subi	r24, 0xF5	; 245
    3d72:	9e 4f       	sbci	r25, 0xFE	; 254
    3d74:	fc 01       	movw	r30, r24
    3d76:	80 81       	ld	r24, Z
    3d78:	91 81       	ldd	r25, Z+1	; 0x01
    3d7a:	01 97       	sbiw	r24, 0x01	; 1
    3d7c:	f1 f7       	brne	.-4      	; 0x3d7a <greenSide+0x1e66>
    3d7e:	9e 01       	movw	r18, r28
    3d80:	25 5f       	subi	r18, 0xF5	; 245
    3d82:	3e 4f       	sbci	r19, 0xFE	; 254
    3d84:	f9 01       	movw	r30, r18
    3d86:	91 83       	std	Z+1, r25	; 0x01
    3d88:	80 83       	st	Z, r24
    3d8a:	40 e0       	ldi	r20, 0x00	; 0
    3d8c:	50 e0       	ldi	r21, 0x00	; 0
    3d8e:	66 e9       	ldi	r22, 0x96	; 150
    3d90:	8a ec       	ldi	r24, 0xCA	; 202
    3d92:	9e ef       	ldi	r25, 0xFE	; 254
    3d94:	6f d3       	rcall	.+1758   	; 0x4474 <moveOnDirection>
    3d96:	c2 c1       	rjmp	.+900    	; 0x411c <greenSide+0x2208>
    3d98:	80 91 ec 02 	lds	r24, 0x02EC
    3d9c:	89 30       	cpi	r24, 0x09	; 9
    3d9e:	09 f0       	breq	.+2      	; 0x3da2 <greenSide+0x1e8e>
    3da0:	dd c0       	rjmp	.+442    	; 0x3f5c <greenSide+0x2048>
    3da2:	6f ef       	ldi	r22, 0xFF	; 255
    3da4:	81 e0       	ldi	r24, 0x01	; 1
    3da6:	0e 94 dc 07 	call	0xfb8	; 0xfb8 <liftMove>
    3daa:	40 e0       	ldi	r20, 0x00	; 0
    3dac:	50 e0       	ldi	r21, 0x00	; 0
    3dae:	62 e3       	ldi	r22, 0x32	; 50
    3db0:	8f e0       	ldi	r24, 0x0F	; 15
    3db2:	90 e0       	ldi	r25, 0x00	; 0
    3db4:	0e 94 07 29 	call	0x520e	; 0x520e <rotate>
    3db8:	40 e0       	ldi	r20, 0x00	; 0
    3dba:	50 e0       	ldi	r21, 0x00	; 0
    3dbc:	62 e3       	ldi	r22, 0x32	; 50
    3dbe:	8a ea       	ldi	r24, 0xAA	; 170
    3dc0:	90 e0       	ldi	r25, 0x00	; 0
    3dc2:	58 d3       	rcall	.+1712   	; 0x4474 <moveOnDirection>
    3dc4:	6f ef       	ldi	r22, 0xFF	; 255
    3dc6:	8f ef       	ldi	r24, 0xFF	; 255
    3dc8:	0e 94 dc 07 	call	0xfb8	; 0xfb8 <liftMove>
    3dcc:	9e 01       	movw	r18, r28
    3dce:	23 5f       	subi	r18, 0xF3	; 243
    3dd0:	3e 4f       	sbci	r19, 0xFE	; 254
    3dd2:	80 e0       	ldi	r24, 0x00	; 0
    3dd4:	90 e0       	ldi	r25, 0x00	; 0
    3dd6:	aa ef       	ldi	r26, 0xFA	; 250
    3dd8:	b3 e4       	ldi	r27, 0x43	; 67
    3dda:	f9 01       	movw	r30, r18
    3ddc:	80 83       	st	Z, r24
    3dde:	91 83       	std	Z+1, r25	; 0x01
    3de0:	a2 83       	std	Z+2, r26	; 0x02
    3de2:	b3 83       	std	Z+3, r27	; 0x03
    3de4:	8e 01       	movw	r16, r28
    3de6:	0f 5e       	subi	r16, 0xEF	; 239
    3de8:	1e 4f       	sbci	r17, 0xFE	; 254
    3dea:	ce 01       	movw	r24, r28
    3dec:	83 5f       	subi	r24, 0xF3	; 243
    3dee:	9e 4f       	sbci	r25, 0xFE	; 254
    3df0:	20 e0       	ldi	r18, 0x00	; 0
    3df2:	30 e4       	ldi	r19, 0x40	; 64
    3df4:	4c e1       	ldi	r20, 0x1C	; 28
    3df6:	55 e4       	ldi	r21, 0x45	; 69
    3df8:	fc 01       	movw	r30, r24
    3dfa:	60 81       	ld	r22, Z
    3dfc:	71 81       	ldd	r23, Z+1	; 0x01
    3dfe:	82 81       	ldd	r24, Z+2	; 0x02
    3e00:	93 81       	ldd	r25, Z+3	; 0x03
    3e02:	0e 94 52 32 	call	0x64a4	; 0x64a4 <__mulsf3>
    3e06:	dc 01       	movw	r26, r24
    3e08:	cb 01       	movw	r24, r22
    3e0a:	f8 01       	movw	r30, r16
    3e0c:	80 83       	st	Z, r24
    3e0e:	91 83       	std	Z+1, r25	; 0x01
    3e10:	a2 83       	std	Z+2, r26	; 0x02
    3e12:	b3 83       	std	Z+3, r27	; 0x03
    3e14:	ce 01       	movw	r24, r28
    3e16:	8f 5e       	subi	r24, 0xEF	; 239
    3e18:	9e 4f       	sbci	r25, 0xFE	; 254
    3e1a:	20 e0       	ldi	r18, 0x00	; 0
    3e1c:	30 e0       	ldi	r19, 0x00	; 0
    3e1e:	40 e8       	ldi	r20, 0x80	; 128
    3e20:	5f e3       	ldi	r21, 0x3F	; 63
    3e22:	fc 01       	movw	r30, r24
    3e24:	60 81       	ld	r22, Z
    3e26:	71 81       	ldd	r23, Z+1	; 0x01
    3e28:	82 81       	ldd	r24, Z+2	; 0x02
    3e2a:	93 81       	ldd	r25, Z+3	; 0x03
    3e2c:	0e 94 c6 30 	call	0x618c	; 0x618c <__cmpsf2>
    3e30:	88 23       	and	r24, r24
    3e32:	4c f4       	brge	.+18     	; 0x3e46 <greenSide+0x1f32>
    3e34:	ce 01       	movw	r24, r28
    3e36:	8b 5e       	subi	r24, 0xEB	; 235
    3e38:	9e 4f       	sbci	r25, 0xFE	; 254
    3e3a:	21 e0       	ldi	r18, 0x01	; 1
    3e3c:	30 e0       	ldi	r19, 0x00	; 0
    3e3e:	fc 01       	movw	r30, r24
    3e40:	31 83       	std	Z+1, r19	; 0x01
    3e42:	20 83       	st	Z, r18
    3e44:	6d c0       	rjmp	.+218    	; 0x3f20 <greenSide+0x200c>
    3e46:	ce 01       	movw	r24, r28
    3e48:	8f 5e       	subi	r24, 0xEF	; 239
    3e4a:	9e 4f       	sbci	r25, 0xFE	; 254
    3e4c:	20 e0       	ldi	r18, 0x00	; 0
    3e4e:	3f ef       	ldi	r19, 0xFF	; 255
    3e50:	4f e7       	ldi	r20, 0x7F	; 127
    3e52:	57 e4       	ldi	r21, 0x47	; 71
    3e54:	fc 01       	movw	r30, r24
    3e56:	60 81       	ld	r22, Z
    3e58:	71 81       	ldd	r23, Z+1	; 0x01
    3e5a:	82 81       	ldd	r24, Z+2	; 0x02
    3e5c:	93 81       	ldd	r25, Z+3	; 0x03
    3e5e:	0e 94 4e 32 	call	0x649c	; 0x649c <__gesf2>
    3e62:	18 16       	cp	r1, r24
    3e64:	0c f0       	brlt	.+2      	; 0x3e68 <greenSide+0x1f54>
    3e66:	4a c0       	rjmp	.+148    	; 0x3efc <greenSide+0x1fe8>
    3e68:	ce 01       	movw	r24, r28
    3e6a:	83 5f       	subi	r24, 0xF3	; 243
    3e6c:	9e 4f       	sbci	r25, 0xFE	; 254
    3e6e:	20 e0       	ldi	r18, 0x00	; 0
    3e70:	30 e0       	ldi	r19, 0x00	; 0
    3e72:	40 e2       	ldi	r20, 0x20	; 32
    3e74:	51 e4       	ldi	r21, 0x41	; 65
    3e76:	fc 01       	movw	r30, r24
    3e78:	60 81       	ld	r22, Z
    3e7a:	71 81       	ldd	r23, Z+1	; 0x01
    3e7c:	82 81       	ldd	r24, Z+2	; 0x02
    3e7e:	93 81       	ldd	r25, Z+3	; 0x03
    3e80:	0e 94 52 32 	call	0x64a4	; 0x64a4 <__mulsf3>
    3e84:	dc 01       	movw	r26, r24
    3e86:	cb 01       	movw	r24, r22
    3e88:	8e 01       	movw	r16, r28
    3e8a:	0b 5e       	subi	r16, 0xEB	; 235
    3e8c:	1e 4f       	sbci	r17, 0xFE	; 254
    3e8e:	bc 01       	movw	r22, r24
    3e90:	cd 01       	movw	r24, r26
    3e92:	0e 94 32 31 	call	0x6264	; 0x6264 <__fixunssfsi>
    3e96:	dc 01       	movw	r26, r24
    3e98:	cb 01       	movw	r24, r22
    3e9a:	f8 01       	movw	r30, r16
    3e9c:	91 83       	std	Z+1, r25	; 0x01
    3e9e:	80 83       	st	Z, r24
    3ea0:	24 c0       	rjmp	.+72     	; 0x3eea <greenSide+0x1fd6>
    3ea2:	ce 01       	movw	r24, r28
    3ea4:	89 5e       	subi	r24, 0xE9	; 233
    3ea6:	9e 4f       	sbci	r25, 0xFE	; 254
    3ea8:	2a ef       	ldi	r18, 0xFA	; 250
    3eaa:	30 e0       	ldi	r19, 0x00	; 0
    3eac:	fc 01       	movw	r30, r24
    3eae:	31 83       	std	Z+1, r19	; 0x01
    3eb0:	20 83       	st	Z, r18
    3eb2:	ce 01       	movw	r24, r28
    3eb4:	89 5e       	subi	r24, 0xE9	; 233
    3eb6:	9e 4f       	sbci	r25, 0xFE	; 254
    3eb8:	fc 01       	movw	r30, r24
    3eba:	80 81       	ld	r24, Z
    3ebc:	91 81       	ldd	r25, Z+1	; 0x01
    3ebe:	01 97       	sbiw	r24, 0x01	; 1
    3ec0:	f1 f7       	brne	.-4      	; 0x3ebe <greenSide+0x1faa>
    3ec2:	9e 01       	movw	r18, r28
    3ec4:	29 5e       	subi	r18, 0xE9	; 233
    3ec6:	3e 4f       	sbci	r19, 0xFE	; 254
    3ec8:	f9 01       	movw	r30, r18
    3eca:	91 83       	std	Z+1, r25	; 0x01
    3ecc:	80 83       	st	Z, r24
    3ece:	ce 01       	movw	r24, r28
    3ed0:	8b 5e       	subi	r24, 0xEB	; 235
    3ed2:	9e 4f       	sbci	r25, 0xFE	; 254
    3ed4:	9e 01       	movw	r18, r28
    3ed6:	2b 5e       	subi	r18, 0xEB	; 235
    3ed8:	3e 4f       	sbci	r19, 0xFE	; 254
    3eda:	f9 01       	movw	r30, r18
    3edc:	20 81       	ld	r18, Z
    3ede:	31 81       	ldd	r19, Z+1	; 0x01
    3ee0:	21 50       	subi	r18, 0x01	; 1
    3ee2:	31 09       	sbc	r19, r1
    3ee4:	fc 01       	movw	r30, r24
    3ee6:	31 83       	std	Z+1, r19	; 0x01
    3ee8:	20 83       	st	Z, r18
    3eea:	ce 01       	movw	r24, r28
    3eec:	8b 5e       	subi	r24, 0xEB	; 235
    3eee:	9e 4f       	sbci	r25, 0xFE	; 254
    3ef0:	fc 01       	movw	r30, r24
    3ef2:	80 81       	ld	r24, Z
    3ef4:	91 81       	ldd	r25, Z+1	; 0x01
    3ef6:	00 97       	sbiw	r24, 0x00	; 0
    3ef8:	a1 f6       	brne	.-88     	; 0x3ea2 <greenSide+0x1f8e>
    3efa:	2c c0       	rjmp	.+88     	; 0x3f54 <greenSide+0x2040>
    3efc:	8e 01       	movw	r16, r28
    3efe:	0b 5e       	subi	r16, 0xEB	; 235
    3f00:	1e 4f       	sbci	r17, 0xFE	; 254
    3f02:	ce 01       	movw	r24, r28
    3f04:	8f 5e       	subi	r24, 0xEF	; 239
    3f06:	9e 4f       	sbci	r25, 0xFE	; 254
    3f08:	fc 01       	movw	r30, r24
    3f0a:	60 81       	ld	r22, Z
    3f0c:	71 81       	ldd	r23, Z+1	; 0x01
    3f0e:	82 81       	ldd	r24, Z+2	; 0x02
    3f10:	93 81       	ldd	r25, Z+3	; 0x03
    3f12:	0e 94 32 31 	call	0x6264	; 0x6264 <__fixunssfsi>
    3f16:	dc 01       	movw	r26, r24
    3f18:	cb 01       	movw	r24, r22
    3f1a:	f8 01       	movw	r30, r16
    3f1c:	91 83       	std	Z+1, r25	; 0x01
    3f1e:	80 83       	st	Z, r24
    3f20:	ce 01       	movw	r24, r28
    3f22:	87 5e       	subi	r24, 0xE7	; 231
    3f24:	9e 4f       	sbci	r25, 0xFE	; 254
    3f26:	9e 01       	movw	r18, r28
    3f28:	2b 5e       	subi	r18, 0xEB	; 235
    3f2a:	3e 4f       	sbci	r19, 0xFE	; 254
    3f2c:	f9 01       	movw	r30, r18
    3f2e:	20 81       	ld	r18, Z
    3f30:	31 81       	ldd	r19, Z+1	; 0x01
    3f32:	fc 01       	movw	r30, r24
    3f34:	31 83       	std	Z+1, r19	; 0x01
    3f36:	20 83       	st	Z, r18
    3f38:	ce 01       	movw	r24, r28
    3f3a:	87 5e       	subi	r24, 0xE7	; 231
    3f3c:	9e 4f       	sbci	r25, 0xFE	; 254
    3f3e:	fc 01       	movw	r30, r24
    3f40:	80 81       	ld	r24, Z
    3f42:	91 81       	ldd	r25, Z+1	; 0x01
    3f44:	01 97       	sbiw	r24, 0x01	; 1
    3f46:	f1 f7       	brne	.-4      	; 0x3f44 <greenSide+0x2030>
    3f48:	9e 01       	movw	r18, r28
    3f4a:	27 5e       	subi	r18, 0xE7	; 231
    3f4c:	3e 4f       	sbci	r19, 0xFE	; 254
    3f4e:	f9 01       	movw	r30, r18
    3f50:	91 83       	std	Z+1, r25	; 0x01
    3f52:	80 83       	st	Z, r24
    3f54:	81 e0       	ldi	r24, 0x01	; 1
    3f56:	0e 94 a3 04 	call	0x946	; 0x946 <leftDiafram>
    3f5a:	e0 c0       	rjmp	.+448    	; 0x411c <greenSide+0x2208>
    3f5c:	80 91 ec 02 	lds	r24, 0x02EC
    3f60:	8a 30       	cpi	r24, 0x0A	; 10
    3f62:	09 f0       	breq	.+2      	; 0x3f66 <greenSide+0x2052>
    3f64:	db c0       	rjmp	.+438    	; 0x411c <greenSide+0x2208>
    3f66:	40 e0       	ldi	r20, 0x00	; 0
    3f68:	50 e0       	ldi	r21, 0x00	; 0
    3f6a:	62 e3       	ldi	r22, 0x32	; 50
    3f6c:	84 e6       	ldi	r24, 0x64	; 100
    3f6e:	90 e0       	ldi	r25, 0x00	; 0
    3f70:	0e 94 07 29 	call	0x520e	; 0x520e <rotate>
    3f74:	40 e0       	ldi	r20, 0x00	; 0
    3f76:	50 e0       	ldi	r21, 0x00	; 0
    3f78:	62 e3       	ldi	r22, 0x32	; 50
    3f7a:	8c e7       	ldi	r24, 0x7C	; 124
    3f7c:	91 e0       	ldi	r25, 0x01	; 1
    3f7e:	7a d2       	rcall	.+1268   	; 0x4474 <moveOnDirection>
    3f80:	8f ef       	ldi	r24, 0xFF	; 255
    3f82:	0e 94 a3 04 	call	0x946	; 0x946 <leftDiafram>
    3f86:	9e 01       	movw	r18, r28
    3f88:	25 5e       	subi	r18, 0xE5	; 229
    3f8a:	3e 4f       	sbci	r19, 0xFE	; 254
    3f8c:	80 e0       	ldi	r24, 0x00	; 0
    3f8e:	90 e4       	ldi	r25, 0x40	; 64
    3f90:	ac e9       	ldi	r26, 0x9C	; 156
    3f92:	b5 e4       	ldi	r27, 0x45	; 69
    3f94:	f9 01       	movw	r30, r18
    3f96:	80 83       	st	Z, r24
    3f98:	91 83       	std	Z+1, r25	; 0x01
    3f9a:	a2 83       	std	Z+2, r26	; 0x02
    3f9c:	b3 83       	std	Z+3, r27	; 0x03
    3f9e:	8e 01       	movw	r16, r28
    3fa0:	01 5e       	subi	r16, 0xE1	; 225
    3fa2:	1e 4f       	sbci	r17, 0xFE	; 254
    3fa4:	ce 01       	movw	r24, r28
    3fa6:	85 5e       	subi	r24, 0xE5	; 229
    3fa8:	9e 4f       	sbci	r25, 0xFE	; 254
    3faa:	20 e0       	ldi	r18, 0x00	; 0
    3fac:	30 e4       	ldi	r19, 0x40	; 64
    3fae:	4c e1       	ldi	r20, 0x1C	; 28
    3fb0:	55 e4       	ldi	r21, 0x45	; 69
    3fb2:	fc 01       	movw	r30, r24
    3fb4:	60 81       	ld	r22, Z
    3fb6:	71 81       	ldd	r23, Z+1	; 0x01
    3fb8:	82 81       	ldd	r24, Z+2	; 0x02
    3fba:	93 81       	ldd	r25, Z+3	; 0x03
    3fbc:	0e 94 52 32 	call	0x64a4	; 0x64a4 <__mulsf3>
    3fc0:	dc 01       	movw	r26, r24
    3fc2:	cb 01       	movw	r24, r22
    3fc4:	f8 01       	movw	r30, r16
    3fc6:	80 83       	st	Z, r24
    3fc8:	91 83       	std	Z+1, r25	; 0x01
    3fca:	a2 83       	std	Z+2, r26	; 0x02
    3fcc:	b3 83       	std	Z+3, r27	; 0x03
    3fce:	ce 01       	movw	r24, r28
    3fd0:	81 5e       	subi	r24, 0xE1	; 225
    3fd2:	9e 4f       	sbci	r25, 0xFE	; 254
    3fd4:	20 e0       	ldi	r18, 0x00	; 0
    3fd6:	30 e0       	ldi	r19, 0x00	; 0
    3fd8:	40 e8       	ldi	r20, 0x80	; 128
    3fda:	5f e3       	ldi	r21, 0x3F	; 63
    3fdc:	fc 01       	movw	r30, r24
    3fde:	60 81       	ld	r22, Z
    3fe0:	71 81       	ldd	r23, Z+1	; 0x01
    3fe2:	82 81       	ldd	r24, Z+2	; 0x02
    3fe4:	93 81       	ldd	r25, Z+3	; 0x03
    3fe6:	0e 94 c6 30 	call	0x618c	; 0x618c <__cmpsf2>
    3fea:	88 23       	and	r24, r24
    3fec:	4c f4       	brge	.+18     	; 0x4000 <greenSide+0x20ec>
    3fee:	ce 01       	movw	r24, r28
    3ff0:	8d 5d       	subi	r24, 0xDD	; 221
    3ff2:	9e 4f       	sbci	r25, 0xFE	; 254
    3ff4:	21 e0       	ldi	r18, 0x01	; 1
    3ff6:	30 e0       	ldi	r19, 0x00	; 0
    3ff8:	fc 01       	movw	r30, r24
    3ffa:	31 83       	std	Z+1, r19	; 0x01
    3ffc:	20 83       	st	Z, r18
    3ffe:	6d c0       	rjmp	.+218    	; 0x40da <greenSide+0x21c6>
    4000:	ce 01       	movw	r24, r28
    4002:	81 5e       	subi	r24, 0xE1	; 225
    4004:	9e 4f       	sbci	r25, 0xFE	; 254
    4006:	20 e0       	ldi	r18, 0x00	; 0
    4008:	3f ef       	ldi	r19, 0xFF	; 255
    400a:	4f e7       	ldi	r20, 0x7F	; 127
    400c:	57 e4       	ldi	r21, 0x47	; 71
    400e:	fc 01       	movw	r30, r24
    4010:	60 81       	ld	r22, Z
    4012:	71 81       	ldd	r23, Z+1	; 0x01
    4014:	82 81       	ldd	r24, Z+2	; 0x02
    4016:	93 81       	ldd	r25, Z+3	; 0x03
    4018:	0e 94 4e 32 	call	0x649c	; 0x649c <__gesf2>
    401c:	18 16       	cp	r1, r24
    401e:	0c f0       	brlt	.+2      	; 0x4022 <greenSide+0x210e>
    4020:	4a c0       	rjmp	.+148    	; 0x40b6 <greenSide+0x21a2>
    4022:	ce 01       	movw	r24, r28
    4024:	85 5e       	subi	r24, 0xE5	; 229
    4026:	9e 4f       	sbci	r25, 0xFE	; 254
    4028:	20 e0       	ldi	r18, 0x00	; 0
    402a:	30 e0       	ldi	r19, 0x00	; 0
    402c:	40 e2       	ldi	r20, 0x20	; 32
    402e:	51 e4       	ldi	r21, 0x41	; 65
    4030:	fc 01       	movw	r30, r24
    4032:	60 81       	ld	r22, Z
    4034:	71 81       	ldd	r23, Z+1	; 0x01
    4036:	82 81       	ldd	r24, Z+2	; 0x02
    4038:	93 81       	ldd	r25, Z+3	; 0x03
    403a:	0e 94 52 32 	call	0x64a4	; 0x64a4 <__mulsf3>
    403e:	dc 01       	movw	r26, r24
    4040:	cb 01       	movw	r24, r22
    4042:	8e 01       	movw	r16, r28
    4044:	0d 5d       	subi	r16, 0xDD	; 221
    4046:	1e 4f       	sbci	r17, 0xFE	; 254
    4048:	bc 01       	movw	r22, r24
    404a:	cd 01       	movw	r24, r26
    404c:	0e 94 32 31 	call	0x6264	; 0x6264 <__fixunssfsi>
    4050:	dc 01       	movw	r26, r24
    4052:	cb 01       	movw	r24, r22
    4054:	f8 01       	movw	r30, r16
    4056:	91 83       	std	Z+1, r25	; 0x01
    4058:	80 83       	st	Z, r24
    405a:	24 c0       	rjmp	.+72     	; 0x40a4 <greenSide+0x2190>
    405c:	ce 01       	movw	r24, r28
    405e:	8b 5d       	subi	r24, 0xDB	; 219
    4060:	9e 4f       	sbci	r25, 0xFE	; 254
    4062:	2a ef       	ldi	r18, 0xFA	; 250
    4064:	30 e0       	ldi	r19, 0x00	; 0
    4066:	fc 01       	movw	r30, r24
    4068:	31 83       	std	Z+1, r19	; 0x01
    406a:	20 83       	st	Z, r18
    406c:	ce 01       	movw	r24, r28
    406e:	8b 5d       	subi	r24, 0xDB	; 219
    4070:	9e 4f       	sbci	r25, 0xFE	; 254
    4072:	fc 01       	movw	r30, r24
    4074:	80 81       	ld	r24, Z
    4076:	91 81       	ldd	r25, Z+1	; 0x01
    4078:	01 97       	sbiw	r24, 0x01	; 1
    407a:	f1 f7       	brne	.-4      	; 0x4078 <greenSide+0x2164>
    407c:	9e 01       	movw	r18, r28
    407e:	2b 5d       	subi	r18, 0xDB	; 219
    4080:	3e 4f       	sbci	r19, 0xFE	; 254
    4082:	f9 01       	movw	r30, r18
    4084:	91 83       	std	Z+1, r25	; 0x01
    4086:	80 83       	st	Z, r24
    4088:	ce 01       	movw	r24, r28
    408a:	8d 5d       	subi	r24, 0xDD	; 221
    408c:	9e 4f       	sbci	r25, 0xFE	; 254
    408e:	9e 01       	movw	r18, r28
    4090:	2d 5d       	subi	r18, 0xDD	; 221
    4092:	3e 4f       	sbci	r19, 0xFE	; 254
    4094:	f9 01       	movw	r30, r18
    4096:	20 81       	ld	r18, Z
    4098:	31 81       	ldd	r19, Z+1	; 0x01
    409a:	21 50       	subi	r18, 0x01	; 1
    409c:	31 09       	sbc	r19, r1
    409e:	fc 01       	movw	r30, r24
    40a0:	31 83       	std	Z+1, r19	; 0x01
    40a2:	20 83       	st	Z, r18
    40a4:	ce 01       	movw	r24, r28
    40a6:	8d 5d       	subi	r24, 0xDD	; 221
    40a8:	9e 4f       	sbci	r25, 0xFE	; 254
    40aa:	fc 01       	movw	r30, r24
    40ac:	80 81       	ld	r24, Z
    40ae:	91 81       	ldd	r25, Z+1	; 0x01
    40b0:	00 97       	sbiw	r24, 0x00	; 0
    40b2:	a1 f6       	brne	.-88     	; 0x405c <greenSide+0x2148>
    40b4:	2c c0       	rjmp	.+88     	; 0x410e <greenSide+0x21fa>
    40b6:	8e 01       	movw	r16, r28
    40b8:	0d 5d       	subi	r16, 0xDD	; 221
    40ba:	1e 4f       	sbci	r17, 0xFE	; 254
    40bc:	ce 01       	movw	r24, r28
    40be:	81 5e       	subi	r24, 0xE1	; 225
    40c0:	9e 4f       	sbci	r25, 0xFE	; 254
    40c2:	fc 01       	movw	r30, r24
    40c4:	60 81       	ld	r22, Z
    40c6:	71 81       	ldd	r23, Z+1	; 0x01
    40c8:	82 81       	ldd	r24, Z+2	; 0x02
    40ca:	93 81       	ldd	r25, Z+3	; 0x03
    40cc:	0e 94 32 31 	call	0x6264	; 0x6264 <__fixunssfsi>
    40d0:	dc 01       	movw	r26, r24
    40d2:	cb 01       	movw	r24, r22
    40d4:	f8 01       	movw	r30, r16
    40d6:	91 83       	std	Z+1, r25	; 0x01
    40d8:	80 83       	st	Z, r24
    40da:	ce 01       	movw	r24, r28
    40dc:	89 5d       	subi	r24, 0xD9	; 217
    40de:	9e 4f       	sbci	r25, 0xFE	; 254
    40e0:	9e 01       	movw	r18, r28
    40e2:	2d 5d       	subi	r18, 0xDD	; 221
    40e4:	3e 4f       	sbci	r19, 0xFE	; 254
    40e6:	f9 01       	movw	r30, r18
    40e8:	20 81       	ld	r18, Z
    40ea:	31 81       	ldd	r19, Z+1	; 0x01
    40ec:	fc 01       	movw	r30, r24
    40ee:	31 83       	std	Z+1, r19	; 0x01
    40f0:	20 83       	st	Z, r18
    40f2:	ce 01       	movw	r24, r28
    40f4:	89 5d       	subi	r24, 0xD9	; 217
    40f6:	9e 4f       	sbci	r25, 0xFE	; 254
    40f8:	fc 01       	movw	r30, r24
    40fa:	80 81       	ld	r24, Z
    40fc:	91 81       	ldd	r25, Z+1	; 0x01
    40fe:	01 97       	sbiw	r24, 0x01	; 1
    4100:	f1 f7       	brne	.-4      	; 0x40fe <greenSide+0x21ea>
    4102:	9e 01       	movw	r18, r28
    4104:	29 5d       	subi	r18, 0xD9	; 217
    4106:	3e 4f       	sbci	r19, 0xFE	; 254
    4108:	f9 01       	movw	r30, r18
    410a:	91 83       	std	Z+1, r25	; 0x01
    410c:	80 83       	st	Z, r24
    410e:	40 e0       	ldi	r20, 0x00	; 0
    4110:	50 e0       	ldi	r21, 0x00	; 0
    4112:	62 e3       	ldi	r22, 0x32	; 50
    4114:	84 ed       	ldi	r24, 0xD4	; 212
    4116:	9e ef       	ldi	r25, 0xFE	; 254
    4118:	ad d1       	rcall	.+858    	; 0x4474 <moveOnDirection>
    411a:	ff cf       	rjmp	.-2      	; 0x411a <greenSide+0x2206>
    411c:	80 91 ec 02 	lds	r24, 0x02EC
    4120:	8f 5f       	subi	r24, 0xFF	; 255
    4122:	80 93 ec 02 	sts	0x02EC, r24
    4126:	80 91 ec 02 	lds	r24, 0x02EC
    412a:	8b 30       	cpi	r24, 0x0B	; 11
    412c:	10 f4       	brcc	.+4      	; 0x4132 <greenSide+0x221e>
    412e:	0c 94 d7 0f 	jmp	0x1fae	; 0x1fae <greenSide+0x9a>
    4132:	00 00       	nop
    4134:	0c 94 ca 0f 	jmp	0x1f94	; 0x1f94 <greenSide+0x80>

00004138 <main>:
    4138:	cf 93       	push	r28
    413a:	df 93       	push	r29
    413c:	cd b7       	in	r28, 0x3d	; 61
    413e:	de b7       	in	r29, 0x3e	; 62
    4140:	2e 97       	sbiw	r28, 0x0e	; 14
    4142:	0f b6       	in	r0, 0x3f	; 63
    4144:	f8 94       	cli
    4146:	de bf       	out	0x3e, r29	; 62
    4148:	0f be       	out	0x3f, r0	; 63
    414a:	cd bf       	out	0x3d, r28	; 61
    414c:	0e 94 1e 2e 	call	0x5c3c	; 0x5c3c <systemInit>
    4150:	80 e0       	ldi	r24, 0x00	; 0
    4152:	90 e0       	ldi	r25, 0x00	; 0
    4154:	a8 ec       	ldi	r26, 0xC8	; 200
    4156:	b2 e4       	ldi	r27, 0x42	; 66
    4158:	89 83       	std	Y+1, r24	; 0x01
    415a:	9a 83       	std	Y+2, r25	; 0x02
    415c:	ab 83       	std	Y+3, r26	; 0x03
    415e:	bc 83       	std	Y+4, r27	; 0x04
    4160:	20 e0       	ldi	r18, 0x00	; 0
    4162:	30 e4       	ldi	r19, 0x40	; 64
    4164:	4c e1       	ldi	r20, 0x1C	; 28
    4166:	55 e4       	ldi	r21, 0x45	; 69
    4168:	69 81       	ldd	r22, Y+1	; 0x01
    416a:	7a 81       	ldd	r23, Y+2	; 0x02
    416c:	8b 81       	ldd	r24, Y+3	; 0x03
    416e:	9c 81       	ldd	r25, Y+4	; 0x04
    4170:	0e 94 52 32 	call	0x64a4	; 0x64a4 <__mulsf3>
    4174:	dc 01       	movw	r26, r24
    4176:	cb 01       	movw	r24, r22
    4178:	8d 83       	std	Y+5, r24	; 0x05
    417a:	9e 83       	std	Y+6, r25	; 0x06
    417c:	af 83       	std	Y+7, r26	; 0x07
    417e:	b8 87       	std	Y+8, r27	; 0x08
    4180:	20 e0       	ldi	r18, 0x00	; 0
    4182:	30 e0       	ldi	r19, 0x00	; 0
    4184:	40 e8       	ldi	r20, 0x80	; 128
    4186:	5f e3       	ldi	r21, 0x3F	; 63
    4188:	6d 81       	ldd	r22, Y+5	; 0x05
    418a:	7e 81       	ldd	r23, Y+6	; 0x06
    418c:	8f 81       	ldd	r24, Y+7	; 0x07
    418e:	98 85       	ldd	r25, Y+8	; 0x08
    4190:	0e 94 c6 30 	call	0x618c	; 0x618c <__cmpsf2>
    4194:	88 23       	and	r24, r24
    4196:	2c f4       	brge	.+10     	; 0x41a2 <main+0x6a>
    4198:	81 e0       	ldi	r24, 0x01	; 1
    419a:	90 e0       	ldi	r25, 0x00	; 0
    419c:	9a 87       	std	Y+10, r25	; 0x0a
    419e:	89 87       	std	Y+9, r24	; 0x09
    41a0:	3f c0       	rjmp	.+126    	; 0x4220 <main+0xe8>
    41a2:	20 e0       	ldi	r18, 0x00	; 0
    41a4:	3f ef       	ldi	r19, 0xFF	; 255
    41a6:	4f e7       	ldi	r20, 0x7F	; 127
    41a8:	57 e4       	ldi	r21, 0x47	; 71
    41aa:	6d 81       	ldd	r22, Y+5	; 0x05
    41ac:	7e 81       	ldd	r23, Y+6	; 0x06
    41ae:	8f 81       	ldd	r24, Y+7	; 0x07
    41b0:	98 85       	ldd	r25, Y+8	; 0x08
    41b2:	0e 94 4e 32 	call	0x649c	; 0x649c <__gesf2>
    41b6:	18 16       	cp	r1, r24
    41b8:	4c f5       	brge	.+82     	; 0x420c <main+0xd4>
    41ba:	20 e0       	ldi	r18, 0x00	; 0
    41bc:	30 e0       	ldi	r19, 0x00	; 0
    41be:	40 e2       	ldi	r20, 0x20	; 32
    41c0:	51 e4       	ldi	r21, 0x41	; 65
    41c2:	69 81       	ldd	r22, Y+1	; 0x01
    41c4:	7a 81       	ldd	r23, Y+2	; 0x02
    41c6:	8b 81       	ldd	r24, Y+3	; 0x03
    41c8:	9c 81       	ldd	r25, Y+4	; 0x04
    41ca:	0e 94 52 32 	call	0x64a4	; 0x64a4 <__mulsf3>
    41ce:	dc 01       	movw	r26, r24
    41d0:	cb 01       	movw	r24, r22
    41d2:	bc 01       	movw	r22, r24
    41d4:	cd 01       	movw	r24, r26
    41d6:	0e 94 32 31 	call	0x6264	; 0x6264 <__fixunssfsi>
    41da:	dc 01       	movw	r26, r24
    41dc:	cb 01       	movw	r24, r22
    41de:	9a 87       	std	Y+10, r25	; 0x0a
    41e0:	89 87       	std	Y+9, r24	; 0x09
    41e2:	0f c0       	rjmp	.+30     	; 0x4202 <main+0xca>
    41e4:	8a ef       	ldi	r24, 0xFA	; 250
    41e6:	90 e0       	ldi	r25, 0x00	; 0
    41e8:	9c 87       	std	Y+12, r25	; 0x0c
    41ea:	8b 87       	std	Y+11, r24	; 0x0b
    41ec:	8b 85       	ldd	r24, Y+11	; 0x0b
    41ee:	9c 85       	ldd	r25, Y+12	; 0x0c
    41f0:	01 97       	sbiw	r24, 0x01	; 1
    41f2:	f1 f7       	brne	.-4      	; 0x41f0 <main+0xb8>
    41f4:	9c 87       	std	Y+12, r25	; 0x0c
    41f6:	8b 87       	std	Y+11, r24	; 0x0b
    41f8:	89 85       	ldd	r24, Y+9	; 0x09
    41fa:	9a 85       	ldd	r25, Y+10	; 0x0a
    41fc:	01 97       	sbiw	r24, 0x01	; 1
    41fe:	9a 87       	std	Y+10, r25	; 0x0a
    4200:	89 87       	std	Y+9, r24	; 0x09
    4202:	89 85       	ldd	r24, Y+9	; 0x09
    4204:	9a 85       	ldd	r25, Y+10	; 0x0a
    4206:	00 97       	sbiw	r24, 0x00	; 0
    4208:	69 f7       	brne	.-38     	; 0x41e4 <main+0xac>
    420a:	14 c0       	rjmp	.+40     	; 0x4234 <main+0xfc>
    420c:	6d 81       	ldd	r22, Y+5	; 0x05
    420e:	7e 81       	ldd	r23, Y+6	; 0x06
    4210:	8f 81       	ldd	r24, Y+7	; 0x07
    4212:	98 85       	ldd	r25, Y+8	; 0x08
    4214:	0e 94 32 31 	call	0x6264	; 0x6264 <__fixunssfsi>
    4218:	dc 01       	movw	r26, r24
    421a:	cb 01       	movw	r24, r22
    421c:	9a 87       	std	Y+10, r25	; 0x0a
    421e:	89 87       	std	Y+9, r24	; 0x09
    4220:	89 85       	ldd	r24, Y+9	; 0x09
    4222:	9a 85       	ldd	r25, Y+10	; 0x0a
    4224:	9e 87       	std	Y+14, r25	; 0x0e
    4226:	8d 87       	std	Y+13, r24	; 0x0d
    4228:	8d 85       	ldd	r24, Y+13	; 0x0d
    422a:	9e 85       	ldd	r25, Y+14	; 0x0e
    422c:	01 97       	sbiw	r24, 0x01	; 1
    422e:	f1 f7       	brne	.-4      	; 0x422c <main+0xf4>
    4230:	9e 87       	std	Y+14, r25	; 0x0e
    4232:	8d 87       	std	Y+13, r24	; 0x0d
    4234:	0e 94 8a 0f 	call	0x1f14	; 0x1f14 <greenSide>
    4238:	00 00       	nop
    423a:	fc cf       	rjmp	.-8      	; 0x4234 <main+0xfc>

0000423c <stop>:
    423c:	cf 93       	push	r28
    423e:	df 93       	push	r29
    4240:	cd b7       	in	r28, 0x3d	; 61
    4242:	de b7       	in	r29, 0x3e	; 62
    4244:	a5 97       	sbiw	r28, 0x25	; 37
    4246:	0f b6       	in	r0, 0x3f	; 63
    4248:	f8 94       	cli
    424a:	de bf       	out	0x3e, r29	; 62
    424c:	0f be       	out	0x3f, r0	; 63
    424e:	cd bf       	out	0x3d, r28	; 61
    4250:	8d a3       	std	Y+37, r24	; 0x25
    4252:	8d a1       	ldd	r24, Y+37	; 0x25
    4254:	8d 8f       	std	Y+29, r24	; 0x1d
    4256:	72 c0       	rjmp	.+228    	; 0x433c <stop+0x100>
    4258:	80 e0       	ldi	r24, 0x00	; 0
    425a:	90 e0       	ldi	r25, 0x00	; 0
    425c:	a8 e4       	ldi	r26, 0x48	; 72
    425e:	b2 e4       	ldi	r27, 0x42	; 66
    4260:	89 83       	std	Y+1, r24	; 0x01
    4262:	9a 83       	std	Y+2, r25	; 0x02
    4264:	ab 83       	std	Y+3, r26	; 0x03
    4266:	bc 83       	std	Y+4, r27	; 0x04
    4268:	20 e0       	ldi	r18, 0x00	; 0
    426a:	30 e4       	ldi	r19, 0x40	; 64
    426c:	4c e1       	ldi	r20, 0x1C	; 28
    426e:	55 e4       	ldi	r21, 0x45	; 69
    4270:	69 81       	ldd	r22, Y+1	; 0x01
    4272:	7a 81       	ldd	r23, Y+2	; 0x02
    4274:	8b 81       	ldd	r24, Y+3	; 0x03
    4276:	9c 81       	ldd	r25, Y+4	; 0x04
    4278:	0e 94 52 32 	call	0x64a4	; 0x64a4 <__mulsf3>
    427c:	dc 01       	movw	r26, r24
    427e:	cb 01       	movw	r24, r22
    4280:	8d 83       	std	Y+5, r24	; 0x05
    4282:	9e 83       	std	Y+6, r25	; 0x06
    4284:	af 83       	std	Y+7, r26	; 0x07
    4286:	b8 87       	std	Y+8, r27	; 0x08
    4288:	20 e0       	ldi	r18, 0x00	; 0
    428a:	30 e0       	ldi	r19, 0x00	; 0
    428c:	40 e8       	ldi	r20, 0x80	; 128
    428e:	5f e3       	ldi	r21, 0x3F	; 63
    4290:	6d 81       	ldd	r22, Y+5	; 0x05
    4292:	7e 81       	ldd	r23, Y+6	; 0x06
    4294:	8f 81       	ldd	r24, Y+7	; 0x07
    4296:	98 85       	ldd	r25, Y+8	; 0x08
    4298:	0e 94 c6 30 	call	0x618c	; 0x618c <__cmpsf2>
    429c:	88 23       	and	r24, r24
    429e:	2c f4       	brge	.+10     	; 0x42aa <stop+0x6e>
    42a0:	81 e0       	ldi	r24, 0x01	; 1
    42a2:	90 e0       	ldi	r25, 0x00	; 0
    42a4:	9a 87       	std	Y+10, r25	; 0x0a
    42a6:	89 87       	std	Y+9, r24	; 0x09
    42a8:	3f c0       	rjmp	.+126    	; 0x4328 <stop+0xec>
    42aa:	20 e0       	ldi	r18, 0x00	; 0
    42ac:	3f ef       	ldi	r19, 0xFF	; 255
    42ae:	4f e7       	ldi	r20, 0x7F	; 127
    42b0:	57 e4       	ldi	r21, 0x47	; 71
    42b2:	6d 81       	ldd	r22, Y+5	; 0x05
    42b4:	7e 81       	ldd	r23, Y+6	; 0x06
    42b6:	8f 81       	ldd	r24, Y+7	; 0x07
    42b8:	98 85       	ldd	r25, Y+8	; 0x08
    42ba:	0e 94 4e 32 	call	0x649c	; 0x649c <__gesf2>
    42be:	18 16       	cp	r1, r24
    42c0:	4c f5       	brge	.+82     	; 0x4314 <stop+0xd8>
    42c2:	20 e0       	ldi	r18, 0x00	; 0
    42c4:	30 e0       	ldi	r19, 0x00	; 0
    42c6:	40 e2       	ldi	r20, 0x20	; 32
    42c8:	51 e4       	ldi	r21, 0x41	; 65
    42ca:	69 81       	ldd	r22, Y+1	; 0x01
    42cc:	7a 81       	ldd	r23, Y+2	; 0x02
    42ce:	8b 81       	ldd	r24, Y+3	; 0x03
    42d0:	9c 81       	ldd	r25, Y+4	; 0x04
    42d2:	0e 94 52 32 	call	0x64a4	; 0x64a4 <__mulsf3>
    42d6:	dc 01       	movw	r26, r24
    42d8:	cb 01       	movw	r24, r22
    42da:	bc 01       	movw	r22, r24
    42dc:	cd 01       	movw	r24, r26
    42de:	0e 94 32 31 	call	0x6264	; 0x6264 <__fixunssfsi>
    42e2:	dc 01       	movw	r26, r24
    42e4:	cb 01       	movw	r24, r22
    42e6:	9a 87       	std	Y+10, r25	; 0x0a
    42e8:	89 87       	std	Y+9, r24	; 0x09
    42ea:	0f c0       	rjmp	.+30     	; 0x430a <stop+0xce>
    42ec:	8a ef       	ldi	r24, 0xFA	; 250
    42ee:	90 e0       	ldi	r25, 0x00	; 0
    42f0:	9c 87       	std	Y+12, r25	; 0x0c
    42f2:	8b 87       	std	Y+11, r24	; 0x0b
    42f4:	8b 85       	ldd	r24, Y+11	; 0x0b
    42f6:	9c 85       	ldd	r25, Y+12	; 0x0c
    42f8:	01 97       	sbiw	r24, 0x01	; 1
    42fa:	f1 f7       	brne	.-4      	; 0x42f8 <stop+0xbc>
    42fc:	9c 87       	std	Y+12, r25	; 0x0c
    42fe:	8b 87       	std	Y+11, r24	; 0x0b
    4300:	89 85       	ldd	r24, Y+9	; 0x09
    4302:	9a 85       	ldd	r25, Y+10	; 0x0a
    4304:	01 97       	sbiw	r24, 0x01	; 1
    4306:	9a 87       	std	Y+10, r25	; 0x0a
    4308:	89 87       	std	Y+9, r24	; 0x09
    430a:	89 85       	ldd	r24, Y+9	; 0x09
    430c:	9a 85       	ldd	r25, Y+10	; 0x0a
    430e:	00 97       	sbiw	r24, 0x00	; 0
    4310:	69 f7       	brne	.-38     	; 0x42ec <stop+0xb0>
    4312:	14 c0       	rjmp	.+40     	; 0x433c <stop+0x100>
    4314:	6d 81       	ldd	r22, Y+5	; 0x05
    4316:	7e 81       	ldd	r23, Y+6	; 0x06
    4318:	8f 81       	ldd	r24, Y+7	; 0x07
    431a:	98 85       	ldd	r25, Y+8	; 0x08
    431c:	0e 94 32 31 	call	0x6264	; 0x6264 <__fixunssfsi>
    4320:	dc 01       	movw	r26, r24
    4322:	cb 01       	movw	r24, r22
    4324:	9a 87       	std	Y+10, r25	; 0x0a
    4326:	89 87       	std	Y+9, r24	; 0x09
    4328:	89 85       	ldd	r24, Y+9	; 0x09
    432a:	9a 85       	ldd	r25, Y+10	; 0x0a
    432c:	9e 87       	std	Y+14, r25	; 0x0e
    432e:	8d 87       	std	Y+13, r24	; 0x0d
    4330:	8d 85       	ldd	r24, Y+13	; 0x0d
    4332:	9e 85       	ldd	r25, Y+14	; 0x0e
    4334:	01 97       	sbiw	r24, 0x01	; 1
    4336:	f1 f7       	brne	.-4      	; 0x4334 <stop+0xf8>
    4338:	9e 87       	std	Y+14, r25	; 0x0e
    433a:	8d 87       	std	Y+13, r24	; 0x0d
    433c:	ce 01       	movw	r24, r28
    433e:	4d 96       	adiw	r24, 0x1d	; 29
    4340:	63 ec       	ldi	r22, 0xC3	; 195
    4342:	0e 94 6f 0b 	call	0x16de	; 0x16de <CAN_Write>
    4346:	88 23       	and	r24, r24
    4348:	09 f0       	breq	.+2      	; 0x434c <stop+0x110>
    434a:	86 cf       	rjmp	.-244    	; 0x4258 <stop+0x1c>
    434c:	80 e5       	ldi	r24, 0x50	; 80
    434e:	8d 8f       	std	Y+29, r24	; 0x1d
    4350:	72 c0       	rjmp	.+228    	; 0x4436 <stop+0x1fa>
    4352:	80 e0       	ldi	r24, 0x00	; 0
    4354:	90 e0       	ldi	r25, 0x00	; 0
    4356:	a8 e4       	ldi	r26, 0x48	; 72
    4358:	b2 e4       	ldi	r27, 0x42	; 66
    435a:	8f 87       	std	Y+15, r24	; 0x0f
    435c:	98 8b       	std	Y+16, r25	; 0x10
    435e:	a9 8b       	std	Y+17, r26	; 0x11
    4360:	ba 8b       	std	Y+18, r27	; 0x12
    4362:	20 e0       	ldi	r18, 0x00	; 0
    4364:	30 e4       	ldi	r19, 0x40	; 64
    4366:	4c e1       	ldi	r20, 0x1C	; 28
    4368:	55 e4       	ldi	r21, 0x45	; 69
    436a:	6f 85       	ldd	r22, Y+15	; 0x0f
    436c:	78 89       	ldd	r23, Y+16	; 0x10
    436e:	89 89       	ldd	r24, Y+17	; 0x11
    4370:	9a 89       	ldd	r25, Y+18	; 0x12
    4372:	0e 94 52 32 	call	0x64a4	; 0x64a4 <__mulsf3>
    4376:	dc 01       	movw	r26, r24
    4378:	cb 01       	movw	r24, r22
    437a:	8b 8b       	std	Y+19, r24	; 0x13
    437c:	9c 8b       	std	Y+20, r25	; 0x14
    437e:	ad 8b       	std	Y+21, r26	; 0x15
    4380:	be 8b       	std	Y+22, r27	; 0x16
    4382:	20 e0       	ldi	r18, 0x00	; 0
    4384:	30 e0       	ldi	r19, 0x00	; 0
    4386:	40 e8       	ldi	r20, 0x80	; 128
    4388:	5f e3       	ldi	r21, 0x3F	; 63
    438a:	6b 89       	ldd	r22, Y+19	; 0x13
    438c:	7c 89       	ldd	r23, Y+20	; 0x14
    438e:	8d 89       	ldd	r24, Y+21	; 0x15
    4390:	9e 89       	ldd	r25, Y+22	; 0x16
    4392:	0e 94 c6 30 	call	0x618c	; 0x618c <__cmpsf2>
    4396:	88 23       	and	r24, r24
    4398:	2c f4       	brge	.+10     	; 0x43a4 <stop+0x168>
    439a:	81 e0       	ldi	r24, 0x01	; 1
    439c:	90 e0       	ldi	r25, 0x00	; 0
    439e:	98 8f       	std	Y+24, r25	; 0x18
    43a0:	8f 8b       	std	Y+23, r24	; 0x17
    43a2:	3f c0       	rjmp	.+126    	; 0x4422 <stop+0x1e6>
    43a4:	20 e0       	ldi	r18, 0x00	; 0
    43a6:	3f ef       	ldi	r19, 0xFF	; 255
    43a8:	4f e7       	ldi	r20, 0x7F	; 127
    43aa:	57 e4       	ldi	r21, 0x47	; 71
    43ac:	6b 89       	ldd	r22, Y+19	; 0x13
    43ae:	7c 89       	ldd	r23, Y+20	; 0x14
    43b0:	8d 89       	ldd	r24, Y+21	; 0x15
    43b2:	9e 89       	ldd	r25, Y+22	; 0x16
    43b4:	0e 94 4e 32 	call	0x649c	; 0x649c <__gesf2>
    43b8:	18 16       	cp	r1, r24
    43ba:	4c f5       	brge	.+82     	; 0x440e <stop+0x1d2>
    43bc:	20 e0       	ldi	r18, 0x00	; 0
    43be:	30 e0       	ldi	r19, 0x00	; 0
    43c0:	40 e2       	ldi	r20, 0x20	; 32
    43c2:	51 e4       	ldi	r21, 0x41	; 65
    43c4:	6f 85       	ldd	r22, Y+15	; 0x0f
    43c6:	78 89       	ldd	r23, Y+16	; 0x10
    43c8:	89 89       	ldd	r24, Y+17	; 0x11
    43ca:	9a 89       	ldd	r25, Y+18	; 0x12
    43cc:	0e 94 52 32 	call	0x64a4	; 0x64a4 <__mulsf3>
    43d0:	dc 01       	movw	r26, r24
    43d2:	cb 01       	movw	r24, r22
    43d4:	bc 01       	movw	r22, r24
    43d6:	cd 01       	movw	r24, r26
    43d8:	0e 94 32 31 	call	0x6264	; 0x6264 <__fixunssfsi>
    43dc:	dc 01       	movw	r26, r24
    43de:	cb 01       	movw	r24, r22
    43e0:	98 8f       	std	Y+24, r25	; 0x18
    43e2:	8f 8b       	std	Y+23, r24	; 0x17
    43e4:	0f c0       	rjmp	.+30     	; 0x4404 <stop+0x1c8>
    43e6:	8a ef       	ldi	r24, 0xFA	; 250
    43e8:	90 e0       	ldi	r25, 0x00	; 0
    43ea:	9a 8f       	std	Y+26, r25	; 0x1a
    43ec:	89 8f       	std	Y+25, r24	; 0x19
    43ee:	89 8d       	ldd	r24, Y+25	; 0x19
    43f0:	9a 8d       	ldd	r25, Y+26	; 0x1a
    43f2:	01 97       	sbiw	r24, 0x01	; 1
    43f4:	f1 f7       	brne	.-4      	; 0x43f2 <stop+0x1b6>
    43f6:	9a 8f       	std	Y+26, r25	; 0x1a
    43f8:	89 8f       	std	Y+25, r24	; 0x19
    43fa:	8f 89       	ldd	r24, Y+23	; 0x17
    43fc:	98 8d       	ldd	r25, Y+24	; 0x18
    43fe:	01 97       	sbiw	r24, 0x01	; 1
    4400:	98 8f       	std	Y+24, r25	; 0x18
    4402:	8f 8b       	std	Y+23, r24	; 0x17
    4404:	8f 89       	ldd	r24, Y+23	; 0x17
    4406:	98 8d       	ldd	r25, Y+24	; 0x18
    4408:	00 97       	sbiw	r24, 0x00	; 0
    440a:	69 f7       	brne	.-38     	; 0x43e6 <stop+0x1aa>
    440c:	14 c0       	rjmp	.+40     	; 0x4436 <stop+0x1fa>
    440e:	6b 89       	ldd	r22, Y+19	; 0x13
    4410:	7c 89       	ldd	r23, Y+20	; 0x14
    4412:	8d 89       	ldd	r24, Y+21	; 0x15
    4414:	9e 89       	ldd	r25, Y+22	; 0x16
    4416:	0e 94 32 31 	call	0x6264	; 0x6264 <__fixunssfsi>
    441a:	dc 01       	movw	r26, r24
    441c:	cb 01       	movw	r24, r22
    441e:	98 8f       	std	Y+24, r25	; 0x18
    4420:	8f 8b       	std	Y+23, r24	; 0x17
    4422:	8f 89       	ldd	r24, Y+23	; 0x17
    4424:	98 8d       	ldd	r25, Y+24	; 0x18
    4426:	9c 8f       	std	Y+28, r25	; 0x1c
    4428:	8b 8f       	std	Y+27, r24	; 0x1b
    442a:	8b 8d       	ldd	r24, Y+27	; 0x1b
    442c:	9c 8d       	ldd	r25, Y+28	; 0x1c
    442e:	01 97       	sbiw	r24, 0x01	; 1
    4430:	f1 f7       	brne	.-4      	; 0x442e <stop+0x1f2>
    4432:	9c 8f       	std	Y+28, r25	; 0x1c
    4434:	8b 8f       	std	Y+27, r24	; 0x1b
    4436:	ce 01       	movw	r24, r28
    4438:	4d 96       	adiw	r24, 0x1d	; 29
    443a:	63 ec       	ldi	r22, 0xC3	; 195
    443c:	0e 94 6f 0b 	call	0x16de	; 0x16de <CAN_Write>
    4440:	88 23       	and	r24, r24
    4442:	09 f0       	breq	.+2      	; 0x4446 <stop+0x20a>
    4444:	86 cf       	rjmp	.-244    	; 0x4352 <stop+0x116>
    4446:	ce 01       	movw	r24, r28
    4448:	4d 96       	adiw	r24, 0x1d	; 29
    444a:	61 e0       	ldi	r22, 0x01	; 1
    444c:	0e 94 ff 0a 	call	0x15fe	; 0x15fe <CAN_Read>
    4450:	8d 8d       	ldd	r24, Y+29	; 0x1d
    4452:	8d 34       	cpi	r24, 0x4D	; 77
    4454:	29 f0       	breq	.+10     	; 0x4460 <stop+0x224>
    4456:	8d 8d       	ldd	r24, Y+29	; 0x1d
    4458:	82 35       	cpi	r24, 0x52	; 82
    445a:	11 f0       	breq	.+4      	; 0x4460 <stop+0x224>
    445c:	80 e0       	ldi	r24, 0x00	; 0
    445e:	01 c0       	rjmp	.+2      	; 0x4462 <stop+0x226>
    4460:	f8 ce       	rjmp	.-528    	; 0x4252 <stop+0x16>
    4462:	a5 96       	adiw	r28, 0x25	; 37
    4464:	0f b6       	in	r0, 0x3f	; 63
    4466:	f8 94       	cli
    4468:	de bf       	out	0x3e, r29	; 62
    446a:	0f be       	out	0x3f, r0	; 63
    446c:	cd bf       	out	0x3d, r28	; 61
    446e:	df 91       	pop	r29
    4470:	cf 91       	pop	r28
    4472:	08 95       	ret

00004474 <moveOnDirection>:
    4474:	cf 93       	push	r28
    4476:	df 93       	push	r29
    4478:	cd b7       	in	r28, 0x3d	; 61
    447a:	de b7       	in	r29, 0x3e	; 62
    447c:	ca 54       	subi	r28, 0x4A	; 74
    447e:	d1 09       	sbc	r29, r1
    4480:	0f b6       	in	r0, 0x3f	; 63
    4482:	f8 94       	cli
    4484:	de bf       	out	0x3e, r29	; 62
    4486:	0f be       	out	0x3f, r0	; 63
    4488:	cd bf       	out	0x3d, r28	; 61
    448a:	9e 01       	movw	r18, r28
    448c:	2a 5b       	subi	r18, 0xBA	; 186
    448e:	3f 4f       	sbci	r19, 0xFF	; 255
    4490:	f9 01       	movw	r30, r18
    4492:	91 83       	std	Z+1, r25	; 0x01
    4494:	80 83       	st	Z, r24
    4496:	ce 01       	movw	r24, r28
    4498:	88 5b       	subi	r24, 0xB8	; 184
    449a:	9f 4f       	sbci	r25, 0xFF	; 255
    449c:	fc 01       	movw	r30, r24
    449e:	60 83       	st	Z, r22
    44a0:	ce 01       	movw	r24, r28
    44a2:	87 5b       	subi	r24, 0xB7	; 183
    44a4:	9f 4f       	sbci	r25, 0xFF	; 255
    44a6:	fc 01       	movw	r30, r24
    44a8:	51 83       	std	Z+1, r21	; 0x01
    44aa:	40 83       	st	Z, r20
    44ac:	86 e5       	ldi	r24, 0x56	; 86
    44ae:	8e af       	std	Y+62, r24	; 0x3e
    44b0:	ce 01       	movw	r24, r28
    44b2:	88 5b       	subi	r24, 0xB8	; 184
    44b4:	9f 4f       	sbci	r25, 0xFF	; 255
    44b6:	fc 01       	movw	r30, r24
    44b8:	80 81       	ld	r24, Z
    44ba:	8f af       	std	Y+63, r24	; 0x3f
    44bc:	72 c0       	rjmp	.+228    	; 0x45a2 <moveOnDirection+0x12e>
    44be:	80 e0       	ldi	r24, 0x00	; 0
    44c0:	90 e0       	ldi	r25, 0x00	; 0
    44c2:	a8 e4       	ldi	r26, 0x48	; 72
    44c4:	b2 e4       	ldi	r27, 0x42	; 66
    44c6:	8e 83       	std	Y+6, r24	; 0x06
    44c8:	9f 83       	std	Y+7, r25	; 0x07
    44ca:	a8 87       	std	Y+8, r26	; 0x08
    44cc:	b9 87       	std	Y+9, r27	; 0x09
    44ce:	20 e0       	ldi	r18, 0x00	; 0
    44d0:	30 e4       	ldi	r19, 0x40	; 64
    44d2:	4c e1       	ldi	r20, 0x1C	; 28
    44d4:	55 e4       	ldi	r21, 0x45	; 69
    44d6:	6e 81       	ldd	r22, Y+6	; 0x06
    44d8:	7f 81       	ldd	r23, Y+7	; 0x07
    44da:	88 85       	ldd	r24, Y+8	; 0x08
    44dc:	99 85       	ldd	r25, Y+9	; 0x09
    44de:	0e 94 52 32 	call	0x64a4	; 0x64a4 <__mulsf3>
    44e2:	dc 01       	movw	r26, r24
    44e4:	cb 01       	movw	r24, r22
    44e6:	8a 87       	std	Y+10, r24	; 0x0a
    44e8:	9b 87       	std	Y+11, r25	; 0x0b
    44ea:	ac 87       	std	Y+12, r26	; 0x0c
    44ec:	bd 87       	std	Y+13, r27	; 0x0d
    44ee:	20 e0       	ldi	r18, 0x00	; 0
    44f0:	30 e0       	ldi	r19, 0x00	; 0
    44f2:	40 e8       	ldi	r20, 0x80	; 128
    44f4:	5f e3       	ldi	r21, 0x3F	; 63
    44f6:	6a 85       	ldd	r22, Y+10	; 0x0a
    44f8:	7b 85       	ldd	r23, Y+11	; 0x0b
    44fa:	8c 85       	ldd	r24, Y+12	; 0x0c
    44fc:	9d 85       	ldd	r25, Y+13	; 0x0d
    44fe:	0e 94 c6 30 	call	0x618c	; 0x618c <__cmpsf2>
    4502:	88 23       	and	r24, r24
    4504:	2c f4       	brge	.+10     	; 0x4510 <moveOnDirection+0x9c>
    4506:	81 e0       	ldi	r24, 0x01	; 1
    4508:	90 e0       	ldi	r25, 0x00	; 0
    450a:	9f 87       	std	Y+15, r25	; 0x0f
    450c:	8e 87       	std	Y+14, r24	; 0x0e
    450e:	3f c0       	rjmp	.+126    	; 0x458e <moveOnDirection+0x11a>
    4510:	20 e0       	ldi	r18, 0x00	; 0
    4512:	3f ef       	ldi	r19, 0xFF	; 255
    4514:	4f e7       	ldi	r20, 0x7F	; 127
    4516:	57 e4       	ldi	r21, 0x47	; 71
    4518:	6a 85       	ldd	r22, Y+10	; 0x0a
    451a:	7b 85       	ldd	r23, Y+11	; 0x0b
    451c:	8c 85       	ldd	r24, Y+12	; 0x0c
    451e:	9d 85       	ldd	r25, Y+13	; 0x0d
    4520:	0e 94 4e 32 	call	0x649c	; 0x649c <__gesf2>
    4524:	18 16       	cp	r1, r24
    4526:	4c f5       	brge	.+82     	; 0x457a <moveOnDirection+0x106>
    4528:	20 e0       	ldi	r18, 0x00	; 0
    452a:	30 e0       	ldi	r19, 0x00	; 0
    452c:	40 e2       	ldi	r20, 0x20	; 32
    452e:	51 e4       	ldi	r21, 0x41	; 65
    4530:	6e 81       	ldd	r22, Y+6	; 0x06
    4532:	7f 81       	ldd	r23, Y+7	; 0x07
    4534:	88 85       	ldd	r24, Y+8	; 0x08
    4536:	99 85       	ldd	r25, Y+9	; 0x09
    4538:	0e 94 52 32 	call	0x64a4	; 0x64a4 <__mulsf3>
    453c:	dc 01       	movw	r26, r24
    453e:	cb 01       	movw	r24, r22
    4540:	bc 01       	movw	r22, r24
    4542:	cd 01       	movw	r24, r26
    4544:	0e 94 32 31 	call	0x6264	; 0x6264 <__fixunssfsi>
    4548:	dc 01       	movw	r26, r24
    454a:	cb 01       	movw	r24, r22
    454c:	9f 87       	std	Y+15, r25	; 0x0f
    454e:	8e 87       	std	Y+14, r24	; 0x0e
    4550:	0f c0       	rjmp	.+30     	; 0x4570 <moveOnDirection+0xfc>
    4552:	8a ef       	ldi	r24, 0xFA	; 250
    4554:	90 e0       	ldi	r25, 0x00	; 0
    4556:	99 8b       	std	Y+17, r25	; 0x11
    4558:	88 8b       	std	Y+16, r24	; 0x10
    455a:	88 89       	ldd	r24, Y+16	; 0x10
    455c:	99 89       	ldd	r25, Y+17	; 0x11
    455e:	01 97       	sbiw	r24, 0x01	; 1
    4560:	f1 f7       	brne	.-4      	; 0x455e <moveOnDirection+0xea>
    4562:	99 8b       	std	Y+17, r25	; 0x11
    4564:	88 8b       	std	Y+16, r24	; 0x10
    4566:	8e 85       	ldd	r24, Y+14	; 0x0e
    4568:	9f 85       	ldd	r25, Y+15	; 0x0f
    456a:	01 97       	sbiw	r24, 0x01	; 1
    456c:	9f 87       	std	Y+15, r25	; 0x0f
    456e:	8e 87       	std	Y+14, r24	; 0x0e
    4570:	8e 85       	ldd	r24, Y+14	; 0x0e
    4572:	9f 85       	ldd	r25, Y+15	; 0x0f
    4574:	00 97       	sbiw	r24, 0x00	; 0
    4576:	69 f7       	brne	.-38     	; 0x4552 <moveOnDirection+0xde>
    4578:	14 c0       	rjmp	.+40     	; 0x45a2 <moveOnDirection+0x12e>
    457a:	6a 85       	ldd	r22, Y+10	; 0x0a
    457c:	7b 85       	ldd	r23, Y+11	; 0x0b
    457e:	8c 85       	ldd	r24, Y+12	; 0x0c
    4580:	9d 85       	ldd	r25, Y+13	; 0x0d
    4582:	0e 94 32 31 	call	0x6264	; 0x6264 <__fixunssfsi>
    4586:	dc 01       	movw	r26, r24
    4588:	cb 01       	movw	r24, r22
    458a:	9f 87       	std	Y+15, r25	; 0x0f
    458c:	8e 87       	std	Y+14, r24	; 0x0e
    458e:	8e 85       	ldd	r24, Y+14	; 0x0e
    4590:	9f 85       	ldd	r25, Y+15	; 0x0f
    4592:	9b 8b       	std	Y+19, r25	; 0x13
    4594:	8a 8b       	std	Y+18, r24	; 0x12
    4596:	8a 89       	ldd	r24, Y+18	; 0x12
    4598:	9b 89       	ldd	r25, Y+19	; 0x13
    459a:	01 97       	sbiw	r24, 0x01	; 1
    459c:	f1 f7       	brne	.-4      	; 0x459a <moveOnDirection+0x126>
    459e:	9b 8b       	std	Y+19, r25	; 0x13
    45a0:	8a 8b       	std	Y+18, r24	; 0x12
    45a2:	ce 01       	movw	r24, r28
    45a4:	ce 96       	adiw	r24, 0x3e	; 62
    45a6:	63 ec       	ldi	r22, 0xC3	; 195
    45a8:	0e 94 6f 0b 	call	0x16de	; 0x16de <CAN_Write>
    45ac:	88 23       	and	r24, r24
    45ae:	09 f0       	breq	.+2      	; 0x45b2 <moveOnDirection+0x13e>
    45b0:	86 cf       	rjmp	.-244    	; 0x44be <moveOnDirection+0x4a>
    45b2:	84 e4       	ldi	r24, 0x44	; 68
    45b4:	8e af       	std	Y+62, r24	; 0x3e
    45b6:	ce 01       	movw	r24, r28
    45b8:	8a 5b       	subi	r24, 0xBA	; 186
    45ba:	9f 4f       	sbci	r25, 0xFF	; 255
    45bc:	fc 01       	movw	r30, r24
    45be:	80 81       	ld	r24, Z
    45c0:	91 81       	ldd	r25, Z+1	; 0x01
    45c2:	89 2f       	mov	r24, r25
    45c4:	99 0f       	add	r25, r25
    45c6:	99 0b       	sbc	r25, r25
    45c8:	8f af       	std	Y+63, r24	; 0x3f
    45ca:	ce 01       	movw	r24, r28
    45cc:	8a 5b       	subi	r24, 0xBA	; 186
    45ce:	9f 4f       	sbci	r25, 0xFF	; 255
    45d0:	fc 01       	movw	r30, r24
    45d2:	20 81       	ld	r18, Z
    45d4:	ce 01       	movw	r24, r28
    45d6:	80 5c       	subi	r24, 0xC0	; 192
    45d8:	9f 4f       	sbci	r25, 0xFF	; 255
    45da:	fc 01       	movw	r30, r24
    45dc:	20 83       	st	Z, r18
    45de:	72 c0       	rjmp	.+228    	; 0x46c4 <moveOnDirection+0x250>
    45e0:	80 e0       	ldi	r24, 0x00	; 0
    45e2:	90 e0       	ldi	r25, 0x00	; 0
    45e4:	a8 e4       	ldi	r26, 0x48	; 72
    45e6:	b2 e4       	ldi	r27, 0x42	; 66
    45e8:	8c 8b       	std	Y+20, r24	; 0x14
    45ea:	9d 8b       	std	Y+21, r25	; 0x15
    45ec:	ae 8b       	std	Y+22, r26	; 0x16
    45ee:	bf 8b       	std	Y+23, r27	; 0x17
    45f0:	20 e0       	ldi	r18, 0x00	; 0
    45f2:	30 e4       	ldi	r19, 0x40	; 64
    45f4:	4c e1       	ldi	r20, 0x1C	; 28
    45f6:	55 e4       	ldi	r21, 0x45	; 69
    45f8:	6c 89       	ldd	r22, Y+20	; 0x14
    45fa:	7d 89       	ldd	r23, Y+21	; 0x15
    45fc:	8e 89       	ldd	r24, Y+22	; 0x16
    45fe:	9f 89       	ldd	r25, Y+23	; 0x17
    4600:	0e 94 52 32 	call	0x64a4	; 0x64a4 <__mulsf3>
    4604:	dc 01       	movw	r26, r24
    4606:	cb 01       	movw	r24, r22
    4608:	88 8f       	std	Y+24, r24	; 0x18
    460a:	99 8f       	std	Y+25, r25	; 0x19
    460c:	aa 8f       	std	Y+26, r26	; 0x1a
    460e:	bb 8f       	std	Y+27, r27	; 0x1b
    4610:	20 e0       	ldi	r18, 0x00	; 0
    4612:	30 e0       	ldi	r19, 0x00	; 0
    4614:	40 e8       	ldi	r20, 0x80	; 128
    4616:	5f e3       	ldi	r21, 0x3F	; 63
    4618:	68 8d       	ldd	r22, Y+24	; 0x18
    461a:	79 8d       	ldd	r23, Y+25	; 0x19
    461c:	8a 8d       	ldd	r24, Y+26	; 0x1a
    461e:	9b 8d       	ldd	r25, Y+27	; 0x1b
    4620:	0e 94 c6 30 	call	0x618c	; 0x618c <__cmpsf2>
    4624:	88 23       	and	r24, r24
    4626:	2c f4       	brge	.+10     	; 0x4632 <moveOnDirection+0x1be>
    4628:	81 e0       	ldi	r24, 0x01	; 1
    462a:	90 e0       	ldi	r25, 0x00	; 0
    462c:	9d 8f       	std	Y+29, r25	; 0x1d
    462e:	8c 8f       	std	Y+28, r24	; 0x1c
    4630:	3f c0       	rjmp	.+126    	; 0x46b0 <moveOnDirection+0x23c>
    4632:	20 e0       	ldi	r18, 0x00	; 0
    4634:	3f ef       	ldi	r19, 0xFF	; 255
    4636:	4f e7       	ldi	r20, 0x7F	; 127
    4638:	57 e4       	ldi	r21, 0x47	; 71
    463a:	68 8d       	ldd	r22, Y+24	; 0x18
    463c:	79 8d       	ldd	r23, Y+25	; 0x19
    463e:	8a 8d       	ldd	r24, Y+26	; 0x1a
    4640:	9b 8d       	ldd	r25, Y+27	; 0x1b
    4642:	0e 94 4e 32 	call	0x649c	; 0x649c <__gesf2>
    4646:	18 16       	cp	r1, r24
    4648:	4c f5       	brge	.+82     	; 0x469c <moveOnDirection+0x228>
    464a:	20 e0       	ldi	r18, 0x00	; 0
    464c:	30 e0       	ldi	r19, 0x00	; 0
    464e:	40 e2       	ldi	r20, 0x20	; 32
    4650:	51 e4       	ldi	r21, 0x41	; 65
    4652:	6c 89       	ldd	r22, Y+20	; 0x14
    4654:	7d 89       	ldd	r23, Y+21	; 0x15
    4656:	8e 89       	ldd	r24, Y+22	; 0x16
    4658:	9f 89       	ldd	r25, Y+23	; 0x17
    465a:	0e 94 52 32 	call	0x64a4	; 0x64a4 <__mulsf3>
    465e:	dc 01       	movw	r26, r24
    4660:	cb 01       	movw	r24, r22
    4662:	bc 01       	movw	r22, r24
    4664:	cd 01       	movw	r24, r26
    4666:	0e 94 32 31 	call	0x6264	; 0x6264 <__fixunssfsi>
    466a:	dc 01       	movw	r26, r24
    466c:	cb 01       	movw	r24, r22
    466e:	9d 8f       	std	Y+29, r25	; 0x1d
    4670:	8c 8f       	std	Y+28, r24	; 0x1c
    4672:	0f c0       	rjmp	.+30     	; 0x4692 <moveOnDirection+0x21e>
    4674:	8a ef       	ldi	r24, 0xFA	; 250
    4676:	90 e0       	ldi	r25, 0x00	; 0
    4678:	9f 8f       	std	Y+31, r25	; 0x1f
    467a:	8e 8f       	std	Y+30, r24	; 0x1e
    467c:	8e 8d       	ldd	r24, Y+30	; 0x1e
    467e:	9f 8d       	ldd	r25, Y+31	; 0x1f
    4680:	01 97       	sbiw	r24, 0x01	; 1
    4682:	f1 f7       	brne	.-4      	; 0x4680 <moveOnDirection+0x20c>
    4684:	9f 8f       	std	Y+31, r25	; 0x1f
    4686:	8e 8f       	std	Y+30, r24	; 0x1e
    4688:	8c 8d       	ldd	r24, Y+28	; 0x1c
    468a:	9d 8d       	ldd	r25, Y+29	; 0x1d
    468c:	01 97       	sbiw	r24, 0x01	; 1
    468e:	9d 8f       	std	Y+29, r25	; 0x1d
    4690:	8c 8f       	std	Y+28, r24	; 0x1c
    4692:	8c 8d       	ldd	r24, Y+28	; 0x1c
    4694:	9d 8d       	ldd	r25, Y+29	; 0x1d
    4696:	00 97       	sbiw	r24, 0x00	; 0
    4698:	69 f7       	brne	.-38     	; 0x4674 <moveOnDirection+0x200>
    469a:	14 c0       	rjmp	.+40     	; 0x46c4 <moveOnDirection+0x250>
    469c:	68 8d       	ldd	r22, Y+24	; 0x18
    469e:	79 8d       	ldd	r23, Y+25	; 0x19
    46a0:	8a 8d       	ldd	r24, Y+26	; 0x1a
    46a2:	9b 8d       	ldd	r25, Y+27	; 0x1b
    46a4:	0e 94 32 31 	call	0x6264	; 0x6264 <__fixunssfsi>
    46a8:	dc 01       	movw	r26, r24
    46aa:	cb 01       	movw	r24, r22
    46ac:	9d 8f       	std	Y+29, r25	; 0x1d
    46ae:	8c 8f       	std	Y+28, r24	; 0x1c
    46b0:	8c 8d       	ldd	r24, Y+28	; 0x1c
    46b2:	9d 8d       	ldd	r25, Y+29	; 0x1d
    46b4:	99 a3       	std	Y+33, r25	; 0x21
    46b6:	88 a3       	std	Y+32, r24	; 0x20
    46b8:	88 a1       	ldd	r24, Y+32	; 0x20
    46ba:	99 a1       	ldd	r25, Y+33	; 0x21
    46bc:	01 97       	sbiw	r24, 0x01	; 1
    46be:	f1 f7       	brne	.-4      	; 0x46bc <moveOnDirection+0x248>
    46c0:	99 a3       	std	Y+33, r25	; 0x21
    46c2:	88 a3       	std	Y+32, r24	; 0x20
    46c4:	ce 01       	movw	r24, r28
    46c6:	ce 96       	adiw	r24, 0x3e	; 62
    46c8:	63 ec       	ldi	r22, 0xC3	; 195
    46ca:	0e 94 6f 0b 	call	0x16de	; 0x16de <CAN_Write>
    46ce:	88 23       	and	r24, r24
    46d0:	09 f0       	breq	.+2      	; 0x46d4 <moveOnDirection+0x260>
    46d2:	86 cf       	rjmp	.-244    	; 0x45e0 <moveOnDirection+0x16c>
    46d4:	0e 94 8e 2e 	call	0x5d1c	; 0x5d1c <getSystemTime>
    46d8:	aa 27       	eor	r26, r26
    46da:	97 fd       	sbrc	r25, 7
    46dc:	a0 95       	com	r26
    46de:	ba 2f       	mov	r27, r26
    46e0:	89 83       	std	Y+1, r24	; 0x01
    46e2:	9a 83       	std	Y+2, r25	; 0x02
    46e4:	ab 83       	std	Y+3, r26	; 0x03
    46e6:	bc 83       	std	Y+4, r27	; 0x04
    46e8:	80 e5       	ldi	r24, 0x50	; 80
    46ea:	8e af       	std	Y+62, r24	; 0x3e
    46ec:	72 c0       	rjmp	.+228    	; 0x47d2 <moveOnDirection+0x35e>
    46ee:	80 e0       	ldi	r24, 0x00	; 0
    46f0:	90 e0       	ldi	r25, 0x00	; 0
    46f2:	a8 e4       	ldi	r26, 0x48	; 72
    46f4:	b2 e4       	ldi	r27, 0x42	; 66
    46f6:	8a a3       	std	Y+34, r24	; 0x22
    46f8:	9b a3       	std	Y+35, r25	; 0x23
    46fa:	ac a3       	std	Y+36, r26	; 0x24
    46fc:	bd a3       	std	Y+37, r27	; 0x25
    46fe:	20 e0       	ldi	r18, 0x00	; 0
    4700:	30 e4       	ldi	r19, 0x40	; 64
    4702:	4c e1       	ldi	r20, 0x1C	; 28
    4704:	55 e4       	ldi	r21, 0x45	; 69
    4706:	6a a1       	ldd	r22, Y+34	; 0x22
    4708:	7b a1       	ldd	r23, Y+35	; 0x23
    470a:	8c a1       	ldd	r24, Y+36	; 0x24
    470c:	9d a1       	ldd	r25, Y+37	; 0x25
    470e:	0e 94 52 32 	call	0x64a4	; 0x64a4 <__mulsf3>
    4712:	dc 01       	movw	r26, r24
    4714:	cb 01       	movw	r24, r22
    4716:	8e a3       	std	Y+38, r24	; 0x26
    4718:	9f a3       	std	Y+39, r25	; 0x27
    471a:	a8 a7       	std	Y+40, r26	; 0x28
    471c:	b9 a7       	std	Y+41, r27	; 0x29
    471e:	20 e0       	ldi	r18, 0x00	; 0
    4720:	30 e0       	ldi	r19, 0x00	; 0
    4722:	40 e8       	ldi	r20, 0x80	; 128
    4724:	5f e3       	ldi	r21, 0x3F	; 63
    4726:	6e a1       	ldd	r22, Y+38	; 0x26
    4728:	7f a1       	ldd	r23, Y+39	; 0x27
    472a:	88 a5       	ldd	r24, Y+40	; 0x28
    472c:	99 a5       	ldd	r25, Y+41	; 0x29
    472e:	0e 94 c6 30 	call	0x618c	; 0x618c <__cmpsf2>
    4732:	88 23       	and	r24, r24
    4734:	2c f4       	brge	.+10     	; 0x4740 <moveOnDirection+0x2cc>
    4736:	81 e0       	ldi	r24, 0x01	; 1
    4738:	90 e0       	ldi	r25, 0x00	; 0
    473a:	9b a7       	std	Y+43, r25	; 0x2b
    473c:	8a a7       	std	Y+42, r24	; 0x2a
    473e:	3f c0       	rjmp	.+126    	; 0x47be <moveOnDirection+0x34a>
    4740:	20 e0       	ldi	r18, 0x00	; 0
    4742:	3f ef       	ldi	r19, 0xFF	; 255
    4744:	4f e7       	ldi	r20, 0x7F	; 127
    4746:	57 e4       	ldi	r21, 0x47	; 71
    4748:	6e a1       	ldd	r22, Y+38	; 0x26
    474a:	7f a1       	ldd	r23, Y+39	; 0x27
    474c:	88 a5       	ldd	r24, Y+40	; 0x28
    474e:	99 a5       	ldd	r25, Y+41	; 0x29
    4750:	0e 94 4e 32 	call	0x649c	; 0x649c <__gesf2>
    4754:	18 16       	cp	r1, r24
    4756:	4c f5       	brge	.+82     	; 0x47aa <moveOnDirection+0x336>
    4758:	20 e0       	ldi	r18, 0x00	; 0
    475a:	30 e0       	ldi	r19, 0x00	; 0
    475c:	40 e2       	ldi	r20, 0x20	; 32
    475e:	51 e4       	ldi	r21, 0x41	; 65
    4760:	6a a1       	ldd	r22, Y+34	; 0x22
    4762:	7b a1       	ldd	r23, Y+35	; 0x23
    4764:	8c a1       	ldd	r24, Y+36	; 0x24
    4766:	9d a1       	ldd	r25, Y+37	; 0x25
    4768:	0e 94 52 32 	call	0x64a4	; 0x64a4 <__mulsf3>
    476c:	dc 01       	movw	r26, r24
    476e:	cb 01       	movw	r24, r22
    4770:	bc 01       	movw	r22, r24
    4772:	cd 01       	movw	r24, r26
    4774:	0e 94 32 31 	call	0x6264	; 0x6264 <__fixunssfsi>
    4778:	dc 01       	movw	r26, r24
    477a:	cb 01       	movw	r24, r22
    477c:	9b a7       	std	Y+43, r25	; 0x2b
    477e:	8a a7       	std	Y+42, r24	; 0x2a
    4780:	0f c0       	rjmp	.+30     	; 0x47a0 <moveOnDirection+0x32c>
    4782:	8a ef       	ldi	r24, 0xFA	; 250
    4784:	90 e0       	ldi	r25, 0x00	; 0
    4786:	9d a7       	std	Y+45, r25	; 0x2d
    4788:	8c a7       	std	Y+44, r24	; 0x2c
    478a:	8c a5       	ldd	r24, Y+44	; 0x2c
    478c:	9d a5       	ldd	r25, Y+45	; 0x2d
    478e:	01 97       	sbiw	r24, 0x01	; 1
    4790:	f1 f7       	brne	.-4      	; 0x478e <moveOnDirection+0x31a>
    4792:	9d a7       	std	Y+45, r25	; 0x2d
    4794:	8c a7       	std	Y+44, r24	; 0x2c
    4796:	8a a5       	ldd	r24, Y+42	; 0x2a
    4798:	9b a5       	ldd	r25, Y+43	; 0x2b
    479a:	01 97       	sbiw	r24, 0x01	; 1
    479c:	9b a7       	std	Y+43, r25	; 0x2b
    479e:	8a a7       	std	Y+42, r24	; 0x2a
    47a0:	8a a5       	ldd	r24, Y+42	; 0x2a
    47a2:	9b a5       	ldd	r25, Y+43	; 0x2b
    47a4:	00 97       	sbiw	r24, 0x00	; 0
    47a6:	69 f7       	brne	.-38     	; 0x4782 <moveOnDirection+0x30e>
    47a8:	14 c0       	rjmp	.+40     	; 0x47d2 <moveOnDirection+0x35e>
    47aa:	6e a1       	ldd	r22, Y+38	; 0x26
    47ac:	7f a1       	ldd	r23, Y+39	; 0x27
    47ae:	88 a5       	ldd	r24, Y+40	; 0x28
    47b0:	99 a5       	ldd	r25, Y+41	; 0x29
    47b2:	0e 94 32 31 	call	0x6264	; 0x6264 <__fixunssfsi>
    47b6:	dc 01       	movw	r26, r24
    47b8:	cb 01       	movw	r24, r22
    47ba:	9b a7       	std	Y+43, r25	; 0x2b
    47bc:	8a a7       	std	Y+42, r24	; 0x2a
    47be:	8a a5       	ldd	r24, Y+42	; 0x2a
    47c0:	9b a5       	ldd	r25, Y+43	; 0x2b
    47c2:	9f a7       	std	Y+47, r25	; 0x2f
    47c4:	8e a7       	std	Y+46, r24	; 0x2e
    47c6:	8e a5       	ldd	r24, Y+46	; 0x2e
    47c8:	9f a5       	ldd	r25, Y+47	; 0x2f
    47ca:	01 97       	sbiw	r24, 0x01	; 1
    47cc:	f1 f7       	brne	.-4      	; 0x47ca <moveOnDirection+0x356>
    47ce:	9f a7       	std	Y+47, r25	; 0x2f
    47d0:	8e a7       	std	Y+46, r24	; 0x2e
    47d2:	ce 01       	movw	r24, r28
    47d4:	ce 96       	adiw	r24, 0x3e	; 62
    47d6:	63 ec       	ldi	r22, 0xC3	; 195
    47d8:	0e 94 6f 0b 	call	0x16de	; 0x16de <CAN_Write>
    47dc:	88 23       	and	r24, r24
    47de:	09 f0       	breq	.+2      	; 0x47e2 <moveOnDirection+0x36e>
    47e0:	86 cf       	rjmp	.-244    	; 0x46ee <moveOnDirection+0x27a>
    47e2:	ce 01       	movw	r24, r28
    47e4:	ce 96       	adiw	r24, 0x3e	; 62
    47e6:	61 e0       	ldi	r22, 0x01	; 1
    47e8:	0e 94 ff 0a 	call	0x15fe	; 0x15fe <CAN_Read>
    47ec:	8e ad       	ldd	r24, Y+62	; 0x3e
    47ee:	89 34       	cpi	r24, 0x49	; 73
    47f0:	11 f4       	brne	.+4      	; 0x47f6 <moveOnDirection+0x382>
    47f2:	80 e0       	ldi	r24, 0x00	; 0
    47f4:	9e c0       	rjmp	.+316    	; 0x4932 <moveOnDirection+0x4be>
    47f6:	8e ad       	ldd	r24, Y+62	; 0x3e
    47f8:	83 35       	cpi	r24, 0x53	; 83
    47fa:	11 f4       	brne	.+4      	; 0x4800 <moveOnDirection+0x38c>
    47fc:	82 e0       	ldi	r24, 0x02	; 2
    47fe:	99 c0       	rjmp	.+306    	; 0x4932 <moveOnDirection+0x4be>
    4800:	8e ad       	ldd	r24, Y+62	; 0x3e
    4802:	85 34       	cpi	r24, 0x45	; 69
    4804:	11 f4       	brne	.+4      	; 0x480a <moveOnDirection+0x396>
    4806:	81 e0       	ldi	r24, 0x01	; 1
    4808:	94 c0       	rjmp	.+296    	; 0x4932 <moveOnDirection+0x4be>
    480a:	80 e0       	ldi	r24, 0x00	; 0
    480c:	90 e0       	ldi	r25, 0x00	; 0
    480e:	a8 e4       	ldi	r26, 0x48	; 72
    4810:	b2 e4       	ldi	r27, 0x42	; 66
    4812:	88 ab       	std	Y+48, r24	; 0x30
    4814:	99 ab       	std	Y+49, r25	; 0x31
    4816:	aa ab       	std	Y+50, r26	; 0x32
    4818:	bb ab       	std	Y+51, r27	; 0x33
    481a:	20 e0       	ldi	r18, 0x00	; 0
    481c:	30 e4       	ldi	r19, 0x40	; 64
    481e:	4c e1       	ldi	r20, 0x1C	; 28
    4820:	55 e4       	ldi	r21, 0x45	; 69
    4822:	68 a9       	ldd	r22, Y+48	; 0x30
    4824:	79 a9       	ldd	r23, Y+49	; 0x31
    4826:	8a a9       	ldd	r24, Y+50	; 0x32
    4828:	9b a9       	ldd	r25, Y+51	; 0x33
    482a:	0e 94 52 32 	call	0x64a4	; 0x64a4 <__mulsf3>
    482e:	dc 01       	movw	r26, r24
    4830:	cb 01       	movw	r24, r22
    4832:	8c ab       	std	Y+52, r24	; 0x34
    4834:	9d ab       	std	Y+53, r25	; 0x35
    4836:	ae ab       	std	Y+54, r26	; 0x36
    4838:	bf ab       	std	Y+55, r27	; 0x37
    483a:	20 e0       	ldi	r18, 0x00	; 0
    483c:	30 e0       	ldi	r19, 0x00	; 0
    483e:	40 e8       	ldi	r20, 0x80	; 128
    4840:	5f e3       	ldi	r21, 0x3F	; 63
    4842:	6c a9       	ldd	r22, Y+52	; 0x34
    4844:	7d a9       	ldd	r23, Y+53	; 0x35
    4846:	8e a9       	ldd	r24, Y+54	; 0x36
    4848:	9f a9       	ldd	r25, Y+55	; 0x37
    484a:	0e 94 c6 30 	call	0x618c	; 0x618c <__cmpsf2>
    484e:	88 23       	and	r24, r24
    4850:	2c f4       	brge	.+10     	; 0x485c <moveOnDirection+0x3e8>
    4852:	81 e0       	ldi	r24, 0x01	; 1
    4854:	90 e0       	ldi	r25, 0x00	; 0
    4856:	99 af       	std	Y+57, r25	; 0x39
    4858:	88 af       	std	Y+56, r24	; 0x38
    485a:	3f c0       	rjmp	.+126    	; 0x48da <moveOnDirection+0x466>
    485c:	20 e0       	ldi	r18, 0x00	; 0
    485e:	3f ef       	ldi	r19, 0xFF	; 255
    4860:	4f e7       	ldi	r20, 0x7F	; 127
    4862:	57 e4       	ldi	r21, 0x47	; 71
    4864:	6c a9       	ldd	r22, Y+52	; 0x34
    4866:	7d a9       	ldd	r23, Y+53	; 0x35
    4868:	8e a9       	ldd	r24, Y+54	; 0x36
    486a:	9f a9       	ldd	r25, Y+55	; 0x37
    486c:	0e 94 4e 32 	call	0x649c	; 0x649c <__gesf2>
    4870:	18 16       	cp	r1, r24
    4872:	4c f5       	brge	.+82     	; 0x48c6 <moveOnDirection+0x452>
    4874:	20 e0       	ldi	r18, 0x00	; 0
    4876:	30 e0       	ldi	r19, 0x00	; 0
    4878:	40 e2       	ldi	r20, 0x20	; 32
    487a:	51 e4       	ldi	r21, 0x41	; 65
    487c:	68 a9       	ldd	r22, Y+48	; 0x30
    487e:	79 a9       	ldd	r23, Y+49	; 0x31
    4880:	8a a9       	ldd	r24, Y+50	; 0x32
    4882:	9b a9       	ldd	r25, Y+51	; 0x33
    4884:	0e 94 52 32 	call	0x64a4	; 0x64a4 <__mulsf3>
    4888:	dc 01       	movw	r26, r24
    488a:	cb 01       	movw	r24, r22
    488c:	bc 01       	movw	r22, r24
    488e:	cd 01       	movw	r24, r26
    4890:	0e 94 32 31 	call	0x6264	; 0x6264 <__fixunssfsi>
    4894:	dc 01       	movw	r26, r24
    4896:	cb 01       	movw	r24, r22
    4898:	99 af       	std	Y+57, r25	; 0x39
    489a:	88 af       	std	Y+56, r24	; 0x38
    489c:	0f c0       	rjmp	.+30     	; 0x48bc <moveOnDirection+0x448>
    489e:	8a ef       	ldi	r24, 0xFA	; 250
    48a0:	90 e0       	ldi	r25, 0x00	; 0
    48a2:	9b af       	std	Y+59, r25	; 0x3b
    48a4:	8a af       	std	Y+58, r24	; 0x3a
    48a6:	8a ad       	ldd	r24, Y+58	; 0x3a
    48a8:	9b ad       	ldd	r25, Y+59	; 0x3b
    48aa:	01 97       	sbiw	r24, 0x01	; 1
    48ac:	f1 f7       	brne	.-4      	; 0x48aa <moveOnDirection+0x436>
    48ae:	9b af       	std	Y+59, r25	; 0x3b
    48b0:	8a af       	std	Y+58, r24	; 0x3a
    48b2:	88 ad       	ldd	r24, Y+56	; 0x38
    48b4:	99 ad       	ldd	r25, Y+57	; 0x39
    48b6:	01 97       	sbiw	r24, 0x01	; 1
    48b8:	99 af       	std	Y+57, r25	; 0x39
    48ba:	88 af       	std	Y+56, r24	; 0x38
    48bc:	88 ad       	ldd	r24, Y+56	; 0x38
    48be:	99 ad       	ldd	r25, Y+57	; 0x39
    48c0:	00 97       	sbiw	r24, 0x00	; 0
    48c2:	69 f7       	brne	.-38     	; 0x489e <moveOnDirection+0x42a>
    48c4:	14 c0       	rjmp	.+40     	; 0x48ee <moveOnDirection+0x47a>
    48c6:	6c a9       	ldd	r22, Y+52	; 0x34
    48c8:	7d a9       	ldd	r23, Y+53	; 0x35
    48ca:	8e a9       	ldd	r24, Y+54	; 0x36
    48cc:	9f a9       	ldd	r25, Y+55	; 0x37
    48ce:	0e 94 32 31 	call	0x6264	; 0x6264 <__fixunssfsi>
    48d2:	dc 01       	movw	r26, r24
    48d4:	cb 01       	movw	r24, r22
    48d6:	99 af       	std	Y+57, r25	; 0x39
    48d8:	88 af       	std	Y+56, r24	; 0x38
    48da:	88 ad       	ldd	r24, Y+56	; 0x38
    48dc:	99 ad       	ldd	r25, Y+57	; 0x39
    48de:	9d af       	std	Y+61, r25	; 0x3d
    48e0:	8c af       	std	Y+60, r24	; 0x3c
    48e2:	8c ad       	ldd	r24, Y+60	; 0x3c
    48e4:	9d ad       	ldd	r25, Y+61	; 0x3d
    48e6:	01 97       	sbiw	r24, 0x01	; 1
    48e8:	f1 f7       	brne	.-4      	; 0x48e6 <moveOnDirection+0x472>
    48ea:	9d af       	std	Y+61, r25	; 0x3d
    48ec:	8c af       	std	Y+60, r24	; 0x3c
    48ee:	ce 01       	movw	r24, r28
    48f0:	87 5b       	subi	r24, 0xB7	; 183
    48f2:	9f 4f       	sbci	r25, 0xFF	; 255
    48f4:	fc 01       	movw	r30, r24
    48f6:	80 81       	ld	r24, Z
    48f8:	91 81       	ldd	r25, Z+1	; 0x01
    48fa:	00 97       	sbiw	r24, 0x00	; 0
    48fc:	c9 f0       	breq	.+50     	; 0x4930 <moveOnDirection+0x4bc>
    48fe:	9e 01       	movw	r18, r28
    4900:	27 5b       	subi	r18, 0xB7	; 183
    4902:	3f 4f       	sbci	r19, 0xFF	; 255
    4904:	89 81       	ldd	r24, Y+1	; 0x01
    4906:	9a 81       	ldd	r25, Y+2	; 0x02
    4908:	ab 81       	ldd	r26, Y+3	; 0x03
    490a:	bc 81       	ldd	r27, Y+4	; 0x04
    490c:	f9 01       	movw	r30, r18
    490e:	20 81       	ld	r18, Z
    4910:	31 81       	ldd	r19, Z+1	; 0x01
    4912:	bc 01       	movw	r22, r24
    4914:	cd 01       	movw	r24, r26
    4916:	f9 01       	movw	r30, r18
    4918:	09 95       	icall
    491a:	8d 83       	std	Y+5, r24	; 0x05
    491c:	8d 81       	ldd	r24, Y+5	; 0x05
    491e:	81 30       	cpi	r24, 0x01	; 1
    4920:	11 f4       	brne	.+4      	; 0x4926 <moveOnDirection+0x4b2>
    4922:	81 e0       	ldi	r24, 0x01	; 1
    4924:	06 c0       	rjmp	.+12     	; 0x4932 <moveOnDirection+0x4be>
    4926:	8d 81       	ldd	r24, Y+5	; 0x05
    4928:	82 30       	cpi	r24, 0x02	; 2
    492a:	11 f4       	brne	.+4      	; 0x4930 <moveOnDirection+0x4bc>
    492c:	83 e0       	ldi	r24, 0x03	; 3
    492e:	01 c0       	rjmp	.+2      	; 0x4932 <moveOnDirection+0x4be>
    4930:	db ce       	rjmp	.-586    	; 0x46e8 <moveOnDirection+0x274>
    4932:	c6 5b       	subi	r28, 0xB6	; 182
    4934:	df 4f       	sbci	r29, 0xFF	; 255
    4936:	0f b6       	in	r0, 0x3f	; 63
    4938:	f8 94       	cli
    493a:	de bf       	out	0x3e, r29	; 62
    493c:	0f be       	out	0x3f, r0	; 63
    493e:	cd bf       	out	0x3d, r28	; 61
    4940:	df 91       	pop	r29
    4942:	cf 91       	pop	r28
    4944:	08 95       	ret

00004946 <gotoXY>:
    4946:	ef 92       	push	r14
    4948:	ff 92       	push	r15
    494a:	0f 93       	push	r16
    494c:	cf 93       	push	r28
    494e:	df 93       	push	r29
    4950:	cd b7       	in	r28, 0x3d	; 61
    4952:	de b7       	in	r29, 0x3e	; 62
    4954:	cf 54       	subi	r28, 0x4F	; 79
    4956:	d1 09       	sbc	r29, r1
    4958:	0f b6       	in	r0, 0x3f	; 63
    495a:	f8 94       	cli
    495c:	de bf       	out	0x3e, r29	; 62
    495e:	0f be       	out	0x3f, r0	; 63
    4960:	cd bf       	out	0x3d, r28	; 61
    4962:	fe 01       	movw	r30, r28
    4964:	ea 5b       	subi	r30, 0xBA	; 186
    4966:	ff 4f       	sbci	r31, 0xFF	; 255
    4968:	40 83       	st	Z, r20
    496a:	51 83       	std	Z+1, r21	; 0x01
    496c:	62 83       	std	Z+2, r22	; 0x02
    496e:	73 83       	std	Z+3, r23	; 0x03
    4970:	84 83       	std	Z+4, r24	; 0x04
    4972:	95 83       	std	Z+5, r25	; 0x05
    4974:	ce 01       	movw	r24, r28
    4976:	84 5b       	subi	r24, 0xB4	; 180
    4978:	9f 4f       	sbci	r25, 0xFF	; 255
    497a:	fc 01       	movw	r30, r24
    497c:	20 83       	st	Z, r18
    497e:	ce 01       	movw	r24, r28
    4980:	83 5b       	subi	r24, 0xB3	; 179
    4982:	9f 4f       	sbci	r25, 0xFF	; 255
    4984:	fc 01       	movw	r30, r24
    4986:	00 83       	st	Z, r16
    4988:	ce 01       	movw	r24, r28
    498a:	82 5b       	subi	r24, 0xB2	; 178
    498c:	9f 4f       	sbci	r25, 0xFF	; 255
    498e:	fc 01       	movw	r30, r24
    4990:	f1 82       	std	Z+1, r15	; 0x01
    4992:	e0 82       	st	Z, r14
    4994:	86 e5       	ldi	r24, 0x56	; 86
    4996:	8e af       	std	Y+62, r24	; 0x3e
    4998:	ce 01       	movw	r24, r28
    499a:	84 5b       	subi	r24, 0xB4	; 180
    499c:	9f 4f       	sbci	r25, 0xFF	; 255
    499e:	fc 01       	movw	r30, r24
    49a0:	80 81       	ld	r24, Z
    49a2:	8f af       	std	Y+63, r24	; 0x3f
    49a4:	72 c0       	rjmp	.+228    	; 0x4a8a <gotoXY+0x144>
    49a6:	80 e0       	ldi	r24, 0x00	; 0
    49a8:	90 e0       	ldi	r25, 0x00	; 0
    49aa:	a8 e4       	ldi	r26, 0x48	; 72
    49ac:	b2 e4       	ldi	r27, 0x42	; 66
    49ae:	8e 83       	std	Y+6, r24	; 0x06
    49b0:	9f 83       	std	Y+7, r25	; 0x07
    49b2:	a8 87       	std	Y+8, r26	; 0x08
    49b4:	b9 87       	std	Y+9, r27	; 0x09
    49b6:	20 e0       	ldi	r18, 0x00	; 0
    49b8:	30 e4       	ldi	r19, 0x40	; 64
    49ba:	4c e1       	ldi	r20, 0x1C	; 28
    49bc:	55 e4       	ldi	r21, 0x45	; 69
    49be:	6e 81       	ldd	r22, Y+6	; 0x06
    49c0:	7f 81       	ldd	r23, Y+7	; 0x07
    49c2:	88 85       	ldd	r24, Y+8	; 0x08
    49c4:	99 85       	ldd	r25, Y+9	; 0x09
    49c6:	0e 94 52 32 	call	0x64a4	; 0x64a4 <__mulsf3>
    49ca:	dc 01       	movw	r26, r24
    49cc:	cb 01       	movw	r24, r22
    49ce:	8a 87       	std	Y+10, r24	; 0x0a
    49d0:	9b 87       	std	Y+11, r25	; 0x0b
    49d2:	ac 87       	std	Y+12, r26	; 0x0c
    49d4:	bd 87       	std	Y+13, r27	; 0x0d
    49d6:	20 e0       	ldi	r18, 0x00	; 0
    49d8:	30 e0       	ldi	r19, 0x00	; 0
    49da:	40 e8       	ldi	r20, 0x80	; 128
    49dc:	5f e3       	ldi	r21, 0x3F	; 63
    49de:	6a 85       	ldd	r22, Y+10	; 0x0a
    49e0:	7b 85       	ldd	r23, Y+11	; 0x0b
    49e2:	8c 85       	ldd	r24, Y+12	; 0x0c
    49e4:	9d 85       	ldd	r25, Y+13	; 0x0d
    49e6:	0e 94 c6 30 	call	0x618c	; 0x618c <__cmpsf2>
    49ea:	88 23       	and	r24, r24
    49ec:	2c f4       	brge	.+10     	; 0x49f8 <gotoXY+0xb2>
    49ee:	81 e0       	ldi	r24, 0x01	; 1
    49f0:	90 e0       	ldi	r25, 0x00	; 0
    49f2:	9f 87       	std	Y+15, r25	; 0x0f
    49f4:	8e 87       	std	Y+14, r24	; 0x0e
    49f6:	3f c0       	rjmp	.+126    	; 0x4a76 <gotoXY+0x130>
    49f8:	20 e0       	ldi	r18, 0x00	; 0
    49fa:	3f ef       	ldi	r19, 0xFF	; 255
    49fc:	4f e7       	ldi	r20, 0x7F	; 127
    49fe:	57 e4       	ldi	r21, 0x47	; 71
    4a00:	6a 85       	ldd	r22, Y+10	; 0x0a
    4a02:	7b 85       	ldd	r23, Y+11	; 0x0b
    4a04:	8c 85       	ldd	r24, Y+12	; 0x0c
    4a06:	9d 85       	ldd	r25, Y+13	; 0x0d
    4a08:	0e 94 4e 32 	call	0x649c	; 0x649c <__gesf2>
    4a0c:	18 16       	cp	r1, r24
    4a0e:	4c f5       	brge	.+82     	; 0x4a62 <gotoXY+0x11c>
    4a10:	20 e0       	ldi	r18, 0x00	; 0
    4a12:	30 e0       	ldi	r19, 0x00	; 0
    4a14:	40 e2       	ldi	r20, 0x20	; 32
    4a16:	51 e4       	ldi	r21, 0x41	; 65
    4a18:	6e 81       	ldd	r22, Y+6	; 0x06
    4a1a:	7f 81       	ldd	r23, Y+7	; 0x07
    4a1c:	88 85       	ldd	r24, Y+8	; 0x08
    4a1e:	99 85       	ldd	r25, Y+9	; 0x09
    4a20:	0e 94 52 32 	call	0x64a4	; 0x64a4 <__mulsf3>
    4a24:	dc 01       	movw	r26, r24
    4a26:	cb 01       	movw	r24, r22
    4a28:	bc 01       	movw	r22, r24
    4a2a:	cd 01       	movw	r24, r26
    4a2c:	0e 94 32 31 	call	0x6264	; 0x6264 <__fixunssfsi>
    4a30:	dc 01       	movw	r26, r24
    4a32:	cb 01       	movw	r24, r22
    4a34:	9f 87       	std	Y+15, r25	; 0x0f
    4a36:	8e 87       	std	Y+14, r24	; 0x0e
    4a38:	0f c0       	rjmp	.+30     	; 0x4a58 <gotoXY+0x112>
    4a3a:	8a ef       	ldi	r24, 0xFA	; 250
    4a3c:	90 e0       	ldi	r25, 0x00	; 0
    4a3e:	99 8b       	std	Y+17, r25	; 0x11
    4a40:	88 8b       	std	Y+16, r24	; 0x10
    4a42:	88 89       	ldd	r24, Y+16	; 0x10
    4a44:	99 89       	ldd	r25, Y+17	; 0x11
    4a46:	01 97       	sbiw	r24, 0x01	; 1
    4a48:	f1 f7       	brne	.-4      	; 0x4a46 <gotoXY+0x100>
    4a4a:	99 8b       	std	Y+17, r25	; 0x11
    4a4c:	88 8b       	std	Y+16, r24	; 0x10
    4a4e:	8e 85       	ldd	r24, Y+14	; 0x0e
    4a50:	9f 85       	ldd	r25, Y+15	; 0x0f
    4a52:	01 97       	sbiw	r24, 0x01	; 1
    4a54:	9f 87       	std	Y+15, r25	; 0x0f
    4a56:	8e 87       	std	Y+14, r24	; 0x0e
    4a58:	8e 85       	ldd	r24, Y+14	; 0x0e
    4a5a:	9f 85       	ldd	r25, Y+15	; 0x0f
    4a5c:	00 97       	sbiw	r24, 0x00	; 0
    4a5e:	69 f7       	brne	.-38     	; 0x4a3a <gotoXY+0xf4>
    4a60:	14 c0       	rjmp	.+40     	; 0x4a8a <gotoXY+0x144>
    4a62:	6a 85       	ldd	r22, Y+10	; 0x0a
    4a64:	7b 85       	ldd	r23, Y+11	; 0x0b
    4a66:	8c 85       	ldd	r24, Y+12	; 0x0c
    4a68:	9d 85       	ldd	r25, Y+13	; 0x0d
    4a6a:	0e 94 32 31 	call	0x6264	; 0x6264 <__fixunssfsi>
    4a6e:	dc 01       	movw	r26, r24
    4a70:	cb 01       	movw	r24, r22
    4a72:	9f 87       	std	Y+15, r25	; 0x0f
    4a74:	8e 87       	std	Y+14, r24	; 0x0e
    4a76:	8e 85       	ldd	r24, Y+14	; 0x0e
    4a78:	9f 85       	ldd	r25, Y+15	; 0x0f
    4a7a:	9b 8b       	std	Y+19, r25	; 0x13
    4a7c:	8a 8b       	std	Y+18, r24	; 0x12
    4a7e:	8a 89       	ldd	r24, Y+18	; 0x12
    4a80:	9b 89       	ldd	r25, Y+19	; 0x13
    4a82:	01 97       	sbiw	r24, 0x01	; 1
    4a84:	f1 f7       	brne	.-4      	; 0x4a82 <gotoXY+0x13c>
    4a86:	9b 8b       	std	Y+19, r25	; 0x13
    4a88:	8a 8b       	std	Y+18, r24	; 0x12
    4a8a:	ce 01       	movw	r24, r28
    4a8c:	ce 96       	adiw	r24, 0x3e	; 62
    4a8e:	63 ec       	ldi	r22, 0xC3	; 195
    4a90:	0e 94 6f 0b 	call	0x16de	; 0x16de <CAN_Write>
    4a94:	88 23       	and	r24, r24
    4a96:	09 f0       	breq	.+2      	; 0x4a9a <gotoXY+0x154>
    4a98:	86 cf       	rjmp	.-244    	; 0x49a6 <gotoXY+0x60>
    4a9a:	87 e4       	ldi	r24, 0x47	; 71
    4a9c:	8e af       	std	Y+62, r24	; 0x3e
    4a9e:	ce 01       	movw	r24, r28
    4aa0:	8a 5b       	subi	r24, 0xBA	; 186
    4aa2:	9f 4f       	sbci	r25, 0xFF	; 255
    4aa4:	fc 01       	movw	r30, r24
    4aa6:	80 81       	ld	r24, Z
    4aa8:	91 81       	ldd	r25, Z+1	; 0x01
    4aaa:	89 2f       	mov	r24, r25
    4aac:	99 0f       	add	r25, r25
    4aae:	99 0b       	sbc	r25, r25
    4ab0:	8f af       	std	Y+63, r24	; 0x3f
    4ab2:	ce 01       	movw	r24, r28
    4ab4:	8a 5b       	subi	r24, 0xBA	; 186
    4ab6:	9f 4f       	sbci	r25, 0xFF	; 255
    4ab8:	fc 01       	movw	r30, r24
    4aba:	80 81       	ld	r24, Z
    4abc:	91 81       	ldd	r25, Z+1	; 0x01
    4abe:	28 2f       	mov	r18, r24
    4ac0:	ce 01       	movw	r24, r28
    4ac2:	80 5c       	subi	r24, 0xC0	; 192
    4ac4:	9f 4f       	sbci	r25, 0xFF	; 255
    4ac6:	fc 01       	movw	r30, r24
    4ac8:	20 83       	st	Z, r18
    4aca:	ce 01       	movw	r24, r28
    4acc:	8a 5b       	subi	r24, 0xBA	; 186
    4ace:	9f 4f       	sbci	r25, 0xFF	; 255
    4ad0:	fc 01       	movw	r30, r24
    4ad2:	82 81       	ldd	r24, Z+2	; 0x02
    4ad4:	93 81       	ldd	r25, Z+3	; 0x03
    4ad6:	89 2f       	mov	r24, r25
    4ad8:	99 0f       	add	r25, r25
    4ada:	99 0b       	sbc	r25, r25
    4adc:	28 2f       	mov	r18, r24
    4ade:	ce 01       	movw	r24, r28
    4ae0:	8f 5b       	subi	r24, 0xBF	; 191
    4ae2:	9f 4f       	sbci	r25, 0xFF	; 255
    4ae4:	fc 01       	movw	r30, r24
    4ae6:	20 83       	st	Z, r18
    4ae8:	ce 01       	movw	r24, r28
    4aea:	8a 5b       	subi	r24, 0xBA	; 186
    4aec:	9f 4f       	sbci	r25, 0xFF	; 255
    4aee:	fc 01       	movw	r30, r24
    4af0:	82 81       	ldd	r24, Z+2	; 0x02
    4af2:	93 81       	ldd	r25, Z+3	; 0x03
    4af4:	28 2f       	mov	r18, r24
    4af6:	ce 01       	movw	r24, r28
    4af8:	8e 5b       	subi	r24, 0xBE	; 190
    4afa:	9f 4f       	sbci	r25, 0xFF	; 255
    4afc:	fc 01       	movw	r30, r24
    4afe:	20 83       	st	Z, r18
    4b00:	ce 01       	movw	r24, r28
    4b02:	8d 5b       	subi	r24, 0xBD	; 189
    4b04:	9f 4f       	sbci	r25, 0xFF	; 255
    4b06:	fc 01       	movw	r30, r24
    4b08:	10 82       	st	Z, r1
    4b0a:	ce 01       	movw	r24, r28
    4b0c:	83 5b       	subi	r24, 0xB3	; 179
    4b0e:	9f 4f       	sbci	r25, 0xFF	; 255
    4b10:	fc 01       	movw	r30, r24
    4b12:	20 81       	ld	r18, Z
    4b14:	ce 01       	movw	r24, r28
    4b16:	8c 5b       	subi	r24, 0xBC	; 188
    4b18:	9f 4f       	sbci	r25, 0xFF	; 255
    4b1a:	fc 01       	movw	r30, r24
    4b1c:	20 83       	st	Z, r18
    4b1e:	72 c0       	rjmp	.+228    	; 0x4c04 <gotoXY+0x2be>
    4b20:	80 e0       	ldi	r24, 0x00	; 0
    4b22:	90 e0       	ldi	r25, 0x00	; 0
    4b24:	a8 e4       	ldi	r26, 0x48	; 72
    4b26:	b2 e4       	ldi	r27, 0x42	; 66
    4b28:	8c 8b       	std	Y+20, r24	; 0x14
    4b2a:	9d 8b       	std	Y+21, r25	; 0x15
    4b2c:	ae 8b       	std	Y+22, r26	; 0x16
    4b2e:	bf 8b       	std	Y+23, r27	; 0x17
    4b30:	20 e0       	ldi	r18, 0x00	; 0
    4b32:	30 e4       	ldi	r19, 0x40	; 64
    4b34:	4c e1       	ldi	r20, 0x1C	; 28
    4b36:	55 e4       	ldi	r21, 0x45	; 69
    4b38:	6c 89       	ldd	r22, Y+20	; 0x14
    4b3a:	7d 89       	ldd	r23, Y+21	; 0x15
    4b3c:	8e 89       	ldd	r24, Y+22	; 0x16
    4b3e:	9f 89       	ldd	r25, Y+23	; 0x17
    4b40:	0e 94 52 32 	call	0x64a4	; 0x64a4 <__mulsf3>
    4b44:	dc 01       	movw	r26, r24
    4b46:	cb 01       	movw	r24, r22
    4b48:	88 8f       	std	Y+24, r24	; 0x18
    4b4a:	99 8f       	std	Y+25, r25	; 0x19
    4b4c:	aa 8f       	std	Y+26, r26	; 0x1a
    4b4e:	bb 8f       	std	Y+27, r27	; 0x1b
    4b50:	20 e0       	ldi	r18, 0x00	; 0
    4b52:	30 e0       	ldi	r19, 0x00	; 0
    4b54:	40 e8       	ldi	r20, 0x80	; 128
    4b56:	5f e3       	ldi	r21, 0x3F	; 63
    4b58:	68 8d       	ldd	r22, Y+24	; 0x18
    4b5a:	79 8d       	ldd	r23, Y+25	; 0x19
    4b5c:	8a 8d       	ldd	r24, Y+26	; 0x1a
    4b5e:	9b 8d       	ldd	r25, Y+27	; 0x1b
    4b60:	0e 94 c6 30 	call	0x618c	; 0x618c <__cmpsf2>
    4b64:	88 23       	and	r24, r24
    4b66:	2c f4       	brge	.+10     	; 0x4b72 <gotoXY+0x22c>
    4b68:	81 e0       	ldi	r24, 0x01	; 1
    4b6a:	90 e0       	ldi	r25, 0x00	; 0
    4b6c:	9d 8f       	std	Y+29, r25	; 0x1d
    4b6e:	8c 8f       	std	Y+28, r24	; 0x1c
    4b70:	3f c0       	rjmp	.+126    	; 0x4bf0 <gotoXY+0x2aa>
    4b72:	20 e0       	ldi	r18, 0x00	; 0
    4b74:	3f ef       	ldi	r19, 0xFF	; 255
    4b76:	4f e7       	ldi	r20, 0x7F	; 127
    4b78:	57 e4       	ldi	r21, 0x47	; 71
    4b7a:	68 8d       	ldd	r22, Y+24	; 0x18
    4b7c:	79 8d       	ldd	r23, Y+25	; 0x19
    4b7e:	8a 8d       	ldd	r24, Y+26	; 0x1a
    4b80:	9b 8d       	ldd	r25, Y+27	; 0x1b
    4b82:	0e 94 4e 32 	call	0x649c	; 0x649c <__gesf2>
    4b86:	18 16       	cp	r1, r24
    4b88:	4c f5       	brge	.+82     	; 0x4bdc <gotoXY+0x296>
    4b8a:	20 e0       	ldi	r18, 0x00	; 0
    4b8c:	30 e0       	ldi	r19, 0x00	; 0
    4b8e:	40 e2       	ldi	r20, 0x20	; 32
    4b90:	51 e4       	ldi	r21, 0x41	; 65
    4b92:	6c 89       	ldd	r22, Y+20	; 0x14
    4b94:	7d 89       	ldd	r23, Y+21	; 0x15
    4b96:	8e 89       	ldd	r24, Y+22	; 0x16
    4b98:	9f 89       	ldd	r25, Y+23	; 0x17
    4b9a:	0e 94 52 32 	call	0x64a4	; 0x64a4 <__mulsf3>
    4b9e:	dc 01       	movw	r26, r24
    4ba0:	cb 01       	movw	r24, r22
    4ba2:	bc 01       	movw	r22, r24
    4ba4:	cd 01       	movw	r24, r26
    4ba6:	0e 94 32 31 	call	0x6264	; 0x6264 <__fixunssfsi>
    4baa:	dc 01       	movw	r26, r24
    4bac:	cb 01       	movw	r24, r22
    4bae:	9d 8f       	std	Y+29, r25	; 0x1d
    4bb0:	8c 8f       	std	Y+28, r24	; 0x1c
    4bb2:	0f c0       	rjmp	.+30     	; 0x4bd2 <gotoXY+0x28c>
    4bb4:	8a ef       	ldi	r24, 0xFA	; 250
    4bb6:	90 e0       	ldi	r25, 0x00	; 0
    4bb8:	9f 8f       	std	Y+31, r25	; 0x1f
    4bba:	8e 8f       	std	Y+30, r24	; 0x1e
    4bbc:	8e 8d       	ldd	r24, Y+30	; 0x1e
    4bbe:	9f 8d       	ldd	r25, Y+31	; 0x1f
    4bc0:	01 97       	sbiw	r24, 0x01	; 1
    4bc2:	f1 f7       	brne	.-4      	; 0x4bc0 <gotoXY+0x27a>
    4bc4:	9f 8f       	std	Y+31, r25	; 0x1f
    4bc6:	8e 8f       	std	Y+30, r24	; 0x1e
    4bc8:	8c 8d       	ldd	r24, Y+28	; 0x1c
    4bca:	9d 8d       	ldd	r25, Y+29	; 0x1d
    4bcc:	01 97       	sbiw	r24, 0x01	; 1
    4bce:	9d 8f       	std	Y+29, r25	; 0x1d
    4bd0:	8c 8f       	std	Y+28, r24	; 0x1c
    4bd2:	8c 8d       	ldd	r24, Y+28	; 0x1c
    4bd4:	9d 8d       	ldd	r25, Y+29	; 0x1d
    4bd6:	00 97       	sbiw	r24, 0x00	; 0
    4bd8:	69 f7       	brne	.-38     	; 0x4bb4 <gotoXY+0x26e>
    4bda:	14 c0       	rjmp	.+40     	; 0x4c04 <gotoXY+0x2be>
    4bdc:	68 8d       	ldd	r22, Y+24	; 0x18
    4bde:	79 8d       	ldd	r23, Y+25	; 0x19
    4be0:	8a 8d       	ldd	r24, Y+26	; 0x1a
    4be2:	9b 8d       	ldd	r25, Y+27	; 0x1b
    4be4:	0e 94 32 31 	call	0x6264	; 0x6264 <__fixunssfsi>
    4be8:	dc 01       	movw	r26, r24
    4bea:	cb 01       	movw	r24, r22
    4bec:	9d 8f       	std	Y+29, r25	; 0x1d
    4bee:	8c 8f       	std	Y+28, r24	; 0x1c
    4bf0:	8c 8d       	ldd	r24, Y+28	; 0x1c
    4bf2:	9d 8d       	ldd	r25, Y+29	; 0x1d
    4bf4:	99 a3       	std	Y+33, r25	; 0x21
    4bf6:	88 a3       	std	Y+32, r24	; 0x20
    4bf8:	88 a1       	ldd	r24, Y+32	; 0x20
    4bfa:	99 a1       	ldd	r25, Y+33	; 0x21
    4bfc:	01 97       	sbiw	r24, 0x01	; 1
    4bfe:	f1 f7       	brne	.-4      	; 0x4bfc <gotoXY+0x2b6>
    4c00:	99 a3       	std	Y+33, r25	; 0x21
    4c02:	88 a3       	std	Y+32, r24	; 0x20
    4c04:	ce 01       	movw	r24, r28
    4c06:	ce 96       	adiw	r24, 0x3e	; 62
    4c08:	63 ec       	ldi	r22, 0xC3	; 195
    4c0a:	0e 94 6f 0b 	call	0x16de	; 0x16de <CAN_Write>
    4c0e:	88 23       	and	r24, r24
    4c10:	09 f0       	breq	.+2      	; 0x4c14 <gotoXY+0x2ce>
    4c12:	86 cf       	rjmp	.-244    	; 0x4b20 <gotoXY+0x1da>
    4c14:	0e 94 8e 2e 	call	0x5d1c	; 0x5d1c <getSystemTime>
    4c18:	aa 27       	eor	r26, r26
    4c1a:	97 fd       	sbrc	r25, 7
    4c1c:	a0 95       	com	r26
    4c1e:	ba 2f       	mov	r27, r26
    4c20:	89 83       	std	Y+1, r24	; 0x01
    4c22:	9a 83       	std	Y+2, r25	; 0x02
    4c24:	ab 83       	std	Y+3, r26	; 0x03
    4c26:	bc 83       	std	Y+4, r27	; 0x04
    4c28:	80 e5       	ldi	r24, 0x50	; 80
    4c2a:	8e af       	std	Y+62, r24	; 0x3e
    4c2c:	72 c0       	rjmp	.+228    	; 0x4d12 <gotoXY+0x3cc>
    4c2e:	80 e0       	ldi	r24, 0x00	; 0
    4c30:	90 e0       	ldi	r25, 0x00	; 0
    4c32:	a8 e4       	ldi	r26, 0x48	; 72
    4c34:	b2 e4       	ldi	r27, 0x42	; 66
    4c36:	8a a3       	std	Y+34, r24	; 0x22
    4c38:	9b a3       	std	Y+35, r25	; 0x23
    4c3a:	ac a3       	std	Y+36, r26	; 0x24
    4c3c:	bd a3       	std	Y+37, r27	; 0x25
    4c3e:	20 e0       	ldi	r18, 0x00	; 0
    4c40:	30 e4       	ldi	r19, 0x40	; 64
    4c42:	4c e1       	ldi	r20, 0x1C	; 28
    4c44:	55 e4       	ldi	r21, 0x45	; 69
    4c46:	6a a1       	ldd	r22, Y+34	; 0x22
    4c48:	7b a1       	ldd	r23, Y+35	; 0x23
    4c4a:	8c a1       	ldd	r24, Y+36	; 0x24
    4c4c:	9d a1       	ldd	r25, Y+37	; 0x25
    4c4e:	0e 94 52 32 	call	0x64a4	; 0x64a4 <__mulsf3>
    4c52:	dc 01       	movw	r26, r24
    4c54:	cb 01       	movw	r24, r22
    4c56:	8e a3       	std	Y+38, r24	; 0x26
    4c58:	9f a3       	std	Y+39, r25	; 0x27
    4c5a:	a8 a7       	std	Y+40, r26	; 0x28
    4c5c:	b9 a7       	std	Y+41, r27	; 0x29
    4c5e:	20 e0       	ldi	r18, 0x00	; 0
    4c60:	30 e0       	ldi	r19, 0x00	; 0
    4c62:	40 e8       	ldi	r20, 0x80	; 128
    4c64:	5f e3       	ldi	r21, 0x3F	; 63
    4c66:	6e a1       	ldd	r22, Y+38	; 0x26
    4c68:	7f a1       	ldd	r23, Y+39	; 0x27
    4c6a:	88 a5       	ldd	r24, Y+40	; 0x28
    4c6c:	99 a5       	ldd	r25, Y+41	; 0x29
    4c6e:	0e 94 c6 30 	call	0x618c	; 0x618c <__cmpsf2>
    4c72:	88 23       	and	r24, r24
    4c74:	2c f4       	brge	.+10     	; 0x4c80 <gotoXY+0x33a>
    4c76:	81 e0       	ldi	r24, 0x01	; 1
    4c78:	90 e0       	ldi	r25, 0x00	; 0
    4c7a:	9b a7       	std	Y+43, r25	; 0x2b
    4c7c:	8a a7       	std	Y+42, r24	; 0x2a
    4c7e:	3f c0       	rjmp	.+126    	; 0x4cfe <gotoXY+0x3b8>
    4c80:	20 e0       	ldi	r18, 0x00	; 0
    4c82:	3f ef       	ldi	r19, 0xFF	; 255
    4c84:	4f e7       	ldi	r20, 0x7F	; 127
    4c86:	57 e4       	ldi	r21, 0x47	; 71
    4c88:	6e a1       	ldd	r22, Y+38	; 0x26
    4c8a:	7f a1       	ldd	r23, Y+39	; 0x27
    4c8c:	88 a5       	ldd	r24, Y+40	; 0x28
    4c8e:	99 a5       	ldd	r25, Y+41	; 0x29
    4c90:	0e 94 4e 32 	call	0x649c	; 0x649c <__gesf2>
    4c94:	18 16       	cp	r1, r24
    4c96:	4c f5       	brge	.+82     	; 0x4cea <gotoXY+0x3a4>
    4c98:	20 e0       	ldi	r18, 0x00	; 0
    4c9a:	30 e0       	ldi	r19, 0x00	; 0
    4c9c:	40 e2       	ldi	r20, 0x20	; 32
    4c9e:	51 e4       	ldi	r21, 0x41	; 65
    4ca0:	6a a1       	ldd	r22, Y+34	; 0x22
    4ca2:	7b a1       	ldd	r23, Y+35	; 0x23
    4ca4:	8c a1       	ldd	r24, Y+36	; 0x24
    4ca6:	9d a1       	ldd	r25, Y+37	; 0x25
    4ca8:	0e 94 52 32 	call	0x64a4	; 0x64a4 <__mulsf3>
    4cac:	dc 01       	movw	r26, r24
    4cae:	cb 01       	movw	r24, r22
    4cb0:	bc 01       	movw	r22, r24
    4cb2:	cd 01       	movw	r24, r26
    4cb4:	0e 94 32 31 	call	0x6264	; 0x6264 <__fixunssfsi>
    4cb8:	dc 01       	movw	r26, r24
    4cba:	cb 01       	movw	r24, r22
    4cbc:	9b a7       	std	Y+43, r25	; 0x2b
    4cbe:	8a a7       	std	Y+42, r24	; 0x2a
    4cc0:	0f c0       	rjmp	.+30     	; 0x4ce0 <gotoXY+0x39a>
    4cc2:	8a ef       	ldi	r24, 0xFA	; 250
    4cc4:	90 e0       	ldi	r25, 0x00	; 0
    4cc6:	9d a7       	std	Y+45, r25	; 0x2d
    4cc8:	8c a7       	std	Y+44, r24	; 0x2c
    4cca:	8c a5       	ldd	r24, Y+44	; 0x2c
    4ccc:	9d a5       	ldd	r25, Y+45	; 0x2d
    4cce:	01 97       	sbiw	r24, 0x01	; 1
    4cd0:	f1 f7       	brne	.-4      	; 0x4cce <gotoXY+0x388>
    4cd2:	9d a7       	std	Y+45, r25	; 0x2d
    4cd4:	8c a7       	std	Y+44, r24	; 0x2c
    4cd6:	8a a5       	ldd	r24, Y+42	; 0x2a
    4cd8:	9b a5       	ldd	r25, Y+43	; 0x2b
    4cda:	01 97       	sbiw	r24, 0x01	; 1
    4cdc:	9b a7       	std	Y+43, r25	; 0x2b
    4cde:	8a a7       	std	Y+42, r24	; 0x2a
    4ce0:	8a a5       	ldd	r24, Y+42	; 0x2a
    4ce2:	9b a5       	ldd	r25, Y+43	; 0x2b
    4ce4:	00 97       	sbiw	r24, 0x00	; 0
    4ce6:	69 f7       	brne	.-38     	; 0x4cc2 <gotoXY+0x37c>
    4ce8:	14 c0       	rjmp	.+40     	; 0x4d12 <gotoXY+0x3cc>
    4cea:	6e a1       	ldd	r22, Y+38	; 0x26
    4cec:	7f a1       	ldd	r23, Y+39	; 0x27
    4cee:	88 a5       	ldd	r24, Y+40	; 0x28
    4cf0:	99 a5       	ldd	r25, Y+41	; 0x29
    4cf2:	0e 94 32 31 	call	0x6264	; 0x6264 <__fixunssfsi>
    4cf6:	dc 01       	movw	r26, r24
    4cf8:	cb 01       	movw	r24, r22
    4cfa:	9b a7       	std	Y+43, r25	; 0x2b
    4cfc:	8a a7       	std	Y+42, r24	; 0x2a
    4cfe:	8a a5       	ldd	r24, Y+42	; 0x2a
    4d00:	9b a5       	ldd	r25, Y+43	; 0x2b
    4d02:	9f a7       	std	Y+47, r25	; 0x2f
    4d04:	8e a7       	std	Y+46, r24	; 0x2e
    4d06:	8e a5       	ldd	r24, Y+46	; 0x2e
    4d08:	9f a5       	ldd	r25, Y+47	; 0x2f
    4d0a:	01 97       	sbiw	r24, 0x01	; 1
    4d0c:	f1 f7       	brne	.-4      	; 0x4d0a <gotoXY+0x3c4>
    4d0e:	9f a7       	std	Y+47, r25	; 0x2f
    4d10:	8e a7       	std	Y+46, r24	; 0x2e
    4d12:	ce 01       	movw	r24, r28
    4d14:	ce 96       	adiw	r24, 0x3e	; 62
    4d16:	63 ec       	ldi	r22, 0xC3	; 195
    4d18:	0e 94 6f 0b 	call	0x16de	; 0x16de <CAN_Write>
    4d1c:	88 23       	and	r24, r24
    4d1e:	09 f0       	breq	.+2      	; 0x4d22 <gotoXY+0x3dc>
    4d20:	86 cf       	rjmp	.-244    	; 0x4c2e <gotoXY+0x2e8>
    4d22:	ce 01       	movw	r24, r28
    4d24:	ce 96       	adiw	r24, 0x3e	; 62
    4d26:	61 e0       	ldi	r22, 0x01	; 1
    4d28:	0e 94 ff 0a 	call	0x15fe	; 0x15fe <CAN_Read>
    4d2c:	8e ad       	ldd	r24, Y+62	; 0x3e
    4d2e:	89 34       	cpi	r24, 0x49	; 73
    4d30:	11 f4       	brne	.+4      	; 0x4d36 <gotoXY+0x3f0>
    4d32:	80 e0       	ldi	r24, 0x00	; 0
    4d34:	9e c0       	rjmp	.+316    	; 0x4e72 <gotoXY+0x52c>
    4d36:	8e ad       	ldd	r24, Y+62	; 0x3e
    4d38:	83 35       	cpi	r24, 0x53	; 83
    4d3a:	11 f4       	brne	.+4      	; 0x4d40 <gotoXY+0x3fa>
    4d3c:	82 e0       	ldi	r24, 0x02	; 2
    4d3e:	99 c0       	rjmp	.+306    	; 0x4e72 <gotoXY+0x52c>
    4d40:	8e ad       	ldd	r24, Y+62	; 0x3e
    4d42:	85 34       	cpi	r24, 0x45	; 69
    4d44:	11 f4       	brne	.+4      	; 0x4d4a <gotoXY+0x404>
    4d46:	81 e0       	ldi	r24, 0x01	; 1
    4d48:	94 c0       	rjmp	.+296    	; 0x4e72 <gotoXY+0x52c>
    4d4a:	80 e0       	ldi	r24, 0x00	; 0
    4d4c:	90 e0       	ldi	r25, 0x00	; 0
    4d4e:	a8 e4       	ldi	r26, 0x48	; 72
    4d50:	b2 e4       	ldi	r27, 0x42	; 66
    4d52:	88 ab       	std	Y+48, r24	; 0x30
    4d54:	99 ab       	std	Y+49, r25	; 0x31
    4d56:	aa ab       	std	Y+50, r26	; 0x32
    4d58:	bb ab       	std	Y+51, r27	; 0x33
    4d5a:	20 e0       	ldi	r18, 0x00	; 0
    4d5c:	30 e4       	ldi	r19, 0x40	; 64
    4d5e:	4c e1       	ldi	r20, 0x1C	; 28
    4d60:	55 e4       	ldi	r21, 0x45	; 69
    4d62:	68 a9       	ldd	r22, Y+48	; 0x30
    4d64:	79 a9       	ldd	r23, Y+49	; 0x31
    4d66:	8a a9       	ldd	r24, Y+50	; 0x32
    4d68:	9b a9       	ldd	r25, Y+51	; 0x33
    4d6a:	0e 94 52 32 	call	0x64a4	; 0x64a4 <__mulsf3>
    4d6e:	dc 01       	movw	r26, r24
    4d70:	cb 01       	movw	r24, r22
    4d72:	8c ab       	std	Y+52, r24	; 0x34
    4d74:	9d ab       	std	Y+53, r25	; 0x35
    4d76:	ae ab       	std	Y+54, r26	; 0x36
    4d78:	bf ab       	std	Y+55, r27	; 0x37
    4d7a:	20 e0       	ldi	r18, 0x00	; 0
    4d7c:	30 e0       	ldi	r19, 0x00	; 0
    4d7e:	40 e8       	ldi	r20, 0x80	; 128
    4d80:	5f e3       	ldi	r21, 0x3F	; 63
    4d82:	6c a9       	ldd	r22, Y+52	; 0x34
    4d84:	7d a9       	ldd	r23, Y+53	; 0x35
    4d86:	8e a9       	ldd	r24, Y+54	; 0x36
    4d88:	9f a9       	ldd	r25, Y+55	; 0x37
    4d8a:	0e 94 c6 30 	call	0x618c	; 0x618c <__cmpsf2>
    4d8e:	88 23       	and	r24, r24
    4d90:	2c f4       	brge	.+10     	; 0x4d9c <gotoXY+0x456>
    4d92:	81 e0       	ldi	r24, 0x01	; 1
    4d94:	90 e0       	ldi	r25, 0x00	; 0
    4d96:	99 af       	std	Y+57, r25	; 0x39
    4d98:	88 af       	std	Y+56, r24	; 0x38
    4d9a:	3f c0       	rjmp	.+126    	; 0x4e1a <gotoXY+0x4d4>
    4d9c:	20 e0       	ldi	r18, 0x00	; 0
    4d9e:	3f ef       	ldi	r19, 0xFF	; 255
    4da0:	4f e7       	ldi	r20, 0x7F	; 127
    4da2:	57 e4       	ldi	r21, 0x47	; 71
    4da4:	6c a9       	ldd	r22, Y+52	; 0x34
    4da6:	7d a9       	ldd	r23, Y+53	; 0x35
    4da8:	8e a9       	ldd	r24, Y+54	; 0x36
    4daa:	9f a9       	ldd	r25, Y+55	; 0x37
    4dac:	0e 94 4e 32 	call	0x649c	; 0x649c <__gesf2>
    4db0:	18 16       	cp	r1, r24
    4db2:	4c f5       	brge	.+82     	; 0x4e06 <gotoXY+0x4c0>
    4db4:	20 e0       	ldi	r18, 0x00	; 0
    4db6:	30 e0       	ldi	r19, 0x00	; 0
    4db8:	40 e2       	ldi	r20, 0x20	; 32
    4dba:	51 e4       	ldi	r21, 0x41	; 65
    4dbc:	68 a9       	ldd	r22, Y+48	; 0x30
    4dbe:	79 a9       	ldd	r23, Y+49	; 0x31
    4dc0:	8a a9       	ldd	r24, Y+50	; 0x32
    4dc2:	9b a9       	ldd	r25, Y+51	; 0x33
    4dc4:	0e 94 52 32 	call	0x64a4	; 0x64a4 <__mulsf3>
    4dc8:	dc 01       	movw	r26, r24
    4dca:	cb 01       	movw	r24, r22
    4dcc:	bc 01       	movw	r22, r24
    4dce:	cd 01       	movw	r24, r26
    4dd0:	0e 94 32 31 	call	0x6264	; 0x6264 <__fixunssfsi>
    4dd4:	dc 01       	movw	r26, r24
    4dd6:	cb 01       	movw	r24, r22
    4dd8:	99 af       	std	Y+57, r25	; 0x39
    4dda:	88 af       	std	Y+56, r24	; 0x38
    4ddc:	0f c0       	rjmp	.+30     	; 0x4dfc <gotoXY+0x4b6>
    4dde:	8a ef       	ldi	r24, 0xFA	; 250
    4de0:	90 e0       	ldi	r25, 0x00	; 0
    4de2:	9b af       	std	Y+59, r25	; 0x3b
    4de4:	8a af       	std	Y+58, r24	; 0x3a
    4de6:	8a ad       	ldd	r24, Y+58	; 0x3a
    4de8:	9b ad       	ldd	r25, Y+59	; 0x3b
    4dea:	01 97       	sbiw	r24, 0x01	; 1
    4dec:	f1 f7       	brne	.-4      	; 0x4dea <gotoXY+0x4a4>
    4dee:	9b af       	std	Y+59, r25	; 0x3b
    4df0:	8a af       	std	Y+58, r24	; 0x3a
    4df2:	88 ad       	ldd	r24, Y+56	; 0x38
    4df4:	99 ad       	ldd	r25, Y+57	; 0x39
    4df6:	01 97       	sbiw	r24, 0x01	; 1
    4df8:	99 af       	std	Y+57, r25	; 0x39
    4dfa:	88 af       	std	Y+56, r24	; 0x38
    4dfc:	88 ad       	ldd	r24, Y+56	; 0x38
    4dfe:	99 ad       	ldd	r25, Y+57	; 0x39
    4e00:	00 97       	sbiw	r24, 0x00	; 0
    4e02:	69 f7       	brne	.-38     	; 0x4dde <gotoXY+0x498>
    4e04:	14 c0       	rjmp	.+40     	; 0x4e2e <gotoXY+0x4e8>
    4e06:	6c a9       	ldd	r22, Y+52	; 0x34
    4e08:	7d a9       	ldd	r23, Y+53	; 0x35
    4e0a:	8e a9       	ldd	r24, Y+54	; 0x36
    4e0c:	9f a9       	ldd	r25, Y+55	; 0x37
    4e0e:	0e 94 32 31 	call	0x6264	; 0x6264 <__fixunssfsi>
    4e12:	dc 01       	movw	r26, r24
    4e14:	cb 01       	movw	r24, r22
    4e16:	99 af       	std	Y+57, r25	; 0x39
    4e18:	88 af       	std	Y+56, r24	; 0x38
    4e1a:	88 ad       	ldd	r24, Y+56	; 0x38
    4e1c:	99 ad       	ldd	r25, Y+57	; 0x39
    4e1e:	9d af       	std	Y+61, r25	; 0x3d
    4e20:	8c af       	std	Y+60, r24	; 0x3c
    4e22:	8c ad       	ldd	r24, Y+60	; 0x3c
    4e24:	9d ad       	ldd	r25, Y+61	; 0x3d
    4e26:	01 97       	sbiw	r24, 0x01	; 1
    4e28:	f1 f7       	brne	.-4      	; 0x4e26 <gotoXY+0x4e0>
    4e2a:	9d af       	std	Y+61, r25	; 0x3d
    4e2c:	8c af       	std	Y+60, r24	; 0x3c
    4e2e:	ce 01       	movw	r24, r28
    4e30:	82 5b       	subi	r24, 0xB2	; 178
    4e32:	9f 4f       	sbci	r25, 0xFF	; 255
    4e34:	fc 01       	movw	r30, r24
    4e36:	80 81       	ld	r24, Z
    4e38:	91 81       	ldd	r25, Z+1	; 0x01
    4e3a:	00 97       	sbiw	r24, 0x00	; 0
    4e3c:	c9 f0       	breq	.+50     	; 0x4e70 <gotoXY+0x52a>
    4e3e:	9e 01       	movw	r18, r28
    4e40:	22 5b       	subi	r18, 0xB2	; 178
    4e42:	3f 4f       	sbci	r19, 0xFF	; 255
    4e44:	89 81       	ldd	r24, Y+1	; 0x01
    4e46:	9a 81       	ldd	r25, Y+2	; 0x02
    4e48:	ab 81       	ldd	r26, Y+3	; 0x03
    4e4a:	bc 81       	ldd	r27, Y+4	; 0x04
    4e4c:	f9 01       	movw	r30, r18
    4e4e:	20 81       	ld	r18, Z
    4e50:	31 81       	ldd	r19, Z+1	; 0x01
    4e52:	bc 01       	movw	r22, r24
    4e54:	cd 01       	movw	r24, r26
    4e56:	f9 01       	movw	r30, r18
    4e58:	09 95       	icall
    4e5a:	8d 83       	std	Y+5, r24	; 0x05
    4e5c:	8d 81       	ldd	r24, Y+5	; 0x05
    4e5e:	81 30       	cpi	r24, 0x01	; 1
    4e60:	11 f4       	brne	.+4      	; 0x4e66 <gotoXY+0x520>
    4e62:	81 e0       	ldi	r24, 0x01	; 1
    4e64:	06 c0       	rjmp	.+12     	; 0x4e72 <gotoXY+0x52c>
    4e66:	8d 81       	ldd	r24, Y+5	; 0x05
    4e68:	82 30       	cpi	r24, 0x02	; 2
    4e6a:	11 f4       	brne	.+4      	; 0x4e70 <gotoXY+0x52a>
    4e6c:	83 e0       	ldi	r24, 0x03	; 3
    4e6e:	01 c0       	rjmp	.+2      	; 0x4e72 <gotoXY+0x52c>
    4e70:	db ce       	rjmp	.-586    	; 0x4c28 <gotoXY+0x2e2>
    4e72:	c1 5b       	subi	r28, 0xB1	; 177
    4e74:	df 4f       	sbci	r29, 0xFF	; 255
    4e76:	0f b6       	in	r0, 0x3f	; 63
    4e78:	f8 94       	cli
    4e7a:	de bf       	out	0x3e, r29	; 62
    4e7c:	0f be       	out	0x3f, r0	; 63
    4e7e:	cd bf       	out	0x3d, r28	; 61
    4e80:	df 91       	pop	r29
    4e82:	cf 91       	pop	r28
    4e84:	0f 91       	pop	r16
    4e86:	ff 90       	pop	r15
    4e88:	ef 90       	pop	r14
    4e8a:	08 95       	ret

00004e8c <setPosition>:
    4e8c:	1f 93       	push	r17
    4e8e:	cf 93       	push	r28
    4e90:	df 93       	push	r29
    4e92:	cd b7       	in	r28, 0x3d	; 61
    4e94:	de b7       	in	r29, 0x3e	; 62
    4e96:	e0 97       	sbiw	r28, 0x30	; 48
    4e98:	0f b6       	in	r0, 0x3f	; 63
    4e9a:	f8 94       	cli
    4e9c:	de bf       	out	0x3e, r29	; 62
    4e9e:	0f be       	out	0x3f, r0	; 63
    4ea0:	cd bf       	out	0x3d, r28	; 61
    4ea2:	4b a7       	std	Y+43, r20	; 0x2b
    4ea4:	5c a7       	std	Y+44, r21	; 0x2c
    4ea6:	6d a7       	std	Y+45, r22	; 0x2d
    4ea8:	7e a7       	std	Y+46, r23	; 0x2e
    4eaa:	8f a7       	std	Y+47, r24	; 0x2f
    4eac:	98 ab       	std	Y+48, r25	; 0x30
    4eae:	89 e4       	ldi	r24, 0x49	; 73
    4eb0:	8d 8f       	std	Y+29, r24	; 0x1d
    4eb2:	8b a5       	ldd	r24, Y+43	; 0x2b
    4eb4:	9c a5       	ldd	r25, Y+44	; 0x2c
    4eb6:	89 2f       	mov	r24, r25
    4eb8:	99 0f       	add	r25, r25
    4eba:	99 0b       	sbc	r25, r25
    4ebc:	8e 8f       	std	Y+30, r24	; 0x1e
    4ebe:	8b a5       	ldd	r24, Y+43	; 0x2b
    4ec0:	9c a5       	ldd	r25, Y+44	; 0x2c
    4ec2:	8f 8f       	std	Y+31, r24	; 0x1f
    4ec4:	8d a5       	ldd	r24, Y+45	; 0x2d
    4ec6:	9e a5       	ldd	r25, Y+46	; 0x2e
    4ec8:	89 2f       	mov	r24, r25
    4eca:	99 0f       	add	r25, r25
    4ecc:	99 0b       	sbc	r25, r25
    4ece:	88 a3       	std	Y+32, r24	; 0x20
    4ed0:	8d a5       	ldd	r24, Y+45	; 0x2d
    4ed2:	9e a5       	ldd	r25, Y+46	; 0x2e
    4ed4:	89 a3       	std	Y+33, r24	; 0x21
    4ed6:	1a a2       	std	Y+34, r1	; 0x22
    4ed8:	8f a5       	ldd	r24, Y+47	; 0x2f
    4eda:	98 a9       	ldd	r25, Y+48	; 0x30
    4edc:	8b a3       	std	Y+35, r24	; 0x23
    4ede:	72 c0       	rjmp	.+228    	; 0x4fc4 <setPosition+0x138>
    4ee0:	80 e0       	ldi	r24, 0x00	; 0
    4ee2:	90 e0       	ldi	r25, 0x00	; 0
    4ee4:	a8 e4       	ldi	r26, 0x48	; 72
    4ee6:	b2 e4       	ldi	r27, 0x42	; 66
    4ee8:	89 83       	std	Y+1, r24	; 0x01
    4eea:	9a 83       	std	Y+2, r25	; 0x02
    4eec:	ab 83       	std	Y+3, r26	; 0x03
    4eee:	bc 83       	std	Y+4, r27	; 0x04
    4ef0:	20 e0       	ldi	r18, 0x00	; 0
    4ef2:	30 e4       	ldi	r19, 0x40	; 64
    4ef4:	4c e1       	ldi	r20, 0x1C	; 28
    4ef6:	55 e4       	ldi	r21, 0x45	; 69
    4ef8:	69 81       	ldd	r22, Y+1	; 0x01
    4efa:	7a 81       	ldd	r23, Y+2	; 0x02
    4efc:	8b 81       	ldd	r24, Y+3	; 0x03
    4efe:	9c 81       	ldd	r25, Y+4	; 0x04
    4f00:	0e 94 52 32 	call	0x64a4	; 0x64a4 <__mulsf3>
    4f04:	dc 01       	movw	r26, r24
    4f06:	cb 01       	movw	r24, r22
    4f08:	8d 83       	std	Y+5, r24	; 0x05
    4f0a:	9e 83       	std	Y+6, r25	; 0x06
    4f0c:	af 83       	std	Y+7, r26	; 0x07
    4f0e:	b8 87       	std	Y+8, r27	; 0x08
    4f10:	20 e0       	ldi	r18, 0x00	; 0
    4f12:	30 e0       	ldi	r19, 0x00	; 0
    4f14:	40 e8       	ldi	r20, 0x80	; 128
    4f16:	5f e3       	ldi	r21, 0x3F	; 63
    4f18:	6d 81       	ldd	r22, Y+5	; 0x05
    4f1a:	7e 81       	ldd	r23, Y+6	; 0x06
    4f1c:	8f 81       	ldd	r24, Y+7	; 0x07
    4f1e:	98 85       	ldd	r25, Y+8	; 0x08
    4f20:	0e 94 c6 30 	call	0x618c	; 0x618c <__cmpsf2>
    4f24:	88 23       	and	r24, r24
    4f26:	2c f4       	brge	.+10     	; 0x4f32 <setPosition+0xa6>
    4f28:	81 e0       	ldi	r24, 0x01	; 1
    4f2a:	90 e0       	ldi	r25, 0x00	; 0
    4f2c:	9a 87       	std	Y+10, r25	; 0x0a
    4f2e:	89 87       	std	Y+9, r24	; 0x09
    4f30:	3f c0       	rjmp	.+126    	; 0x4fb0 <setPosition+0x124>
    4f32:	20 e0       	ldi	r18, 0x00	; 0
    4f34:	3f ef       	ldi	r19, 0xFF	; 255
    4f36:	4f e7       	ldi	r20, 0x7F	; 127
    4f38:	57 e4       	ldi	r21, 0x47	; 71
    4f3a:	6d 81       	ldd	r22, Y+5	; 0x05
    4f3c:	7e 81       	ldd	r23, Y+6	; 0x06
    4f3e:	8f 81       	ldd	r24, Y+7	; 0x07
    4f40:	98 85       	ldd	r25, Y+8	; 0x08
    4f42:	0e 94 4e 32 	call	0x649c	; 0x649c <__gesf2>
    4f46:	18 16       	cp	r1, r24
    4f48:	4c f5       	brge	.+82     	; 0x4f9c <setPosition+0x110>
    4f4a:	20 e0       	ldi	r18, 0x00	; 0
    4f4c:	30 e0       	ldi	r19, 0x00	; 0
    4f4e:	40 e2       	ldi	r20, 0x20	; 32
    4f50:	51 e4       	ldi	r21, 0x41	; 65
    4f52:	69 81       	ldd	r22, Y+1	; 0x01
    4f54:	7a 81       	ldd	r23, Y+2	; 0x02
    4f56:	8b 81       	ldd	r24, Y+3	; 0x03
    4f58:	9c 81       	ldd	r25, Y+4	; 0x04
    4f5a:	0e 94 52 32 	call	0x64a4	; 0x64a4 <__mulsf3>
    4f5e:	dc 01       	movw	r26, r24
    4f60:	cb 01       	movw	r24, r22
    4f62:	bc 01       	movw	r22, r24
    4f64:	cd 01       	movw	r24, r26
    4f66:	0e 94 32 31 	call	0x6264	; 0x6264 <__fixunssfsi>
    4f6a:	dc 01       	movw	r26, r24
    4f6c:	cb 01       	movw	r24, r22
    4f6e:	9a 87       	std	Y+10, r25	; 0x0a
    4f70:	89 87       	std	Y+9, r24	; 0x09
    4f72:	0f c0       	rjmp	.+30     	; 0x4f92 <setPosition+0x106>
    4f74:	8a ef       	ldi	r24, 0xFA	; 250
    4f76:	90 e0       	ldi	r25, 0x00	; 0
    4f78:	9c 87       	std	Y+12, r25	; 0x0c
    4f7a:	8b 87       	std	Y+11, r24	; 0x0b
    4f7c:	8b 85       	ldd	r24, Y+11	; 0x0b
    4f7e:	9c 85       	ldd	r25, Y+12	; 0x0c
    4f80:	01 97       	sbiw	r24, 0x01	; 1
    4f82:	f1 f7       	brne	.-4      	; 0x4f80 <setPosition+0xf4>
    4f84:	9c 87       	std	Y+12, r25	; 0x0c
    4f86:	8b 87       	std	Y+11, r24	; 0x0b
    4f88:	89 85       	ldd	r24, Y+9	; 0x09
    4f8a:	9a 85       	ldd	r25, Y+10	; 0x0a
    4f8c:	01 97       	sbiw	r24, 0x01	; 1
    4f8e:	9a 87       	std	Y+10, r25	; 0x0a
    4f90:	89 87       	std	Y+9, r24	; 0x09
    4f92:	89 85       	ldd	r24, Y+9	; 0x09
    4f94:	9a 85       	ldd	r25, Y+10	; 0x0a
    4f96:	00 97       	sbiw	r24, 0x00	; 0
    4f98:	69 f7       	brne	.-38     	; 0x4f74 <setPosition+0xe8>
    4f9a:	14 c0       	rjmp	.+40     	; 0x4fc4 <setPosition+0x138>
    4f9c:	6d 81       	ldd	r22, Y+5	; 0x05
    4f9e:	7e 81       	ldd	r23, Y+6	; 0x06
    4fa0:	8f 81       	ldd	r24, Y+7	; 0x07
    4fa2:	98 85       	ldd	r25, Y+8	; 0x08
    4fa4:	0e 94 32 31 	call	0x6264	; 0x6264 <__fixunssfsi>
    4fa8:	dc 01       	movw	r26, r24
    4faa:	cb 01       	movw	r24, r22
    4fac:	9a 87       	std	Y+10, r25	; 0x0a
    4fae:	89 87       	std	Y+9, r24	; 0x09
    4fb0:	89 85       	ldd	r24, Y+9	; 0x09
    4fb2:	9a 85       	ldd	r25, Y+10	; 0x0a
    4fb4:	9e 87       	std	Y+14, r25	; 0x0e
    4fb6:	8d 87       	std	Y+13, r24	; 0x0d
    4fb8:	8d 85       	ldd	r24, Y+13	; 0x0d
    4fba:	9e 85       	ldd	r25, Y+14	; 0x0e
    4fbc:	01 97       	sbiw	r24, 0x01	; 1
    4fbe:	f1 f7       	brne	.-4      	; 0x4fbc <setPosition+0x130>
    4fc0:	9e 87       	std	Y+14, r25	; 0x0e
    4fc2:	8d 87       	std	Y+13, r24	; 0x0d
    4fc4:	ce 01       	movw	r24, r28
    4fc6:	4d 96       	adiw	r24, 0x1d	; 29
    4fc8:	63 ec       	ldi	r22, 0xC3	; 195
    4fca:	0e 94 6f 0b 	call	0x16de	; 0x16de <CAN_Write>
    4fce:	88 23       	and	r24, r24
    4fd0:	09 f0       	breq	.+2      	; 0x4fd4 <setPosition+0x148>
    4fd2:	86 cf       	rjmp	.-244    	; 0x4ee0 <setPosition+0x54>
    4fd4:	80 e5       	ldi	r24, 0x50	; 80
    4fd6:	8d 8f       	std	Y+29, r24	; 0x1d
    4fd8:	72 c0       	rjmp	.+228    	; 0x50be <setPosition+0x232>
    4fda:	80 e0       	ldi	r24, 0x00	; 0
    4fdc:	90 e0       	ldi	r25, 0x00	; 0
    4fde:	a8 e4       	ldi	r26, 0x48	; 72
    4fe0:	b2 e4       	ldi	r27, 0x42	; 66
    4fe2:	8f 87       	std	Y+15, r24	; 0x0f
    4fe4:	98 8b       	std	Y+16, r25	; 0x10
    4fe6:	a9 8b       	std	Y+17, r26	; 0x11
    4fe8:	ba 8b       	std	Y+18, r27	; 0x12
    4fea:	20 e0       	ldi	r18, 0x00	; 0
    4fec:	30 e4       	ldi	r19, 0x40	; 64
    4fee:	4c e1       	ldi	r20, 0x1C	; 28
    4ff0:	55 e4       	ldi	r21, 0x45	; 69
    4ff2:	6f 85       	ldd	r22, Y+15	; 0x0f
    4ff4:	78 89       	ldd	r23, Y+16	; 0x10
    4ff6:	89 89       	ldd	r24, Y+17	; 0x11
    4ff8:	9a 89       	ldd	r25, Y+18	; 0x12
    4ffa:	0e 94 52 32 	call	0x64a4	; 0x64a4 <__mulsf3>
    4ffe:	dc 01       	movw	r26, r24
    5000:	cb 01       	movw	r24, r22
    5002:	8b 8b       	std	Y+19, r24	; 0x13
    5004:	9c 8b       	std	Y+20, r25	; 0x14
    5006:	ad 8b       	std	Y+21, r26	; 0x15
    5008:	be 8b       	std	Y+22, r27	; 0x16
    500a:	20 e0       	ldi	r18, 0x00	; 0
    500c:	30 e0       	ldi	r19, 0x00	; 0
    500e:	40 e8       	ldi	r20, 0x80	; 128
    5010:	5f e3       	ldi	r21, 0x3F	; 63
    5012:	6b 89       	ldd	r22, Y+19	; 0x13
    5014:	7c 89       	ldd	r23, Y+20	; 0x14
    5016:	8d 89       	ldd	r24, Y+21	; 0x15
    5018:	9e 89       	ldd	r25, Y+22	; 0x16
    501a:	0e 94 c6 30 	call	0x618c	; 0x618c <__cmpsf2>
    501e:	88 23       	and	r24, r24
    5020:	2c f4       	brge	.+10     	; 0x502c <setPosition+0x1a0>
    5022:	81 e0       	ldi	r24, 0x01	; 1
    5024:	90 e0       	ldi	r25, 0x00	; 0
    5026:	98 8f       	std	Y+24, r25	; 0x18
    5028:	8f 8b       	std	Y+23, r24	; 0x17
    502a:	3f c0       	rjmp	.+126    	; 0x50aa <setPosition+0x21e>
    502c:	20 e0       	ldi	r18, 0x00	; 0
    502e:	3f ef       	ldi	r19, 0xFF	; 255
    5030:	4f e7       	ldi	r20, 0x7F	; 127
    5032:	57 e4       	ldi	r21, 0x47	; 71
    5034:	6b 89       	ldd	r22, Y+19	; 0x13
    5036:	7c 89       	ldd	r23, Y+20	; 0x14
    5038:	8d 89       	ldd	r24, Y+21	; 0x15
    503a:	9e 89       	ldd	r25, Y+22	; 0x16
    503c:	0e 94 4e 32 	call	0x649c	; 0x649c <__gesf2>
    5040:	18 16       	cp	r1, r24
    5042:	4c f5       	brge	.+82     	; 0x5096 <setPosition+0x20a>
    5044:	20 e0       	ldi	r18, 0x00	; 0
    5046:	30 e0       	ldi	r19, 0x00	; 0
    5048:	40 e2       	ldi	r20, 0x20	; 32
    504a:	51 e4       	ldi	r21, 0x41	; 65
    504c:	6f 85       	ldd	r22, Y+15	; 0x0f
    504e:	78 89       	ldd	r23, Y+16	; 0x10
    5050:	89 89       	ldd	r24, Y+17	; 0x11
    5052:	9a 89       	ldd	r25, Y+18	; 0x12
    5054:	0e 94 52 32 	call	0x64a4	; 0x64a4 <__mulsf3>
    5058:	dc 01       	movw	r26, r24
    505a:	cb 01       	movw	r24, r22
    505c:	bc 01       	movw	r22, r24
    505e:	cd 01       	movw	r24, r26
    5060:	0e 94 32 31 	call	0x6264	; 0x6264 <__fixunssfsi>
    5064:	dc 01       	movw	r26, r24
    5066:	cb 01       	movw	r24, r22
    5068:	98 8f       	std	Y+24, r25	; 0x18
    506a:	8f 8b       	std	Y+23, r24	; 0x17
    506c:	0f c0       	rjmp	.+30     	; 0x508c <setPosition+0x200>
    506e:	8a ef       	ldi	r24, 0xFA	; 250
    5070:	90 e0       	ldi	r25, 0x00	; 0
    5072:	9a 8f       	std	Y+26, r25	; 0x1a
    5074:	89 8f       	std	Y+25, r24	; 0x19
    5076:	89 8d       	ldd	r24, Y+25	; 0x19
    5078:	9a 8d       	ldd	r25, Y+26	; 0x1a
    507a:	01 97       	sbiw	r24, 0x01	; 1
    507c:	f1 f7       	brne	.-4      	; 0x507a <setPosition+0x1ee>
    507e:	9a 8f       	std	Y+26, r25	; 0x1a
    5080:	89 8f       	std	Y+25, r24	; 0x19
    5082:	8f 89       	ldd	r24, Y+23	; 0x17
    5084:	98 8d       	ldd	r25, Y+24	; 0x18
    5086:	01 97       	sbiw	r24, 0x01	; 1
    5088:	98 8f       	std	Y+24, r25	; 0x18
    508a:	8f 8b       	std	Y+23, r24	; 0x17
    508c:	8f 89       	ldd	r24, Y+23	; 0x17
    508e:	98 8d       	ldd	r25, Y+24	; 0x18
    5090:	00 97       	sbiw	r24, 0x00	; 0
    5092:	69 f7       	brne	.-38     	; 0x506e <setPosition+0x1e2>
    5094:	14 c0       	rjmp	.+40     	; 0x50be <setPosition+0x232>
    5096:	6b 89       	ldd	r22, Y+19	; 0x13
    5098:	7c 89       	ldd	r23, Y+20	; 0x14
    509a:	8d 89       	ldd	r24, Y+21	; 0x15
    509c:	9e 89       	ldd	r25, Y+22	; 0x16
    509e:	0e 94 32 31 	call	0x6264	; 0x6264 <__fixunssfsi>
    50a2:	dc 01       	movw	r26, r24
    50a4:	cb 01       	movw	r24, r22
    50a6:	98 8f       	std	Y+24, r25	; 0x18
    50a8:	8f 8b       	std	Y+23, r24	; 0x17
    50aa:	8f 89       	ldd	r24, Y+23	; 0x17
    50ac:	98 8d       	ldd	r25, Y+24	; 0x18
    50ae:	9c 8f       	std	Y+28, r25	; 0x1c
    50b0:	8b 8f       	std	Y+27, r24	; 0x1b
    50b2:	8b 8d       	ldd	r24, Y+27	; 0x1b
    50b4:	9c 8d       	ldd	r25, Y+28	; 0x1c
    50b6:	01 97       	sbiw	r24, 0x01	; 1
    50b8:	f1 f7       	brne	.-4      	; 0x50b6 <setPosition+0x22a>
    50ba:	9c 8f       	std	Y+28, r25	; 0x1c
    50bc:	8b 8f       	std	Y+27, r24	; 0x1b
    50be:	ce 01       	movw	r24, r28
    50c0:	4d 96       	adiw	r24, 0x1d	; 29
    50c2:	63 ec       	ldi	r22, 0xC3	; 195
    50c4:	0e 94 6f 0b 	call	0x16de	; 0x16de <CAN_Write>
    50c8:	88 23       	and	r24, r24
    50ca:	09 f0       	breq	.+2      	; 0x50ce <setPosition+0x242>
    50cc:	86 cf       	rjmp	.-244    	; 0x4fda <setPosition+0x14e>
    50ce:	ce 01       	movw	r24, r28
    50d0:	4d 96       	adiw	r24, 0x1d	; 29
    50d2:	61 e0       	ldi	r22, 0x01	; 1
    50d4:	0e 94 ff 0a 	call	0x15fe	; 0x15fe <CAN_Read>
    50d8:	8e 8d       	ldd	r24, Y+30	; 0x1e
    50da:	88 2f       	mov	r24, r24
    50dc:	90 e0       	ldi	r25, 0x00	; 0
    50de:	38 2f       	mov	r19, r24
    50e0:	22 27       	eor	r18, r18
    50e2:	8f 8d       	ldd	r24, Y+31	; 0x1f
    50e4:	88 2f       	mov	r24, r24
    50e6:	90 e0       	ldi	r25, 0x00	; 0
    50e8:	82 2b       	or	r24, r18
    50ea:	93 2b       	or	r25, r19
    50ec:	9e a3       	std	Y+38, r25	; 0x26
    50ee:	8d a3       	std	Y+37, r24	; 0x25
    50f0:	88 a1       	ldd	r24, Y+32	; 0x20
    50f2:	88 2f       	mov	r24, r24
    50f4:	90 e0       	ldi	r25, 0x00	; 0
    50f6:	38 2f       	mov	r19, r24
    50f8:	22 27       	eor	r18, r18
    50fa:	89 a1       	ldd	r24, Y+33	; 0x21
    50fc:	88 2f       	mov	r24, r24
    50fe:	90 e0       	ldi	r25, 0x00	; 0
    5100:	82 2b       	or	r24, r18
    5102:	93 2b       	or	r25, r19
    5104:	98 a7       	std	Y+40, r25	; 0x28
    5106:	8f a3       	std	Y+39, r24	; 0x27
    5108:	8a a1       	ldd	r24, Y+34	; 0x22
    510a:	88 2f       	mov	r24, r24
    510c:	90 e0       	ldi	r25, 0x00	; 0
    510e:	38 2f       	mov	r19, r24
    5110:	22 27       	eor	r18, r18
    5112:	8b a1       	ldd	r24, Y+35	; 0x23
    5114:	88 2f       	mov	r24, r24
    5116:	90 e0       	ldi	r25, 0x00	; 0
    5118:	82 2b       	or	r24, r18
    511a:	93 2b       	or	r25, r19
    511c:	9a a7       	std	Y+42, r25	; 0x2a
    511e:	89 a7       	std	Y+41, r24	; 0x29
    5120:	2d a1       	ldd	r18, Y+37	; 0x25
    5122:	3e a1       	ldd	r19, Y+38	; 0x26
    5124:	8b a5       	ldd	r24, Y+43	; 0x2b
    5126:	9c a5       	ldd	r25, Y+44	; 0x2c
    5128:	a9 01       	movw	r20, r18
    512a:	48 1b       	sub	r20, r24
    512c:	59 0b       	sbc	r21, r25
    512e:	ca 01       	movw	r24, r20
    5130:	aa 27       	eor	r26, r26
    5132:	97 fd       	sbrc	r25, 7
    5134:	a0 95       	com	r26
    5136:	ba 2f       	mov	r27, r26
    5138:	bc 01       	movw	r22, r24
    513a:	cd 01       	movw	r24, r26
    513c:	0e 94 60 31 	call	0x62c0	; 0x62c0 <__floatsisf>
    5140:	dc 01       	movw	r26, r24
    5142:	cb 01       	movw	r24, r22
    5144:	bf 77       	andi	r27, 0x7F	; 127
    5146:	11 e0       	ldi	r17, 0x01	; 1
    5148:	20 e0       	ldi	r18, 0x00	; 0
    514a:	30 e0       	ldi	r19, 0x00	; 0
    514c:	40 ea       	ldi	r20, 0xA0	; 160
    514e:	50 e4       	ldi	r21, 0x40	; 64
    5150:	bc 01       	movw	r22, r24
    5152:	cd 01       	movw	r24, r26
    5154:	0e 94 4e 32 	call	0x649c	; 0x649c <__gesf2>
    5158:	18 16       	cp	r1, r24
    515a:	0c f0       	brlt	.+2      	; 0x515e <setPosition+0x2d2>
    515c:	10 e0       	ldi	r17, 0x00	; 0
    515e:	81 e0       	ldi	r24, 0x01	; 1
    5160:	81 27       	eor	r24, r17
    5162:	88 23       	and	r24, r24
    5164:	09 f4       	brne	.+2      	; 0x5168 <setPosition+0x2dc>
    5166:	48 c0       	rjmp	.+144    	; 0x51f8 <setPosition+0x36c>
    5168:	2f a1       	ldd	r18, Y+39	; 0x27
    516a:	38 a5       	ldd	r19, Y+40	; 0x28
    516c:	8d a5       	ldd	r24, Y+45	; 0x2d
    516e:	9e a5       	ldd	r25, Y+46	; 0x2e
    5170:	a9 01       	movw	r20, r18
    5172:	48 1b       	sub	r20, r24
    5174:	59 0b       	sbc	r21, r25
    5176:	ca 01       	movw	r24, r20
    5178:	aa 27       	eor	r26, r26
    517a:	97 fd       	sbrc	r25, 7
    517c:	a0 95       	com	r26
    517e:	ba 2f       	mov	r27, r26
    5180:	bc 01       	movw	r22, r24
    5182:	cd 01       	movw	r24, r26
    5184:	0e 94 60 31 	call	0x62c0	; 0x62c0 <__floatsisf>
    5188:	dc 01       	movw	r26, r24
    518a:	cb 01       	movw	r24, r22
    518c:	bf 77       	andi	r27, 0x7F	; 127
    518e:	11 e0       	ldi	r17, 0x01	; 1
    5190:	20 e0       	ldi	r18, 0x00	; 0
    5192:	30 e0       	ldi	r19, 0x00	; 0
    5194:	40 ea       	ldi	r20, 0xA0	; 160
    5196:	50 e4       	ldi	r21, 0x40	; 64
    5198:	bc 01       	movw	r22, r24
    519a:	cd 01       	movw	r24, r26
    519c:	0e 94 4e 32 	call	0x649c	; 0x649c <__gesf2>
    51a0:	18 16       	cp	r1, r24
    51a2:	0c f0       	brlt	.+2      	; 0x51a6 <setPosition+0x31a>
    51a4:	10 e0       	ldi	r17, 0x00	; 0
    51a6:	81 e0       	ldi	r24, 0x01	; 1
    51a8:	81 27       	eor	r24, r17
    51aa:	88 23       	and	r24, r24
    51ac:	29 f1       	breq	.+74     	; 0x51f8 <setPosition+0x36c>
    51ae:	29 a5       	ldd	r18, Y+41	; 0x29
    51b0:	3a a5       	ldd	r19, Y+42	; 0x2a
    51b2:	8f a5       	ldd	r24, Y+47	; 0x2f
    51b4:	98 a9       	ldd	r25, Y+48	; 0x30
    51b6:	a9 01       	movw	r20, r18
    51b8:	48 1b       	sub	r20, r24
    51ba:	59 0b       	sbc	r21, r25
    51bc:	ca 01       	movw	r24, r20
    51be:	aa 27       	eor	r26, r26
    51c0:	97 fd       	sbrc	r25, 7
    51c2:	a0 95       	com	r26
    51c4:	ba 2f       	mov	r27, r26
    51c6:	bc 01       	movw	r22, r24
    51c8:	cd 01       	movw	r24, r26
    51ca:	0e 94 60 31 	call	0x62c0	; 0x62c0 <__floatsisf>
    51ce:	dc 01       	movw	r26, r24
    51d0:	cb 01       	movw	r24, r22
    51d2:	bf 77       	andi	r27, 0x7F	; 127
    51d4:	11 e0       	ldi	r17, 0x01	; 1
    51d6:	20 e0       	ldi	r18, 0x00	; 0
    51d8:	30 e0       	ldi	r19, 0x00	; 0
    51da:	40 ea       	ldi	r20, 0xA0	; 160
    51dc:	50 e4       	ldi	r21, 0x40	; 64
    51de:	bc 01       	movw	r22, r24
    51e0:	cd 01       	movw	r24, r26
    51e2:	0e 94 4e 32 	call	0x649c	; 0x649c <__gesf2>
    51e6:	18 16       	cp	r1, r24
    51e8:	0c f0       	brlt	.+2      	; 0x51ec <setPosition+0x360>
    51ea:	10 e0       	ldi	r17, 0x00	; 0
    51ec:	81 e0       	ldi	r24, 0x01	; 1
    51ee:	81 27       	eor	r24, r17
    51f0:	88 23       	and	r24, r24
    51f2:	11 f0       	breq	.+4      	; 0x51f8 <setPosition+0x36c>
    51f4:	80 e0       	ldi	r24, 0x00	; 0
    51f6:	01 c0       	rjmp	.+2      	; 0x51fa <setPosition+0x36e>
    51f8:	5a ce       	rjmp	.-844    	; 0x4eae <setPosition+0x22>
    51fa:	e0 96       	adiw	r28, 0x30	; 48
    51fc:	0f b6       	in	r0, 0x3f	; 63
    51fe:	f8 94       	cli
    5200:	de bf       	out	0x3e, r29	; 62
    5202:	0f be       	out	0x3f, r0	; 63
    5204:	cd bf       	out	0x3d, r28	; 61
    5206:	df 91       	pop	r29
    5208:	cf 91       	pop	r28
    520a:	1f 91       	pop	r17
    520c:	08 95       	ret

0000520e <rotate>:
    520e:	cf 93       	push	r28
    5210:	df 93       	push	r29
    5212:	cd b7       	in	r28, 0x3d	; 61
    5214:	de b7       	in	r29, 0x3e	; 62
    5216:	ca 54       	subi	r28, 0x4A	; 74
    5218:	d1 09       	sbc	r29, r1
    521a:	0f b6       	in	r0, 0x3f	; 63
    521c:	f8 94       	cli
    521e:	de bf       	out	0x3e, r29	; 62
    5220:	0f be       	out	0x3f, r0	; 63
    5222:	cd bf       	out	0x3d, r28	; 61
    5224:	9e 01       	movw	r18, r28
    5226:	2a 5b       	subi	r18, 0xBA	; 186
    5228:	3f 4f       	sbci	r19, 0xFF	; 255
    522a:	f9 01       	movw	r30, r18
    522c:	91 83       	std	Z+1, r25	; 0x01
    522e:	80 83       	st	Z, r24
    5230:	ce 01       	movw	r24, r28
    5232:	88 5b       	subi	r24, 0xB8	; 184
    5234:	9f 4f       	sbci	r25, 0xFF	; 255
    5236:	fc 01       	movw	r30, r24
    5238:	60 83       	st	Z, r22
    523a:	ce 01       	movw	r24, r28
    523c:	87 5b       	subi	r24, 0xB7	; 183
    523e:	9f 4f       	sbci	r25, 0xFF	; 255
    5240:	fc 01       	movw	r30, r24
    5242:	51 83       	std	Z+1, r21	; 0x01
    5244:	40 83       	st	Z, r20
    5246:	86 e5       	ldi	r24, 0x56	; 86
    5248:	8e af       	std	Y+62, r24	; 0x3e
    524a:	ce 01       	movw	r24, r28
    524c:	88 5b       	subi	r24, 0xB8	; 184
    524e:	9f 4f       	sbci	r25, 0xFF	; 255
    5250:	fc 01       	movw	r30, r24
    5252:	80 81       	ld	r24, Z
    5254:	8f af       	std	Y+63, r24	; 0x3f
    5256:	6f c0       	rjmp	.+222    	; 0x5336 <rotate+0x128>
    5258:	80 e0       	ldi	r24, 0x00	; 0
    525a:	90 e0       	ldi	r25, 0x00	; 0
    525c:	a8 e4       	ldi	r26, 0x48	; 72
    525e:	b2 e4       	ldi	r27, 0x42	; 66
    5260:	8e 83       	std	Y+6, r24	; 0x06
    5262:	9f 83       	std	Y+7, r25	; 0x07
    5264:	a8 87       	std	Y+8, r26	; 0x08
    5266:	b9 87       	std	Y+9, r27	; 0x09
    5268:	20 e0       	ldi	r18, 0x00	; 0
    526a:	30 e4       	ldi	r19, 0x40	; 64
    526c:	4c e1       	ldi	r20, 0x1C	; 28
    526e:	55 e4       	ldi	r21, 0x45	; 69
    5270:	6e 81       	ldd	r22, Y+6	; 0x06
    5272:	7f 81       	ldd	r23, Y+7	; 0x07
    5274:	88 85       	ldd	r24, Y+8	; 0x08
    5276:	99 85       	ldd	r25, Y+9	; 0x09
    5278:	0e 94 52 32 	call	0x64a4	; 0x64a4 <__mulsf3>
    527c:	dc 01       	movw	r26, r24
    527e:	cb 01       	movw	r24, r22
    5280:	8a 87       	std	Y+10, r24	; 0x0a
    5282:	9b 87       	std	Y+11, r25	; 0x0b
    5284:	ac 87       	std	Y+12, r26	; 0x0c
    5286:	bd 87       	std	Y+13, r27	; 0x0d
    5288:	20 e0       	ldi	r18, 0x00	; 0
    528a:	30 e0       	ldi	r19, 0x00	; 0
    528c:	40 e8       	ldi	r20, 0x80	; 128
    528e:	5f e3       	ldi	r21, 0x3F	; 63
    5290:	6a 85       	ldd	r22, Y+10	; 0x0a
    5292:	7b 85       	ldd	r23, Y+11	; 0x0b
    5294:	8c 85       	ldd	r24, Y+12	; 0x0c
    5296:	9d 85       	ldd	r25, Y+13	; 0x0d
    5298:	79 d7       	rcall	.+3826   	; 0x618c <__cmpsf2>
    529a:	88 23       	and	r24, r24
    529c:	2c f4       	brge	.+10     	; 0x52a8 <rotate+0x9a>
    529e:	81 e0       	ldi	r24, 0x01	; 1
    52a0:	90 e0       	ldi	r25, 0x00	; 0
    52a2:	9f 87       	std	Y+15, r25	; 0x0f
    52a4:	8e 87       	std	Y+14, r24	; 0x0e
    52a6:	3d c0       	rjmp	.+122    	; 0x5322 <rotate+0x114>
    52a8:	20 e0       	ldi	r18, 0x00	; 0
    52aa:	3f ef       	ldi	r19, 0xFF	; 255
    52ac:	4f e7       	ldi	r20, 0x7F	; 127
    52ae:	57 e4       	ldi	r21, 0x47	; 71
    52b0:	6a 85       	ldd	r22, Y+10	; 0x0a
    52b2:	7b 85       	ldd	r23, Y+11	; 0x0b
    52b4:	8c 85       	ldd	r24, Y+12	; 0x0c
    52b6:	9d 85       	ldd	r25, Y+13	; 0x0d
    52b8:	0e 94 4e 32 	call	0x649c	; 0x649c <__gesf2>
    52bc:	18 16       	cp	r1, r24
    52be:	44 f5       	brge	.+80     	; 0x5310 <rotate+0x102>
    52c0:	20 e0       	ldi	r18, 0x00	; 0
    52c2:	30 e0       	ldi	r19, 0x00	; 0
    52c4:	40 e2       	ldi	r20, 0x20	; 32
    52c6:	51 e4       	ldi	r21, 0x41	; 65
    52c8:	6e 81       	ldd	r22, Y+6	; 0x06
    52ca:	7f 81       	ldd	r23, Y+7	; 0x07
    52cc:	88 85       	ldd	r24, Y+8	; 0x08
    52ce:	99 85       	ldd	r25, Y+9	; 0x09
    52d0:	0e 94 52 32 	call	0x64a4	; 0x64a4 <__mulsf3>
    52d4:	dc 01       	movw	r26, r24
    52d6:	cb 01       	movw	r24, r22
    52d8:	bc 01       	movw	r22, r24
    52da:	cd 01       	movw	r24, r26
    52dc:	c3 d7       	rcall	.+3974   	; 0x6264 <__fixunssfsi>
    52de:	dc 01       	movw	r26, r24
    52e0:	cb 01       	movw	r24, r22
    52e2:	9f 87       	std	Y+15, r25	; 0x0f
    52e4:	8e 87       	std	Y+14, r24	; 0x0e
    52e6:	0f c0       	rjmp	.+30     	; 0x5306 <rotate+0xf8>
    52e8:	8a ef       	ldi	r24, 0xFA	; 250
    52ea:	90 e0       	ldi	r25, 0x00	; 0
    52ec:	99 8b       	std	Y+17, r25	; 0x11
    52ee:	88 8b       	std	Y+16, r24	; 0x10
    52f0:	88 89       	ldd	r24, Y+16	; 0x10
    52f2:	99 89       	ldd	r25, Y+17	; 0x11
    52f4:	01 97       	sbiw	r24, 0x01	; 1
    52f6:	f1 f7       	brne	.-4      	; 0x52f4 <rotate+0xe6>
    52f8:	99 8b       	std	Y+17, r25	; 0x11
    52fa:	88 8b       	std	Y+16, r24	; 0x10
    52fc:	8e 85       	ldd	r24, Y+14	; 0x0e
    52fe:	9f 85       	ldd	r25, Y+15	; 0x0f
    5300:	01 97       	sbiw	r24, 0x01	; 1
    5302:	9f 87       	std	Y+15, r25	; 0x0f
    5304:	8e 87       	std	Y+14, r24	; 0x0e
    5306:	8e 85       	ldd	r24, Y+14	; 0x0e
    5308:	9f 85       	ldd	r25, Y+15	; 0x0f
    530a:	00 97       	sbiw	r24, 0x00	; 0
    530c:	69 f7       	brne	.-38     	; 0x52e8 <rotate+0xda>
    530e:	13 c0       	rjmp	.+38     	; 0x5336 <rotate+0x128>
    5310:	6a 85       	ldd	r22, Y+10	; 0x0a
    5312:	7b 85       	ldd	r23, Y+11	; 0x0b
    5314:	8c 85       	ldd	r24, Y+12	; 0x0c
    5316:	9d 85       	ldd	r25, Y+13	; 0x0d
    5318:	a5 d7       	rcall	.+3914   	; 0x6264 <__fixunssfsi>
    531a:	dc 01       	movw	r26, r24
    531c:	cb 01       	movw	r24, r22
    531e:	9f 87       	std	Y+15, r25	; 0x0f
    5320:	8e 87       	std	Y+14, r24	; 0x0e
    5322:	8e 85       	ldd	r24, Y+14	; 0x0e
    5324:	9f 85       	ldd	r25, Y+15	; 0x0f
    5326:	9b 8b       	std	Y+19, r25	; 0x13
    5328:	8a 8b       	std	Y+18, r24	; 0x12
    532a:	8a 89       	ldd	r24, Y+18	; 0x12
    532c:	9b 89       	ldd	r25, Y+19	; 0x13
    532e:	01 97       	sbiw	r24, 0x01	; 1
    5330:	f1 f7       	brne	.-4      	; 0x532e <rotate+0x120>
    5332:	9b 8b       	std	Y+19, r25	; 0x13
    5334:	8a 8b       	std	Y+18, r24	; 0x12
    5336:	ce 01       	movw	r24, r28
    5338:	ce 96       	adiw	r24, 0x3e	; 62
    533a:	63 ec       	ldi	r22, 0xC3	; 195
    533c:	0e 94 6f 0b 	call	0x16de	; 0x16de <CAN_Write>
    5340:	88 23       	and	r24, r24
    5342:	09 f0       	breq	.+2      	; 0x5346 <rotate+0x138>
    5344:	89 cf       	rjmp	.-238    	; 0x5258 <rotate+0x4a>
    5346:	84 e5       	ldi	r24, 0x54	; 84
    5348:	8e af       	std	Y+62, r24	; 0x3e
    534a:	ce 01       	movw	r24, r28
    534c:	8a 5b       	subi	r24, 0xBA	; 186
    534e:	9f 4f       	sbci	r25, 0xFF	; 255
    5350:	fc 01       	movw	r30, r24
    5352:	80 81       	ld	r24, Z
    5354:	91 81       	ldd	r25, Z+1	; 0x01
    5356:	89 2f       	mov	r24, r25
    5358:	99 0f       	add	r25, r25
    535a:	99 0b       	sbc	r25, r25
    535c:	8f af       	std	Y+63, r24	; 0x3f
    535e:	ce 01       	movw	r24, r28
    5360:	8a 5b       	subi	r24, 0xBA	; 186
    5362:	9f 4f       	sbci	r25, 0xFF	; 255
    5364:	fc 01       	movw	r30, r24
    5366:	20 81       	ld	r18, Z
    5368:	ce 01       	movw	r24, r28
    536a:	80 5c       	subi	r24, 0xC0	; 192
    536c:	9f 4f       	sbci	r25, 0xFF	; 255
    536e:	fc 01       	movw	r30, r24
    5370:	20 83       	st	Z, r18
    5372:	6f c0       	rjmp	.+222    	; 0x5452 <rotate+0x244>
    5374:	80 e0       	ldi	r24, 0x00	; 0
    5376:	90 e0       	ldi	r25, 0x00	; 0
    5378:	a8 e4       	ldi	r26, 0x48	; 72
    537a:	b2 e4       	ldi	r27, 0x42	; 66
    537c:	8c 8b       	std	Y+20, r24	; 0x14
    537e:	9d 8b       	std	Y+21, r25	; 0x15
    5380:	ae 8b       	std	Y+22, r26	; 0x16
    5382:	bf 8b       	std	Y+23, r27	; 0x17
    5384:	20 e0       	ldi	r18, 0x00	; 0
    5386:	30 e4       	ldi	r19, 0x40	; 64
    5388:	4c e1       	ldi	r20, 0x1C	; 28
    538a:	55 e4       	ldi	r21, 0x45	; 69
    538c:	6c 89       	ldd	r22, Y+20	; 0x14
    538e:	7d 89       	ldd	r23, Y+21	; 0x15
    5390:	8e 89       	ldd	r24, Y+22	; 0x16
    5392:	9f 89       	ldd	r25, Y+23	; 0x17
    5394:	0e 94 52 32 	call	0x64a4	; 0x64a4 <__mulsf3>
    5398:	dc 01       	movw	r26, r24
    539a:	cb 01       	movw	r24, r22
    539c:	88 8f       	std	Y+24, r24	; 0x18
    539e:	99 8f       	std	Y+25, r25	; 0x19
    53a0:	aa 8f       	std	Y+26, r26	; 0x1a
    53a2:	bb 8f       	std	Y+27, r27	; 0x1b
    53a4:	20 e0       	ldi	r18, 0x00	; 0
    53a6:	30 e0       	ldi	r19, 0x00	; 0
    53a8:	40 e8       	ldi	r20, 0x80	; 128
    53aa:	5f e3       	ldi	r21, 0x3F	; 63
    53ac:	68 8d       	ldd	r22, Y+24	; 0x18
    53ae:	79 8d       	ldd	r23, Y+25	; 0x19
    53b0:	8a 8d       	ldd	r24, Y+26	; 0x1a
    53b2:	9b 8d       	ldd	r25, Y+27	; 0x1b
    53b4:	eb d6       	rcall	.+3542   	; 0x618c <__cmpsf2>
    53b6:	88 23       	and	r24, r24
    53b8:	2c f4       	brge	.+10     	; 0x53c4 <rotate+0x1b6>
    53ba:	81 e0       	ldi	r24, 0x01	; 1
    53bc:	90 e0       	ldi	r25, 0x00	; 0
    53be:	9d 8f       	std	Y+29, r25	; 0x1d
    53c0:	8c 8f       	std	Y+28, r24	; 0x1c
    53c2:	3d c0       	rjmp	.+122    	; 0x543e <rotate+0x230>
    53c4:	20 e0       	ldi	r18, 0x00	; 0
    53c6:	3f ef       	ldi	r19, 0xFF	; 255
    53c8:	4f e7       	ldi	r20, 0x7F	; 127
    53ca:	57 e4       	ldi	r21, 0x47	; 71
    53cc:	68 8d       	ldd	r22, Y+24	; 0x18
    53ce:	79 8d       	ldd	r23, Y+25	; 0x19
    53d0:	8a 8d       	ldd	r24, Y+26	; 0x1a
    53d2:	9b 8d       	ldd	r25, Y+27	; 0x1b
    53d4:	0e 94 4e 32 	call	0x649c	; 0x649c <__gesf2>
    53d8:	18 16       	cp	r1, r24
    53da:	44 f5       	brge	.+80     	; 0x542c <rotate+0x21e>
    53dc:	20 e0       	ldi	r18, 0x00	; 0
    53de:	30 e0       	ldi	r19, 0x00	; 0
    53e0:	40 e2       	ldi	r20, 0x20	; 32
    53e2:	51 e4       	ldi	r21, 0x41	; 65
    53e4:	6c 89       	ldd	r22, Y+20	; 0x14
    53e6:	7d 89       	ldd	r23, Y+21	; 0x15
    53e8:	8e 89       	ldd	r24, Y+22	; 0x16
    53ea:	9f 89       	ldd	r25, Y+23	; 0x17
    53ec:	0e 94 52 32 	call	0x64a4	; 0x64a4 <__mulsf3>
    53f0:	dc 01       	movw	r26, r24
    53f2:	cb 01       	movw	r24, r22
    53f4:	bc 01       	movw	r22, r24
    53f6:	cd 01       	movw	r24, r26
    53f8:	35 d7       	rcall	.+3690   	; 0x6264 <__fixunssfsi>
    53fa:	dc 01       	movw	r26, r24
    53fc:	cb 01       	movw	r24, r22
    53fe:	9d 8f       	std	Y+29, r25	; 0x1d
    5400:	8c 8f       	std	Y+28, r24	; 0x1c
    5402:	0f c0       	rjmp	.+30     	; 0x5422 <rotate+0x214>
    5404:	8a ef       	ldi	r24, 0xFA	; 250
    5406:	90 e0       	ldi	r25, 0x00	; 0
    5408:	9f 8f       	std	Y+31, r25	; 0x1f
    540a:	8e 8f       	std	Y+30, r24	; 0x1e
    540c:	8e 8d       	ldd	r24, Y+30	; 0x1e
    540e:	9f 8d       	ldd	r25, Y+31	; 0x1f
    5410:	01 97       	sbiw	r24, 0x01	; 1
    5412:	f1 f7       	brne	.-4      	; 0x5410 <rotate+0x202>
    5414:	9f 8f       	std	Y+31, r25	; 0x1f
    5416:	8e 8f       	std	Y+30, r24	; 0x1e
    5418:	8c 8d       	ldd	r24, Y+28	; 0x1c
    541a:	9d 8d       	ldd	r25, Y+29	; 0x1d
    541c:	01 97       	sbiw	r24, 0x01	; 1
    541e:	9d 8f       	std	Y+29, r25	; 0x1d
    5420:	8c 8f       	std	Y+28, r24	; 0x1c
    5422:	8c 8d       	ldd	r24, Y+28	; 0x1c
    5424:	9d 8d       	ldd	r25, Y+29	; 0x1d
    5426:	00 97       	sbiw	r24, 0x00	; 0
    5428:	69 f7       	brne	.-38     	; 0x5404 <rotate+0x1f6>
    542a:	13 c0       	rjmp	.+38     	; 0x5452 <rotate+0x244>
    542c:	68 8d       	ldd	r22, Y+24	; 0x18
    542e:	79 8d       	ldd	r23, Y+25	; 0x19
    5430:	8a 8d       	ldd	r24, Y+26	; 0x1a
    5432:	9b 8d       	ldd	r25, Y+27	; 0x1b
    5434:	17 d7       	rcall	.+3630   	; 0x6264 <__fixunssfsi>
    5436:	dc 01       	movw	r26, r24
    5438:	cb 01       	movw	r24, r22
    543a:	9d 8f       	std	Y+29, r25	; 0x1d
    543c:	8c 8f       	std	Y+28, r24	; 0x1c
    543e:	8c 8d       	ldd	r24, Y+28	; 0x1c
    5440:	9d 8d       	ldd	r25, Y+29	; 0x1d
    5442:	99 a3       	std	Y+33, r25	; 0x21
    5444:	88 a3       	std	Y+32, r24	; 0x20
    5446:	88 a1       	ldd	r24, Y+32	; 0x20
    5448:	99 a1       	ldd	r25, Y+33	; 0x21
    544a:	01 97       	sbiw	r24, 0x01	; 1
    544c:	f1 f7       	brne	.-4      	; 0x544a <rotate+0x23c>
    544e:	99 a3       	std	Y+33, r25	; 0x21
    5450:	88 a3       	std	Y+32, r24	; 0x20
    5452:	ce 01       	movw	r24, r28
    5454:	ce 96       	adiw	r24, 0x3e	; 62
    5456:	63 ec       	ldi	r22, 0xC3	; 195
    5458:	0e 94 6f 0b 	call	0x16de	; 0x16de <CAN_Write>
    545c:	88 23       	and	r24, r24
    545e:	09 f0       	breq	.+2      	; 0x5462 <rotate+0x254>
    5460:	89 cf       	rjmp	.-238    	; 0x5374 <rotate+0x166>
    5462:	5c d4       	rcall	.+2232   	; 0x5d1c <getSystemTime>
    5464:	aa 27       	eor	r26, r26
    5466:	97 fd       	sbrc	r25, 7
    5468:	a0 95       	com	r26
    546a:	ba 2f       	mov	r27, r26
    546c:	89 83       	std	Y+1, r24	; 0x01
    546e:	9a 83       	std	Y+2, r25	; 0x02
    5470:	ab 83       	std	Y+3, r26	; 0x03
    5472:	bc 83       	std	Y+4, r27	; 0x04
    5474:	80 e5       	ldi	r24, 0x50	; 80
    5476:	8e af       	std	Y+62, r24	; 0x3e
    5478:	6d c0       	rjmp	.+218    	; 0x5554 <rotate+0x346>
    547a:	80 e0       	ldi	r24, 0x00	; 0
    547c:	90 e0       	ldi	r25, 0x00	; 0
    547e:	a8 e4       	ldi	r26, 0x48	; 72
    5480:	b2 e4       	ldi	r27, 0x42	; 66
    5482:	8a a3       	std	Y+34, r24	; 0x22
    5484:	9b a3       	std	Y+35, r25	; 0x23
    5486:	ac a3       	std	Y+36, r26	; 0x24
    5488:	bd a3       	std	Y+37, r27	; 0x25
    548a:	20 e0       	ldi	r18, 0x00	; 0
    548c:	30 e4       	ldi	r19, 0x40	; 64
    548e:	4c e1       	ldi	r20, 0x1C	; 28
    5490:	55 e4       	ldi	r21, 0x45	; 69
    5492:	6a a1       	ldd	r22, Y+34	; 0x22
    5494:	7b a1       	ldd	r23, Y+35	; 0x23
    5496:	8c a1       	ldd	r24, Y+36	; 0x24
    5498:	9d a1       	ldd	r25, Y+37	; 0x25
    549a:	0e 94 52 32 	call	0x64a4	; 0x64a4 <__mulsf3>
    549e:	dc 01       	movw	r26, r24
    54a0:	cb 01       	movw	r24, r22
    54a2:	8e a3       	std	Y+38, r24	; 0x26
    54a4:	9f a3       	std	Y+39, r25	; 0x27
    54a6:	a8 a7       	std	Y+40, r26	; 0x28
    54a8:	b9 a7       	std	Y+41, r27	; 0x29
    54aa:	20 e0       	ldi	r18, 0x00	; 0
    54ac:	30 e0       	ldi	r19, 0x00	; 0
    54ae:	40 e8       	ldi	r20, 0x80	; 128
    54b0:	5f e3       	ldi	r21, 0x3F	; 63
    54b2:	6e a1       	ldd	r22, Y+38	; 0x26
    54b4:	7f a1       	ldd	r23, Y+39	; 0x27
    54b6:	88 a5       	ldd	r24, Y+40	; 0x28
    54b8:	99 a5       	ldd	r25, Y+41	; 0x29
    54ba:	68 d6       	rcall	.+3280   	; 0x618c <__cmpsf2>
    54bc:	88 23       	and	r24, r24
    54be:	2c f4       	brge	.+10     	; 0x54ca <rotate+0x2bc>
    54c0:	81 e0       	ldi	r24, 0x01	; 1
    54c2:	90 e0       	ldi	r25, 0x00	; 0
    54c4:	9b a7       	std	Y+43, r25	; 0x2b
    54c6:	8a a7       	std	Y+42, r24	; 0x2a
    54c8:	3b c0       	rjmp	.+118    	; 0x5540 <rotate+0x332>
    54ca:	20 e0       	ldi	r18, 0x00	; 0
    54cc:	3f ef       	ldi	r19, 0xFF	; 255
    54ce:	4f e7       	ldi	r20, 0x7F	; 127
    54d0:	57 e4       	ldi	r21, 0x47	; 71
    54d2:	6e a1       	ldd	r22, Y+38	; 0x26
    54d4:	7f a1       	ldd	r23, Y+39	; 0x27
    54d6:	88 a5       	ldd	r24, Y+40	; 0x28
    54d8:	99 a5       	ldd	r25, Y+41	; 0x29
    54da:	e0 d7       	rcall	.+4032   	; 0x649c <__gesf2>
    54dc:	18 16       	cp	r1, r24
    54de:	3c f5       	brge	.+78     	; 0x552e <rotate+0x320>
    54e0:	20 e0       	ldi	r18, 0x00	; 0
    54e2:	30 e0       	ldi	r19, 0x00	; 0
    54e4:	40 e2       	ldi	r20, 0x20	; 32
    54e6:	51 e4       	ldi	r21, 0x41	; 65
    54e8:	6a a1       	ldd	r22, Y+34	; 0x22
    54ea:	7b a1       	ldd	r23, Y+35	; 0x23
    54ec:	8c a1       	ldd	r24, Y+36	; 0x24
    54ee:	9d a1       	ldd	r25, Y+37	; 0x25
    54f0:	d9 d7       	rcall	.+4018   	; 0x64a4 <__mulsf3>
    54f2:	dc 01       	movw	r26, r24
    54f4:	cb 01       	movw	r24, r22
    54f6:	bc 01       	movw	r22, r24
    54f8:	cd 01       	movw	r24, r26
    54fa:	b4 d6       	rcall	.+3432   	; 0x6264 <__fixunssfsi>
    54fc:	dc 01       	movw	r26, r24
    54fe:	cb 01       	movw	r24, r22
    5500:	9b a7       	std	Y+43, r25	; 0x2b
    5502:	8a a7       	std	Y+42, r24	; 0x2a
    5504:	0f c0       	rjmp	.+30     	; 0x5524 <rotate+0x316>
    5506:	8a ef       	ldi	r24, 0xFA	; 250
    5508:	90 e0       	ldi	r25, 0x00	; 0
    550a:	9d a7       	std	Y+45, r25	; 0x2d
    550c:	8c a7       	std	Y+44, r24	; 0x2c
    550e:	8c a5       	ldd	r24, Y+44	; 0x2c
    5510:	9d a5       	ldd	r25, Y+45	; 0x2d
    5512:	01 97       	sbiw	r24, 0x01	; 1
    5514:	f1 f7       	brne	.-4      	; 0x5512 <rotate+0x304>
    5516:	9d a7       	std	Y+45, r25	; 0x2d
    5518:	8c a7       	std	Y+44, r24	; 0x2c
    551a:	8a a5       	ldd	r24, Y+42	; 0x2a
    551c:	9b a5       	ldd	r25, Y+43	; 0x2b
    551e:	01 97       	sbiw	r24, 0x01	; 1
    5520:	9b a7       	std	Y+43, r25	; 0x2b
    5522:	8a a7       	std	Y+42, r24	; 0x2a
    5524:	8a a5       	ldd	r24, Y+42	; 0x2a
    5526:	9b a5       	ldd	r25, Y+43	; 0x2b
    5528:	00 97       	sbiw	r24, 0x00	; 0
    552a:	69 f7       	brne	.-38     	; 0x5506 <rotate+0x2f8>
    552c:	13 c0       	rjmp	.+38     	; 0x5554 <rotate+0x346>
    552e:	6e a1       	ldd	r22, Y+38	; 0x26
    5530:	7f a1       	ldd	r23, Y+39	; 0x27
    5532:	88 a5       	ldd	r24, Y+40	; 0x28
    5534:	99 a5       	ldd	r25, Y+41	; 0x29
    5536:	96 d6       	rcall	.+3372   	; 0x6264 <__fixunssfsi>
    5538:	dc 01       	movw	r26, r24
    553a:	cb 01       	movw	r24, r22
    553c:	9b a7       	std	Y+43, r25	; 0x2b
    553e:	8a a7       	std	Y+42, r24	; 0x2a
    5540:	8a a5       	ldd	r24, Y+42	; 0x2a
    5542:	9b a5       	ldd	r25, Y+43	; 0x2b
    5544:	9f a7       	std	Y+47, r25	; 0x2f
    5546:	8e a7       	std	Y+46, r24	; 0x2e
    5548:	8e a5       	ldd	r24, Y+46	; 0x2e
    554a:	9f a5       	ldd	r25, Y+47	; 0x2f
    554c:	01 97       	sbiw	r24, 0x01	; 1
    554e:	f1 f7       	brne	.-4      	; 0x554c <rotate+0x33e>
    5550:	9f a7       	std	Y+47, r25	; 0x2f
    5552:	8e a7       	std	Y+46, r24	; 0x2e
    5554:	ce 01       	movw	r24, r28
    5556:	ce 96       	adiw	r24, 0x3e	; 62
    5558:	63 ec       	ldi	r22, 0xC3	; 195
    555a:	0e 94 6f 0b 	call	0x16de	; 0x16de <CAN_Write>
    555e:	88 23       	and	r24, r24
    5560:	09 f0       	breq	.+2      	; 0x5564 <rotate+0x356>
    5562:	8b cf       	rjmp	.-234    	; 0x547a <rotate+0x26c>
    5564:	ce 01       	movw	r24, r28
    5566:	ce 96       	adiw	r24, 0x3e	; 62
    5568:	61 e0       	ldi	r22, 0x01	; 1
    556a:	0e 94 ff 0a 	call	0x15fe	; 0x15fe <CAN_Read>
    556e:	8e ad       	ldd	r24, Y+62	; 0x3e
    5570:	89 34       	cpi	r24, 0x49	; 73
    5572:	11 f4       	brne	.+4      	; 0x5578 <rotate+0x36a>
    5574:	80 e0       	ldi	r24, 0x00	; 0
    5576:	98 c0       	rjmp	.+304    	; 0x56a8 <rotate+0x49a>
    5578:	8e ad       	ldd	r24, Y+62	; 0x3e
    557a:	83 35       	cpi	r24, 0x53	; 83
    557c:	11 f4       	brne	.+4      	; 0x5582 <rotate+0x374>
    557e:	82 e0       	ldi	r24, 0x02	; 2
    5580:	93 c0       	rjmp	.+294    	; 0x56a8 <rotate+0x49a>
    5582:	8e ad       	ldd	r24, Y+62	; 0x3e
    5584:	85 34       	cpi	r24, 0x45	; 69
    5586:	11 f4       	brne	.+4      	; 0x558c <rotate+0x37e>
    5588:	81 e0       	ldi	r24, 0x01	; 1
    558a:	8e c0       	rjmp	.+284    	; 0x56a8 <rotate+0x49a>
    558c:	80 e0       	ldi	r24, 0x00	; 0
    558e:	90 e0       	ldi	r25, 0x00	; 0
    5590:	a8 e4       	ldi	r26, 0x48	; 72
    5592:	b2 e4       	ldi	r27, 0x42	; 66
    5594:	88 ab       	std	Y+48, r24	; 0x30
    5596:	99 ab       	std	Y+49, r25	; 0x31
    5598:	aa ab       	std	Y+50, r26	; 0x32
    559a:	bb ab       	std	Y+51, r27	; 0x33
    559c:	20 e0       	ldi	r18, 0x00	; 0
    559e:	30 e4       	ldi	r19, 0x40	; 64
    55a0:	4c e1       	ldi	r20, 0x1C	; 28
    55a2:	55 e4       	ldi	r21, 0x45	; 69
    55a4:	68 a9       	ldd	r22, Y+48	; 0x30
    55a6:	79 a9       	ldd	r23, Y+49	; 0x31
    55a8:	8a a9       	ldd	r24, Y+50	; 0x32
    55aa:	9b a9       	ldd	r25, Y+51	; 0x33
    55ac:	7b d7       	rcall	.+3830   	; 0x64a4 <__mulsf3>
    55ae:	dc 01       	movw	r26, r24
    55b0:	cb 01       	movw	r24, r22
    55b2:	8c ab       	std	Y+52, r24	; 0x34
    55b4:	9d ab       	std	Y+53, r25	; 0x35
    55b6:	ae ab       	std	Y+54, r26	; 0x36
    55b8:	bf ab       	std	Y+55, r27	; 0x37
    55ba:	20 e0       	ldi	r18, 0x00	; 0
    55bc:	30 e0       	ldi	r19, 0x00	; 0
    55be:	40 e8       	ldi	r20, 0x80	; 128
    55c0:	5f e3       	ldi	r21, 0x3F	; 63
    55c2:	6c a9       	ldd	r22, Y+52	; 0x34
    55c4:	7d a9       	ldd	r23, Y+53	; 0x35
    55c6:	8e a9       	ldd	r24, Y+54	; 0x36
    55c8:	9f a9       	ldd	r25, Y+55	; 0x37
    55ca:	e0 d5       	rcall	.+3008   	; 0x618c <__cmpsf2>
    55cc:	88 23       	and	r24, r24
    55ce:	2c f4       	brge	.+10     	; 0x55da <rotate+0x3cc>
    55d0:	81 e0       	ldi	r24, 0x01	; 1
    55d2:	90 e0       	ldi	r25, 0x00	; 0
    55d4:	99 af       	std	Y+57, r25	; 0x39
    55d6:	88 af       	std	Y+56, r24	; 0x38
    55d8:	3b c0       	rjmp	.+118    	; 0x5650 <rotate+0x442>
    55da:	20 e0       	ldi	r18, 0x00	; 0
    55dc:	3f ef       	ldi	r19, 0xFF	; 255
    55de:	4f e7       	ldi	r20, 0x7F	; 127
    55e0:	57 e4       	ldi	r21, 0x47	; 71
    55e2:	6c a9       	ldd	r22, Y+52	; 0x34
    55e4:	7d a9       	ldd	r23, Y+53	; 0x35
    55e6:	8e a9       	ldd	r24, Y+54	; 0x36
    55e8:	9f a9       	ldd	r25, Y+55	; 0x37
    55ea:	58 d7       	rcall	.+3760   	; 0x649c <__gesf2>
    55ec:	18 16       	cp	r1, r24
    55ee:	3c f5       	brge	.+78     	; 0x563e <rotate+0x430>
    55f0:	20 e0       	ldi	r18, 0x00	; 0
    55f2:	30 e0       	ldi	r19, 0x00	; 0
    55f4:	40 e2       	ldi	r20, 0x20	; 32
    55f6:	51 e4       	ldi	r21, 0x41	; 65
    55f8:	68 a9       	ldd	r22, Y+48	; 0x30
    55fa:	79 a9       	ldd	r23, Y+49	; 0x31
    55fc:	8a a9       	ldd	r24, Y+50	; 0x32
    55fe:	9b a9       	ldd	r25, Y+51	; 0x33
    5600:	51 d7       	rcall	.+3746   	; 0x64a4 <__mulsf3>
    5602:	dc 01       	movw	r26, r24
    5604:	cb 01       	movw	r24, r22
    5606:	bc 01       	movw	r22, r24
    5608:	cd 01       	movw	r24, r26
    560a:	2c d6       	rcall	.+3160   	; 0x6264 <__fixunssfsi>
    560c:	dc 01       	movw	r26, r24
    560e:	cb 01       	movw	r24, r22
    5610:	99 af       	std	Y+57, r25	; 0x39
    5612:	88 af       	std	Y+56, r24	; 0x38
    5614:	0f c0       	rjmp	.+30     	; 0x5634 <rotate+0x426>
    5616:	8a ef       	ldi	r24, 0xFA	; 250
    5618:	90 e0       	ldi	r25, 0x00	; 0
    561a:	9b af       	std	Y+59, r25	; 0x3b
    561c:	8a af       	std	Y+58, r24	; 0x3a
    561e:	8a ad       	ldd	r24, Y+58	; 0x3a
    5620:	9b ad       	ldd	r25, Y+59	; 0x3b
    5622:	01 97       	sbiw	r24, 0x01	; 1
    5624:	f1 f7       	brne	.-4      	; 0x5622 <rotate+0x414>
    5626:	9b af       	std	Y+59, r25	; 0x3b
    5628:	8a af       	std	Y+58, r24	; 0x3a
    562a:	88 ad       	ldd	r24, Y+56	; 0x38
    562c:	99 ad       	ldd	r25, Y+57	; 0x39
    562e:	01 97       	sbiw	r24, 0x01	; 1
    5630:	99 af       	std	Y+57, r25	; 0x39
    5632:	88 af       	std	Y+56, r24	; 0x38
    5634:	88 ad       	ldd	r24, Y+56	; 0x38
    5636:	99 ad       	ldd	r25, Y+57	; 0x39
    5638:	00 97       	sbiw	r24, 0x00	; 0
    563a:	69 f7       	brne	.-38     	; 0x5616 <rotate+0x408>
    563c:	13 c0       	rjmp	.+38     	; 0x5664 <rotate+0x456>
    563e:	6c a9       	ldd	r22, Y+52	; 0x34
    5640:	7d a9       	ldd	r23, Y+53	; 0x35
    5642:	8e a9       	ldd	r24, Y+54	; 0x36
    5644:	9f a9       	ldd	r25, Y+55	; 0x37
    5646:	0e d6       	rcall	.+3100   	; 0x6264 <__fixunssfsi>
    5648:	dc 01       	movw	r26, r24
    564a:	cb 01       	movw	r24, r22
    564c:	99 af       	std	Y+57, r25	; 0x39
    564e:	88 af       	std	Y+56, r24	; 0x38
    5650:	88 ad       	ldd	r24, Y+56	; 0x38
    5652:	99 ad       	ldd	r25, Y+57	; 0x39
    5654:	9d af       	std	Y+61, r25	; 0x3d
    5656:	8c af       	std	Y+60, r24	; 0x3c
    5658:	8c ad       	ldd	r24, Y+60	; 0x3c
    565a:	9d ad       	ldd	r25, Y+61	; 0x3d
    565c:	01 97       	sbiw	r24, 0x01	; 1
    565e:	f1 f7       	brne	.-4      	; 0x565c <rotate+0x44e>
    5660:	9d af       	std	Y+61, r25	; 0x3d
    5662:	8c af       	std	Y+60, r24	; 0x3c
    5664:	ce 01       	movw	r24, r28
    5666:	87 5b       	subi	r24, 0xB7	; 183
    5668:	9f 4f       	sbci	r25, 0xFF	; 255
    566a:	fc 01       	movw	r30, r24
    566c:	80 81       	ld	r24, Z
    566e:	91 81       	ldd	r25, Z+1	; 0x01
    5670:	00 97       	sbiw	r24, 0x00	; 0
    5672:	c9 f0       	breq	.+50     	; 0x56a6 <rotate+0x498>
    5674:	9e 01       	movw	r18, r28
    5676:	27 5b       	subi	r18, 0xB7	; 183
    5678:	3f 4f       	sbci	r19, 0xFF	; 255
    567a:	89 81       	ldd	r24, Y+1	; 0x01
    567c:	9a 81       	ldd	r25, Y+2	; 0x02
    567e:	ab 81       	ldd	r26, Y+3	; 0x03
    5680:	bc 81       	ldd	r27, Y+4	; 0x04
    5682:	f9 01       	movw	r30, r18
    5684:	20 81       	ld	r18, Z
    5686:	31 81       	ldd	r19, Z+1	; 0x01
    5688:	bc 01       	movw	r22, r24
    568a:	cd 01       	movw	r24, r26
    568c:	f9 01       	movw	r30, r18
    568e:	09 95       	icall
    5690:	8d 83       	std	Y+5, r24	; 0x05
    5692:	8d 81       	ldd	r24, Y+5	; 0x05
    5694:	81 30       	cpi	r24, 0x01	; 1
    5696:	11 f4       	brne	.+4      	; 0x569c <rotate+0x48e>
    5698:	81 e0       	ldi	r24, 0x01	; 1
    569a:	06 c0       	rjmp	.+12     	; 0x56a8 <rotate+0x49a>
    569c:	8d 81       	ldd	r24, Y+5	; 0x05
    569e:	82 30       	cpi	r24, 0x02	; 2
    56a0:	11 f4       	brne	.+4      	; 0x56a6 <rotate+0x498>
    56a2:	83 e0       	ldi	r24, 0x03	; 3
    56a4:	01 c0       	rjmp	.+2      	; 0x56a8 <rotate+0x49a>
    56a6:	e6 ce       	rjmp	.-564    	; 0x5474 <rotate+0x266>
    56a8:	c6 5b       	subi	r28, 0xB6	; 182
    56aa:	df 4f       	sbci	r29, 0xFF	; 255
    56ac:	0f b6       	in	r0, 0x3f	; 63
    56ae:	f8 94       	cli
    56b0:	de bf       	out	0x3e, r29	; 62
    56b2:	0f be       	out	0x3f, r0	; 63
    56b4:	cd bf       	out	0x3d, r28	; 61
    56b6:	df 91       	pop	r29
    56b8:	cf 91       	pop	r28
    56ba:	08 95       	ret

000056bc <getPosition>:
    56bc:	2f 92       	push	r2
    56be:	3f 92       	push	r3
    56c0:	4f 92       	push	r4
    56c2:	5f 92       	push	r5
    56c4:	6f 92       	push	r6
    56c6:	7f 92       	push	r7
    56c8:	8f 92       	push	r8
    56ca:	9f 92       	push	r9
    56cc:	af 92       	push	r10
    56ce:	bf 92       	push	r11
    56d0:	cf 92       	push	r12
    56d2:	df 92       	push	r13
    56d4:	ef 92       	push	r14
    56d6:	ff 92       	push	r15
    56d8:	0f 93       	push	r16
    56da:	1f 93       	push	r17
    56dc:	cf 93       	push	r28
    56de:	df 93       	push	r29
    56e0:	cd b7       	in	r28, 0x3d	; 61
    56e2:	de b7       	in	r29, 0x3e	; 62
    56e4:	a2 97       	sbiw	r28, 0x22	; 34
    56e6:	0f b6       	in	r0, 0x3f	; 63
    56e8:	f8 94       	cli
    56ea:	de bf       	out	0x3e, r29	; 62
    56ec:	0f be       	out	0x3f, r0	; 63
    56ee:	cd bf       	out	0x3d, r28	; 61
    56f0:	80 e5       	ldi	r24, 0x50	; 80
    56f2:	8d 8b       	std	Y+21, r24	; 0x15
    56f4:	6c c0       	rjmp	.+216    	; 0x57ce <getPosition+0x112>
    56f6:	80 e0       	ldi	r24, 0x00	; 0
    56f8:	90 e0       	ldi	r25, 0x00	; 0
    56fa:	a8 e4       	ldi	r26, 0x48	; 72
    56fc:	b2 e4       	ldi	r27, 0x42	; 66
    56fe:	89 83       	std	Y+1, r24	; 0x01
    5700:	9a 83       	std	Y+2, r25	; 0x02
    5702:	ab 83       	std	Y+3, r26	; 0x03
    5704:	bc 83       	std	Y+4, r27	; 0x04
    5706:	20 e0       	ldi	r18, 0x00	; 0
    5708:	30 e4       	ldi	r19, 0x40	; 64
    570a:	4c e1       	ldi	r20, 0x1C	; 28
    570c:	55 e4       	ldi	r21, 0x45	; 69
    570e:	69 81       	ldd	r22, Y+1	; 0x01
    5710:	7a 81       	ldd	r23, Y+2	; 0x02
    5712:	8b 81       	ldd	r24, Y+3	; 0x03
    5714:	9c 81       	ldd	r25, Y+4	; 0x04
    5716:	c6 d6       	rcall	.+3468   	; 0x64a4 <__mulsf3>
    5718:	dc 01       	movw	r26, r24
    571a:	cb 01       	movw	r24, r22
    571c:	8d 83       	std	Y+5, r24	; 0x05
    571e:	9e 83       	std	Y+6, r25	; 0x06
    5720:	af 83       	std	Y+7, r26	; 0x07
    5722:	b8 87       	std	Y+8, r27	; 0x08
    5724:	20 e0       	ldi	r18, 0x00	; 0
    5726:	30 e0       	ldi	r19, 0x00	; 0
    5728:	40 e8       	ldi	r20, 0x80	; 128
    572a:	5f e3       	ldi	r21, 0x3F	; 63
    572c:	6d 81       	ldd	r22, Y+5	; 0x05
    572e:	7e 81       	ldd	r23, Y+6	; 0x06
    5730:	8f 81       	ldd	r24, Y+7	; 0x07
    5732:	98 85       	ldd	r25, Y+8	; 0x08
    5734:	2b d5       	rcall	.+2646   	; 0x618c <__cmpsf2>
    5736:	88 23       	and	r24, r24
    5738:	2c f4       	brge	.+10     	; 0x5744 <getPosition+0x88>
    573a:	81 e0       	ldi	r24, 0x01	; 1
    573c:	90 e0       	ldi	r25, 0x00	; 0
    573e:	9a 87       	std	Y+10, r25	; 0x0a
    5740:	89 87       	std	Y+9, r24	; 0x09
    5742:	3b c0       	rjmp	.+118    	; 0x57ba <getPosition+0xfe>
    5744:	20 e0       	ldi	r18, 0x00	; 0
    5746:	3f ef       	ldi	r19, 0xFF	; 255
    5748:	4f e7       	ldi	r20, 0x7F	; 127
    574a:	57 e4       	ldi	r21, 0x47	; 71
    574c:	6d 81       	ldd	r22, Y+5	; 0x05
    574e:	7e 81       	ldd	r23, Y+6	; 0x06
    5750:	8f 81       	ldd	r24, Y+7	; 0x07
    5752:	98 85       	ldd	r25, Y+8	; 0x08
    5754:	a3 d6       	rcall	.+3398   	; 0x649c <__gesf2>
    5756:	18 16       	cp	r1, r24
    5758:	3c f5       	brge	.+78     	; 0x57a8 <getPosition+0xec>
    575a:	20 e0       	ldi	r18, 0x00	; 0
    575c:	30 e0       	ldi	r19, 0x00	; 0
    575e:	40 e2       	ldi	r20, 0x20	; 32
    5760:	51 e4       	ldi	r21, 0x41	; 65
    5762:	69 81       	ldd	r22, Y+1	; 0x01
    5764:	7a 81       	ldd	r23, Y+2	; 0x02
    5766:	8b 81       	ldd	r24, Y+3	; 0x03
    5768:	9c 81       	ldd	r25, Y+4	; 0x04
    576a:	9c d6       	rcall	.+3384   	; 0x64a4 <__mulsf3>
    576c:	dc 01       	movw	r26, r24
    576e:	cb 01       	movw	r24, r22
    5770:	bc 01       	movw	r22, r24
    5772:	cd 01       	movw	r24, r26
    5774:	77 d5       	rcall	.+2798   	; 0x6264 <__fixunssfsi>
    5776:	dc 01       	movw	r26, r24
    5778:	cb 01       	movw	r24, r22
    577a:	9a 87       	std	Y+10, r25	; 0x0a
    577c:	89 87       	std	Y+9, r24	; 0x09
    577e:	0f c0       	rjmp	.+30     	; 0x579e <getPosition+0xe2>
    5780:	8a ef       	ldi	r24, 0xFA	; 250
    5782:	90 e0       	ldi	r25, 0x00	; 0
    5784:	9c 87       	std	Y+12, r25	; 0x0c
    5786:	8b 87       	std	Y+11, r24	; 0x0b
    5788:	8b 85       	ldd	r24, Y+11	; 0x0b
    578a:	9c 85       	ldd	r25, Y+12	; 0x0c
    578c:	01 97       	sbiw	r24, 0x01	; 1
    578e:	f1 f7       	brne	.-4      	; 0x578c <getPosition+0xd0>
    5790:	9c 87       	std	Y+12, r25	; 0x0c
    5792:	8b 87       	std	Y+11, r24	; 0x0b
    5794:	89 85       	ldd	r24, Y+9	; 0x09
    5796:	9a 85       	ldd	r25, Y+10	; 0x0a
    5798:	01 97       	sbiw	r24, 0x01	; 1
    579a:	9a 87       	std	Y+10, r25	; 0x0a
    579c:	89 87       	std	Y+9, r24	; 0x09
    579e:	89 85       	ldd	r24, Y+9	; 0x09
    57a0:	9a 85       	ldd	r25, Y+10	; 0x0a
    57a2:	00 97       	sbiw	r24, 0x00	; 0
    57a4:	69 f7       	brne	.-38     	; 0x5780 <getPosition+0xc4>
    57a6:	13 c0       	rjmp	.+38     	; 0x57ce <getPosition+0x112>
    57a8:	6d 81       	ldd	r22, Y+5	; 0x05
    57aa:	7e 81       	ldd	r23, Y+6	; 0x06
    57ac:	8f 81       	ldd	r24, Y+7	; 0x07
    57ae:	98 85       	ldd	r25, Y+8	; 0x08
    57b0:	59 d5       	rcall	.+2738   	; 0x6264 <__fixunssfsi>
    57b2:	dc 01       	movw	r26, r24
    57b4:	cb 01       	movw	r24, r22
    57b6:	9a 87       	std	Y+10, r25	; 0x0a
    57b8:	89 87       	std	Y+9, r24	; 0x09
    57ba:	89 85       	ldd	r24, Y+9	; 0x09
    57bc:	9a 85       	ldd	r25, Y+10	; 0x0a
    57be:	9e 87       	std	Y+14, r25	; 0x0e
    57c0:	8d 87       	std	Y+13, r24	; 0x0d
    57c2:	8d 85       	ldd	r24, Y+13	; 0x0d
    57c4:	9e 85       	ldd	r25, Y+14	; 0x0e
    57c6:	01 97       	sbiw	r24, 0x01	; 1
    57c8:	f1 f7       	brne	.-4      	; 0x57c6 <getPosition+0x10a>
    57ca:	9e 87       	std	Y+14, r25	; 0x0e
    57cc:	8d 87       	std	Y+13, r24	; 0x0d
    57ce:	ce 01       	movw	r24, r28
    57d0:	45 96       	adiw	r24, 0x15	; 21
    57d2:	63 ec       	ldi	r22, 0xC3	; 195
    57d4:	0e 94 6f 0b 	call	0x16de	; 0x16de <CAN_Write>
    57d8:	88 23       	and	r24, r24
    57da:	09 f0       	breq	.+2      	; 0x57de <getPosition+0x122>
    57dc:	8c cf       	rjmp	.-232    	; 0x56f6 <getPosition+0x3a>
    57de:	ce 01       	movw	r24, r28
    57e0:	45 96       	adiw	r24, 0x15	; 21
    57e2:	61 e0       	ldi	r22, 0x01	; 1
    57e4:	0e 94 ff 0a 	call	0x15fe	; 0x15fe <CAN_Read>
    57e8:	8e 89       	ldd	r24, Y+22	; 0x16
    57ea:	88 2f       	mov	r24, r24
    57ec:	90 e0       	ldi	r25, 0x00	; 0
    57ee:	38 2f       	mov	r19, r24
    57f0:	22 27       	eor	r18, r18
    57f2:	8f 89       	ldd	r24, Y+23	; 0x17
    57f4:	88 2f       	mov	r24, r24
    57f6:	90 e0       	ldi	r25, 0x00	; 0
    57f8:	82 2b       	or	r24, r18
    57fa:	93 2b       	or	r25, r19
    57fc:	9e 8f       	std	Y+30, r25	; 0x1e
    57fe:	8d 8f       	std	Y+29, r24	; 0x1d
    5800:	88 8d       	ldd	r24, Y+24	; 0x18
    5802:	88 2f       	mov	r24, r24
    5804:	90 e0       	ldi	r25, 0x00	; 0
    5806:	38 2f       	mov	r19, r24
    5808:	22 27       	eor	r18, r18
    580a:	89 8d       	ldd	r24, Y+25	; 0x19
    580c:	88 2f       	mov	r24, r24
    580e:	90 e0       	ldi	r25, 0x00	; 0
    5810:	82 2b       	or	r24, r18
    5812:	93 2b       	or	r25, r19
    5814:	98 a3       	std	Y+32, r25	; 0x20
    5816:	8f 8f       	std	Y+31, r24	; 0x1f
    5818:	8a 8d       	ldd	r24, Y+26	; 0x1a
    581a:	88 2f       	mov	r24, r24
    581c:	90 e0       	ldi	r25, 0x00	; 0
    581e:	38 2f       	mov	r19, r24
    5820:	22 27       	eor	r18, r18
    5822:	8b 8d       	ldd	r24, Y+27	; 0x1b
    5824:	88 2f       	mov	r24, r24
    5826:	90 e0       	ldi	r25, 0x00	; 0
    5828:	82 2b       	or	r24, r18
    582a:	93 2b       	or	r25, r19
    582c:	9a a3       	std	Y+34, r25	; 0x22
    582e:	89 a3       	std	Y+33, r24	; 0x21
    5830:	86 e0       	ldi	r24, 0x06	; 6
    5832:	fe 01       	movw	r30, r28
    5834:	7d 96       	adiw	r30, 0x1d	; 29
    5836:	de 01       	movw	r26, r28
    5838:	1f 96       	adiw	r26, 0x0f	; 15
    583a:	01 90       	ld	r0, Z+
    583c:	0d 92       	st	X+, r0
    583e:	8a 95       	dec	r24
    5840:	e1 f7       	brne	.-8      	; 0x583a <getPosition+0x17e>
    5842:	50 e0       	ldi	r21, 0x00	; 0
    5844:	5f 85       	ldd	r21, Y+15	; 0x0f
    5846:	40 e0       	ldi	r20, 0x00	; 0
    5848:	48 89       	ldd	r20, Y+16	; 0x10
    584a:	30 e0       	ldi	r19, 0x00	; 0
    584c:	39 89       	ldd	r19, Y+17	; 0x11
    584e:	20 e0       	ldi	r18, 0x00	; 0
    5850:	2a 89       	ldd	r18, Y+18	; 0x12
    5852:	90 e0       	ldi	r25, 0x00	; 0
    5854:	9b 89       	ldd	r25, Y+19	; 0x13
    5856:	80 e0       	ldi	r24, 0x00	; 0
    5858:	8c 89       	ldd	r24, Y+20	; 0x14
    585a:	25 2e       	mov	r2, r21
    585c:	34 2e       	mov	r3, r20
    585e:	43 2e       	mov	r4, r19
    5860:	52 2e       	mov	r5, r18
    5862:	69 2e       	mov	r6, r25
    5864:	78 2e       	mov	r7, r24
    5866:	a2 2c       	mov	r10, r2
    5868:	b3 2c       	mov	r11, r3
    586a:	c4 2c       	mov	r12, r4
    586c:	d5 2c       	mov	r13, r5
    586e:	e6 2c       	mov	r14, r6
    5870:	f7 2c       	mov	r15, r7
    5872:	08 2d       	mov	r16, r8
    5874:	19 2d       	mov	r17, r9
    5876:	2a 2d       	mov	r18, r10
    5878:	3b 2d       	mov	r19, r11
    587a:	4c 2d       	mov	r20, r12
    587c:	5d 2d       	mov	r21, r13
    587e:	6e 2d       	mov	r22, r14
    5880:	7f 2d       	mov	r23, r15
    5882:	80 2f       	mov	r24, r16
    5884:	91 2f       	mov	r25, r17
    5886:	a2 96       	adiw	r28, 0x22	; 34
    5888:	0f b6       	in	r0, 0x3f	; 63
    588a:	f8 94       	cli
    588c:	de bf       	out	0x3e, r29	; 62
    588e:	0f be       	out	0x3f, r0	; 63
    5890:	cd bf       	out	0x3d, r28	; 61
    5892:	df 91       	pop	r29
    5894:	cf 91       	pop	r28
    5896:	1f 91       	pop	r17
    5898:	0f 91       	pop	r16
    589a:	ff 90       	pop	r15
    589c:	ef 90       	pop	r14
    589e:	df 90       	pop	r13
    58a0:	cf 90       	pop	r12
    58a2:	bf 90       	pop	r11
    58a4:	af 90       	pop	r10
    58a6:	9f 90       	pop	r9
    58a8:	8f 90       	pop	r8
    58aa:	7f 90       	pop	r7
    58ac:	6f 90       	pop	r6
    58ae:	5f 90       	pop	r5
    58b0:	4f 90       	pop	r4
    58b2:	3f 90       	pop	r3
    58b4:	2f 90       	pop	r2
    58b6:	08 95       	ret

000058b8 <GPIO_PinRegister>:
    58b8:	0f 93       	push	r16
    58ba:	1f 93       	push	r17
    58bc:	cf 93       	push	r28
    58be:	df 93       	push	r29
    58c0:	00 d0       	rcall	.+0      	; 0x58c2 <GPIO_PinRegister+0xa>
    58c2:	00 d0       	rcall	.+0      	; 0x58c4 <GPIO_PinRegister+0xc>
    58c4:	cd b7       	in	r28, 0x3d	; 61
    58c6:	de b7       	in	r29, 0x3e	; 62
    58c8:	9b 83       	std	Y+3, r25	; 0x03
    58ca:	8a 83       	std	Y+2, r24	; 0x02
    58cc:	6c 83       	std	Y+4, r22	; 0x04
    58ce:	80 91 ce 01 	lds	r24, 0x01CE
    58d2:	84 31       	cpi	r24, 0x14	; 20
    58d4:	10 f0       	brcs	.+4      	; 0x58da <GPIO_PinRegister+0x22>
    58d6:	80 e0       	ldi	r24, 0x00	; 0
    58d8:	73 c0       	rjmp	.+230    	; 0x59c0 <GPIO_PinRegister+0x108>
    58da:	80 91 ce 01 	lds	r24, 0x01CE
    58de:	08 2f       	mov	r16, r24
    58e0:	10 e0       	ldi	r17, 0x00	; 0
    58e2:	86 e0       	ldi	r24, 0x06	; 6
    58e4:	90 e0       	ldi	r25, 0x00	; 0
    58e6:	b9 d6       	rcall	.+3442   	; 0x665a <malloc>
    58e8:	9c 01       	movw	r18, r24
    58ea:	c8 01       	movw	r24, r16
    58ec:	88 0f       	add	r24, r24
    58ee:	99 1f       	adc	r25, r25
    58f0:	8a 55       	subi	r24, 0x5A	; 90
    58f2:	9e 4f       	sbci	r25, 0xFE	; 254
    58f4:	fc 01       	movw	r30, r24
    58f6:	31 83       	std	Z+1, r19	; 0x01
    58f8:	20 83       	st	Z, r18
    58fa:	80 91 ce 01 	lds	r24, 0x01CE
    58fe:	88 2f       	mov	r24, r24
    5900:	90 e0       	ldi	r25, 0x00	; 0
    5902:	88 0f       	add	r24, r24
    5904:	99 1f       	adc	r25, r25
    5906:	8a 55       	subi	r24, 0x5A	; 90
    5908:	9e 4f       	sbci	r25, 0xFE	; 254
    590a:	fc 01       	movw	r30, r24
    590c:	80 81       	ld	r24, Z
    590e:	91 81       	ldd	r25, Z+1	; 0x01
    5910:	00 97       	sbiw	r24, 0x00	; 0
    5912:	11 f4       	brne	.+4      	; 0x5918 <GPIO_PinRegister+0x60>
    5914:	8f ef       	ldi	r24, 0xFF	; 255
    5916:	54 c0       	rjmp	.+168    	; 0x59c0 <GPIO_PinRegister+0x108>
    5918:	80 91 ce 01 	lds	r24, 0x01CE
    591c:	88 2f       	mov	r24, r24
    591e:	90 e0       	ldi	r25, 0x00	; 0
    5920:	88 0f       	add	r24, r24
    5922:	99 1f       	adc	r25, r25
    5924:	8a 55       	subi	r24, 0x5A	; 90
    5926:	9e 4f       	sbci	r25, 0xFE	; 254
    5928:	fc 01       	movw	r30, r24
    592a:	80 81       	ld	r24, Z
    592c:	91 81       	ldd	r25, Z+1	; 0x01
    592e:	2a 81       	ldd	r18, Y+2	; 0x02
    5930:	3b 81       	ldd	r19, Y+3	; 0x03
    5932:	fc 01       	movw	r30, r24
    5934:	31 83       	std	Z+1, r19	; 0x01
    5936:	20 83       	st	Z, r18
    5938:	80 91 ce 01 	lds	r24, 0x01CE
    593c:	88 2f       	mov	r24, r24
    593e:	90 e0       	ldi	r25, 0x00	; 0
    5940:	88 0f       	add	r24, r24
    5942:	99 1f       	adc	r25, r25
    5944:	8a 55       	subi	r24, 0x5A	; 90
    5946:	9e 4f       	sbci	r25, 0xFE	; 254
    5948:	fc 01       	movw	r30, r24
    594a:	80 81       	ld	r24, Z
    594c:	91 81       	ldd	r25, Z+1	; 0x01
    594e:	2c 81       	ldd	r18, Y+4	; 0x04
    5950:	fc 01       	movw	r30, r24
    5952:	22 83       	std	Z+2, r18	; 0x02
    5954:	19 82       	std	Y+1, r1	; 0x01
    5956:	16 c0       	rjmp	.+44     	; 0x5984 <GPIO_PinRegister+0xcc>
    5958:	80 91 ce 01 	lds	r24, 0x01CE
    595c:	88 2f       	mov	r24, r24
    595e:	90 e0       	ldi	r25, 0x00	; 0
    5960:	88 0f       	add	r24, r24
    5962:	99 1f       	adc	r25, r25
    5964:	8a 55       	subi	r24, 0x5A	; 90
    5966:	9e 4f       	sbci	r25, 0xFE	; 254
    5968:	fc 01       	movw	r30, r24
    596a:	20 81       	ld	r18, Z
    596c:	31 81       	ldd	r19, Z+1	; 0x01
    596e:	89 81       	ldd	r24, Y+1	; 0x01
    5970:	88 2f       	mov	r24, r24
    5972:	90 e0       	ldi	r25, 0x00	; 0
    5974:	82 0f       	add	r24, r18
    5976:	93 1f       	adc	r25, r19
    5978:	03 96       	adiw	r24, 0x03	; 3
    597a:	fc 01       	movw	r30, r24
    597c:	10 82       	st	Z, r1
    597e:	89 81       	ldd	r24, Y+1	; 0x01
    5980:	8f 5f       	subi	r24, 0xFF	; 255
    5982:	89 83       	std	Y+1, r24	; 0x01
    5984:	89 81       	ldd	r24, Y+1	; 0x01
    5986:	83 30       	cpi	r24, 0x03	; 3
    5988:	38 f3       	brcs	.-50     	; 0x5958 <GPIO_PinRegister+0xa0>
    598a:	8a 81       	ldd	r24, Y+2	; 0x02
    598c:	9b 81       	ldd	r25, Y+3	; 0x03
    598e:	01 97       	sbiw	r24, 0x01	; 1
    5990:	fc 01       	movw	r30, r24
    5992:	80 81       	ld	r24, Z
    5994:	8a 81       	ldd	r24, Y+2	; 0x02
    5996:	9b 81       	ldd	r25, Y+3	; 0x03
    5998:	01 97       	sbiw	r24, 0x01	; 1
    599a:	fc 01       	movw	r30, r24
    599c:	10 82       	st	Z, r1
    599e:	8a 81       	ldd	r24, Y+2	; 0x02
    59a0:	9b 81       	ldd	r25, Y+3	; 0x03
    59a2:	fc 01       	movw	r30, r24
    59a4:	80 81       	ld	r24, Z
    59a6:	8a 81       	ldd	r24, Y+2	; 0x02
    59a8:	9b 81       	ldd	r25, Y+3	; 0x03
    59aa:	fc 01       	movw	r30, r24
    59ac:	10 82       	st	Z, r1
    59ae:	80 91 ce 01 	lds	r24, 0x01CE
    59b2:	89 83       	std	Y+1, r24	; 0x01
    59b4:	80 91 ce 01 	lds	r24, 0x01CE
    59b8:	8f 5f       	subi	r24, 0xFF	; 255
    59ba:	80 93 ce 01 	sts	0x01CE, r24
    59be:	89 81       	ldd	r24, Y+1	; 0x01
    59c0:	0f 90       	pop	r0
    59c2:	0f 90       	pop	r0
    59c4:	0f 90       	pop	r0
    59c6:	0f 90       	pop	r0
    59c8:	df 91       	pop	r29
    59ca:	cf 91       	pop	r28
    59cc:	1f 91       	pop	r17
    59ce:	0f 91       	pop	r16
    59d0:	08 95       	ret

000059d2 <GPIO_PinRead>:
    59d2:	cf 93       	push	r28
    59d4:	df 93       	push	r29
    59d6:	1f 92       	push	r1
    59d8:	cd b7       	in	r28, 0x3d	; 61
    59da:	de b7       	in	r29, 0x3e	; 62
    59dc:	89 83       	std	Y+1, r24	; 0x01
    59de:	89 81       	ldd	r24, Y+1	; 0x01
    59e0:	88 2f       	mov	r24, r24
    59e2:	90 e0       	ldi	r25, 0x00	; 0
    59e4:	88 0f       	add	r24, r24
    59e6:	99 1f       	adc	r25, r25
    59e8:	8a 55       	subi	r24, 0x5A	; 90
    59ea:	9e 4f       	sbci	r25, 0xFE	; 254
    59ec:	fc 01       	movw	r30, r24
    59ee:	80 81       	ld	r24, Z
    59f0:	91 81       	ldd	r25, Z+1	; 0x01
    59f2:	fc 01       	movw	r30, r24
    59f4:	23 81       	ldd	r18, Z+3	; 0x03
    59f6:	89 81       	ldd	r24, Y+1	; 0x01
    59f8:	88 2f       	mov	r24, r24
    59fa:	90 e0       	ldi	r25, 0x00	; 0
    59fc:	88 0f       	add	r24, r24
    59fe:	99 1f       	adc	r25, r25
    5a00:	8a 55       	subi	r24, 0x5A	; 90
    5a02:	9e 4f       	sbci	r25, 0xFE	; 254
    5a04:	fc 01       	movw	r30, r24
    5a06:	80 81       	ld	r24, Z
    5a08:	91 81       	ldd	r25, Z+1	; 0x01
    5a0a:	fc 01       	movw	r30, r24
    5a0c:	84 81       	ldd	r24, Z+4	; 0x04
    5a0e:	28 23       	and	r18, r24
    5a10:	89 81       	ldd	r24, Y+1	; 0x01
    5a12:	88 2f       	mov	r24, r24
    5a14:	90 e0       	ldi	r25, 0x00	; 0
    5a16:	88 0f       	add	r24, r24
    5a18:	99 1f       	adc	r25, r25
    5a1a:	8a 55       	subi	r24, 0x5A	; 90
    5a1c:	9e 4f       	sbci	r25, 0xFE	; 254
    5a1e:	fc 01       	movw	r30, r24
    5a20:	80 81       	ld	r24, Z
    5a22:	91 81       	ldd	r25, Z+1	; 0x01
    5a24:	fc 01       	movw	r30, r24
    5a26:	85 81       	ldd	r24, Z+5	; 0x05
    5a28:	82 23       	and	r24, r18
    5a2a:	0f 90       	pop	r0
    5a2c:	df 91       	pop	r29
    5a2e:	cf 91       	pop	r28
    5a30:	08 95       	ret

00005a32 <GPIO_ReadFromRegister>:
    5a32:	cf 93       	push	r28
    5a34:	df 93       	push	r29
    5a36:	00 d0       	rcall	.+0      	; 0x5a38 <GPIO_ReadFromRegister+0x6>
    5a38:	cd b7       	in	r28, 0x3d	; 61
    5a3a:	de b7       	in	r29, 0x3e	; 62
    5a3c:	8a 83       	std	Y+2, r24	; 0x02
    5a3e:	19 82       	std	Y+1, r1	; 0x01
    5a40:	8a 81       	ldd	r24, Y+2	; 0x02
    5a42:	88 2f       	mov	r24, r24
    5a44:	90 e0       	ldi	r25, 0x00	; 0
    5a46:	88 0f       	add	r24, r24
    5a48:	99 1f       	adc	r25, r25
    5a4a:	8a 55       	subi	r24, 0x5A	; 90
    5a4c:	9e 4f       	sbci	r25, 0xFE	; 254
    5a4e:	fc 01       	movw	r30, r24
    5a50:	80 81       	ld	r24, Z
    5a52:	91 81       	ldd	r25, Z+1	; 0x01
    5a54:	fc 01       	movw	r30, r24
    5a56:	80 81       	ld	r24, Z
    5a58:	91 81       	ldd	r25, Z+1	; 0x01
    5a5a:	02 97       	sbiw	r24, 0x02	; 2
    5a5c:	fc 01       	movw	r30, r24
    5a5e:	80 81       	ld	r24, Z
    5a60:	88 2f       	mov	r24, r24
    5a62:	90 e0       	ldi	r25, 0x00	; 0
    5a64:	2a 81       	ldd	r18, Y+2	; 0x02
    5a66:	22 2f       	mov	r18, r18
    5a68:	30 e0       	ldi	r19, 0x00	; 0
    5a6a:	22 0f       	add	r18, r18
    5a6c:	33 1f       	adc	r19, r19
    5a6e:	2a 55       	subi	r18, 0x5A	; 90
    5a70:	3e 4f       	sbci	r19, 0xFE	; 254
    5a72:	f9 01       	movw	r30, r18
    5a74:	20 81       	ld	r18, Z
    5a76:	31 81       	ldd	r19, Z+1	; 0x01
    5a78:	f9 01       	movw	r30, r18
    5a7a:	22 81       	ldd	r18, Z+2	; 0x02
    5a7c:	22 2f       	mov	r18, r18
    5a7e:	30 e0       	ldi	r19, 0x00	; 0
    5a80:	02 2e       	mov	r0, r18
    5a82:	02 c0       	rjmp	.+4      	; 0x5a88 <GPIO_ReadFromRegister+0x56>
    5a84:	95 95       	asr	r25
    5a86:	87 95       	ror	r24
    5a88:	0a 94       	dec	r0
    5a8a:	e2 f7       	brpl	.-8      	; 0x5a84 <GPIO_ReadFromRegister+0x52>
    5a8c:	81 70       	andi	r24, 0x01	; 1
    5a8e:	89 83       	std	Y+1, r24	; 0x01
    5a90:	89 81       	ldd	r24, Y+1	; 0x01
    5a92:	0f 90       	pop	r0
    5a94:	0f 90       	pop	r0
    5a96:	df 91       	pop	r29
    5a98:	cf 91       	pop	r28
    5a9a:	08 95       	ret

00005a9c <fillDebaunsingData>:
    5a9c:	ef 92       	push	r14
    5a9e:	ff 92       	push	r15
    5aa0:	0f 93       	push	r16
    5aa2:	1f 93       	push	r17
    5aa4:	cf 93       	push	r28
    5aa6:	df 93       	push	r29
    5aa8:	1f 92       	push	r1
    5aaa:	cd b7       	in	r28, 0x3d	; 61
    5aac:	de b7       	in	r29, 0x3e	; 62
    5aae:	80 91 d3 01 	lds	r24, 0x01D3
    5ab2:	8f 5f       	subi	r24, 0xFF	; 255
    5ab4:	80 93 d3 01 	sts	0x01D3, r24
    5ab8:	80 91 d3 01 	lds	r24, 0x01D3
    5abc:	83 30       	cpi	r24, 0x03	; 3
    5abe:	14 f0       	brlt	.+4      	; 0x5ac4 <fillDebaunsingData+0x28>
    5ac0:	10 92 d3 01 	sts	0x01D3, r1
    5ac4:	19 82       	std	Y+1, r1	; 0x01
    5ac6:	1c c0       	rjmp	.+56     	; 0x5b00 <fillDebaunsingData+0x64>
    5ac8:	89 81       	ldd	r24, Y+1	; 0x01
    5aca:	88 2f       	mov	r24, r24
    5acc:	90 e0       	ldi	r25, 0x00	; 0
    5ace:	88 0f       	add	r24, r24
    5ad0:	99 1f       	adc	r25, r25
    5ad2:	8a 55       	subi	r24, 0x5A	; 90
    5ad4:	9e 4f       	sbci	r25, 0xFE	; 254
    5ad6:	fc 01       	movw	r30, r24
    5ad8:	e0 80       	ld	r14, Z
    5ada:	f1 80       	ldd	r15, Z+1	; 0x01
    5adc:	80 91 d3 01 	lds	r24, 0x01D3
    5ae0:	08 2f       	mov	r16, r24
    5ae2:	11 27       	eor	r17, r17
    5ae4:	07 fd       	sbrc	r16, 7
    5ae6:	10 95       	com	r17
    5ae8:	89 81       	ldd	r24, Y+1	; 0x01
    5aea:	a3 df       	rcall	.-186    	; 0x5a32 <GPIO_ReadFromRegister>
    5aec:	28 2f       	mov	r18, r24
    5aee:	c7 01       	movw	r24, r14
    5af0:	80 0f       	add	r24, r16
    5af2:	91 1f       	adc	r25, r17
    5af4:	03 96       	adiw	r24, 0x03	; 3
    5af6:	fc 01       	movw	r30, r24
    5af8:	20 83       	st	Z, r18
    5afa:	89 81       	ldd	r24, Y+1	; 0x01
    5afc:	8f 5f       	subi	r24, 0xFF	; 255
    5afe:	89 83       	std	Y+1, r24	; 0x01
    5b00:	80 91 ce 01 	lds	r24, 0x01CE
    5b04:	99 81       	ldd	r25, Y+1	; 0x01
    5b06:	98 17       	cp	r25, r24
    5b08:	f8 f2       	brcs	.-66     	; 0x5ac8 <fillDebaunsingData+0x2c>
    5b0a:	0f 90       	pop	r0
    5b0c:	df 91       	pop	r29
    5b0e:	cf 91       	pop	r28
    5b10:	1f 91       	pop	r17
    5b12:	0f 91       	pop	r16
    5b14:	ff 90       	pop	r15
    5b16:	ef 90       	pop	r14
    5b18:	08 95       	ret

00005b1a <Timer_Init>:
    5b1a:	0f 93       	push	r16
    5b1c:	1f 93       	push	r17
    5b1e:	cf 93       	push	r28
    5b20:	df 93       	push	r29
    5b22:	00 d0       	rcall	.+0      	; 0x5b24 <Timer_Init+0xa>
    5b24:	cd b7       	in	r28, 0x3d	; 61
    5b26:	de b7       	in	r29, 0x3e	; 62
    5b28:	9a 83       	std	Y+2, r25	; 0x02
    5b2a:	89 83       	std	Y+1, r24	; 0x01
    5b2c:	80 e8       	ldi	r24, 0x80	; 128
    5b2e:	90 e0       	ldi	r25, 0x00	; 0
    5b30:	fc 01       	movw	r30, r24
    5b32:	10 82       	st	Z, r1
    5b34:	81 e8       	ldi	r24, 0x81	; 129
    5b36:	90 e0       	ldi	r25, 0x00	; 0
    5b38:	29 e0       	ldi	r18, 0x09	; 9
    5b3a:	fc 01       	movw	r30, r24
    5b3c:	20 83       	st	Z, r18
    5b3e:	08 e8       	ldi	r16, 0x88	; 136
    5b40:	10 e0       	ldi	r17, 0x00	; 0
    5b42:	89 81       	ldd	r24, Y+1	; 0x01
    5b44:	9a 81       	ldd	r25, Y+2	; 0x02
    5b46:	cc 01       	movw	r24, r24
    5b48:	a0 e0       	ldi	r26, 0x00	; 0
    5b4a:	b0 e0       	ldi	r27, 0x00	; 0
    5b4c:	bc 01       	movw	r22, r24
    5b4e:	cd 01       	movw	r24, r26
    5b50:	b5 d3       	rcall	.+1898   	; 0x62bc <__floatunsisf>
    5b52:	dc 01       	movw	r26, r24
    5b54:	cb 01       	movw	r24, r22
    5b56:	9c 01       	movw	r18, r24
    5b58:	ad 01       	movw	r20, r26
    5b5a:	60 e8       	ldi	r22, 0x80	; 128
    5b5c:	76 e9       	ldi	r23, 0x96	; 150
    5b5e:	88 e1       	ldi	r24, 0x18	; 24
    5b60:	9b e4       	ldi	r25, 0x4B	; 75
    5b62:	18 d3       	rcall	.+1584   	; 0x6194 <__divsf3>
    5b64:	dc 01       	movw	r26, r24
    5b66:	cb 01       	movw	r24, r22
    5b68:	20 e0       	ldi	r18, 0x00	; 0
    5b6a:	30 e0       	ldi	r19, 0x00	; 0
    5b6c:	40 e0       	ldi	r20, 0x00	; 0
    5b6e:	5f e3       	ldi	r21, 0x3F	; 63
    5b70:	bc 01       	movw	r22, r24
    5b72:	cd 01       	movw	r24, r26
    5b74:	a7 d2       	rcall	.+1358   	; 0x60c4 <__addsf3>
    5b76:	dc 01       	movw	r26, r24
    5b78:	cb 01       	movw	r24, r22
    5b7a:	bc 01       	movw	r22, r24
    5b7c:	cd 01       	movw	r24, r26
    5b7e:	72 d3       	rcall	.+1764   	; 0x6264 <__fixunssfsi>
    5b80:	dc 01       	movw	r26, r24
    5b82:	cb 01       	movw	r24, r22
    5b84:	f8 01       	movw	r30, r16
    5b86:	91 83       	std	Z+1, r25	; 0x01
    5b88:	80 83       	st	Z, r24
    5b8a:	8f e6       	ldi	r24, 0x6F	; 111
    5b8c:	90 e0       	ldi	r25, 0x00	; 0
    5b8e:	22 e0       	ldi	r18, 0x02	; 2
    5b90:	fc 01       	movw	r30, r24
    5b92:	20 83       	st	Z, r18
    5b94:	8f e5       	ldi	r24, 0x5F	; 95
    5b96:	90 e0       	ldi	r25, 0x00	; 0
    5b98:	2f e5       	ldi	r18, 0x5F	; 95
    5b9a:	30 e0       	ldi	r19, 0x00	; 0
    5b9c:	f9 01       	movw	r30, r18
    5b9e:	20 81       	ld	r18, Z
    5ba0:	20 68       	ori	r18, 0x80	; 128
    5ba2:	fc 01       	movw	r30, r24
    5ba4:	20 83       	st	Z, r18
    5ba6:	0f 90       	pop	r0
    5ba8:	0f 90       	pop	r0
    5baa:	df 91       	pop	r29
    5bac:	cf 91       	pop	r28
    5bae:	1f 91       	pop	r17
    5bb0:	0f 91       	pop	r16
    5bb2:	08 95       	ret

00005bb4 <__vector_12>:
    5bb4:	1f 92       	push	r1
    5bb6:	0f 92       	push	r0
    5bb8:	00 90 5f 00 	lds	r0, 0x005F
    5bbc:	0f 92       	push	r0
    5bbe:	11 24       	eor	r1, r1
    5bc0:	00 90 5b 00 	lds	r0, 0x005B
    5bc4:	0f 92       	push	r0
    5bc6:	2f 93       	push	r18
    5bc8:	3f 93       	push	r19
    5bca:	4f 93       	push	r20
    5bcc:	5f 93       	push	r21
    5bce:	6f 93       	push	r22
    5bd0:	7f 93       	push	r23
    5bd2:	8f 93       	push	r24
    5bd4:	9f 93       	push	r25
    5bd6:	af 93       	push	r26
    5bd8:	bf 93       	push	r27
    5bda:	ef 93       	push	r30
    5bdc:	ff 93       	push	r31
    5bde:	cf 93       	push	r28
    5be0:	df 93       	push	r29
    5be2:	cd b7       	in	r28, 0x3d	; 61
    5be4:	de b7       	in	r29, 0x3e	; 62
    5be6:	5a df       	rcall	.-332    	; 0x5a9c <fillDebaunsingData>
    5be8:	80 91 cf 01 	lds	r24, 0x01CF
    5bec:	90 91 d0 01 	lds	r25, 0x01D0
    5bf0:	a0 91 d1 01 	lds	r26, 0x01D1
    5bf4:	b0 91 d2 01 	lds	r27, 0x01D2
    5bf8:	01 96       	adiw	r24, 0x01	; 1
    5bfa:	a1 1d       	adc	r26, r1
    5bfc:	b1 1d       	adc	r27, r1
    5bfe:	80 93 cf 01 	sts	0x01CF, r24
    5c02:	90 93 d0 01 	sts	0x01D0, r25
    5c06:	a0 93 d1 01 	sts	0x01D1, r26
    5c0a:	b0 93 d2 01 	sts	0x01D2, r27
    5c0e:	df 91       	pop	r29
    5c10:	cf 91       	pop	r28
    5c12:	ff 91       	pop	r31
    5c14:	ef 91       	pop	r30
    5c16:	bf 91       	pop	r27
    5c18:	af 91       	pop	r26
    5c1a:	9f 91       	pop	r25
    5c1c:	8f 91       	pop	r24
    5c1e:	7f 91       	pop	r23
    5c20:	6f 91       	pop	r22
    5c22:	5f 91       	pop	r21
    5c24:	4f 91       	pop	r20
    5c26:	3f 91       	pop	r19
    5c28:	2f 91       	pop	r18
    5c2a:	0f 90       	pop	r0
    5c2c:	00 92 5b 00 	sts	0x005B, r0
    5c30:	0f 90       	pop	r0
    5c32:	00 92 5f 00 	sts	0x005F, r0
    5c36:	0f 90       	pop	r0
    5c38:	1f 90       	pop	r1
    5c3a:	18 95       	reti

00005c3c <systemInit>:
    5c3c:	cf 93       	push	r28
    5c3e:	df 93       	push	r29
    5c40:	cd b7       	in	r28, 0x3d	; 61
    5c42:	de b7       	in	r29, 0x3e	; 62
    5c44:	83 e3       	ldi	r24, 0x33	; 51
    5c46:	90 e0       	ldi	r25, 0x00	; 0
    5c48:	2f ef       	ldi	r18, 0xFF	; 255
    5c4a:	fc 01       	movw	r30, r24
    5c4c:	20 83       	st	Z, r18
    5c4e:	88 ee       	ldi	r24, 0xE8	; 232
    5c50:	93 e0       	ldi	r25, 0x03	; 3
    5c52:	63 df       	rcall	.-314    	; 0x5b1a <Timer_Init>
    5c54:	84 e0       	ldi	r24, 0x04	; 4
    5c56:	0e 94 ba 0a 	call	0x1574	; 0x1574 <CAN_Init>
    5c5a:	64 e0       	ldi	r22, 0x04	; 4
    5c5c:	82 e2       	ldi	r24, 0x22	; 34
    5c5e:	90 e0       	ldi	r25, 0x00	; 0
    5c60:	2b de       	rcall	.-938    	; 0x58b8 <GPIO_PinRegister>
    5c62:	80 93 e6 02 	sts	0x02E6, r24
    5c66:	65 e0       	ldi	r22, 0x05	; 5
    5c68:	82 e2       	ldi	r24, 0x22	; 34
    5c6a:	90 e0       	ldi	r25, 0x00	; 0
    5c6c:	25 de       	rcall	.-950    	; 0x58b8 <GPIO_PinRegister>
    5c6e:	80 93 e8 02 	sts	0x02E8, r24
    5c72:	60 e0       	ldi	r22, 0x00	; 0
    5c74:	82 e2       	ldi	r24, 0x22	; 34
    5c76:	90 e0       	ldi	r25, 0x00	; 0
    5c78:	1f de       	rcall	.-962    	; 0x58b8 <GPIO_PinRegister>
    5c7a:	80 93 e0 02 	sts	0x02E0, r24
    5c7e:	61 e0       	ldi	r22, 0x01	; 1
    5c80:	82 e2       	ldi	r24, 0x22	; 34
    5c82:	90 e0       	ldi	r25, 0x00	; 0
    5c84:	19 de       	rcall	.-974    	; 0x58b8 <GPIO_PinRegister>
    5c86:	80 93 e5 02 	sts	0x02E5, r24
    5c8a:	60 e0       	ldi	r22, 0x00	; 0
    5c8c:	81 e3       	ldi	r24, 0x31	; 49
    5c8e:	90 e0       	ldi	r25, 0x00	; 0
    5c90:	13 de       	rcall	.-986    	; 0x58b8 <GPIO_PinRegister>
    5c92:	80 93 e9 02 	sts	0x02E9, r24
    5c96:	67 e0       	ldi	r22, 0x07	; 7
    5c98:	82 e2       	ldi	r24, 0x22	; 34
    5c9a:	90 e0       	ldi	r25, 0x00	; 0
    5c9c:	0d de       	rcall	.-998    	; 0x58b8 <GPIO_PinRegister>
    5c9e:	80 93 df 02 	sts	0x02DF, r24
    5ca2:	66 e0       	ldi	r22, 0x06	; 6
    5ca4:	82 e2       	ldi	r24, 0x22	; 34
    5ca6:	90 e0       	ldi	r25, 0x00	; 0
    5ca8:	07 de       	rcall	.-1010   	; 0x58b8 <GPIO_PinRegister>
    5caa:	80 93 e4 02 	sts	0x02E4, r24
    5cae:	62 e0       	ldi	r22, 0x02	; 2
    5cb0:	82 e2       	ldi	r24, 0x22	; 34
    5cb2:	90 e0       	ldi	r25, 0x00	; 0
    5cb4:	01 de       	rcall	.-1022   	; 0x58b8 <GPIO_PinRegister>
    5cb6:	80 93 de 02 	sts	0x02DE, r24
    5cba:	63 e0       	ldi	r22, 0x03	; 3
    5cbc:	82 e2       	ldi	r24, 0x22	; 34
    5cbe:	90 e0       	ldi	r25, 0x00	; 0
    5cc0:	fb dd       	rcall	.-1034   	; 0x58b8 <GPIO_PinRegister>
    5cc2:	80 93 e7 02 	sts	0x02E7, r24
    5cc6:	61 e0       	ldi	r22, 0x01	; 1
    5cc8:	81 e3       	ldi	r24, 0x31	; 49
    5cca:	90 e0       	ldi	r25, 0x00	; 0
    5ccc:	f5 dd       	rcall	.-1046   	; 0x58b8 <GPIO_PinRegister>
    5cce:	80 93 dd 02 	sts	0x02DD, r24
    5cd2:	62 e0       	ldi	r22, 0x02	; 2
    5cd4:	81 e3       	ldi	r24, 0x31	; 49
    5cd6:	90 e0       	ldi	r25, 0x00	; 0
    5cd8:	ef dd       	rcall	.-1058   	; 0x58b8 <GPIO_PinRegister>
    5cda:	80 93 e1 02 	sts	0x02E1, r24
    5cde:	64 e0       	ldi	r22, 0x04	; 4
    5ce0:	81 e3       	ldi	r24, 0x31	; 49
    5ce2:	90 e0       	ldi	r25, 0x00	; 0
    5ce4:	e9 dd       	rcall	.-1070   	; 0x58b8 <GPIO_PinRegister>
    5ce6:	80 93 e3 02 	sts	0x02E3, r24
    5cea:	00 00       	nop
    5cec:	bf d0       	rcall	.+382    	; 0x5e6c <jumperCheck>
    5cee:	81 30       	cpi	r24, 0x01	; 1
    5cf0:	e9 f3       	breq	.-6      	; 0x5cec <systemInit+0xb0>
    5cf2:	10 92 cf 01 	sts	0x01CF, r1
    5cf6:	10 92 d0 01 	sts	0x01D0, r1
    5cfa:	10 92 d1 01 	sts	0x01D1, r1
    5cfe:	10 92 d2 01 	sts	0x01D2, r1
    5d02:	84 e6       	ldi	r24, 0x64	; 100
    5d04:	90 e0       	ldi	r25, 0x00	; 0
    5d06:	0e 94 1e 08 	call	0x103c	; 0x103c <servo_init>
    5d0a:	10 92 e2 02 	sts	0x02E2, r1
    5d0e:	10 92 ea 02 	sts	0x02EA, r1
    5d12:	10 92 dc 02 	sts	0x02DC, r1
    5d16:	df 91       	pop	r29
    5d18:	cf 91       	pop	r28
    5d1a:	08 95       	ret

00005d1c <getSystemTime>:
    5d1c:	cf 93       	push	r28
    5d1e:	df 93       	push	r29
    5d20:	cd b7       	in	r28, 0x3d	; 61
    5d22:	de b7       	in	r29, 0x3e	; 62
    5d24:	80 91 cf 01 	lds	r24, 0x01CF
    5d28:	90 91 d0 01 	lds	r25, 0x01D0
    5d2c:	a0 91 d1 01 	lds	r26, 0x01D1
    5d30:	b0 91 d2 01 	lds	r27, 0x01D2
    5d34:	bc 01       	movw	r22, r24
    5d36:	cd 01       	movw	r24, r26
    5d38:	df 91       	pop	r29
    5d3a:	cf 91       	pop	r28
    5d3c:	08 95       	ret

00005d3e <checkLiftSensor>:
    5d3e:	cf 93       	push	r28
    5d40:	df 93       	push	r29
    5d42:	1f 92       	push	r1
    5d44:	cd b7       	in	r28, 0x3d	; 61
    5d46:	de b7       	in	r29, 0x3e	; 62
    5d48:	89 83       	std	Y+1, r24	; 0x01
    5d4a:	89 81       	ldd	r24, Y+1	; 0x01
    5d4c:	81 30       	cpi	r24, 0x01	; 1
    5d4e:	31 f4       	brne	.+12     	; 0x5d5c <checkLiftSensor+0x1e>
    5d50:	80 91 df 02 	lds	r24, 0x02DF
    5d54:	81 30       	cpi	r24, 0x01	; 1
    5d56:	59 f4       	brne	.+22     	; 0x5d6e <checkLiftSensor+0x30>
    5d58:	81 e0       	ldi	r24, 0x01	; 1
    5d5a:	0a c0       	rjmp	.+20     	; 0x5d70 <checkLiftSensor+0x32>
    5d5c:	89 81       	ldd	r24, Y+1	; 0x01
    5d5e:	8f 3f       	cpi	r24, 0xFF	; 255
    5d60:	31 f4       	brne	.+12     	; 0x5d6e <checkLiftSensor+0x30>
    5d62:	80 91 e4 02 	lds	r24, 0x02E4
    5d66:	81 30       	cpi	r24, 0x01	; 1
    5d68:	11 f4       	brne	.+4      	; 0x5d6e <checkLiftSensor+0x30>
    5d6a:	81 e0       	ldi	r24, 0x01	; 1
    5d6c:	01 c0       	rjmp	.+2      	; 0x5d70 <checkLiftSensor+0x32>
    5d6e:	8f ef       	ldi	r24, 0xFF	; 255
    5d70:	0f 90       	pop	r0
    5d72:	df 91       	pop	r29
    5d74:	cf 91       	pop	r28
    5d76:	08 95       	ret

00005d78 <checkFrontSensors>:
    5d78:	cf 93       	push	r28
    5d7a:	df 93       	push	r29
    5d7c:	1f 92       	push	r1
    5d7e:	cd b7       	in	r28, 0x3d	; 61
    5d80:	de b7       	in	r29, 0x3e	; 62
    5d82:	89 83       	std	Y+1, r24	; 0x01
    5d84:	89 81       	ldd	r24, Y+1	; 0x01
    5d86:	81 30       	cpi	r24, 0x01	; 1
    5d88:	39 f4       	brne	.+14     	; 0x5d98 <checkFrontSensors+0x20>
    5d8a:	80 91 e8 02 	lds	r24, 0x02E8
    5d8e:	21 de       	rcall	.-958    	; 0x59d2 <GPIO_PinRead>
    5d90:	81 30       	cpi	r24, 0x01	; 1
    5d92:	51 f5       	brne	.+84     	; 0x5de8 <checkFrontSensors+0x70>
    5d94:	81 e0       	ldi	r24, 0x01	; 1
    5d96:	29 c0       	rjmp	.+82     	; 0x5dea <checkFrontSensors+0x72>
    5d98:	89 81       	ldd	r24, Y+1	; 0x01
    5d9a:	8f 3f       	cpi	r24, 0xFF	; 255
    5d9c:	39 f4       	brne	.+14     	; 0x5dac <checkFrontSensors+0x34>
    5d9e:	80 91 e6 02 	lds	r24, 0x02E6
    5da2:	17 de       	rcall	.-978    	; 0x59d2 <GPIO_PinRead>
    5da4:	81 30       	cpi	r24, 0x01	; 1
    5da6:	01 f5       	brne	.+64     	; 0x5de8 <checkFrontSensors+0x70>
    5da8:	81 e0       	ldi	r24, 0x01	; 1
    5daa:	1f c0       	rjmp	.+62     	; 0x5dea <checkFrontSensors+0x72>
    5dac:	89 81       	ldd	r24, Y+1	; 0x01
    5dae:	8e 3f       	cpi	r24, 0xFE	; 254
    5db0:	39 f4       	brne	.+14     	; 0x5dc0 <checkFrontSensors+0x48>
    5db2:	80 91 e9 02 	lds	r24, 0x02E9
    5db6:	0d de       	rcall	.-998    	; 0x59d2 <GPIO_PinRead>
    5db8:	88 23       	and	r24, r24
    5dba:	b1 f4       	brne	.+44     	; 0x5de8 <checkFrontSensors+0x70>
    5dbc:	81 e0       	ldi	r24, 0x01	; 1
    5dbe:	15 c0       	rjmp	.+42     	; 0x5dea <checkFrontSensors+0x72>
    5dc0:	89 81       	ldd	r24, Y+1	; 0x01
    5dc2:	83 30       	cpi	r24, 0x03	; 3
    5dc4:	89 f4       	brne	.+34     	; 0x5de8 <checkFrontSensors+0x70>
    5dc6:	80 91 e8 02 	lds	r24, 0x02E8
    5dca:	03 de       	rcall	.-1018   	; 0x59d2 <GPIO_PinRead>
    5dcc:	81 30       	cpi	r24, 0x01	; 1
    5dce:	51 f0       	breq	.+20     	; 0x5de4 <checkFrontSensors+0x6c>
    5dd0:	80 91 e6 02 	lds	r24, 0x02E6
    5dd4:	fe dd       	rcall	.-1028   	; 0x59d2 <GPIO_PinRead>
    5dd6:	81 30       	cpi	r24, 0x01	; 1
    5dd8:	29 f0       	breq	.+10     	; 0x5de4 <checkFrontSensors+0x6c>
    5dda:	80 91 e9 02 	lds	r24, 0x02E9
    5dde:	f9 dd       	rcall	.-1038   	; 0x59d2 <GPIO_PinRead>
    5de0:	88 23       	and	r24, r24
    5de2:	11 f4       	brne	.+4      	; 0x5de8 <checkFrontSensors+0x70>
    5de4:	81 e0       	ldi	r24, 0x01	; 1
    5de6:	01 c0       	rjmp	.+2      	; 0x5dea <checkFrontSensors+0x72>
    5de8:	80 e0       	ldi	r24, 0x00	; 0
    5dea:	0f 90       	pop	r0
    5dec:	df 91       	pop	r29
    5dee:	cf 91       	pop	r28
    5df0:	08 95       	ret

00005df2 <checkRearSensors>:
    5df2:	cf 93       	push	r28
    5df4:	df 93       	push	r29
    5df6:	1f 92       	push	r1
    5df8:	cd b7       	in	r28, 0x3d	; 61
    5dfa:	de b7       	in	r29, 0x3e	; 62
    5dfc:	89 83       	std	Y+1, r24	; 0x01
    5dfe:	89 81       	ldd	r24, Y+1	; 0x01
    5e00:	81 30       	cpi	r24, 0x01	; 1
    5e02:	39 f4       	brne	.+14     	; 0x5e12 <checkRearSensors+0x20>
    5e04:	80 91 e7 02 	lds	r24, 0x02E7
    5e08:	e4 dd       	rcall	.-1080   	; 0x59d2 <GPIO_PinRead>
    5e0a:	81 30       	cpi	r24, 0x01	; 1
    5e0c:	51 f5       	brne	.+84     	; 0x5e62 <checkRearSensors+0x70>
    5e0e:	81 e0       	ldi	r24, 0x01	; 1
    5e10:	29 c0       	rjmp	.+82     	; 0x5e64 <checkRearSensors+0x72>
    5e12:	89 81       	ldd	r24, Y+1	; 0x01
    5e14:	8f 3f       	cpi	r24, 0xFF	; 255
    5e16:	39 f4       	brne	.+14     	; 0x5e26 <checkRearSensors+0x34>
    5e18:	80 91 de 02 	lds	r24, 0x02DE
    5e1c:	da dd       	rcall	.-1100   	; 0x59d2 <GPIO_PinRead>
    5e1e:	81 30       	cpi	r24, 0x01	; 1
    5e20:	01 f5       	brne	.+64     	; 0x5e62 <checkRearSensors+0x70>
    5e22:	81 e0       	ldi	r24, 0x01	; 1
    5e24:	1f c0       	rjmp	.+62     	; 0x5e64 <checkRearSensors+0x72>
    5e26:	89 81       	ldd	r24, Y+1	; 0x01
    5e28:	8e 3f       	cpi	r24, 0xFE	; 254
    5e2a:	39 f4       	brne	.+14     	; 0x5e3a <checkRearSensors+0x48>
    5e2c:	80 91 dd 02 	lds	r24, 0x02DD
    5e30:	d0 dd       	rcall	.-1120   	; 0x59d2 <GPIO_PinRead>
    5e32:	88 23       	and	r24, r24
    5e34:	b1 f4       	brne	.+44     	; 0x5e62 <checkRearSensors+0x70>
    5e36:	81 e0       	ldi	r24, 0x01	; 1
    5e38:	15 c0       	rjmp	.+42     	; 0x5e64 <checkRearSensors+0x72>
    5e3a:	89 81       	ldd	r24, Y+1	; 0x01
    5e3c:	83 30       	cpi	r24, 0x03	; 3
    5e3e:	89 f4       	brne	.+34     	; 0x5e62 <checkRearSensors+0x70>
    5e40:	80 91 e7 02 	lds	r24, 0x02E7
    5e44:	c6 dd       	rcall	.-1140   	; 0x59d2 <GPIO_PinRead>
    5e46:	81 30       	cpi	r24, 0x01	; 1
    5e48:	51 f0       	breq	.+20     	; 0x5e5e <checkRearSensors+0x6c>
    5e4a:	80 91 de 02 	lds	r24, 0x02DE
    5e4e:	c1 dd       	rcall	.-1150   	; 0x59d2 <GPIO_PinRead>
    5e50:	81 30       	cpi	r24, 0x01	; 1
    5e52:	29 f0       	breq	.+10     	; 0x5e5e <checkRearSensors+0x6c>
    5e54:	80 91 dd 02 	lds	r24, 0x02DD
    5e58:	bc dd       	rcall	.-1160   	; 0x59d2 <GPIO_PinRead>
    5e5a:	88 23       	and	r24, r24
    5e5c:	11 f4       	brne	.+4      	; 0x5e62 <checkRearSensors+0x70>
    5e5e:	81 e0       	ldi	r24, 0x01	; 1
    5e60:	01 c0       	rjmp	.+2      	; 0x5e64 <checkRearSensors+0x72>
    5e62:	80 e0       	ldi	r24, 0x00	; 0
    5e64:	0f 90       	pop	r0
    5e66:	df 91       	pop	r29
    5e68:	cf 91       	pop	r28
    5e6a:	08 95       	ret

00005e6c <jumperCheck>:
    5e6c:	cf 93       	push	r28
    5e6e:	df 93       	push	r29
    5e70:	cd b7       	in	r28, 0x3d	; 61
    5e72:	de b7       	in	r29, 0x3e	; 62
    5e74:	80 91 e1 02 	lds	r24, 0x02E1
    5e78:	ac dd       	rcall	.-1192   	; 0x59d2 <GPIO_PinRead>
    5e7a:	88 23       	and	r24, r24
    5e7c:	11 f4       	brne	.+4      	; 0x5e82 <jumperCheck+0x16>
    5e7e:	81 e0       	ldi	r24, 0x01	; 1
    5e80:	01 c0       	rjmp	.+2      	; 0x5e84 <jumperCheck+0x18>
    5e82:	80 e0       	ldi	r24, 0x00	; 0
    5e84:	df 91       	pop	r29
    5e86:	cf 91       	pop	r28
    5e88:	08 95       	ret

00005e8a <__vector_23>:
    5e8a:	1f 92       	push	r1
    5e8c:	0f 92       	push	r0
    5e8e:	00 90 5f 00 	lds	r0, 0x005F
    5e92:	0f 92       	push	r0
    5e94:	11 24       	eor	r1, r1
    5e96:	00 90 5b 00 	lds	r0, 0x005B
    5e9a:	0f 92       	push	r0
    5e9c:	2f 93       	push	r18
    5e9e:	3f 93       	push	r19
    5ea0:	8f 93       	push	r24
    5ea2:	9f 93       	push	r25
    5ea4:	ef 93       	push	r30
    5ea6:	ff 93       	push	r31
    5ea8:	cf 93       	push	r28
    5eaa:	df 93       	push	r29
    5eac:	cd b7       	in	r28, 0x3d	; 61
    5eae:	de b7       	in	r29, 0x3e	; 62
    5eb0:	80 91 14 02 	lds	r24, 0x0214
    5eb4:	88 23       	and	r24, r24
    5eb6:	d1 f0       	breq	.+52     	; 0x5eec <__vector_23+0x62>
    5eb8:	80 91 14 02 	lds	r24, 0x0214
    5ebc:	81 50       	subi	r24, 0x01	; 1
    5ebe:	80 93 14 02 	sts	0x0214, r24
    5ec2:	86 ec       	ldi	r24, 0xC6	; 198
    5ec4:	90 e0       	ldi	r25, 0x00	; 0
    5ec6:	20 91 15 02 	lds	r18, 0x0215
    5eca:	22 2f       	mov	r18, r18
    5ecc:	30 e0       	ldi	r19, 0x00	; 0
    5ece:	2c 52       	subi	r18, 0x2C	; 44
    5ed0:	3e 4f       	sbci	r19, 0xFE	; 254
    5ed2:	f9 01       	movw	r30, r18
    5ed4:	20 81       	ld	r18, Z
    5ed6:	fc 01       	movw	r30, r24
    5ed8:	20 83       	st	Z, r18
    5eda:	80 91 15 02 	lds	r24, 0x0215
    5ede:	8f 5f       	subi	r24, 0xFF	; 255
    5ee0:	80 93 15 02 	sts	0x0215, r24
    5ee4:	80 34       	cpi	r24, 0x40	; 64
    5ee6:	11 f4       	brne	.+4      	; 0x5eec <__vector_23+0x62>
    5ee8:	10 92 15 02 	sts	0x0215, r1
    5eec:	df 91       	pop	r29
    5eee:	cf 91       	pop	r28
    5ef0:	ff 91       	pop	r31
    5ef2:	ef 91       	pop	r30
    5ef4:	9f 91       	pop	r25
    5ef6:	8f 91       	pop	r24
    5ef8:	3f 91       	pop	r19
    5efa:	2f 91       	pop	r18
    5efc:	0f 90       	pop	r0
    5efe:	00 92 5b 00 	sts	0x005B, r0
    5f02:	0f 90       	pop	r0
    5f04:	00 92 5f 00 	sts	0x005F, r0
    5f08:	0f 90       	pop	r0
    5f0a:	1f 90       	pop	r1
    5f0c:	18 95       	reti

00005f0e <__vector_21>:
    5f0e:	1f 92       	push	r1
    5f10:	0f 92       	push	r0
    5f12:	00 90 5f 00 	lds	r0, 0x005F
    5f16:	0f 92       	push	r0
    5f18:	11 24       	eor	r1, r1
    5f1a:	00 90 5b 00 	lds	r0, 0x005B
    5f1e:	0f 92       	push	r0
    5f20:	2f 93       	push	r18
    5f22:	3f 93       	push	r19
    5f24:	8f 93       	push	r24
    5f26:	9f 93       	push	r25
    5f28:	ef 93       	push	r30
    5f2a:	ff 93       	push	r31
    5f2c:	cf 93       	push	r28
    5f2e:	df 93       	push	r29
    5f30:	1f 92       	push	r1
    5f32:	cd b7       	in	r28, 0x3d	; 61
    5f34:	de b7       	in	r29, 0x3e	; 62
    5f36:	80 ec       	ldi	r24, 0xC0	; 192
    5f38:	90 e0       	ldi	r25, 0x00	; 0
    5f3a:	fc 01       	movw	r30, r24
    5f3c:	80 81       	ld	r24, Z
    5f3e:	89 83       	std	Y+1, r24	; 0x01
    5f40:	89 81       	ldd	r24, Y+1	; 0x01
    5f42:	88 2f       	mov	r24, r24
    5f44:	90 e0       	ldi	r25, 0x00	; 0
    5f46:	8c 71       	andi	r24, 0x1C	; 28
    5f48:	99 27       	eor	r25, r25
    5f4a:	00 97       	sbiw	r24, 0x00	; 0
    5f4c:	d1 f4       	brne	.+52     	; 0x5f82 <__vector_21+0x74>
    5f4e:	80 91 56 02 	lds	r24, 0x0256
    5f52:	88 2f       	mov	r24, r24
    5f54:	90 e0       	ldi	r25, 0x00	; 0
    5f56:	26 ec       	ldi	r18, 0xC6	; 198
    5f58:	30 e0       	ldi	r19, 0x00	; 0
    5f5a:	f9 01       	movw	r30, r18
    5f5c:	20 81       	ld	r18, Z
    5f5e:	8a 5e       	subi	r24, 0xEA	; 234
    5f60:	9d 4f       	sbci	r25, 0xFD	; 253
    5f62:	fc 01       	movw	r30, r24
    5f64:	20 83       	st	Z, r18
    5f66:	80 91 56 02 	lds	r24, 0x0256
    5f6a:	8f 5f       	subi	r24, 0xFF	; 255
    5f6c:	80 93 56 02 	sts	0x0256, r24
    5f70:	80 34       	cpi	r24, 0x40	; 64
    5f72:	11 f4       	brne	.+4      	; 0x5f78 <__vector_21+0x6a>
    5f74:	10 92 56 02 	sts	0x0256, r1
    5f78:	80 91 57 02 	lds	r24, 0x0257
    5f7c:	8f 5f       	subi	r24, 0xFF	; 255
    5f7e:	80 93 57 02 	sts	0x0257, r24
    5f82:	0f 90       	pop	r0
    5f84:	df 91       	pop	r29
    5f86:	cf 91       	pop	r28
    5f88:	ff 91       	pop	r31
    5f8a:	ef 91       	pop	r30
    5f8c:	9f 91       	pop	r25
    5f8e:	8f 91       	pop	r24
    5f90:	3f 91       	pop	r19
    5f92:	2f 91       	pop	r18
    5f94:	0f 90       	pop	r0
    5f96:	00 92 5b 00 	sts	0x005B, r0
    5f9a:	0f 90       	pop	r0
    5f9c:	00 92 5f 00 	sts	0x005F, r0
    5fa0:	0f 90       	pop	r0
    5fa2:	1f 90       	pop	r1
    5fa4:	18 95       	reti

00005fa6 <__vector_34>:
    5fa6:	1f 92       	push	r1
    5fa8:	0f 92       	push	r0
    5faa:	00 90 5f 00 	lds	r0, 0x005F
    5fae:	0f 92       	push	r0
    5fb0:	11 24       	eor	r1, r1
    5fb2:	00 90 5b 00 	lds	r0, 0x005B
    5fb6:	0f 92       	push	r0
    5fb8:	2f 93       	push	r18
    5fba:	3f 93       	push	r19
    5fbc:	8f 93       	push	r24
    5fbe:	9f 93       	push	r25
    5fc0:	ef 93       	push	r30
    5fc2:	ff 93       	push	r31
    5fc4:	cf 93       	push	r28
    5fc6:	df 93       	push	r29
    5fc8:	cd b7       	in	r28, 0x3d	; 61
    5fca:	de b7       	in	r29, 0x3e	; 62
    5fcc:	80 91 98 02 	lds	r24, 0x0298
    5fd0:	88 23       	and	r24, r24
    5fd2:	d1 f0       	breq	.+52     	; 0x6008 <__vector_34+0x62>
    5fd4:	80 91 98 02 	lds	r24, 0x0298
    5fd8:	81 50       	subi	r24, 0x01	; 1
    5fda:	80 93 98 02 	sts	0x0298, r24
    5fde:	8e ec       	ldi	r24, 0xCE	; 206
    5fe0:	90 e0       	ldi	r25, 0x00	; 0
    5fe2:	20 91 99 02 	lds	r18, 0x0299
    5fe6:	22 2f       	mov	r18, r18
    5fe8:	30 e0       	ldi	r19, 0x00	; 0
    5fea:	28 5a       	subi	r18, 0xA8	; 168
    5fec:	3d 4f       	sbci	r19, 0xFD	; 253
    5fee:	f9 01       	movw	r30, r18
    5ff0:	20 81       	ld	r18, Z
    5ff2:	fc 01       	movw	r30, r24
    5ff4:	20 83       	st	Z, r18
    5ff6:	80 91 99 02 	lds	r24, 0x0299
    5ffa:	8f 5f       	subi	r24, 0xFF	; 255
    5ffc:	80 93 99 02 	sts	0x0299, r24
    6000:	80 34       	cpi	r24, 0x40	; 64
    6002:	11 f4       	brne	.+4      	; 0x6008 <__vector_34+0x62>
    6004:	10 92 99 02 	sts	0x0299, r1
    6008:	df 91       	pop	r29
    600a:	cf 91       	pop	r28
    600c:	ff 91       	pop	r31
    600e:	ef 91       	pop	r30
    6010:	9f 91       	pop	r25
    6012:	8f 91       	pop	r24
    6014:	3f 91       	pop	r19
    6016:	2f 91       	pop	r18
    6018:	0f 90       	pop	r0
    601a:	00 92 5b 00 	sts	0x005B, r0
    601e:	0f 90       	pop	r0
    6020:	00 92 5f 00 	sts	0x005F, r0
    6024:	0f 90       	pop	r0
    6026:	1f 90       	pop	r1
    6028:	18 95       	reti

0000602a <__vector_32>:
    602a:	1f 92       	push	r1
    602c:	0f 92       	push	r0
    602e:	00 90 5f 00 	lds	r0, 0x005F
    6032:	0f 92       	push	r0
    6034:	11 24       	eor	r1, r1
    6036:	00 90 5b 00 	lds	r0, 0x005B
    603a:	0f 92       	push	r0
    603c:	2f 93       	push	r18
    603e:	3f 93       	push	r19
    6040:	8f 93       	push	r24
    6042:	9f 93       	push	r25
    6044:	ef 93       	push	r30
    6046:	ff 93       	push	r31
    6048:	cf 93       	push	r28
    604a:	df 93       	push	r29
    604c:	1f 92       	push	r1
    604e:	cd b7       	in	r28, 0x3d	; 61
    6050:	de b7       	in	r29, 0x3e	; 62
    6052:	88 ec       	ldi	r24, 0xC8	; 200
    6054:	90 e0       	ldi	r25, 0x00	; 0
    6056:	fc 01       	movw	r30, r24
    6058:	80 81       	ld	r24, Z
    605a:	89 83       	std	Y+1, r24	; 0x01
    605c:	89 81       	ldd	r24, Y+1	; 0x01
    605e:	88 2f       	mov	r24, r24
    6060:	90 e0       	ldi	r25, 0x00	; 0
    6062:	8c 71       	andi	r24, 0x1C	; 28
    6064:	99 27       	eor	r25, r25
    6066:	00 97       	sbiw	r24, 0x00	; 0
    6068:	d1 f4       	brne	.+52     	; 0x609e <__vector_32+0x74>
    606a:	80 91 da 02 	lds	r24, 0x02DA
    606e:	88 2f       	mov	r24, r24
    6070:	90 e0       	ldi	r25, 0x00	; 0
    6072:	2e ec       	ldi	r18, 0xCE	; 206
    6074:	30 e0       	ldi	r19, 0x00	; 0
    6076:	f9 01       	movw	r30, r18
    6078:	20 81       	ld	r18, Z
    607a:	86 56       	subi	r24, 0x66	; 102
    607c:	9d 4f       	sbci	r25, 0xFD	; 253
    607e:	fc 01       	movw	r30, r24
    6080:	20 83       	st	Z, r18
    6082:	80 91 da 02 	lds	r24, 0x02DA
    6086:	8f 5f       	subi	r24, 0xFF	; 255
    6088:	80 93 da 02 	sts	0x02DA, r24
    608c:	80 34       	cpi	r24, 0x40	; 64
    608e:	11 f4       	brne	.+4      	; 0x6094 <__vector_32+0x6a>
    6090:	10 92 da 02 	sts	0x02DA, r1
    6094:	80 91 db 02 	lds	r24, 0x02DB
    6098:	8f 5f       	subi	r24, 0xFF	; 255
    609a:	80 93 db 02 	sts	0x02DB, r24
    609e:	0f 90       	pop	r0
    60a0:	df 91       	pop	r29
    60a2:	cf 91       	pop	r28
    60a4:	ff 91       	pop	r31
    60a6:	ef 91       	pop	r30
    60a8:	9f 91       	pop	r25
    60aa:	8f 91       	pop	r24
    60ac:	3f 91       	pop	r19
    60ae:	2f 91       	pop	r18
    60b0:	0f 90       	pop	r0
    60b2:	00 92 5b 00 	sts	0x005B, r0
    60b6:	0f 90       	pop	r0
    60b8:	00 92 5f 00 	sts	0x005F, r0
    60bc:	0f 90       	pop	r0
    60be:	1f 90       	pop	r1
    60c0:	18 95       	reti

000060c2 <__subsf3>:
    60c2:	50 58       	subi	r21, 0x80	; 128

000060c4 <__addsf3>:
    60c4:	bb 27       	eor	r27, r27
    60c6:	aa 27       	eor	r26, r26
    60c8:	0e d0       	rcall	.+28     	; 0x60e6 <__addsf3x>
    60ca:	ae c1       	rjmp	.+860    	; 0x6428 <__fp_round>
    60cc:	9f d1       	rcall	.+830    	; 0x640c <__fp_pscA>
    60ce:	30 f0       	brcs	.+12     	; 0x60dc <__addsf3+0x18>
    60d0:	a4 d1       	rcall	.+840    	; 0x641a <__fp_pscB>
    60d2:	20 f0       	brcs	.+8      	; 0x60dc <__addsf3+0x18>
    60d4:	31 f4       	brne	.+12     	; 0x60e2 <__addsf3+0x1e>
    60d6:	9f 3f       	cpi	r25, 0xFF	; 255
    60d8:	11 f4       	brne	.+4      	; 0x60de <__addsf3+0x1a>
    60da:	1e f4       	brtc	.+6      	; 0x60e2 <__addsf3+0x1e>
    60dc:	94 c1       	rjmp	.+808    	; 0x6406 <__fp_nan>
    60de:	0e f4       	brtc	.+2      	; 0x60e2 <__addsf3+0x1e>
    60e0:	e0 95       	com	r30
    60e2:	e7 fb       	bst	r30, 7
    60e4:	8a c1       	rjmp	.+788    	; 0x63fa <__fp_inf>

000060e6 <__addsf3x>:
    60e6:	e9 2f       	mov	r30, r25
    60e8:	b0 d1       	rcall	.+864    	; 0x644a <__fp_split3>
    60ea:	80 f3       	brcs	.-32     	; 0x60cc <__addsf3+0x8>
    60ec:	ba 17       	cp	r27, r26
    60ee:	62 07       	cpc	r22, r18
    60f0:	73 07       	cpc	r23, r19
    60f2:	84 07       	cpc	r24, r20
    60f4:	95 07       	cpc	r25, r21
    60f6:	18 f0       	brcs	.+6      	; 0x60fe <__addsf3x+0x18>
    60f8:	71 f4       	brne	.+28     	; 0x6116 <__addsf3x+0x30>
    60fa:	9e f5       	brtc	.+102    	; 0x6162 <__addsf3x+0x7c>
    60fc:	c8 c1       	rjmp	.+912    	; 0x648e <__fp_zero>
    60fe:	0e f4       	brtc	.+2      	; 0x6102 <__addsf3x+0x1c>
    6100:	e0 95       	com	r30
    6102:	0b 2e       	mov	r0, r27
    6104:	ba 2f       	mov	r27, r26
    6106:	a0 2d       	mov	r26, r0
    6108:	0b 01       	movw	r0, r22
    610a:	b9 01       	movw	r22, r18
    610c:	90 01       	movw	r18, r0
    610e:	0c 01       	movw	r0, r24
    6110:	ca 01       	movw	r24, r20
    6112:	a0 01       	movw	r20, r0
    6114:	11 24       	eor	r1, r1
    6116:	ff 27       	eor	r31, r31
    6118:	59 1b       	sub	r21, r25
    611a:	99 f0       	breq	.+38     	; 0x6142 <__addsf3x+0x5c>
    611c:	59 3f       	cpi	r21, 0xF9	; 249
    611e:	50 f4       	brcc	.+20     	; 0x6134 <__addsf3x+0x4e>
    6120:	50 3e       	cpi	r21, 0xE0	; 224
    6122:	68 f1       	brcs	.+90     	; 0x617e <__addsf3x+0x98>
    6124:	1a 16       	cp	r1, r26
    6126:	f0 40       	sbci	r31, 0x00	; 0
    6128:	a2 2f       	mov	r26, r18
    612a:	23 2f       	mov	r18, r19
    612c:	34 2f       	mov	r19, r20
    612e:	44 27       	eor	r20, r20
    6130:	58 5f       	subi	r21, 0xF8	; 248
    6132:	f3 cf       	rjmp	.-26     	; 0x611a <__addsf3x+0x34>
    6134:	46 95       	lsr	r20
    6136:	37 95       	ror	r19
    6138:	27 95       	ror	r18
    613a:	a7 95       	ror	r26
    613c:	f0 40       	sbci	r31, 0x00	; 0
    613e:	53 95       	inc	r21
    6140:	c9 f7       	brne	.-14     	; 0x6134 <__addsf3x+0x4e>
    6142:	7e f4       	brtc	.+30     	; 0x6162 <__addsf3x+0x7c>
    6144:	1f 16       	cp	r1, r31
    6146:	ba 0b       	sbc	r27, r26
    6148:	62 0b       	sbc	r22, r18
    614a:	73 0b       	sbc	r23, r19
    614c:	84 0b       	sbc	r24, r20
    614e:	ba f0       	brmi	.+46     	; 0x617e <__addsf3x+0x98>
    6150:	91 50       	subi	r25, 0x01	; 1
    6152:	a1 f0       	breq	.+40     	; 0x617c <__addsf3x+0x96>
    6154:	ff 0f       	add	r31, r31
    6156:	bb 1f       	adc	r27, r27
    6158:	66 1f       	adc	r22, r22
    615a:	77 1f       	adc	r23, r23
    615c:	88 1f       	adc	r24, r24
    615e:	c2 f7       	brpl	.-16     	; 0x6150 <__addsf3x+0x6a>
    6160:	0e c0       	rjmp	.+28     	; 0x617e <__addsf3x+0x98>
    6162:	ba 0f       	add	r27, r26
    6164:	62 1f       	adc	r22, r18
    6166:	73 1f       	adc	r23, r19
    6168:	84 1f       	adc	r24, r20
    616a:	48 f4       	brcc	.+18     	; 0x617e <__addsf3x+0x98>
    616c:	87 95       	ror	r24
    616e:	77 95       	ror	r23
    6170:	67 95       	ror	r22
    6172:	b7 95       	ror	r27
    6174:	f7 95       	ror	r31
    6176:	9e 3f       	cpi	r25, 0xFE	; 254
    6178:	08 f0       	brcs	.+2      	; 0x617c <__addsf3x+0x96>
    617a:	b3 cf       	rjmp	.-154    	; 0x60e2 <__addsf3+0x1e>
    617c:	93 95       	inc	r25
    617e:	88 0f       	add	r24, r24
    6180:	08 f0       	brcs	.+2      	; 0x6184 <__addsf3x+0x9e>
    6182:	99 27       	eor	r25, r25
    6184:	ee 0f       	add	r30, r30
    6186:	97 95       	ror	r25
    6188:	87 95       	ror	r24
    618a:	08 95       	ret

0000618c <__cmpsf2>:
    618c:	12 d1       	rcall	.+548    	; 0x63b2 <__fp_cmp>
    618e:	08 f4       	brcc	.+2      	; 0x6192 <__cmpsf2+0x6>
    6190:	81 e0       	ldi	r24, 0x01	; 1
    6192:	08 95       	ret

00006194 <__divsf3>:
    6194:	0c d0       	rcall	.+24     	; 0x61ae <__divsf3x>
    6196:	48 c1       	rjmp	.+656    	; 0x6428 <__fp_round>
    6198:	40 d1       	rcall	.+640    	; 0x641a <__fp_pscB>
    619a:	40 f0       	brcs	.+16     	; 0x61ac <__divsf3+0x18>
    619c:	37 d1       	rcall	.+622    	; 0x640c <__fp_pscA>
    619e:	30 f0       	brcs	.+12     	; 0x61ac <__divsf3+0x18>
    61a0:	21 f4       	brne	.+8      	; 0x61aa <__divsf3+0x16>
    61a2:	5f 3f       	cpi	r21, 0xFF	; 255
    61a4:	19 f0       	breq	.+6      	; 0x61ac <__divsf3+0x18>
    61a6:	29 c1       	rjmp	.+594    	; 0x63fa <__fp_inf>
    61a8:	51 11       	cpse	r21, r1
    61aa:	72 c1       	rjmp	.+740    	; 0x6490 <__fp_szero>
    61ac:	2c c1       	rjmp	.+600    	; 0x6406 <__fp_nan>

000061ae <__divsf3x>:
    61ae:	4d d1       	rcall	.+666    	; 0x644a <__fp_split3>
    61b0:	98 f3       	brcs	.-26     	; 0x6198 <__divsf3+0x4>

000061b2 <__divsf3_pse>:
    61b2:	99 23       	and	r25, r25
    61b4:	c9 f3       	breq	.-14     	; 0x61a8 <__divsf3+0x14>
    61b6:	55 23       	and	r21, r21
    61b8:	b1 f3       	breq	.-20     	; 0x61a6 <__divsf3+0x12>
    61ba:	95 1b       	sub	r25, r21
    61bc:	55 0b       	sbc	r21, r21
    61be:	bb 27       	eor	r27, r27
    61c0:	aa 27       	eor	r26, r26
    61c2:	62 17       	cp	r22, r18
    61c4:	73 07       	cpc	r23, r19
    61c6:	84 07       	cpc	r24, r20
    61c8:	38 f0       	brcs	.+14     	; 0x61d8 <__divsf3_pse+0x26>
    61ca:	9f 5f       	subi	r25, 0xFF	; 255
    61cc:	5f 4f       	sbci	r21, 0xFF	; 255
    61ce:	22 0f       	add	r18, r18
    61d0:	33 1f       	adc	r19, r19
    61d2:	44 1f       	adc	r20, r20
    61d4:	aa 1f       	adc	r26, r26
    61d6:	a9 f3       	breq	.-22     	; 0x61c2 <__divsf3_pse+0x10>
    61d8:	33 d0       	rcall	.+102    	; 0x6240 <__divsf3_pse+0x8e>
    61da:	0e 2e       	mov	r0, r30
    61dc:	3a f0       	brmi	.+14     	; 0x61ec <__divsf3_pse+0x3a>
    61de:	e0 e8       	ldi	r30, 0x80	; 128
    61e0:	30 d0       	rcall	.+96     	; 0x6242 <__divsf3_pse+0x90>
    61e2:	91 50       	subi	r25, 0x01	; 1
    61e4:	50 40       	sbci	r21, 0x00	; 0
    61e6:	e6 95       	lsr	r30
    61e8:	00 1c       	adc	r0, r0
    61ea:	ca f7       	brpl	.-14     	; 0x61de <__divsf3_pse+0x2c>
    61ec:	29 d0       	rcall	.+82     	; 0x6240 <__divsf3_pse+0x8e>
    61ee:	fe 2f       	mov	r31, r30
    61f0:	27 d0       	rcall	.+78     	; 0x6240 <__divsf3_pse+0x8e>
    61f2:	66 0f       	add	r22, r22
    61f4:	77 1f       	adc	r23, r23
    61f6:	88 1f       	adc	r24, r24
    61f8:	bb 1f       	adc	r27, r27
    61fa:	26 17       	cp	r18, r22
    61fc:	37 07       	cpc	r19, r23
    61fe:	48 07       	cpc	r20, r24
    6200:	ab 07       	cpc	r26, r27
    6202:	b0 e8       	ldi	r27, 0x80	; 128
    6204:	09 f0       	breq	.+2      	; 0x6208 <__divsf3_pse+0x56>
    6206:	bb 0b       	sbc	r27, r27
    6208:	80 2d       	mov	r24, r0
    620a:	bf 01       	movw	r22, r30
    620c:	ff 27       	eor	r31, r31
    620e:	93 58       	subi	r25, 0x83	; 131
    6210:	5f 4f       	sbci	r21, 0xFF	; 255
    6212:	2a f0       	brmi	.+10     	; 0x621e <__divsf3_pse+0x6c>
    6214:	9e 3f       	cpi	r25, 0xFE	; 254
    6216:	51 05       	cpc	r21, r1
    6218:	68 f0       	brcs	.+26     	; 0x6234 <__divsf3_pse+0x82>
    621a:	ef c0       	rjmp	.+478    	; 0x63fa <__fp_inf>
    621c:	39 c1       	rjmp	.+626    	; 0x6490 <__fp_szero>
    621e:	5f 3f       	cpi	r21, 0xFF	; 255
    6220:	ec f3       	brlt	.-6      	; 0x621c <__divsf3_pse+0x6a>
    6222:	98 3e       	cpi	r25, 0xE8	; 232
    6224:	dc f3       	brlt	.-10     	; 0x621c <__divsf3_pse+0x6a>
    6226:	86 95       	lsr	r24
    6228:	77 95       	ror	r23
    622a:	67 95       	ror	r22
    622c:	b7 95       	ror	r27
    622e:	f7 95       	ror	r31
    6230:	9f 5f       	subi	r25, 0xFF	; 255
    6232:	c9 f7       	brne	.-14     	; 0x6226 <__divsf3_pse+0x74>
    6234:	88 0f       	add	r24, r24
    6236:	91 1d       	adc	r25, r1
    6238:	96 95       	lsr	r25
    623a:	87 95       	ror	r24
    623c:	97 f9       	bld	r25, 7
    623e:	08 95       	ret
    6240:	e1 e0       	ldi	r30, 0x01	; 1
    6242:	66 0f       	add	r22, r22
    6244:	77 1f       	adc	r23, r23
    6246:	88 1f       	adc	r24, r24
    6248:	bb 1f       	adc	r27, r27
    624a:	62 17       	cp	r22, r18
    624c:	73 07       	cpc	r23, r19
    624e:	84 07       	cpc	r24, r20
    6250:	ba 07       	cpc	r27, r26
    6252:	20 f0       	brcs	.+8      	; 0x625c <__divsf3_pse+0xaa>
    6254:	62 1b       	sub	r22, r18
    6256:	73 0b       	sbc	r23, r19
    6258:	84 0b       	sbc	r24, r20
    625a:	ba 0b       	sbc	r27, r26
    625c:	ee 1f       	adc	r30, r30
    625e:	88 f7       	brcc	.-30     	; 0x6242 <__divsf3_pse+0x90>
    6260:	e0 95       	com	r30
    6262:	08 95       	ret

00006264 <__fixunssfsi>:
    6264:	fa d0       	rcall	.+500    	; 0x645a <__fp_splitA>
    6266:	88 f0       	brcs	.+34     	; 0x628a <__fixunssfsi+0x26>
    6268:	9f 57       	subi	r25, 0x7F	; 127
    626a:	90 f0       	brcs	.+36     	; 0x6290 <__fixunssfsi+0x2c>
    626c:	b9 2f       	mov	r27, r25
    626e:	99 27       	eor	r25, r25
    6270:	b7 51       	subi	r27, 0x17	; 23
    6272:	a0 f0       	brcs	.+40     	; 0x629c <__fixunssfsi+0x38>
    6274:	d1 f0       	breq	.+52     	; 0x62aa <__fixunssfsi+0x46>
    6276:	66 0f       	add	r22, r22
    6278:	77 1f       	adc	r23, r23
    627a:	88 1f       	adc	r24, r24
    627c:	99 1f       	adc	r25, r25
    627e:	1a f0       	brmi	.+6      	; 0x6286 <__fixunssfsi+0x22>
    6280:	ba 95       	dec	r27
    6282:	c9 f7       	brne	.-14     	; 0x6276 <__fixunssfsi+0x12>
    6284:	12 c0       	rjmp	.+36     	; 0x62aa <__fixunssfsi+0x46>
    6286:	b1 30       	cpi	r27, 0x01	; 1
    6288:	81 f0       	breq	.+32     	; 0x62aa <__fixunssfsi+0x46>
    628a:	01 d1       	rcall	.+514    	; 0x648e <__fp_zero>
    628c:	b1 e0       	ldi	r27, 0x01	; 1
    628e:	08 95       	ret
    6290:	fe c0       	rjmp	.+508    	; 0x648e <__fp_zero>
    6292:	67 2f       	mov	r22, r23
    6294:	78 2f       	mov	r23, r24
    6296:	88 27       	eor	r24, r24
    6298:	b8 5f       	subi	r27, 0xF8	; 248
    629a:	39 f0       	breq	.+14     	; 0x62aa <__fixunssfsi+0x46>
    629c:	b9 3f       	cpi	r27, 0xF9	; 249
    629e:	cc f3       	brlt	.-14     	; 0x6292 <__fixunssfsi+0x2e>
    62a0:	86 95       	lsr	r24
    62a2:	77 95       	ror	r23
    62a4:	67 95       	ror	r22
    62a6:	b3 95       	inc	r27
    62a8:	d9 f7       	brne	.-10     	; 0x62a0 <__fixunssfsi+0x3c>
    62aa:	3e f4       	brtc	.+14     	; 0x62ba <__fixunssfsi+0x56>
    62ac:	90 95       	com	r25
    62ae:	80 95       	com	r24
    62b0:	70 95       	com	r23
    62b2:	61 95       	neg	r22
    62b4:	7f 4f       	sbci	r23, 0xFF	; 255
    62b6:	8f 4f       	sbci	r24, 0xFF	; 255
    62b8:	9f 4f       	sbci	r25, 0xFF	; 255
    62ba:	08 95       	ret

000062bc <__floatunsisf>:
    62bc:	e8 94       	clt
    62be:	09 c0       	rjmp	.+18     	; 0x62d2 <__floatsisf+0x12>

000062c0 <__floatsisf>:
    62c0:	97 fb       	bst	r25, 7
    62c2:	3e f4       	brtc	.+14     	; 0x62d2 <__floatsisf+0x12>
    62c4:	90 95       	com	r25
    62c6:	80 95       	com	r24
    62c8:	70 95       	com	r23
    62ca:	61 95       	neg	r22
    62cc:	7f 4f       	sbci	r23, 0xFF	; 255
    62ce:	8f 4f       	sbci	r24, 0xFF	; 255
    62d0:	9f 4f       	sbci	r25, 0xFF	; 255
    62d2:	99 23       	and	r25, r25
    62d4:	a9 f0       	breq	.+42     	; 0x6300 <__floatsisf+0x40>
    62d6:	f9 2f       	mov	r31, r25
    62d8:	96 e9       	ldi	r25, 0x96	; 150
    62da:	bb 27       	eor	r27, r27
    62dc:	93 95       	inc	r25
    62de:	f6 95       	lsr	r31
    62e0:	87 95       	ror	r24
    62e2:	77 95       	ror	r23
    62e4:	67 95       	ror	r22
    62e6:	b7 95       	ror	r27
    62e8:	f1 11       	cpse	r31, r1
    62ea:	f8 cf       	rjmp	.-16     	; 0x62dc <__floatsisf+0x1c>
    62ec:	fa f4       	brpl	.+62     	; 0x632c <__floatsisf+0x6c>
    62ee:	bb 0f       	add	r27, r27
    62f0:	11 f4       	brne	.+4      	; 0x62f6 <__floatsisf+0x36>
    62f2:	60 ff       	sbrs	r22, 0
    62f4:	1b c0       	rjmp	.+54     	; 0x632c <__floatsisf+0x6c>
    62f6:	6f 5f       	subi	r22, 0xFF	; 255
    62f8:	7f 4f       	sbci	r23, 0xFF	; 255
    62fa:	8f 4f       	sbci	r24, 0xFF	; 255
    62fc:	9f 4f       	sbci	r25, 0xFF	; 255
    62fe:	16 c0       	rjmp	.+44     	; 0x632c <__floatsisf+0x6c>
    6300:	88 23       	and	r24, r24
    6302:	11 f0       	breq	.+4      	; 0x6308 <__floatsisf+0x48>
    6304:	96 e9       	ldi	r25, 0x96	; 150
    6306:	11 c0       	rjmp	.+34     	; 0x632a <__floatsisf+0x6a>
    6308:	77 23       	and	r23, r23
    630a:	21 f0       	breq	.+8      	; 0x6314 <__floatsisf+0x54>
    630c:	9e e8       	ldi	r25, 0x8E	; 142
    630e:	87 2f       	mov	r24, r23
    6310:	76 2f       	mov	r23, r22
    6312:	05 c0       	rjmp	.+10     	; 0x631e <__floatsisf+0x5e>
    6314:	66 23       	and	r22, r22
    6316:	71 f0       	breq	.+28     	; 0x6334 <__floatsisf+0x74>
    6318:	96 e8       	ldi	r25, 0x86	; 134
    631a:	86 2f       	mov	r24, r22
    631c:	70 e0       	ldi	r23, 0x00	; 0
    631e:	60 e0       	ldi	r22, 0x00	; 0
    6320:	2a f0       	brmi	.+10     	; 0x632c <__floatsisf+0x6c>
    6322:	9a 95       	dec	r25
    6324:	66 0f       	add	r22, r22
    6326:	77 1f       	adc	r23, r23
    6328:	88 1f       	adc	r24, r24
    632a:	da f7       	brpl	.-10     	; 0x6322 <__floatsisf+0x62>
    632c:	88 0f       	add	r24, r24
    632e:	96 95       	lsr	r25
    6330:	87 95       	ror	r24
    6332:	97 f9       	bld	r25, 7
    6334:	08 95       	ret

00006336 <__floatundisf>:
    6336:	e8 94       	clt

00006338 <__fp_di2sf>:
    6338:	f9 2f       	mov	r31, r25
    633a:	96 eb       	ldi	r25, 0xB6	; 182
    633c:	ff 23       	and	r31, r31
    633e:	81 f0       	breq	.+32     	; 0x6360 <__fp_di2sf+0x28>
    6340:	12 16       	cp	r1, r18
    6342:	13 06       	cpc	r1, r19
    6344:	14 06       	cpc	r1, r20
    6346:	44 0b       	sbc	r20, r20
    6348:	93 95       	inc	r25
    634a:	f6 95       	lsr	r31
    634c:	87 95       	ror	r24
    634e:	77 95       	ror	r23
    6350:	67 95       	ror	r22
    6352:	57 95       	ror	r21
    6354:	40 40       	sbci	r20, 0x00	; 0
    6356:	ff 23       	and	r31, r31
    6358:	b9 f7       	brne	.-18     	; 0x6348 <__fp_di2sf+0x10>
    635a:	1b c0       	rjmp	.+54     	; 0x6392 <__fp_di2sf+0x5a>
    635c:	99 27       	eor	r25, r25
    635e:	08 95       	ret
    6360:	88 23       	and	r24, r24
    6362:	51 f4       	brne	.+20     	; 0x6378 <__fp_di2sf+0x40>
    6364:	98 50       	subi	r25, 0x08	; 8
    6366:	d2 f7       	brpl	.-12     	; 0x635c <__fp_di2sf+0x24>
    6368:	87 2b       	or	r24, r23
    636a:	76 2f       	mov	r23, r22
    636c:	65 2f       	mov	r22, r21
    636e:	54 2f       	mov	r21, r20
    6370:	43 2f       	mov	r20, r19
    6372:	32 2f       	mov	r19, r18
    6374:	20 e0       	ldi	r18, 0x00	; 0
    6376:	b1 f3       	breq	.-20     	; 0x6364 <__fp_di2sf+0x2c>
    6378:	12 16       	cp	r1, r18
    637a:	13 06       	cpc	r1, r19
    637c:	14 06       	cpc	r1, r20
    637e:	44 0b       	sbc	r20, r20
    6380:	88 23       	and	r24, r24
    6382:	3a f0       	brmi	.+14     	; 0x6392 <__fp_di2sf+0x5a>
    6384:	9a 95       	dec	r25
    6386:	44 0f       	add	r20, r20
    6388:	55 1f       	adc	r21, r21
    638a:	66 1f       	adc	r22, r22
    638c:	77 1f       	adc	r23, r23
    638e:	88 1f       	adc	r24, r24
    6390:	ca f7       	brpl	.-14     	; 0x6384 <__fp_di2sf+0x4c>
    6392:	55 23       	and	r21, r21
    6394:	4a f4       	brpl	.+18     	; 0x63a8 <__fp_di2sf+0x70>
    6396:	44 0f       	add	r20, r20
    6398:	55 1f       	adc	r21, r21
    639a:	11 f4       	brne	.+4      	; 0x63a0 <__fp_di2sf+0x68>
    639c:	60 ff       	sbrs	r22, 0
    639e:	04 c0       	rjmp	.+8      	; 0x63a8 <__fp_di2sf+0x70>
    63a0:	6f 5f       	subi	r22, 0xFF	; 255
    63a2:	7f 4f       	sbci	r23, 0xFF	; 255
    63a4:	8f 4f       	sbci	r24, 0xFF	; 255
    63a6:	9f 4f       	sbci	r25, 0xFF	; 255
    63a8:	88 0f       	add	r24, r24
    63aa:	96 95       	lsr	r25
    63ac:	87 95       	ror	r24
    63ae:	97 f9       	bld	r25, 7
    63b0:	08 95       	ret

000063b2 <__fp_cmp>:
    63b2:	99 0f       	add	r25, r25
    63b4:	00 08       	sbc	r0, r0
    63b6:	55 0f       	add	r21, r21
    63b8:	aa 0b       	sbc	r26, r26
    63ba:	e0 e8       	ldi	r30, 0x80	; 128
    63bc:	fe ef       	ldi	r31, 0xFE	; 254
    63be:	16 16       	cp	r1, r22
    63c0:	17 06       	cpc	r1, r23
    63c2:	e8 07       	cpc	r30, r24
    63c4:	f9 07       	cpc	r31, r25
    63c6:	c0 f0       	brcs	.+48     	; 0x63f8 <__fp_cmp+0x46>
    63c8:	12 16       	cp	r1, r18
    63ca:	13 06       	cpc	r1, r19
    63cc:	e4 07       	cpc	r30, r20
    63ce:	f5 07       	cpc	r31, r21
    63d0:	98 f0       	brcs	.+38     	; 0x63f8 <__fp_cmp+0x46>
    63d2:	62 1b       	sub	r22, r18
    63d4:	73 0b       	sbc	r23, r19
    63d6:	84 0b       	sbc	r24, r20
    63d8:	95 0b       	sbc	r25, r21
    63da:	39 f4       	brne	.+14     	; 0x63ea <__fp_cmp+0x38>
    63dc:	0a 26       	eor	r0, r26
    63de:	61 f0       	breq	.+24     	; 0x63f8 <__fp_cmp+0x46>
    63e0:	23 2b       	or	r18, r19
    63e2:	24 2b       	or	r18, r20
    63e4:	25 2b       	or	r18, r21
    63e6:	21 f4       	brne	.+8      	; 0x63f0 <__fp_cmp+0x3e>
    63e8:	08 95       	ret
    63ea:	0a 26       	eor	r0, r26
    63ec:	09 f4       	brne	.+2      	; 0x63f0 <__fp_cmp+0x3e>
    63ee:	a1 40       	sbci	r26, 0x01	; 1
    63f0:	a6 95       	lsr	r26
    63f2:	8f ef       	ldi	r24, 0xFF	; 255
    63f4:	81 1d       	adc	r24, r1
    63f6:	81 1d       	adc	r24, r1
    63f8:	08 95       	ret

000063fa <__fp_inf>:
    63fa:	97 f9       	bld	r25, 7
    63fc:	9f 67       	ori	r25, 0x7F	; 127
    63fe:	80 e8       	ldi	r24, 0x80	; 128
    6400:	70 e0       	ldi	r23, 0x00	; 0
    6402:	60 e0       	ldi	r22, 0x00	; 0
    6404:	08 95       	ret

00006406 <__fp_nan>:
    6406:	9f ef       	ldi	r25, 0xFF	; 255
    6408:	80 ec       	ldi	r24, 0xC0	; 192
    640a:	08 95       	ret

0000640c <__fp_pscA>:
    640c:	00 24       	eor	r0, r0
    640e:	0a 94       	dec	r0
    6410:	16 16       	cp	r1, r22
    6412:	17 06       	cpc	r1, r23
    6414:	18 06       	cpc	r1, r24
    6416:	09 06       	cpc	r0, r25
    6418:	08 95       	ret

0000641a <__fp_pscB>:
    641a:	00 24       	eor	r0, r0
    641c:	0a 94       	dec	r0
    641e:	12 16       	cp	r1, r18
    6420:	13 06       	cpc	r1, r19
    6422:	14 06       	cpc	r1, r20
    6424:	05 06       	cpc	r0, r21
    6426:	08 95       	ret

00006428 <__fp_round>:
    6428:	09 2e       	mov	r0, r25
    642a:	03 94       	inc	r0
    642c:	00 0c       	add	r0, r0
    642e:	11 f4       	brne	.+4      	; 0x6434 <__fp_round+0xc>
    6430:	88 23       	and	r24, r24
    6432:	52 f0       	brmi	.+20     	; 0x6448 <__fp_round+0x20>
    6434:	bb 0f       	add	r27, r27
    6436:	40 f4       	brcc	.+16     	; 0x6448 <__fp_round+0x20>
    6438:	bf 2b       	or	r27, r31
    643a:	11 f4       	brne	.+4      	; 0x6440 <__fp_round+0x18>
    643c:	60 ff       	sbrs	r22, 0
    643e:	04 c0       	rjmp	.+8      	; 0x6448 <__fp_round+0x20>
    6440:	6f 5f       	subi	r22, 0xFF	; 255
    6442:	7f 4f       	sbci	r23, 0xFF	; 255
    6444:	8f 4f       	sbci	r24, 0xFF	; 255
    6446:	9f 4f       	sbci	r25, 0xFF	; 255
    6448:	08 95       	ret

0000644a <__fp_split3>:
    644a:	57 fd       	sbrc	r21, 7
    644c:	90 58       	subi	r25, 0x80	; 128
    644e:	44 0f       	add	r20, r20
    6450:	55 1f       	adc	r21, r21
    6452:	59 f0       	breq	.+22     	; 0x646a <__fp_splitA+0x10>
    6454:	5f 3f       	cpi	r21, 0xFF	; 255
    6456:	71 f0       	breq	.+28     	; 0x6474 <__fp_splitA+0x1a>
    6458:	47 95       	ror	r20

0000645a <__fp_splitA>:
    645a:	88 0f       	add	r24, r24
    645c:	97 fb       	bst	r25, 7
    645e:	99 1f       	adc	r25, r25
    6460:	61 f0       	breq	.+24     	; 0x647a <__fp_splitA+0x20>
    6462:	9f 3f       	cpi	r25, 0xFF	; 255
    6464:	79 f0       	breq	.+30     	; 0x6484 <__fp_splitA+0x2a>
    6466:	87 95       	ror	r24
    6468:	08 95       	ret
    646a:	12 16       	cp	r1, r18
    646c:	13 06       	cpc	r1, r19
    646e:	14 06       	cpc	r1, r20
    6470:	55 1f       	adc	r21, r21
    6472:	f2 cf       	rjmp	.-28     	; 0x6458 <__fp_split3+0xe>
    6474:	46 95       	lsr	r20
    6476:	f1 df       	rcall	.-30     	; 0x645a <__fp_splitA>
    6478:	08 c0       	rjmp	.+16     	; 0x648a <__fp_splitA+0x30>
    647a:	16 16       	cp	r1, r22
    647c:	17 06       	cpc	r1, r23
    647e:	18 06       	cpc	r1, r24
    6480:	99 1f       	adc	r25, r25
    6482:	f1 cf       	rjmp	.-30     	; 0x6466 <__fp_splitA+0xc>
    6484:	86 95       	lsr	r24
    6486:	71 05       	cpc	r23, r1
    6488:	61 05       	cpc	r22, r1
    648a:	08 94       	sec
    648c:	08 95       	ret

0000648e <__fp_zero>:
    648e:	e8 94       	clt

00006490 <__fp_szero>:
    6490:	bb 27       	eor	r27, r27
    6492:	66 27       	eor	r22, r22
    6494:	77 27       	eor	r23, r23
    6496:	cb 01       	movw	r24, r22
    6498:	97 f9       	bld	r25, 7
    649a:	08 95       	ret

0000649c <__gesf2>:
    649c:	8a df       	rcall	.-236    	; 0x63b2 <__fp_cmp>
    649e:	08 f4       	brcc	.+2      	; 0x64a2 <__gesf2+0x6>
    64a0:	8f ef       	ldi	r24, 0xFF	; 255
    64a2:	08 95       	ret

000064a4 <__mulsf3>:
    64a4:	0b d0       	rcall	.+22     	; 0x64bc <__mulsf3x>
    64a6:	c0 cf       	rjmp	.-128    	; 0x6428 <__fp_round>
    64a8:	b1 df       	rcall	.-158    	; 0x640c <__fp_pscA>
    64aa:	28 f0       	brcs	.+10     	; 0x64b6 <__mulsf3+0x12>
    64ac:	b6 df       	rcall	.-148    	; 0x641a <__fp_pscB>
    64ae:	18 f0       	brcs	.+6      	; 0x64b6 <__mulsf3+0x12>
    64b0:	95 23       	and	r25, r21
    64b2:	09 f0       	breq	.+2      	; 0x64b6 <__mulsf3+0x12>
    64b4:	a2 cf       	rjmp	.-188    	; 0x63fa <__fp_inf>
    64b6:	a7 cf       	rjmp	.-178    	; 0x6406 <__fp_nan>
    64b8:	11 24       	eor	r1, r1
    64ba:	ea cf       	rjmp	.-44     	; 0x6490 <__fp_szero>

000064bc <__mulsf3x>:
    64bc:	c6 df       	rcall	.-116    	; 0x644a <__fp_split3>
    64be:	a0 f3       	brcs	.-24     	; 0x64a8 <__mulsf3+0x4>

000064c0 <__mulsf3_pse>:
    64c0:	95 9f       	mul	r25, r21
    64c2:	d1 f3       	breq	.-12     	; 0x64b8 <__mulsf3+0x14>
    64c4:	95 0f       	add	r25, r21
    64c6:	50 e0       	ldi	r21, 0x00	; 0
    64c8:	55 1f       	adc	r21, r21
    64ca:	62 9f       	mul	r22, r18
    64cc:	f0 01       	movw	r30, r0
    64ce:	72 9f       	mul	r23, r18
    64d0:	bb 27       	eor	r27, r27
    64d2:	f0 0d       	add	r31, r0
    64d4:	b1 1d       	adc	r27, r1
    64d6:	63 9f       	mul	r22, r19
    64d8:	aa 27       	eor	r26, r26
    64da:	f0 0d       	add	r31, r0
    64dc:	b1 1d       	adc	r27, r1
    64de:	aa 1f       	adc	r26, r26
    64e0:	64 9f       	mul	r22, r20
    64e2:	66 27       	eor	r22, r22
    64e4:	b0 0d       	add	r27, r0
    64e6:	a1 1d       	adc	r26, r1
    64e8:	66 1f       	adc	r22, r22
    64ea:	82 9f       	mul	r24, r18
    64ec:	22 27       	eor	r18, r18
    64ee:	b0 0d       	add	r27, r0
    64f0:	a1 1d       	adc	r26, r1
    64f2:	62 1f       	adc	r22, r18
    64f4:	73 9f       	mul	r23, r19
    64f6:	b0 0d       	add	r27, r0
    64f8:	a1 1d       	adc	r26, r1
    64fa:	62 1f       	adc	r22, r18
    64fc:	83 9f       	mul	r24, r19
    64fe:	a0 0d       	add	r26, r0
    6500:	61 1d       	adc	r22, r1
    6502:	22 1f       	adc	r18, r18
    6504:	74 9f       	mul	r23, r20
    6506:	33 27       	eor	r19, r19
    6508:	a0 0d       	add	r26, r0
    650a:	61 1d       	adc	r22, r1
    650c:	23 1f       	adc	r18, r19
    650e:	84 9f       	mul	r24, r20
    6510:	60 0d       	add	r22, r0
    6512:	21 1d       	adc	r18, r1
    6514:	82 2f       	mov	r24, r18
    6516:	76 2f       	mov	r23, r22
    6518:	6a 2f       	mov	r22, r26
    651a:	11 24       	eor	r1, r1
    651c:	9f 57       	subi	r25, 0x7F	; 127
    651e:	50 40       	sbci	r21, 0x00	; 0
    6520:	8a f0       	brmi	.+34     	; 0x6544 <__mulsf3_pse+0x84>
    6522:	e1 f0       	breq	.+56     	; 0x655c <__mulsf3_pse+0x9c>
    6524:	88 23       	and	r24, r24
    6526:	4a f0       	brmi	.+18     	; 0x653a <__mulsf3_pse+0x7a>
    6528:	ee 0f       	add	r30, r30
    652a:	ff 1f       	adc	r31, r31
    652c:	bb 1f       	adc	r27, r27
    652e:	66 1f       	adc	r22, r22
    6530:	77 1f       	adc	r23, r23
    6532:	88 1f       	adc	r24, r24
    6534:	91 50       	subi	r25, 0x01	; 1
    6536:	50 40       	sbci	r21, 0x00	; 0
    6538:	a9 f7       	brne	.-22     	; 0x6524 <__mulsf3_pse+0x64>
    653a:	9e 3f       	cpi	r25, 0xFE	; 254
    653c:	51 05       	cpc	r21, r1
    653e:	70 f0       	brcs	.+28     	; 0x655c <__mulsf3_pse+0x9c>
    6540:	5c cf       	rjmp	.-328    	; 0x63fa <__fp_inf>
    6542:	a6 cf       	rjmp	.-180    	; 0x6490 <__fp_szero>
    6544:	5f 3f       	cpi	r21, 0xFF	; 255
    6546:	ec f3       	brlt	.-6      	; 0x6542 <__mulsf3_pse+0x82>
    6548:	98 3e       	cpi	r25, 0xE8	; 232
    654a:	dc f3       	brlt	.-10     	; 0x6542 <__mulsf3_pse+0x82>
    654c:	86 95       	lsr	r24
    654e:	77 95       	ror	r23
    6550:	67 95       	ror	r22
    6552:	b7 95       	ror	r27
    6554:	f7 95       	ror	r31
    6556:	e7 95       	ror	r30
    6558:	9f 5f       	subi	r25, 0xFF	; 255
    655a:	c1 f7       	brne	.-16     	; 0x654c <__mulsf3_pse+0x8c>
    655c:	fe 2b       	or	r31, r30
    655e:	88 0f       	add	r24, r24
    6560:	91 1d       	adc	r25, r1
    6562:	96 95       	lsr	r25
    6564:	87 95       	ror	r24
    6566:	97 f9       	bld	r25, 7
    6568:	08 95       	ret

0000656a <__umoddi3>:
    656a:	68 94       	set
    656c:	01 c0       	rjmp	.+2      	; 0x6570 <__udivdi3_umoddi3>

0000656e <__udivdi3>:
    656e:	e8 94       	clt

00006570 <__udivdi3_umoddi3>:
    6570:	8f 92       	push	r8
    6572:	9f 92       	push	r9
    6574:	cf 93       	push	r28
    6576:	df 93       	push	r29
    6578:	05 d0       	rcall	.+10     	; 0x6584 <__udivmod64>
    657a:	df 91       	pop	r29
    657c:	cf 91       	pop	r28
    657e:	9f 90       	pop	r9
    6580:	8f 90       	pop	r8
    6582:	08 95       	ret

00006584 <__udivmod64>:
    6584:	88 24       	eor	r8, r8
    6586:	99 24       	eor	r9, r9
    6588:	f4 01       	movw	r30, r8
    658a:	e4 01       	movw	r28, r8
    658c:	b0 e4       	ldi	r27, 0x40	; 64
    658e:	9f 93       	push	r25
    6590:	aa 27       	eor	r26, r26
    6592:	9a 15       	cp	r25, r10
    6594:	8b 04       	cpc	r8, r11
    6596:	9c 04       	cpc	r9, r12
    6598:	ed 05       	cpc	r30, r13
    659a:	fe 05       	cpc	r31, r14
    659c:	cf 05       	cpc	r28, r15
    659e:	d0 07       	cpc	r29, r16
    65a0:	a1 07       	cpc	r26, r17
    65a2:	98 f4       	brcc	.+38     	; 0x65ca <__udivmod64+0x46>
    65a4:	ad 2f       	mov	r26, r29
    65a6:	dc 2f       	mov	r29, r28
    65a8:	cf 2f       	mov	r28, r31
    65aa:	fe 2f       	mov	r31, r30
    65ac:	e9 2d       	mov	r30, r9
    65ae:	98 2c       	mov	r9, r8
    65b0:	89 2e       	mov	r8, r25
    65b2:	98 2f       	mov	r25, r24
    65b4:	87 2f       	mov	r24, r23
    65b6:	76 2f       	mov	r23, r22
    65b8:	65 2f       	mov	r22, r21
    65ba:	54 2f       	mov	r21, r20
    65bc:	43 2f       	mov	r20, r19
    65be:	32 2f       	mov	r19, r18
    65c0:	22 27       	eor	r18, r18
    65c2:	b8 50       	subi	r27, 0x08	; 8
    65c4:	31 f7       	brne	.-52     	; 0x6592 <__udivmod64+0xe>
    65c6:	bf 91       	pop	r27
    65c8:	27 c0       	rjmp	.+78     	; 0x6618 <__udivmod64+0x94>
    65ca:	1b 2e       	mov	r1, r27
    65cc:	bf 91       	pop	r27
    65ce:	bb 27       	eor	r27, r27
    65d0:	22 0f       	add	r18, r18
    65d2:	33 1f       	adc	r19, r19
    65d4:	44 1f       	adc	r20, r20
    65d6:	55 1f       	adc	r21, r21
    65d8:	66 1f       	adc	r22, r22
    65da:	77 1f       	adc	r23, r23
    65dc:	88 1f       	adc	r24, r24
    65de:	99 1f       	adc	r25, r25
    65e0:	88 1c       	adc	r8, r8
    65e2:	99 1c       	adc	r9, r9
    65e4:	ee 1f       	adc	r30, r30
    65e6:	ff 1f       	adc	r31, r31
    65e8:	cc 1f       	adc	r28, r28
    65ea:	dd 1f       	adc	r29, r29
    65ec:	aa 1f       	adc	r26, r26
    65ee:	bb 1f       	adc	r27, r27
    65f0:	8a 14       	cp	r8, r10
    65f2:	9b 04       	cpc	r9, r11
    65f4:	ec 05       	cpc	r30, r12
    65f6:	fd 05       	cpc	r31, r13
    65f8:	ce 05       	cpc	r28, r14
    65fa:	df 05       	cpc	r29, r15
    65fc:	a0 07       	cpc	r26, r16
    65fe:	b1 07       	cpc	r27, r17
    6600:	48 f0       	brcs	.+18     	; 0x6614 <__udivmod64+0x90>
    6602:	8a 18       	sub	r8, r10
    6604:	9b 08       	sbc	r9, r11
    6606:	ec 09       	sbc	r30, r12
    6608:	fd 09       	sbc	r31, r13
    660a:	ce 09       	sbc	r28, r14
    660c:	df 09       	sbc	r29, r15
    660e:	a0 0b       	sbc	r26, r16
    6610:	b1 0b       	sbc	r27, r17
    6612:	21 60       	ori	r18, 0x01	; 1
    6614:	1a 94       	dec	r1
    6616:	e1 f6       	brne	.-72     	; 0x65d0 <__udivmod64+0x4c>
    6618:	2e f4       	brtc	.+10     	; 0x6624 <__udivmod64+0xa0>
    661a:	94 01       	movw	r18, r8
    661c:	af 01       	movw	r20, r30
    661e:	be 01       	movw	r22, r28
    6620:	cd 01       	movw	r24, r26
    6622:	00 0c       	add	r0, r0
    6624:	08 95       	ret

00006626 <calloc>:
    6626:	0f 93       	push	r16
    6628:	1f 93       	push	r17
    662a:	cf 93       	push	r28
    662c:	df 93       	push	r29
    662e:	86 9f       	mul	r24, r22
    6630:	80 01       	movw	r16, r0
    6632:	87 9f       	mul	r24, r23
    6634:	10 0d       	add	r17, r0
    6636:	96 9f       	mul	r25, r22
    6638:	10 0d       	add	r17, r0
    663a:	11 24       	eor	r1, r1
    663c:	c8 01       	movw	r24, r16
    663e:	0d d0       	rcall	.+26     	; 0x665a <malloc>
    6640:	ec 01       	movw	r28, r24
    6642:	00 97       	sbiw	r24, 0x00	; 0
    6644:	21 f0       	breq	.+8      	; 0x664e <calloc+0x28>
    6646:	a8 01       	movw	r20, r16
    6648:	60 e0       	ldi	r22, 0x00	; 0
    664a:	70 e0       	ldi	r23, 0x00	; 0
    664c:	2d d1       	rcall	.+602    	; 0x68a8 <memset>
    664e:	ce 01       	movw	r24, r28
    6650:	df 91       	pop	r29
    6652:	cf 91       	pop	r28
    6654:	1f 91       	pop	r17
    6656:	0f 91       	pop	r16
    6658:	08 95       	ret

0000665a <malloc>:
    665a:	cf 93       	push	r28
    665c:	df 93       	push	r29
    665e:	82 30       	cpi	r24, 0x02	; 2
    6660:	91 05       	cpc	r25, r1
    6662:	10 f4       	brcc	.+4      	; 0x6668 <malloc+0xe>
    6664:	82 e0       	ldi	r24, 0x02	; 2
    6666:	90 e0       	ldi	r25, 0x00	; 0
    6668:	e0 91 f6 02 	lds	r30, 0x02F6
    666c:	f0 91 f7 02 	lds	r31, 0x02F7
    6670:	20 e0       	ldi	r18, 0x00	; 0
    6672:	30 e0       	ldi	r19, 0x00	; 0
    6674:	a0 e0       	ldi	r26, 0x00	; 0
    6676:	b0 e0       	ldi	r27, 0x00	; 0
    6678:	30 97       	sbiw	r30, 0x00	; 0
    667a:	39 f1       	breq	.+78     	; 0x66ca <malloc+0x70>
    667c:	40 81       	ld	r20, Z
    667e:	51 81       	ldd	r21, Z+1	; 0x01
    6680:	48 17       	cp	r20, r24
    6682:	59 07       	cpc	r21, r25
    6684:	b8 f0       	brcs	.+46     	; 0x66b4 <malloc+0x5a>
    6686:	48 17       	cp	r20, r24
    6688:	59 07       	cpc	r21, r25
    668a:	71 f4       	brne	.+28     	; 0x66a8 <malloc+0x4e>
    668c:	82 81       	ldd	r24, Z+2	; 0x02
    668e:	93 81       	ldd	r25, Z+3	; 0x03
    6690:	10 97       	sbiw	r26, 0x00	; 0
    6692:	29 f0       	breq	.+10     	; 0x669e <malloc+0x44>
    6694:	13 96       	adiw	r26, 0x03	; 3
    6696:	9c 93       	st	X, r25
    6698:	8e 93       	st	-X, r24
    669a:	12 97       	sbiw	r26, 0x02	; 2
    669c:	2c c0       	rjmp	.+88     	; 0x66f6 <malloc+0x9c>
    669e:	90 93 f7 02 	sts	0x02F7, r25
    66a2:	80 93 f6 02 	sts	0x02F6, r24
    66a6:	27 c0       	rjmp	.+78     	; 0x66f6 <malloc+0x9c>
    66a8:	21 15       	cp	r18, r1
    66aa:	31 05       	cpc	r19, r1
    66ac:	31 f0       	breq	.+12     	; 0x66ba <malloc+0x60>
    66ae:	42 17       	cp	r20, r18
    66b0:	53 07       	cpc	r21, r19
    66b2:	18 f0       	brcs	.+6      	; 0x66ba <malloc+0x60>
    66b4:	a9 01       	movw	r20, r18
    66b6:	db 01       	movw	r26, r22
    66b8:	01 c0       	rjmp	.+2      	; 0x66bc <malloc+0x62>
    66ba:	ef 01       	movw	r28, r30
    66bc:	9a 01       	movw	r18, r20
    66be:	bd 01       	movw	r22, r26
    66c0:	df 01       	movw	r26, r30
    66c2:	02 80       	ldd	r0, Z+2	; 0x02
    66c4:	f3 81       	ldd	r31, Z+3	; 0x03
    66c6:	e0 2d       	mov	r30, r0
    66c8:	d7 cf       	rjmp	.-82     	; 0x6678 <malloc+0x1e>
    66ca:	21 15       	cp	r18, r1
    66cc:	31 05       	cpc	r19, r1
    66ce:	f9 f0       	breq	.+62     	; 0x670e <malloc+0xb4>
    66d0:	28 1b       	sub	r18, r24
    66d2:	39 0b       	sbc	r19, r25
    66d4:	24 30       	cpi	r18, 0x04	; 4
    66d6:	31 05       	cpc	r19, r1
    66d8:	80 f4       	brcc	.+32     	; 0x66fa <malloc+0xa0>
    66da:	8a 81       	ldd	r24, Y+2	; 0x02
    66dc:	9b 81       	ldd	r25, Y+3	; 0x03
    66de:	61 15       	cp	r22, r1
    66e0:	71 05       	cpc	r23, r1
    66e2:	21 f0       	breq	.+8      	; 0x66ec <malloc+0x92>
    66e4:	fb 01       	movw	r30, r22
    66e6:	93 83       	std	Z+3, r25	; 0x03
    66e8:	82 83       	std	Z+2, r24	; 0x02
    66ea:	04 c0       	rjmp	.+8      	; 0x66f4 <malloc+0x9a>
    66ec:	90 93 f7 02 	sts	0x02F7, r25
    66f0:	80 93 f6 02 	sts	0x02F6, r24
    66f4:	fe 01       	movw	r30, r28
    66f6:	32 96       	adiw	r30, 0x02	; 2
    66f8:	44 c0       	rjmp	.+136    	; 0x6782 <malloc+0x128>
    66fa:	fe 01       	movw	r30, r28
    66fc:	e2 0f       	add	r30, r18
    66fe:	f3 1f       	adc	r31, r19
    6700:	81 93       	st	Z+, r24
    6702:	91 93       	st	Z+, r25
    6704:	22 50       	subi	r18, 0x02	; 2
    6706:	31 09       	sbc	r19, r1
    6708:	39 83       	std	Y+1, r19	; 0x01
    670a:	28 83       	st	Y, r18
    670c:	3a c0       	rjmp	.+116    	; 0x6782 <malloc+0x128>
    670e:	20 91 f4 02 	lds	r18, 0x02F4
    6712:	30 91 f5 02 	lds	r19, 0x02F5
    6716:	23 2b       	or	r18, r19
    6718:	41 f4       	brne	.+16     	; 0x672a <malloc+0xd0>
    671a:	20 91 02 01 	lds	r18, 0x0102
    671e:	30 91 03 01 	lds	r19, 0x0103
    6722:	30 93 f5 02 	sts	0x02F5, r19
    6726:	20 93 f4 02 	sts	0x02F4, r18
    672a:	20 91 00 01 	lds	r18, 0x0100
    672e:	30 91 01 01 	lds	r19, 0x0101
    6732:	21 15       	cp	r18, r1
    6734:	31 05       	cpc	r19, r1
    6736:	41 f4       	brne	.+16     	; 0x6748 <malloc+0xee>
    6738:	2d b7       	in	r18, 0x3d	; 61
    673a:	3e b7       	in	r19, 0x3e	; 62
    673c:	40 91 04 01 	lds	r20, 0x0104
    6740:	50 91 05 01 	lds	r21, 0x0105
    6744:	24 1b       	sub	r18, r20
    6746:	35 0b       	sbc	r19, r21
    6748:	e0 91 f4 02 	lds	r30, 0x02F4
    674c:	f0 91 f5 02 	lds	r31, 0x02F5
    6750:	e2 17       	cp	r30, r18
    6752:	f3 07       	cpc	r31, r19
    6754:	a0 f4       	brcc	.+40     	; 0x677e <malloc+0x124>
    6756:	2e 1b       	sub	r18, r30
    6758:	3f 0b       	sbc	r19, r31
    675a:	28 17       	cp	r18, r24
    675c:	39 07       	cpc	r19, r25
    675e:	78 f0       	brcs	.+30     	; 0x677e <malloc+0x124>
    6760:	ac 01       	movw	r20, r24
    6762:	4e 5f       	subi	r20, 0xFE	; 254
    6764:	5f 4f       	sbci	r21, 0xFF	; 255
    6766:	24 17       	cp	r18, r20
    6768:	35 07       	cpc	r19, r21
    676a:	48 f0       	brcs	.+18     	; 0x677e <malloc+0x124>
    676c:	4e 0f       	add	r20, r30
    676e:	5f 1f       	adc	r21, r31
    6770:	50 93 f5 02 	sts	0x02F5, r21
    6774:	40 93 f4 02 	sts	0x02F4, r20
    6778:	81 93       	st	Z+, r24
    677a:	91 93       	st	Z+, r25
    677c:	02 c0       	rjmp	.+4      	; 0x6782 <malloc+0x128>
    677e:	e0 e0       	ldi	r30, 0x00	; 0
    6780:	f0 e0       	ldi	r31, 0x00	; 0
    6782:	cf 01       	movw	r24, r30
    6784:	df 91       	pop	r29
    6786:	cf 91       	pop	r28
    6788:	08 95       	ret

0000678a <free>:
    678a:	cf 93       	push	r28
    678c:	df 93       	push	r29
    678e:	00 97       	sbiw	r24, 0x00	; 0
    6790:	09 f4       	brne	.+2      	; 0x6794 <free+0xa>
    6792:	87 c0       	rjmp	.+270    	; 0x68a2 <free+0x118>
    6794:	fc 01       	movw	r30, r24
    6796:	32 97       	sbiw	r30, 0x02	; 2
    6798:	13 82       	std	Z+3, r1	; 0x03
    679a:	12 82       	std	Z+2, r1	; 0x02
    679c:	c0 91 f6 02 	lds	r28, 0x02F6
    67a0:	d0 91 f7 02 	lds	r29, 0x02F7
    67a4:	20 97       	sbiw	r28, 0x00	; 0
    67a6:	81 f4       	brne	.+32     	; 0x67c8 <free+0x3e>
    67a8:	20 81       	ld	r18, Z
    67aa:	31 81       	ldd	r19, Z+1	; 0x01
    67ac:	28 0f       	add	r18, r24
    67ae:	39 1f       	adc	r19, r25
    67b0:	80 91 f4 02 	lds	r24, 0x02F4
    67b4:	90 91 f5 02 	lds	r25, 0x02F5
    67b8:	82 17       	cp	r24, r18
    67ba:	93 07       	cpc	r25, r19
    67bc:	79 f5       	brne	.+94     	; 0x681c <free+0x92>
    67be:	f0 93 f5 02 	sts	0x02F5, r31
    67c2:	e0 93 f4 02 	sts	0x02F4, r30
    67c6:	6d c0       	rjmp	.+218    	; 0x68a2 <free+0x118>
    67c8:	de 01       	movw	r26, r28
    67ca:	20 e0       	ldi	r18, 0x00	; 0
    67cc:	30 e0       	ldi	r19, 0x00	; 0
    67ce:	ae 17       	cp	r26, r30
    67d0:	bf 07       	cpc	r27, r31
    67d2:	50 f4       	brcc	.+20     	; 0x67e8 <free+0x5e>
    67d4:	12 96       	adiw	r26, 0x02	; 2
    67d6:	4d 91       	ld	r20, X+
    67d8:	5c 91       	ld	r21, X
    67da:	13 97       	sbiw	r26, 0x03	; 3
    67dc:	9d 01       	movw	r18, r26
    67de:	41 15       	cp	r20, r1
    67e0:	51 05       	cpc	r21, r1
    67e2:	09 f1       	breq	.+66     	; 0x6826 <free+0x9c>
    67e4:	da 01       	movw	r26, r20
    67e6:	f3 cf       	rjmp	.-26     	; 0x67ce <free+0x44>
    67e8:	b3 83       	std	Z+3, r27	; 0x03
    67ea:	a2 83       	std	Z+2, r26	; 0x02
    67ec:	40 81       	ld	r20, Z
    67ee:	51 81       	ldd	r21, Z+1	; 0x01
    67f0:	84 0f       	add	r24, r20
    67f2:	95 1f       	adc	r25, r21
    67f4:	8a 17       	cp	r24, r26
    67f6:	9b 07       	cpc	r25, r27
    67f8:	71 f4       	brne	.+28     	; 0x6816 <free+0x8c>
    67fa:	8d 91       	ld	r24, X+
    67fc:	9c 91       	ld	r25, X
    67fe:	11 97       	sbiw	r26, 0x01	; 1
    6800:	84 0f       	add	r24, r20
    6802:	95 1f       	adc	r25, r21
    6804:	02 96       	adiw	r24, 0x02	; 2
    6806:	91 83       	std	Z+1, r25	; 0x01
    6808:	80 83       	st	Z, r24
    680a:	12 96       	adiw	r26, 0x02	; 2
    680c:	8d 91       	ld	r24, X+
    680e:	9c 91       	ld	r25, X
    6810:	13 97       	sbiw	r26, 0x03	; 3
    6812:	93 83       	std	Z+3, r25	; 0x03
    6814:	82 83       	std	Z+2, r24	; 0x02
    6816:	21 15       	cp	r18, r1
    6818:	31 05       	cpc	r19, r1
    681a:	29 f4       	brne	.+10     	; 0x6826 <free+0x9c>
    681c:	f0 93 f7 02 	sts	0x02F7, r31
    6820:	e0 93 f6 02 	sts	0x02F6, r30
    6824:	3e c0       	rjmp	.+124    	; 0x68a2 <free+0x118>
    6826:	d9 01       	movw	r26, r18
    6828:	13 96       	adiw	r26, 0x03	; 3
    682a:	fc 93       	st	X, r31
    682c:	ee 93       	st	-X, r30
    682e:	12 97       	sbiw	r26, 0x02	; 2
    6830:	4d 91       	ld	r20, X+
    6832:	5d 91       	ld	r21, X+
    6834:	a4 0f       	add	r26, r20
    6836:	b5 1f       	adc	r27, r21
    6838:	ea 17       	cp	r30, r26
    683a:	fb 07       	cpc	r31, r27
    683c:	79 f4       	brne	.+30     	; 0x685c <free+0xd2>
    683e:	80 81       	ld	r24, Z
    6840:	91 81       	ldd	r25, Z+1	; 0x01
    6842:	84 0f       	add	r24, r20
    6844:	95 1f       	adc	r25, r21
    6846:	02 96       	adiw	r24, 0x02	; 2
    6848:	d9 01       	movw	r26, r18
    684a:	11 96       	adiw	r26, 0x01	; 1
    684c:	9c 93       	st	X, r25
    684e:	8e 93       	st	-X, r24
    6850:	82 81       	ldd	r24, Z+2	; 0x02
    6852:	93 81       	ldd	r25, Z+3	; 0x03
    6854:	13 96       	adiw	r26, 0x03	; 3
    6856:	9c 93       	st	X, r25
    6858:	8e 93       	st	-X, r24
    685a:	12 97       	sbiw	r26, 0x02	; 2
    685c:	e0 e0       	ldi	r30, 0x00	; 0
    685e:	f0 e0       	ldi	r31, 0x00	; 0
    6860:	8a 81       	ldd	r24, Y+2	; 0x02
    6862:	9b 81       	ldd	r25, Y+3	; 0x03
    6864:	00 97       	sbiw	r24, 0x00	; 0
    6866:	19 f0       	breq	.+6      	; 0x686e <free+0xe4>
    6868:	fe 01       	movw	r30, r28
    686a:	ec 01       	movw	r28, r24
    686c:	f9 cf       	rjmp	.-14     	; 0x6860 <free+0xd6>
    686e:	ce 01       	movw	r24, r28
    6870:	02 96       	adiw	r24, 0x02	; 2
    6872:	28 81       	ld	r18, Y
    6874:	39 81       	ldd	r19, Y+1	; 0x01
    6876:	82 0f       	add	r24, r18
    6878:	93 1f       	adc	r25, r19
    687a:	20 91 f4 02 	lds	r18, 0x02F4
    687e:	30 91 f5 02 	lds	r19, 0x02F5
    6882:	28 17       	cp	r18, r24
    6884:	39 07       	cpc	r19, r25
    6886:	69 f4       	brne	.+26     	; 0x68a2 <free+0x118>
    6888:	30 97       	sbiw	r30, 0x00	; 0
    688a:	29 f4       	brne	.+10     	; 0x6896 <free+0x10c>
    688c:	10 92 f7 02 	sts	0x02F7, r1
    6890:	10 92 f6 02 	sts	0x02F6, r1
    6894:	02 c0       	rjmp	.+4      	; 0x689a <free+0x110>
    6896:	13 82       	std	Z+3, r1	; 0x03
    6898:	12 82       	std	Z+2, r1	; 0x02
    689a:	d0 93 f5 02 	sts	0x02F5, r29
    689e:	c0 93 f4 02 	sts	0x02F4, r28
    68a2:	df 91       	pop	r29
    68a4:	cf 91       	pop	r28
    68a6:	08 95       	ret

000068a8 <memset>:
    68a8:	dc 01       	movw	r26, r24
    68aa:	01 c0       	rjmp	.+2      	; 0x68ae <memset+0x6>
    68ac:	6d 93       	st	X+, r22
    68ae:	41 50       	subi	r20, 0x01	; 1
    68b0:	50 40       	sbci	r21, 0x00	; 0
    68b2:	e0 f7       	brcc	.-8      	; 0x68ac <memset+0x4>
    68b4:	08 95       	ret

000068b6 <vfprintf>:
    68b6:	2f 92       	push	r2
    68b8:	3f 92       	push	r3
    68ba:	4f 92       	push	r4
    68bc:	5f 92       	push	r5
    68be:	6f 92       	push	r6
    68c0:	7f 92       	push	r7
    68c2:	8f 92       	push	r8
    68c4:	9f 92       	push	r9
    68c6:	af 92       	push	r10
    68c8:	bf 92       	push	r11
    68ca:	cf 92       	push	r12
    68cc:	df 92       	push	r13
    68ce:	ef 92       	push	r14
    68d0:	ff 92       	push	r15
    68d2:	0f 93       	push	r16
    68d4:	1f 93       	push	r17
    68d6:	cf 93       	push	r28
    68d8:	df 93       	push	r29
    68da:	cd b7       	in	r28, 0x3d	; 61
    68dc:	de b7       	in	r29, 0x3e	; 62
    68de:	2c 97       	sbiw	r28, 0x0c	; 12
    68e0:	0f b6       	in	r0, 0x3f	; 63
    68e2:	f8 94       	cli
    68e4:	de bf       	out	0x3e, r29	; 62
    68e6:	0f be       	out	0x3f, r0	; 63
    68e8:	cd bf       	out	0x3d, r28	; 61
    68ea:	7c 01       	movw	r14, r24
    68ec:	6b 01       	movw	r12, r22
    68ee:	8a 01       	movw	r16, r20
    68f0:	fc 01       	movw	r30, r24
    68f2:	17 82       	std	Z+7, r1	; 0x07
    68f4:	16 82       	std	Z+6, r1	; 0x06
    68f6:	83 81       	ldd	r24, Z+3	; 0x03
    68f8:	81 ff       	sbrs	r24, 1
    68fa:	b0 c1       	rjmp	.+864    	; 0x6c5c <vfprintf+0x3a6>
    68fc:	ce 01       	movw	r24, r28
    68fe:	01 96       	adiw	r24, 0x01	; 1
    6900:	4c 01       	movw	r8, r24
    6902:	f7 01       	movw	r30, r14
    6904:	93 81       	ldd	r25, Z+3	; 0x03
    6906:	f6 01       	movw	r30, r12
    6908:	93 fd       	sbrc	r25, 3
    690a:	85 91       	lpm	r24, Z+
    690c:	93 ff       	sbrs	r25, 3
    690e:	81 91       	ld	r24, Z+
    6910:	6f 01       	movw	r12, r30
    6912:	88 23       	and	r24, r24
    6914:	09 f4       	brne	.+2      	; 0x6918 <vfprintf+0x62>
    6916:	9e c1       	rjmp	.+828    	; 0x6c54 <vfprintf+0x39e>
    6918:	85 32       	cpi	r24, 0x25	; 37
    691a:	39 f4       	brne	.+14     	; 0x692a <vfprintf+0x74>
    691c:	93 fd       	sbrc	r25, 3
    691e:	85 91       	lpm	r24, Z+
    6920:	93 ff       	sbrs	r25, 3
    6922:	81 91       	ld	r24, Z+
    6924:	6f 01       	movw	r12, r30
    6926:	85 32       	cpi	r24, 0x25	; 37
    6928:	21 f4       	brne	.+8      	; 0x6932 <vfprintf+0x7c>
    692a:	b7 01       	movw	r22, r14
    692c:	90 e0       	ldi	r25, 0x00	; 0
    692e:	c7 d1       	rcall	.+910    	; 0x6cbe <fputc>
    6930:	e8 cf       	rjmp	.-48     	; 0x6902 <vfprintf+0x4c>
    6932:	51 2c       	mov	r5, r1
    6934:	31 2c       	mov	r3, r1
    6936:	20 e0       	ldi	r18, 0x00	; 0
    6938:	20 32       	cpi	r18, 0x20	; 32
    693a:	a0 f4       	brcc	.+40     	; 0x6964 <vfprintf+0xae>
    693c:	8b 32       	cpi	r24, 0x2B	; 43
    693e:	69 f0       	breq	.+26     	; 0x695a <vfprintf+0xa4>
    6940:	30 f4       	brcc	.+12     	; 0x694e <vfprintf+0x98>
    6942:	80 32       	cpi	r24, 0x20	; 32
    6944:	59 f0       	breq	.+22     	; 0x695c <vfprintf+0xa6>
    6946:	83 32       	cpi	r24, 0x23	; 35
    6948:	69 f4       	brne	.+26     	; 0x6964 <vfprintf+0xae>
    694a:	20 61       	ori	r18, 0x10	; 16
    694c:	2c c0       	rjmp	.+88     	; 0x69a6 <vfprintf+0xf0>
    694e:	8d 32       	cpi	r24, 0x2D	; 45
    6950:	39 f0       	breq	.+14     	; 0x6960 <vfprintf+0xaa>
    6952:	80 33       	cpi	r24, 0x30	; 48
    6954:	39 f4       	brne	.+14     	; 0x6964 <vfprintf+0xae>
    6956:	21 60       	ori	r18, 0x01	; 1
    6958:	26 c0       	rjmp	.+76     	; 0x69a6 <vfprintf+0xf0>
    695a:	22 60       	ori	r18, 0x02	; 2
    695c:	24 60       	ori	r18, 0x04	; 4
    695e:	23 c0       	rjmp	.+70     	; 0x69a6 <vfprintf+0xf0>
    6960:	28 60       	ori	r18, 0x08	; 8
    6962:	21 c0       	rjmp	.+66     	; 0x69a6 <vfprintf+0xf0>
    6964:	27 fd       	sbrc	r18, 7
    6966:	27 c0       	rjmp	.+78     	; 0x69b6 <vfprintf+0x100>
    6968:	30 ed       	ldi	r19, 0xD0	; 208
    696a:	38 0f       	add	r19, r24
    696c:	3a 30       	cpi	r19, 0x0A	; 10
    696e:	78 f4       	brcc	.+30     	; 0x698e <vfprintf+0xd8>
    6970:	26 ff       	sbrs	r18, 6
    6972:	06 c0       	rjmp	.+12     	; 0x6980 <vfprintf+0xca>
    6974:	fa e0       	ldi	r31, 0x0A	; 10
    6976:	5f 9e       	mul	r5, r31
    6978:	30 0d       	add	r19, r0
    697a:	11 24       	eor	r1, r1
    697c:	53 2e       	mov	r5, r19
    697e:	13 c0       	rjmp	.+38     	; 0x69a6 <vfprintf+0xf0>
    6980:	8a e0       	ldi	r24, 0x0A	; 10
    6982:	38 9e       	mul	r3, r24
    6984:	30 0d       	add	r19, r0
    6986:	11 24       	eor	r1, r1
    6988:	33 2e       	mov	r3, r19
    698a:	20 62       	ori	r18, 0x20	; 32
    698c:	0c c0       	rjmp	.+24     	; 0x69a6 <vfprintf+0xf0>
    698e:	8e 32       	cpi	r24, 0x2E	; 46
    6990:	21 f4       	brne	.+8      	; 0x699a <vfprintf+0xe4>
    6992:	26 fd       	sbrc	r18, 6
    6994:	5f c1       	rjmp	.+702    	; 0x6c54 <vfprintf+0x39e>
    6996:	20 64       	ori	r18, 0x40	; 64
    6998:	06 c0       	rjmp	.+12     	; 0x69a6 <vfprintf+0xf0>
    699a:	8c 36       	cpi	r24, 0x6C	; 108
    699c:	11 f4       	brne	.+4      	; 0x69a2 <vfprintf+0xec>
    699e:	20 68       	ori	r18, 0x80	; 128
    69a0:	02 c0       	rjmp	.+4      	; 0x69a6 <vfprintf+0xf0>
    69a2:	88 36       	cpi	r24, 0x68	; 104
    69a4:	41 f4       	brne	.+16     	; 0x69b6 <vfprintf+0x100>
    69a6:	f6 01       	movw	r30, r12
    69a8:	93 fd       	sbrc	r25, 3
    69aa:	85 91       	lpm	r24, Z+
    69ac:	93 ff       	sbrs	r25, 3
    69ae:	81 91       	ld	r24, Z+
    69b0:	6f 01       	movw	r12, r30
    69b2:	81 11       	cpse	r24, r1
    69b4:	c1 cf       	rjmp	.-126    	; 0x6938 <vfprintf+0x82>
    69b6:	98 2f       	mov	r25, r24
    69b8:	9f 7d       	andi	r25, 0xDF	; 223
    69ba:	95 54       	subi	r25, 0x45	; 69
    69bc:	93 30       	cpi	r25, 0x03	; 3
    69be:	28 f4       	brcc	.+10     	; 0x69ca <vfprintf+0x114>
    69c0:	0c 5f       	subi	r16, 0xFC	; 252
    69c2:	1f 4f       	sbci	r17, 0xFF	; 255
    69c4:	ff e3       	ldi	r31, 0x3F	; 63
    69c6:	f9 83       	std	Y+1, r31	; 0x01
    69c8:	0d c0       	rjmp	.+26     	; 0x69e4 <vfprintf+0x12e>
    69ca:	83 36       	cpi	r24, 0x63	; 99
    69cc:	31 f0       	breq	.+12     	; 0x69da <vfprintf+0x124>
    69ce:	83 37       	cpi	r24, 0x73	; 115
    69d0:	71 f0       	breq	.+28     	; 0x69ee <vfprintf+0x138>
    69d2:	83 35       	cpi	r24, 0x53	; 83
    69d4:	09 f0       	breq	.+2      	; 0x69d8 <vfprintf+0x122>
    69d6:	57 c0       	rjmp	.+174    	; 0x6a86 <vfprintf+0x1d0>
    69d8:	21 c0       	rjmp	.+66     	; 0x6a1c <vfprintf+0x166>
    69da:	f8 01       	movw	r30, r16
    69dc:	80 81       	ld	r24, Z
    69de:	89 83       	std	Y+1, r24	; 0x01
    69e0:	0e 5f       	subi	r16, 0xFE	; 254
    69e2:	1f 4f       	sbci	r17, 0xFF	; 255
    69e4:	44 24       	eor	r4, r4
    69e6:	43 94       	inc	r4
    69e8:	51 2c       	mov	r5, r1
    69ea:	54 01       	movw	r10, r8
    69ec:	14 c0       	rjmp	.+40     	; 0x6a16 <vfprintf+0x160>
    69ee:	38 01       	movw	r6, r16
    69f0:	f2 e0       	ldi	r31, 0x02	; 2
    69f2:	6f 0e       	add	r6, r31
    69f4:	71 1c       	adc	r7, r1
    69f6:	f8 01       	movw	r30, r16
    69f8:	a0 80       	ld	r10, Z
    69fa:	b1 80       	ldd	r11, Z+1	; 0x01
    69fc:	26 ff       	sbrs	r18, 6
    69fe:	03 c0       	rjmp	.+6      	; 0x6a06 <vfprintf+0x150>
    6a00:	65 2d       	mov	r22, r5
    6a02:	70 e0       	ldi	r23, 0x00	; 0
    6a04:	02 c0       	rjmp	.+4      	; 0x6a0a <vfprintf+0x154>
    6a06:	6f ef       	ldi	r22, 0xFF	; 255
    6a08:	7f ef       	ldi	r23, 0xFF	; 255
    6a0a:	c5 01       	movw	r24, r10
    6a0c:	2c 87       	std	Y+12, r18	; 0x0c
    6a0e:	4c d1       	rcall	.+664    	; 0x6ca8 <strnlen>
    6a10:	2c 01       	movw	r4, r24
    6a12:	83 01       	movw	r16, r6
    6a14:	2c 85       	ldd	r18, Y+12	; 0x0c
    6a16:	2f 77       	andi	r18, 0x7F	; 127
    6a18:	22 2e       	mov	r2, r18
    6a1a:	16 c0       	rjmp	.+44     	; 0x6a48 <vfprintf+0x192>
    6a1c:	38 01       	movw	r6, r16
    6a1e:	f2 e0       	ldi	r31, 0x02	; 2
    6a20:	6f 0e       	add	r6, r31
    6a22:	71 1c       	adc	r7, r1
    6a24:	f8 01       	movw	r30, r16
    6a26:	a0 80       	ld	r10, Z
    6a28:	b1 80       	ldd	r11, Z+1	; 0x01
    6a2a:	26 ff       	sbrs	r18, 6
    6a2c:	03 c0       	rjmp	.+6      	; 0x6a34 <vfprintf+0x17e>
    6a2e:	65 2d       	mov	r22, r5
    6a30:	70 e0       	ldi	r23, 0x00	; 0
    6a32:	02 c0       	rjmp	.+4      	; 0x6a38 <vfprintf+0x182>
    6a34:	6f ef       	ldi	r22, 0xFF	; 255
    6a36:	7f ef       	ldi	r23, 0xFF	; 255
    6a38:	c5 01       	movw	r24, r10
    6a3a:	2c 87       	std	Y+12, r18	; 0x0c
    6a3c:	2a d1       	rcall	.+596    	; 0x6c92 <strnlen_P>
    6a3e:	2c 01       	movw	r4, r24
    6a40:	2c 85       	ldd	r18, Y+12	; 0x0c
    6a42:	20 68       	ori	r18, 0x80	; 128
    6a44:	22 2e       	mov	r2, r18
    6a46:	83 01       	movw	r16, r6
    6a48:	23 fc       	sbrc	r2, 3
    6a4a:	19 c0       	rjmp	.+50     	; 0x6a7e <vfprintf+0x1c8>
    6a4c:	83 2d       	mov	r24, r3
    6a4e:	90 e0       	ldi	r25, 0x00	; 0
    6a50:	48 16       	cp	r4, r24
    6a52:	59 06       	cpc	r5, r25
    6a54:	a0 f4       	brcc	.+40     	; 0x6a7e <vfprintf+0x1c8>
    6a56:	b7 01       	movw	r22, r14
    6a58:	80 e2       	ldi	r24, 0x20	; 32
    6a5a:	90 e0       	ldi	r25, 0x00	; 0
    6a5c:	30 d1       	rcall	.+608    	; 0x6cbe <fputc>
    6a5e:	3a 94       	dec	r3
    6a60:	f5 cf       	rjmp	.-22     	; 0x6a4c <vfprintf+0x196>
    6a62:	f5 01       	movw	r30, r10
    6a64:	27 fc       	sbrc	r2, 7
    6a66:	85 91       	lpm	r24, Z+
    6a68:	27 fe       	sbrs	r2, 7
    6a6a:	81 91       	ld	r24, Z+
    6a6c:	5f 01       	movw	r10, r30
    6a6e:	b7 01       	movw	r22, r14
    6a70:	90 e0       	ldi	r25, 0x00	; 0
    6a72:	25 d1       	rcall	.+586    	; 0x6cbe <fputc>
    6a74:	31 10       	cpse	r3, r1
    6a76:	3a 94       	dec	r3
    6a78:	f1 e0       	ldi	r31, 0x01	; 1
    6a7a:	4f 1a       	sub	r4, r31
    6a7c:	51 08       	sbc	r5, r1
    6a7e:	41 14       	cp	r4, r1
    6a80:	51 04       	cpc	r5, r1
    6a82:	79 f7       	brne	.-34     	; 0x6a62 <vfprintf+0x1ac>
    6a84:	de c0       	rjmp	.+444    	; 0x6c42 <vfprintf+0x38c>
    6a86:	84 36       	cpi	r24, 0x64	; 100
    6a88:	11 f0       	breq	.+4      	; 0x6a8e <vfprintf+0x1d8>
    6a8a:	89 36       	cpi	r24, 0x69	; 105
    6a8c:	31 f5       	brne	.+76     	; 0x6ada <vfprintf+0x224>
    6a8e:	f8 01       	movw	r30, r16
    6a90:	27 ff       	sbrs	r18, 7
    6a92:	07 c0       	rjmp	.+14     	; 0x6aa2 <vfprintf+0x1ec>
    6a94:	60 81       	ld	r22, Z
    6a96:	71 81       	ldd	r23, Z+1	; 0x01
    6a98:	82 81       	ldd	r24, Z+2	; 0x02
    6a9a:	93 81       	ldd	r25, Z+3	; 0x03
    6a9c:	0c 5f       	subi	r16, 0xFC	; 252
    6a9e:	1f 4f       	sbci	r17, 0xFF	; 255
    6aa0:	08 c0       	rjmp	.+16     	; 0x6ab2 <vfprintf+0x1fc>
    6aa2:	60 81       	ld	r22, Z
    6aa4:	71 81       	ldd	r23, Z+1	; 0x01
    6aa6:	88 27       	eor	r24, r24
    6aa8:	77 fd       	sbrc	r23, 7
    6aaa:	80 95       	com	r24
    6aac:	98 2f       	mov	r25, r24
    6aae:	0e 5f       	subi	r16, 0xFE	; 254
    6ab0:	1f 4f       	sbci	r17, 0xFF	; 255
    6ab2:	2f 76       	andi	r18, 0x6F	; 111
    6ab4:	b2 2e       	mov	r11, r18
    6ab6:	97 ff       	sbrs	r25, 7
    6ab8:	09 c0       	rjmp	.+18     	; 0x6acc <vfprintf+0x216>
    6aba:	90 95       	com	r25
    6abc:	80 95       	com	r24
    6abe:	70 95       	com	r23
    6ac0:	61 95       	neg	r22
    6ac2:	7f 4f       	sbci	r23, 0xFF	; 255
    6ac4:	8f 4f       	sbci	r24, 0xFF	; 255
    6ac6:	9f 4f       	sbci	r25, 0xFF	; 255
    6ac8:	20 68       	ori	r18, 0x80	; 128
    6aca:	b2 2e       	mov	r11, r18
    6acc:	2a e0       	ldi	r18, 0x0A	; 10
    6ace:	30 e0       	ldi	r19, 0x00	; 0
    6ad0:	a4 01       	movw	r20, r8
    6ad2:	27 d1       	rcall	.+590    	; 0x6d22 <__ultoa_invert>
    6ad4:	a8 2e       	mov	r10, r24
    6ad6:	a8 18       	sub	r10, r8
    6ad8:	43 c0       	rjmp	.+134    	; 0x6b60 <vfprintf+0x2aa>
    6ada:	85 37       	cpi	r24, 0x75	; 117
    6adc:	29 f4       	brne	.+10     	; 0x6ae8 <vfprintf+0x232>
    6ade:	2f 7e       	andi	r18, 0xEF	; 239
    6ae0:	b2 2e       	mov	r11, r18
    6ae2:	2a e0       	ldi	r18, 0x0A	; 10
    6ae4:	30 e0       	ldi	r19, 0x00	; 0
    6ae6:	25 c0       	rjmp	.+74     	; 0x6b32 <vfprintf+0x27c>
    6ae8:	f2 2f       	mov	r31, r18
    6aea:	f9 7f       	andi	r31, 0xF9	; 249
    6aec:	bf 2e       	mov	r11, r31
    6aee:	8f 36       	cpi	r24, 0x6F	; 111
    6af0:	c1 f0       	breq	.+48     	; 0x6b22 <vfprintf+0x26c>
    6af2:	18 f4       	brcc	.+6      	; 0x6afa <vfprintf+0x244>
    6af4:	88 35       	cpi	r24, 0x58	; 88
    6af6:	79 f0       	breq	.+30     	; 0x6b16 <vfprintf+0x260>
    6af8:	ad c0       	rjmp	.+346    	; 0x6c54 <vfprintf+0x39e>
    6afa:	80 37       	cpi	r24, 0x70	; 112
    6afc:	19 f0       	breq	.+6      	; 0x6b04 <vfprintf+0x24e>
    6afe:	88 37       	cpi	r24, 0x78	; 120
    6b00:	21 f0       	breq	.+8      	; 0x6b0a <vfprintf+0x254>
    6b02:	a8 c0       	rjmp	.+336    	; 0x6c54 <vfprintf+0x39e>
    6b04:	2f 2f       	mov	r18, r31
    6b06:	20 61       	ori	r18, 0x10	; 16
    6b08:	b2 2e       	mov	r11, r18
    6b0a:	b4 fe       	sbrs	r11, 4
    6b0c:	0d c0       	rjmp	.+26     	; 0x6b28 <vfprintf+0x272>
    6b0e:	8b 2d       	mov	r24, r11
    6b10:	84 60       	ori	r24, 0x04	; 4
    6b12:	b8 2e       	mov	r11, r24
    6b14:	09 c0       	rjmp	.+18     	; 0x6b28 <vfprintf+0x272>
    6b16:	24 ff       	sbrs	r18, 4
    6b18:	0a c0       	rjmp	.+20     	; 0x6b2e <vfprintf+0x278>
    6b1a:	9f 2f       	mov	r25, r31
    6b1c:	96 60       	ori	r25, 0x06	; 6
    6b1e:	b9 2e       	mov	r11, r25
    6b20:	06 c0       	rjmp	.+12     	; 0x6b2e <vfprintf+0x278>
    6b22:	28 e0       	ldi	r18, 0x08	; 8
    6b24:	30 e0       	ldi	r19, 0x00	; 0
    6b26:	05 c0       	rjmp	.+10     	; 0x6b32 <vfprintf+0x27c>
    6b28:	20 e1       	ldi	r18, 0x10	; 16
    6b2a:	30 e0       	ldi	r19, 0x00	; 0
    6b2c:	02 c0       	rjmp	.+4      	; 0x6b32 <vfprintf+0x27c>
    6b2e:	20 e1       	ldi	r18, 0x10	; 16
    6b30:	32 e0       	ldi	r19, 0x02	; 2
    6b32:	f8 01       	movw	r30, r16
    6b34:	b7 fe       	sbrs	r11, 7
    6b36:	07 c0       	rjmp	.+14     	; 0x6b46 <vfprintf+0x290>
    6b38:	60 81       	ld	r22, Z
    6b3a:	71 81       	ldd	r23, Z+1	; 0x01
    6b3c:	82 81       	ldd	r24, Z+2	; 0x02
    6b3e:	93 81       	ldd	r25, Z+3	; 0x03
    6b40:	0c 5f       	subi	r16, 0xFC	; 252
    6b42:	1f 4f       	sbci	r17, 0xFF	; 255
    6b44:	06 c0       	rjmp	.+12     	; 0x6b52 <vfprintf+0x29c>
    6b46:	60 81       	ld	r22, Z
    6b48:	71 81       	ldd	r23, Z+1	; 0x01
    6b4a:	80 e0       	ldi	r24, 0x00	; 0
    6b4c:	90 e0       	ldi	r25, 0x00	; 0
    6b4e:	0e 5f       	subi	r16, 0xFE	; 254
    6b50:	1f 4f       	sbci	r17, 0xFF	; 255
    6b52:	a4 01       	movw	r20, r8
    6b54:	e6 d0       	rcall	.+460    	; 0x6d22 <__ultoa_invert>
    6b56:	a8 2e       	mov	r10, r24
    6b58:	a8 18       	sub	r10, r8
    6b5a:	fb 2d       	mov	r31, r11
    6b5c:	ff 77       	andi	r31, 0x7F	; 127
    6b5e:	bf 2e       	mov	r11, r31
    6b60:	b6 fe       	sbrs	r11, 6
    6b62:	0b c0       	rjmp	.+22     	; 0x6b7a <vfprintf+0x2c4>
    6b64:	2b 2d       	mov	r18, r11
    6b66:	2e 7f       	andi	r18, 0xFE	; 254
    6b68:	a5 14       	cp	r10, r5
    6b6a:	50 f4       	brcc	.+20     	; 0x6b80 <vfprintf+0x2ca>
    6b6c:	b4 fe       	sbrs	r11, 4
    6b6e:	0a c0       	rjmp	.+20     	; 0x6b84 <vfprintf+0x2ce>
    6b70:	b2 fc       	sbrc	r11, 2
    6b72:	08 c0       	rjmp	.+16     	; 0x6b84 <vfprintf+0x2ce>
    6b74:	2b 2d       	mov	r18, r11
    6b76:	2e 7e       	andi	r18, 0xEE	; 238
    6b78:	05 c0       	rjmp	.+10     	; 0x6b84 <vfprintf+0x2ce>
    6b7a:	7a 2c       	mov	r7, r10
    6b7c:	2b 2d       	mov	r18, r11
    6b7e:	03 c0       	rjmp	.+6      	; 0x6b86 <vfprintf+0x2d0>
    6b80:	7a 2c       	mov	r7, r10
    6b82:	01 c0       	rjmp	.+2      	; 0x6b86 <vfprintf+0x2d0>
    6b84:	75 2c       	mov	r7, r5
    6b86:	24 ff       	sbrs	r18, 4
    6b88:	0d c0       	rjmp	.+26     	; 0x6ba4 <vfprintf+0x2ee>
    6b8a:	fe 01       	movw	r30, r28
    6b8c:	ea 0d       	add	r30, r10
    6b8e:	f1 1d       	adc	r31, r1
    6b90:	80 81       	ld	r24, Z
    6b92:	80 33       	cpi	r24, 0x30	; 48
    6b94:	11 f4       	brne	.+4      	; 0x6b9a <vfprintf+0x2e4>
    6b96:	29 7e       	andi	r18, 0xE9	; 233
    6b98:	09 c0       	rjmp	.+18     	; 0x6bac <vfprintf+0x2f6>
    6b9a:	22 ff       	sbrs	r18, 2
    6b9c:	06 c0       	rjmp	.+12     	; 0x6baa <vfprintf+0x2f4>
    6b9e:	73 94       	inc	r7
    6ba0:	73 94       	inc	r7
    6ba2:	04 c0       	rjmp	.+8      	; 0x6bac <vfprintf+0x2f6>
    6ba4:	82 2f       	mov	r24, r18
    6ba6:	86 78       	andi	r24, 0x86	; 134
    6ba8:	09 f0       	breq	.+2      	; 0x6bac <vfprintf+0x2f6>
    6baa:	73 94       	inc	r7
    6bac:	23 fd       	sbrc	r18, 3
    6bae:	12 c0       	rjmp	.+36     	; 0x6bd4 <vfprintf+0x31e>
    6bb0:	20 ff       	sbrs	r18, 0
    6bb2:	06 c0       	rjmp	.+12     	; 0x6bc0 <vfprintf+0x30a>
    6bb4:	5a 2c       	mov	r5, r10
    6bb6:	73 14       	cp	r7, r3
    6bb8:	18 f4       	brcc	.+6      	; 0x6bc0 <vfprintf+0x30a>
    6bba:	53 0c       	add	r5, r3
    6bbc:	57 18       	sub	r5, r7
    6bbe:	73 2c       	mov	r7, r3
    6bc0:	73 14       	cp	r7, r3
    6bc2:	60 f4       	brcc	.+24     	; 0x6bdc <vfprintf+0x326>
    6bc4:	b7 01       	movw	r22, r14
    6bc6:	80 e2       	ldi	r24, 0x20	; 32
    6bc8:	90 e0       	ldi	r25, 0x00	; 0
    6bca:	2c 87       	std	Y+12, r18	; 0x0c
    6bcc:	78 d0       	rcall	.+240    	; 0x6cbe <fputc>
    6bce:	73 94       	inc	r7
    6bd0:	2c 85       	ldd	r18, Y+12	; 0x0c
    6bd2:	f6 cf       	rjmp	.-20     	; 0x6bc0 <vfprintf+0x30a>
    6bd4:	73 14       	cp	r7, r3
    6bd6:	10 f4       	brcc	.+4      	; 0x6bdc <vfprintf+0x326>
    6bd8:	37 18       	sub	r3, r7
    6bda:	01 c0       	rjmp	.+2      	; 0x6bde <vfprintf+0x328>
    6bdc:	31 2c       	mov	r3, r1
    6bde:	24 ff       	sbrs	r18, 4
    6be0:	11 c0       	rjmp	.+34     	; 0x6c04 <vfprintf+0x34e>
    6be2:	b7 01       	movw	r22, r14
    6be4:	80 e3       	ldi	r24, 0x30	; 48
    6be6:	90 e0       	ldi	r25, 0x00	; 0
    6be8:	2c 87       	std	Y+12, r18	; 0x0c
    6bea:	69 d0       	rcall	.+210    	; 0x6cbe <fputc>
    6bec:	2c 85       	ldd	r18, Y+12	; 0x0c
    6bee:	22 ff       	sbrs	r18, 2
    6bf0:	16 c0       	rjmp	.+44     	; 0x6c1e <vfprintf+0x368>
    6bf2:	21 ff       	sbrs	r18, 1
    6bf4:	03 c0       	rjmp	.+6      	; 0x6bfc <vfprintf+0x346>
    6bf6:	88 e5       	ldi	r24, 0x58	; 88
    6bf8:	90 e0       	ldi	r25, 0x00	; 0
    6bfa:	02 c0       	rjmp	.+4      	; 0x6c00 <vfprintf+0x34a>
    6bfc:	88 e7       	ldi	r24, 0x78	; 120
    6bfe:	90 e0       	ldi	r25, 0x00	; 0
    6c00:	b7 01       	movw	r22, r14
    6c02:	0c c0       	rjmp	.+24     	; 0x6c1c <vfprintf+0x366>
    6c04:	82 2f       	mov	r24, r18
    6c06:	86 78       	andi	r24, 0x86	; 134
    6c08:	51 f0       	breq	.+20     	; 0x6c1e <vfprintf+0x368>
    6c0a:	21 fd       	sbrc	r18, 1
    6c0c:	02 c0       	rjmp	.+4      	; 0x6c12 <vfprintf+0x35c>
    6c0e:	80 e2       	ldi	r24, 0x20	; 32
    6c10:	01 c0       	rjmp	.+2      	; 0x6c14 <vfprintf+0x35e>
    6c12:	8b e2       	ldi	r24, 0x2B	; 43
    6c14:	27 fd       	sbrc	r18, 7
    6c16:	8d e2       	ldi	r24, 0x2D	; 45
    6c18:	b7 01       	movw	r22, r14
    6c1a:	90 e0       	ldi	r25, 0x00	; 0
    6c1c:	50 d0       	rcall	.+160    	; 0x6cbe <fputc>
    6c1e:	a5 14       	cp	r10, r5
    6c20:	30 f4       	brcc	.+12     	; 0x6c2e <vfprintf+0x378>
    6c22:	b7 01       	movw	r22, r14
    6c24:	80 e3       	ldi	r24, 0x30	; 48
    6c26:	90 e0       	ldi	r25, 0x00	; 0
    6c28:	4a d0       	rcall	.+148    	; 0x6cbe <fputc>
    6c2a:	5a 94       	dec	r5
    6c2c:	f8 cf       	rjmp	.-16     	; 0x6c1e <vfprintf+0x368>
    6c2e:	aa 94       	dec	r10
    6c30:	f4 01       	movw	r30, r8
    6c32:	ea 0d       	add	r30, r10
    6c34:	f1 1d       	adc	r31, r1
    6c36:	80 81       	ld	r24, Z
    6c38:	b7 01       	movw	r22, r14
    6c3a:	90 e0       	ldi	r25, 0x00	; 0
    6c3c:	40 d0       	rcall	.+128    	; 0x6cbe <fputc>
    6c3e:	a1 10       	cpse	r10, r1
    6c40:	f6 cf       	rjmp	.-20     	; 0x6c2e <vfprintf+0x378>
    6c42:	33 20       	and	r3, r3
    6c44:	09 f4       	brne	.+2      	; 0x6c48 <vfprintf+0x392>
    6c46:	5d ce       	rjmp	.-838    	; 0x6902 <vfprintf+0x4c>
    6c48:	b7 01       	movw	r22, r14
    6c4a:	80 e2       	ldi	r24, 0x20	; 32
    6c4c:	90 e0       	ldi	r25, 0x00	; 0
    6c4e:	37 d0       	rcall	.+110    	; 0x6cbe <fputc>
    6c50:	3a 94       	dec	r3
    6c52:	f7 cf       	rjmp	.-18     	; 0x6c42 <vfprintf+0x38c>
    6c54:	f7 01       	movw	r30, r14
    6c56:	86 81       	ldd	r24, Z+6	; 0x06
    6c58:	97 81       	ldd	r25, Z+7	; 0x07
    6c5a:	02 c0       	rjmp	.+4      	; 0x6c60 <vfprintf+0x3aa>
    6c5c:	8f ef       	ldi	r24, 0xFF	; 255
    6c5e:	9f ef       	ldi	r25, 0xFF	; 255
    6c60:	2c 96       	adiw	r28, 0x0c	; 12
    6c62:	0f b6       	in	r0, 0x3f	; 63
    6c64:	f8 94       	cli
    6c66:	de bf       	out	0x3e, r29	; 62
    6c68:	0f be       	out	0x3f, r0	; 63
    6c6a:	cd bf       	out	0x3d, r28	; 61
    6c6c:	df 91       	pop	r29
    6c6e:	cf 91       	pop	r28
    6c70:	1f 91       	pop	r17
    6c72:	0f 91       	pop	r16
    6c74:	ff 90       	pop	r15
    6c76:	ef 90       	pop	r14
    6c78:	df 90       	pop	r13
    6c7a:	cf 90       	pop	r12
    6c7c:	bf 90       	pop	r11
    6c7e:	af 90       	pop	r10
    6c80:	9f 90       	pop	r9
    6c82:	8f 90       	pop	r8
    6c84:	7f 90       	pop	r7
    6c86:	6f 90       	pop	r6
    6c88:	5f 90       	pop	r5
    6c8a:	4f 90       	pop	r4
    6c8c:	3f 90       	pop	r3
    6c8e:	2f 90       	pop	r2
    6c90:	08 95       	ret

00006c92 <strnlen_P>:
    6c92:	fc 01       	movw	r30, r24
    6c94:	05 90       	lpm	r0, Z+
    6c96:	61 50       	subi	r22, 0x01	; 1
    6c98:	70 40       	sbci	r23, 0x00	; 0
    6c9a:	01 10       	cpse	r0, r1
    6c9c:	d8 f7       	brcc	.-10     	; 0x6c94 <strnlen_P+0x2>
    6c9e:	80 95       	com	r24
    6ca0:	90 95       	com	r25
    6ca2:	8e 0f       	add	r24, r30
    6ca4:	9f 1f       	adc	r25, r31
    6ca6:	08 95       	ret

00006ca8 <strnlen>:
    6ca8:	fc 01       	movw	r30, r24
    6caa:	61 50       	subi	r22, 0x01	; 1
    6cac:	70 40       	sbci	r23, 0x00	; 0
    6cae:	01 90       	ld	r0, Z+
    6cb0:	01 10       	cpse	r0, r1
    6cb2:	d8 f7       	brcc	.-10     	; 0x6caa <strnlen+0x2>
    6cb4:	80 95       	com	r24
    6cb6:	90 95       	com	r25
    6cb8:	8e 0f       	add	r24, r30
    6cba:	9f 1f       	adc	r25, r31
    6cbc:	08 95       	ret

00006cbe <fputc>:
    6cbe:	0f 93       	push	r16
    6cc0:	1f 93       	push	r17
    6cc2:	cf 93       	push	r28
    6cc4:	df 93       	push	r29
    6cc6:	18 2f       	mov	r17, r24
    6cc8:	09 2f       	mov	r16, r25
    6cca:	eb 01       	movw	r28, r22
    6ccc:	8b 81       	ldd	r24, Y+3	; 0x03
    6cce:	81 fd       	sbrc	r24, 1
    6cd0:	03 c0       	rjmp	.+6      	; 0x6cd8 <fputc+0x1a>
    6cd2:	8f ef       	ldi	r24, 0xFF	; 255
    6cd4:	9f ef       	ldi	r25, 0xFF	; 255
    6cd6:	20 c0       	rjmp	.+64     	; 0x6d18 <fputc+0x5a>
    6cd8:	82 ff       	sbrs	r24, 2
    6cda:	10 c0       	rjmp	.+32     	; 0x6cfc <fputc+0x3e>
    6cdc:	4e 81       	ldd	r20, Y+6	; 0x06
    6cde:	5f 81       	ldd	r21, Y+7	; 0x07
    6ce0:	2c 81       	ldd	r18, Y+4	; 0x04
    6ce2:	3d 81       	ldd	r19, Y+5	; 0x05
    6ce4:	42 17       	cp	r20, r18
    6ce6:	53 07       	cpc	r21, r19
    6ce8:	7c f4       	brge	.+30     	; 0x6d08 <fputc+0x4a>
    6cea:	e8 81       	ld	r30, Y
    6cec:	f9 81       	ldd	r31, Y+1	; 0x01
    6cee:	9f 01       	movw	r18, r30
    6cf0:	2f 5f       	subi	r18, 0xFF	; 255
    6cf2:	3f 4f       	sbci	r19, 0xFF	; 255
    6cf4:	39 83       	std	Y+1, r19	; 0x01
    6cf6:	28 83       	st	Y, r18
    6cf8:	10 83       	st	Z, r17
    6cfa:	06 c0       	rjmp	.+12     	; 0x6d08 <fputc+0x4a>
    6cfc:	e8 85       	ldd	r30, Y+8	; 0x08
    6cfe:	f9 85       	ldd	r31, Y+9	; 0x09
    6d00:	81 2f       	mov	r24, r17
    6d02:	09 95       	icall
    6d04:	89 2b       	or	r24, r25
    6d06:	29 f7       	brne	.-54     	; 0x6cd2 <fputc+0x14>
    6d08:	2e 81       	ldd	r18, Y+6	; 0x06
    6d0a:	3f 81       	ldd	r19, Y+7	; 0x07
    6d0c:	2f 5f       	subi	r18, 0xFF	; 255
    6d0e:	3f 4f       	sbci	r19, 0xFF	; 255
    6d10:	3f 83       	std	Y+7, r19	; 0x07
    6d12:	2e 83       	std	Y+6, r18	; 0x06
    6d14:	81 2f       	mov	r24, r17
    6d16:	90 2f       	mov	r25, r16
    6d18:	df 91       	pop	r29
    6d1a:	cf 91       	pop	r28
    6d1c:	1f 91       	pop	r17
    6d1e:	0f 91       	pop	r16
    6d20:	08 95       	ret

00006d22 <__ultoa_invert>:
    6d22:	fa 01       	movw	r30, r20
    6d24:	aa 27       	eor	r26, r26
    6d26:	28 30       	cpi	r18, 0x08	; 8
    6d28:	51 f1       	breq	.+84     	; 0x6d7e <__ultoa_invert+0x5c>
    6d2a:	20 31       	cpi	r18, 0x10	; 16
    6d2c:	81 f1       	breq	.+96     	; 0x6d8e <__ultoa_invert+0x6c>
    6d2e:	e8 94       	clt
    6d30:	6f 93       	push	r22
    6d32:	6e 7f       	andi	r22, 0xFE	; 254
    6d34:	6e 5f       	subi	r22, 0xFE	; 254
    6d36:	7f 4f       	sbci	r23, 0xFF	; 255
    6d38:	8f 4f       	sbci	r24, 0xFF	; 255
    6d3a:	9f 4f       	sbci	r25, 0xFF	; 255
    6d3c:	af 4f       	sbci	r26, 0xFF	; 255
    6d3e:	b1 e0       	ldi	r27, 0x01	; 1
    6d40:	3e d0       	rcall	.+124    	; 0x6dbe <__ultoa_invert+0x9c>
    6d42:	b4 e0       	ldi	r27, 0x04	; 4
    6d44:	3c d0       	rcall	.+120    	; 0x6dbe <__ultoa_invert+0x9c>
    6d46:	67 0f       	add	r22, r23
    6d48:	78 1f       	adc	r23, r24
    6d4a:	89 1f       	adc	r24, r25
    6d4c:	9a 1f       	adc	r25, r26
    6d4e:	a1 1d       	adc	r26, r1
    6d50:	68 0f       	add	r22, r24
    6d52:	79 1f       	adc	r23, r25
    6d54:	8a 1f       	adc	r24, r26
    6d56:	91 1d       	adc	r25, r1
    6d58:	a1 1d       	adc	r26, r1
    6d5a:	6a 0f       	add	r22, r26
    6d5c:	71 1d       	adc	r23, r1
    6d5e:	81 1d       	adc	r24, r1
    6d60:	91 1d       	adc	r25, r1
    6d62:	a1 1d       	adc	r26, r1
    6d64:	20 d0       	rcall	.+64     	; 0x6da6 <__ultoa_invert+0x84>
    6d66:	09 f4       	brne	.+2      	; 0x6d6a <__ultoa_invert+0x48>
    6d68:	68 94       	set
    6d6a:	3f 91       	pop	r19
    6d6c:	2a e0       	ldi	r18, 0x0A	; 10
    6d6e:	26 9f       	mul	r18, r22
    6d70:	11 24       	eor	r1, r1
    6d72:	30 19       	sub	r19, r0
    6d74:	30 5d       	subi	r19, 0xD0	; 208
    6d76:	31 93       	st	Z+, r19
    6d78:	de f6       	brtc	.-74     	; 0x6d30 <__ultoa_invert+0xe>
    6d7a:	cf 01       	movw	r24, r30
    6d7c:	08 95       	ret
    6d7e:	46 2f       	mov	r20, r22
    6d80:	47 70       	andi	r20, 0x07	; 7
    6d82:	40 5d       	subi	r20, 0xD0	; 208
    6d84:	41 93       	st	Z+, r20
    6d86:	b3 e0       	ldi	r27, 0x03	; 3
    6d88:	0f d0       	rcall	.+30     	; 0x6da8 <__ultoa_invert+0x86>
    6d8a:	c9 f7       	brne	.-14     	; 0x6d7e <__ultoa_invert+0x5c>
    6d8c:	f6 cf       	rjmp	.-20     	; 0x6d7a <__ultoa_invert+0x58>
    6d8e:	46 2f       	mov	r20, r22
    6d90:	4f 70       	andi	r20, 0x0F	; 15
    6d92:	40 5d       	subi	r20, 0xD0	; 208
    6d94:	4a 33       	cpi	r20, 0x3A	; 58
    6d96:	18 f0       	brcs	.+6      	; 0x6d9e <__ultoa_invert+0x7c>
    6d98:	49 5d       	subi	r20, 0xD9	; 217
    6d9a:	31 fd       	sbrc	r19, 1
    6d9c:	40 52       	subi	r20, 0x20	; 32
    6d9e:	41 93       	st	Z+, r20
    6da0:	02 d0       	rcall	.+4      	; 0x6da6 <__ultoa_invert+0x84>
    6da2:	a9 f7       	brne	.-22     	; 0x6d8e <__ultoa_invert+0x6c>
    6da4:	ea cf       	rjmp	.-44     	; 0x6d7a <__ultoa_invert+0x58>
    6da6:	b4 e0       	ldi	r27, 0x04	; 4
    6da8:	a6 95       	lsr	r26
    6daa:	97 95       	ror	r25
    6dac:	87 95       	ror	r24
    6dae:	77 95       	ror	r23
    6db0:	67 95       	ror	r22
    6db2:	ba 95       	dec	r27
    6db4:	c9 f7       	brne	.-14     	; 0x6da8 <__ultoa_invert+0x86>
    6db6:	00 97       	sbiw	r24, 0x00	; 0
    6db8:	61 05       	cpc	r22, r1
    6dba:	71 05       	cpc	r23, r1
    6dbc:	08 95       	ret
    6dbe:	9b 01       	movw	r18, r22
    6dc0:	ac 01       	movw	r20, r24
    6dc2:	0a 2e       	mov	r0, r26
    6dc4:	06 94       	lsr	r0
    6dc6:	57 95       	ror	r21
    6dc8:	47 95       	ror	r20
    6dca:	37 95       	ror	r19
    6dcc:	27 95       	ror	r18
    6dce:	ba 95       	dec	r27
    6dd0:	c9 f7       	brne	.-14     	; 0x6dc4 <__ultoa_invert+0xa2>
    6dd2:	62 0f       	add	r22, r18
    6dd4:	73 1f       	adc	r23, r19
    6dd6:	84 1f       	adc	r24, r20
    6dd8:	95 1f       	adc	r25, r21
    6dda:	a0 1d       	adc	r26, r0
    6ddc:	08 95       	ret

00006dde <_exit>:
    6dde:	f8 94       	cli

00006de0 <__stop_program>:
    6de0:	ff cf       	rjmp	.-2      	; 0x6de0 <__stop_program>
