
Veliki_Robot_2015.elf:     file format elf32-avr

Sections:
Idx Name          Size      VMA       LMA       File off  Algn
  0 .data         000001e2  00800100  00008e58  00008f0c  2**0
                  CONTENTS, ALLOC, LOAD, DATA
  1 .text         00008e58  00000000  00000000  000000b4  2**1
                  CONTENTS, ALLOC, LOAD, READONLY, CODE
  2 .bss          00000182  008002e2  008002e2  000090ee  2**0
                  ALLOC
  3 .fuse         00000003  00820000  00820000  000090ee  2**0
                  CONTENTS, ALLOC, LOAD, DATA
  4 .comment      00000030  00000000  00000000  000090f1  2**0
                  CONTENTS, READONLY
  5 .debug_aranges 00000020  00000000  00000000  00009121  2**0
                  CONTENTS, READONLY, DEBUGGING
  6 .debug_pubnames 00000040  00000000  00000000  00009141  2**0
                  CONTENTS, READONLY, DEBUGGING
  7 .debug_info   000007c7  00000000  00000000  00009181  2**0
                  CONTENTS, READONLY, DEBUGGING
  8 .debug_abbrev 000001eb  00000000  00000000  00009948  2**0
                  CONTENTS, READONLY, DEBUGGING
  9 .debug_line   00000254  00000000  00000000  00009b33  2**0
                  CONTENTS, READONLY, DEBUGGING
 10 .debug_frame  00000020  00000000  00000000  00009d88  2**2
                  CONTENTS, READONLY, DEBUGGING
 11 .debug_str    0000013e  00000000  00000000  00009da8  2**0
                  CONTENTS, READONLY, DEBUGGING
 12 .debug_loc    00000e74  00000000  00000000  00009ee6  2**0
                  CONTENTS, READONLY, DEBUGGING
 13 .debug_ranges 00000018  00000000  00000000  0000ad5a  2**0
                  CONTENTS, READONLY, DEBUGGING

Disassembly of section .text:

00000000 <__vectors>:
       0:	49 c0       	rjmp	.+146    	; 0x94 <__ctors_end>
       2:	00 00       	nop
       4:	66 c0       	rjmp	.+204    	; 0xd2 <__bad_interrupt>
       6:	00 00       	nop
       8:	64 c0       	rjmp	.+200    	; 0xd2 <__bad_interrupt>
       a:	00 00       	nop
       c:	62 c0       	rjmp	.+196    	; 0xd2 <__bad_interrupt>
       e:	00 00       	nop
      10:	60 c0       	rjmp	.+192    	; 0xd2 <__bad_interrupt>
      12:	00 00       	nop
      14:	5e c0       	rjmp	.+188    	; 0xd2 <__bad_interrupt>
      16:	00 00       	nop
      18:	5c c0       	rjmp	.+184    	; 0xd2 <__bad_interrupt>
      1a:	00 00       	nop
      1c:	5a c0       	rjmp	.+180    	; 0xd2 <__bad_interrupt>
      1e:	00 00       	nop
      20:	58 c0       	rjmp	.+176    	; 0xd2 <__bad_interrupt>
      22:	00 00       	nop
      24:	56 c0       	rjmp	.+172    	; 0xd2 <__bad_interrupt>
      26:	00 00       	nop
      28:	54 c0       	rjmp	.+168    	; 0xd2 <__bad_interrupt>
      2a:	00 00       	nop
      2c:	52 c0       	rjmp	.+164    	; 0xd2 <__bad_interrupt>
      2e:	00 00       	nop
      30:	0c 94 cd 30 	jmp	0x619a	; 0x619a <__vector_12>
      34:	4e c0       	rjmp	.+156    	; 0xd2 <__bad_interrupt>
      36:	00 00       	nop
      38:	4c c0       	rjmp	.+152    	; 0xd2 <__bad_interrupt>
      3a:	00 00       	nop
      3c:	4a c0       	rjmp	.+148    	; 0xd2 <__bad_interrupt>
      3e:	00 00       	nop
      40:	0c 94 a3 30 	jmp	0x6146	; 0x6146 <__vector_16>
      44:	46 c0       	rjmp	.+140    	; 0xd2 <__bad_interrupt>
      46:	00 00       	nop
      48:	0c 94 f8 0e 	jmp	0x1df0	; 0x1df0 <__vector_18>
      4c:	42 c0       	rjmp	.+132    	; 0xd2 <__bad_interrupt>
      4e:	00 00       	nop
      50:	40 c0       	rjmp	.+128    	; 0xd2 <__bad_interrupt>
      52:	00 00       	nop
      54:	0c 94 19 32 	jmp	0x6432	; 0x6432 <__vector_21>
      58:	3c c0       	rjmp	.+120    	; 0xd2 <__bad_interrupt>
      5a:	00 00       	nop
      5c:	0c 94 d7 31 	jmp	0x63ae	; 0x63ae <__vector_23>
      60:	38 c0       	rjmp	.+112    	; 0xd2 <__bad_interrupt>
      62:	00 00       	nop
      64:	36 c0       	rjmp	.+108    	; 0xd2 <__bad_interrupt>
      66:	00 00       	nop
      68:	34 c0       	rjmp	.+104    	; 0xd2 <__bad_interrupt>
      6a:	00 00       	nop
      6c:	32 c0       	rjmp	.+100    	; 0xd2 <__bad_interrupt>
      6e:	00 00       	nop
      70:	30 c0       	rjmp	.+96     	; 0xd2 <__bad_interrupt>
      72:	00 00       	nop
      74:	2e c0       	rjmp	.+92     	; 0xd2 <__bad_interrupt>
      76:	00 00       	nop
      78:	2c c0       	rjmp	.+88     	; 0xd2 <__bad_interrupt>
      7a:	00 00       	nop
      7c:	2a c0       	rjmp	.+84     	; 0xd2 <__bad_interrupt>
      7e:	00 00       	nop
      80:	0c 94 a7 32 	jmp	0x654e	; 0x654e <__vector_32>
      84:	26 c0       	rjmp	.+76     	; 0xd2 <__bad_interrupt>
      86:	00 00       	nop
      88:	0c 94 65 32 	jmp	0x64ca	; 0x64ca <__vector_34>
      8c:	22 c0       	rjmp	.+68     	; 0xd2 <__bad_interrupt>
      8e:	00 00       	nop
      90:	20 c0       	rjmp	.+64     	; 0xd2 <__bad_interrupt>
	...

00000094 <__ctors_end>:
      94:	11 24       	eor	r1, r1
      96:	1f be       	out	0x3f, r1	; 63
      98:	cf ef       	ldi	r28, 0xFF	; 255
      9a:	d0 e1       	ldi	r29, 0x10	; 16
      9c:	de bf       	out	0x3e, r29	; 62
      9e:	cd bf       	out	0x3d, r28	; 61

000000a0 <__do_copy_data>:
      a0:	12 e0       	ldi	r17, 0x02	; 2
      a2:	a0 e0       	ldi	r26, 0x00	; 0
      a4:	b1 e0       	ldi	r27, 0x01	; 1
      a6:	e8 e5       	ldi	r30, 0x58	; 88
      a8:	fe e8       	ldi	r31, 0x8E	; 142
      aa:	00 e0       	ldi	r16, 0x00	; 0
      ac:	0b bf       	out	0x3b, r16	; 59
      ae:	02 c0       	rjmp	.+4      	; 0xb4 <__do_copy_data+0x14>
      b0:	07 90       	elpm	r0, Z+
      b2:	0d 92       	st	X+, r0
      b4:	a2 3e       	cpi	r26, 0xE2	; 226
      b6:	b1 07       	cpc	r27, r17
      b8:	d9 f7       	brne	.-10     	; 0xb0 <__do_copy_data+0x10>

000000ba <__do_clear_bss>:
      ba:	14 e0       	ldi	r17, 0x04	; 4
      bc:	a2 ee       	ldi	r26, 0xE2	; 226
      be:	b2 e0       	ldi	r27, 0x02	; 2
      c0:	01 c0       	rjmp	.+2      	; 0xc4 <.do_clear_bss_start>

000000c2 <.do_clear_bss_loop>:
      c2:	1d 92       	st	X+, r1

000000c4 <.do_clear_bss_start>:
      c4:	a4 36       	cpi	r26, 0x64	; 100
      c6:	b1 07       	cpc	r27, r17
      c8:	e1 f7       	brne	.-8      	; 0xc2 <.do_clear_bss_loop>
      ca:	0e 94 a1 23 	call	0x4742	; 0x4742 <main>
      ce:	0c 94 2a 47 	jmp	0x8e54	; 0x8e54 <_exit>

000000d2 <__bad_interrupt>:
      d2:	96 cf       	rjmp	.-212    	; 0x0 <__vectors>

000000d4 <__udivdi3>:
      d4:	ae e5       	ldi	r26, 0x5E	; 94
      d6:	b0 e0       	ldi	r27, 0x00	; 0
      d8:	e0 e7       	ldi	r30, 0x70	; 112
      da:	f0 e0       	ldi	r31, 0x00	; 0
      dc:	0c 94 34 43 	jmp	0x8668	; 0x8668 <__prologue_saves__>
      e0:	a8 e0       	ldi	r26, 0x08	; 8
      e2:	4e 01       	movw	r8, r28
      e4:	08 94       	sec
      e6:	81 1c       	adc	r8, r1
      e8:	91 1c       	adc	r9, r1
      ea:	f4 01       	movw	r30, r8
      ec:	6a 2e       	mov	r6, r26
      ee:	11 92       	st	Z+, r1
      f0:	6a 94       	dec	r6
      f2:	e9 f7       	brne	.-6      	; 0xee <__udivdi3+0x1a>
      f4:	29 83       	std	Y+1, r18	; 0x01
      f6:	3a 83       	std	Y+2, r19	; 0x02
      f8:	4b 83       	std	Y+3, r20	; 0x03
      fa:	5c 83       	std	Y+4, r21	; 0x04
      fc:	6d 83       	std	Y+5, r22	; 0x05
      fe:	7e 83       	std	Y+6, r23	; 0x06
     100:	8f 83       	std	Y+7, r24	; 0x07
     102:	98 87       	std	Y+8, r25	; 0x08
     104:	ce 01       	movw	r24, r28
     106:	09 96       	adiw	r24, 0x09	; 9
     108:	fc 01       	movw	r30, r24
     10a:	11 92       	st	Z+, r1
     10c:	aa 95       	dec	r26
     10e:	e9 f7       	brne	.-6      	; 0x10a <__udivdi3+0x36>
     110:	a9 86       	std	Y+9, r10	; 0x09
     112:	ba 86       	std	Y+10, r11	; 0x0a
     114:	cb 86       	std	Y+11, r12	; 0x0b
     116:	dc 86       	std	Y+12, r13	; 0x0c
     118:	ed 86       	std	Y+13, r14	; 0x0d
     11a:	fe 86       	std	Y+14, r15	; 0x0e
     11c:	0f 87       	std	Y+15, r16	; 0x0f
     11e:	18 8b       	std	Y+16, r17	; 0x10
     120:	29 84       	ldd	r2, Y+9	; 0x09
     122:	3a 84       	ldd	r3, Y+10	; 0x0a
     124:	4b 84       	ldd	r4, Y+11	; 0x0b
     126:	5c 84       	ldd	r5, Y+12	; 0x0c
     128:	ed 84       	ldd	r14, Y+13	; 0x0d
     12a:	fe 84       	ldd	r15, Y+14	; 0x0e
     12c:	0f 85       	ldd	r16, Y+15	; 0x0f
     12e:	18 89       	ldd	r17, Y+16	; 0x10
     130:	69 80       	ldd	r6, Y+1	; 0x01
     132:	7a 80       	ldd	r7, Y+2	; 0x02
     134:	8b 80       	ldd	r8, Y+3	; 0x03
     136:	9c 80       	ldd	r9, Y+4	; 0x04
     138:	6d a6       	std	Y+45, r6	; 0x2d
     13a:	7e a6       	std	Y+46, r7	; 0x2e
     13c:	8f a6       	std	Y+47, r8	; 0x2f
     13e:	98 aa       	std	Y+48, r9	; 0x30
     140:	6d 80       	ldd	r6, Y+5	; 0x05
     142:	7e 80       	ldd	r7, Y+6	; 0x06
     144:	8f 80       	ldd	r8, Y+7	; 0x07
     146:	98 84       	ldd	r9, Y+8	; 0x08
     148:	e1 14       	cp	r14, r1
     14a:	f1 04       	cpc	r15, r1
     14c:	01 05       	cpc	r16, r1
     14e:	11 05       	cpc	r17, r1
     150:	09 f0       	breq	.+2      	; 0x154 <__udivdi3+0x80>
     152:	b3 c3       	rjmp	.+1894   	; 0x8ba <__udivdi3+0x7e6>
     154:	62 14       	cp	r6, r2
     156:	73 04       	cpc	r7, r3
     158:	84 04       	cpc	r8, r4
     15a:	95 04       	cpc	r9, r5
     15c:	08 f0       	brcs	.+2      	; 0x160 <__udivdi3+0x8c>
     15e:	3d c1       	rjmp	.+634    	; 0x3da <__udivdi3+0x306>
     160:	00 e0       	ldi	r16, 0x00	; 0
     162:	20 16       	cp	r2, r16
     164:	00 e0       	ldi	r16, 0x00	; 0
     166:	30 06       	cpc	r3, r16
     168:	01 e0       	ldi	r16, 0x01	; 1
     16a:	40 06       	cpc	r4, r16
     16c:	00 e0       	ldi	r16, 0x00	; 0
     16e:	50 06       	cpc	r5, r16
     170:	88 f4       	brcc	.+34     	; 0x194 <__udivdi3+0xc0>
     172:	1f ef       	ldi	r17, 0xFF	; 255
     174:	21 16       	cp	r2, r17
     176:	31 04       	cpc	r3, r1
     178:	41 04       	cpc	r4, r1
     17a:	51 04       	cpc	r5, r1
     17c:	39 f0       	breq	.+14     	; 0x18c <__udivdi3+0xb8>
     17e:	30 f0       	brcs	.+12     	; 0x18c <__udivdi3+0xb8>
     180:	48 e0       	ldi	r20, 0x08	; 8
     182:	e4 2e       	mov	r14, r20
     184:	f1 2c       	mov	r15, r1
     186:	01 2d       	mov	r16, r1
     188:	11 2d       	mov	r17, r1
     18a:	18 c0       	rjmp	.+48     	; 0x1bc <__udivdi3+0xe8>
     18c:	ee 24       	eor	r14, r14
     18e:	ff 24       	eor	r15, r15
     190:	87 01       	movw	r16, r14
     192:	14 c0       	rjmp	.+40     	; 0x1bc <__udivdi3+0xe8>
     194:	20 e0       	ldi	r18, 0x00	; 0
     196:	22 16       	cp	r2, r18
     198:	20 e0       	ldi	r18, 0x00	; 0
     19a:	32 06       	cpc	r3, r18
     19c:	20 e0       	ldi	r18, 0x00	; 0
     19e:	42 06       	cpc	r4, r18
     1a0:	21 e0       	ldi	r18, 0x01	; 1
     1a2:	52 06       	cpc	r5, r18
     1a4:	30 f0       	brcs	.+12     	; 0x1b2 <__udivdi3+0xde>
     1a6:	38 e1       	ldi	r19, 0x18	; 24
     1a8:	e3 2e       	mov	r14, r19
     1aa:	f1 2c       	mov	r15, r1
     1ac:	01 2d       	mov	r16, r1
     1ae:	11 2d       	mov	r17, r1
     1b0:	05 c0       	rjmp	.+10     	; 0x1bc <__udivdi3+0xe8>
     1b2:	20 e1       	ldi	r18, 0x10	; 16
     1b4:	e2 2e       	mov	r14, r18
     1b6:	f1 2c       	mov	r15, r1
     1b8:	01 2d       	mov	r16, r1
     1ba:	11 2d       	mov	r17, r1
     1bc:	d2 01       	movw	r26, r4
     1be:	c1 01       	movw	r24, r2
     1c0:	0e 2c       	mov	r0, r14
     1c2:	04 c0       	rjmp	.+8      	; 0x1cc <__udivdi3+0xf8>
     1c4:	b6 95       	lsr	r27
     1c6:	a7 95       	ror	r26
     1c8:	97 95       	ror	r25
     1ca:	87 95       	ror	r24
     1cc:	0a 94       	dec	r0
     1ce:	d2 f7       	brpl	.-12     	; 0x1c4 <__udivdi3+0xf0>
     1d0:	80 50       	subi	r24, 0x00	; 0
     1d2:	9f 4f       	sbci	r25, 0xFF	; 255
     1d4:	dc 01       	movw	r26, r24
     1d6:	2c 91       	ld	r18, X
     1d8:	80 e2       	ldi	r24, 0x20	; 32
     1da:	90 e0       	ldi	r25, 0x00	; 0
     1dc:	a0 e0       	ldi	r26, 0x00	; 0
     1de:	b0 e0       	ldi	r27, 0x00	; 0
     1e0:	8e 19       	sub	r24, r14
     1e2:	9f 09       	sbc	r25, r15
     1e4:	a0 0b       	sbc	r26, r16
     1e6:	b1 0b       	sbc	r27, r17
     1e8:	7c 01       	movw	r14, r24
     1ea:	8d 01       	movw	r16, r26
     1ec:	e2 1a       	sub	r14, r18
     1ee:	f1 08       	sbc	r15, r1
     1f0:	01 09       	sbc	r16, r1
     1f2:	11 09       	sbc	r17, r1
     1f4:	e1 14       	cp	r14, r1
     1f6:	f1 04       	cpc	r15, r1
     1f8:	01 05       	cpc	r16, r1
     1fa:	11 05       	cpc	r17, r1
     1fc:	a1 f1       	breq	.+104    	; 0x266 <__udivdi3+0x192>
     1fe:	0e 2c       	mov	r0, r14
     200:	04 c0       	rjmp	.+8      	; 0x20a <__udivdi3+0x136>
     202:	22 0c       	add	r2, r2
     204:	33 1c       	adc	r3, r3
     206:	44 1c       	adc	r4, r4
     208:	55 1c       	adc	r5, r5
     20a:	0a 94       	dec	r0
     20c:	d2 f7       	brpl	.-12     	; 0x202 <__udivdi3+0x12e>
     20e:	a4 01       	movw	r20, r8
     210:	93 01       	movw	r18, r6
     212:	0e 2c       	mov	r0, r14
     214:	04 c0       	rjmp	.+8      	; 0x21e <__udivdi3+0x14a>
     216:	22 0f       	add	r18, r18
     218:	33 1f       	adc	r19, r19
     21a:	44 1f       	adc	r20, r20
     21c:	55 1f       	adc	r21, r21
     21e:	0a 94       	dec	r0
     220:	d2 f7       	brpl	.-12     	; 0x216 <__udivdi3+0x142>
     222:	80 e2       	ldi	r24, 0x20	; 32
     224:	90 e0       	ldi	r25, 0x00	; 0
     226:	8e 19       	sub	r24, r14
     228:	9f 09       	sbc	r25, r15
     22a:	6d a4       	ldd	r6, Y+45	; 0x2d
     22c:	7e a4       	ldd	r7, Y+46	; 0x2e
     22e:	8f a4       	ldd	r8, Y+47	; 0x2f
     230:	98 a8       	ldd	r9, Y+48	; 0x30
     232:	04 c0       	rjmp	.+8      	; 0x23c <__udivdi3+0x168>
     234:	96 94       	lsr	r9
     236:	87 94       	ror	r8
     238:	77 94       	ror	r7
     23a:	67 94       	ror	r6
     23c:	8a 95       	dec	r24
     23e:	d2 f7       	brpl	.-12     	; 0x234 <__udivdi3+0x160>
     240:	62 2a       	or	r6, r18
     242:	73 2a       	or	r7, r19
     244:	84 2a       	or	r8, r20
     246:	95 2a       	or	r9, r21
     248:	ad a4       	ldd	r10, Y+45	; 0x2d
     24a:	be a4       	ldd	r11, Y+46	; 0x2e
     24c:	cf a4       	ldd	r12, Y+47	; 0x2f
     24e:	d8 a8       	ldd	r13, Y+48	; 0x30
     250:	04 c0       	rjmp	.+8      	; 0x25a <__udivdi3+0x186>
     252:	aa 0c       	add	r10, r10
     254:	bb 1c       	adc	r11, r11
     256:	cc 1c       	adc	r12, r12
     258:	dd 1c       	adc	r13, r13
     25a:	ea 94       	dec	r14
     25c:	d2 f7       	brpl	.-12     	; 0x252 <__udivdi3+0x17e>
     25e:	ad a6       	std	Y+45, r10	; 0x2d
     260:	be a6       	std	Y+46, r11	; 0x2e
     262:	cf a6       	std	Y+47, r12	; 0x2f
     264:	d8 aa       	std	Y+48, r13	; 0x30
     266:	62 01       	movw	r12, r4
     268:	ee 24       	eor	r14, r14
     26a:	ff 24       	eor	r15, r15
     26c:	cd aa       	std	Y+53, r12	; 0x35
     26e:	de aa       	std	Y+54, r13	; 0x36
     270:	ef aa       	std	Y+55, r14	; 0x37
     272:	f8 ae       	std	Y+56, r15	; 0x38
     274:	92 01       	movw	r18, r4
     276:	81 01       	movw	r16, r2
     278:	20 70       	andi	r18, 0x00	; 0
     27a:	30 70       	andi	r19, 0x00	; 0
     27c:	09 af       	std	Y+57, r16	; 0x39
     27e:	1a af       	std	Y+58, r17	; 0x3a
     280:	2b af       	std	Y+59, r18	; 0x3b
     282:	3c af       	std	Y+60, r19	; 0x3c
     284:	c4 01       	movw	r24, r8
     286:	b3 01       	movw	r22, r6
     288:	a7 01       	movw	r20, r14
     28a:	96 01       	movw	r18, r12
     28c:	0e 94 f3 42 	call	0x85e6	; 0x85e6 <__udivmodsi4>
     290:	7b 01       	movw	r14, r22
     292:	8c 01       	movw	r16, r24
     294:	c4 01       	movw	r24, r8
     296:	b3 01       	movw	r22, r6
     298:	2d a9       	ldd	r18, Y+53	; 0x35
     29a:	3e a9       	ldd	r19, Y+54	; 0x36
     29c:	4f a9       	ldd	r20, Y+55	; 0x37
     29e:	58 ad       	ldd	r21, Y+56	; 0x38
     2a0:	0e 94 f3 42 	call	0x85e6	; 0x85e6 <__udivmodsi4>
     2a4:	c9 01       	movw	r24, r18
     2a6:	da 01       	movw	r26, r20
     2a8:	3c 01       	movw	r6, r24
     2aa:	4d 01       	movw	r8, r26
     2ac:	c4 01       	movw	r24, r8
     2ae:	b3 01       	movw	r22, r6
     2b0:	29 ad       	ldd	r18, Y+57	; 0x39
     2b2:	3a ad       	ldd	r19, Y+58	; 0x3a
     2b4:	4b ad       	ldd	r20, Y+59	; 0x3b
     2b6:	5c ad       	ldd	r21, Y+60	; 0x3c
     2b8:	0e 94 15 43 	call	0x862a	; 0x862a <__mulsi3>
     2bc:	9b 01       	movw	r18, r22
     2be:	ac 01       	movw	r20, r24
     2c0:	87 01       	movw	r16, r14
     2c2:	ff 24       	eor	r15, r15
     2c4:	ee 24       	eor	r14, r14
     2c6:	ad a4       	ldd	r10, Y+45	; 0x2d
     2c8:	be a4       	ldd	r11, Y+46	; 0x2e
     2ca:	cf a4       	ldd	r12, Y+47	; 0x2f
     2cc:	d8 a8       	ldd	r13, Y+48	; 0x30
     2ce:	c6 01       	movw	r24, r12
     2d0:	aa 27       	eor	r26, r26
     2d2:	bb 27       	eor	r27, r27
     2d4:	57 01       	movw	r10, r14
     2d6:	68 01       	movw	r12, r16
     2d8:	a8 2a       	or	r10, r24
     2da:	b9 2a       	or	r11, r25
     2dc:	ca 2a       	or	r12, r26
     2de:	db 2a       	or	r13, r27
     2e0:	a2 16       	cp	r10, r18
     2e2:	b3 06       	cpc	r11, r19
     2e4:	c4 06       	cpc	r12, r20
     2e6:	d5 06       	cpc	r13, r21
     2e8:	e0 f4       	brcc	.+56     	; 0x322 <__udivdi3+0x24e>
     2ea:	08 94       	sec
     2ec:	61 08       	sbc	r6, r1
     2ee:	71 08       	sbc	r7, r1
     2f0:	81 08       	sbc	r8, r1
     2f2:	91 08       	sbc	r9, r1
     2f4:	a2 0c       	add	r10, r2
     2f6:	b3 1c       	adc	r11, r3
     2f8:	c4 1c       	adc	r12, r4
     2fa:	d5 1c       	adc	r13, r5
     2fc:	a2 14       	cp	r10, r2
     2fe:	b3 04       	cpc	r11, r3
     300:	c4 04       	cpc	r12, r4
     302:	d5 04       	cpc	r13, r5
     304:	70 f0       	brcs	.+28     	; 0x322 <__udivdi3+0x24e>
     306:	a2 16       	cp	r10, r18
     308:	b3 06       	cpc	r11, r19
     30a:	c4 06       	cpc	r12, r20
     30c:	d5 06       	cpc	r13, r21
     30e:	48 f4       	brcc	.+18     	; 0x322 <__udivdi3+0x24e>
     310:	08 94       	sec
     312:	61 08       	sbc	r6, r1
     314:	71 08       	sbc	r7, r1
     316:	81 08       	sbc	r8, r1
     318:	91 08       	sbc	r9, r1
     31a:	a2 0c       	add	r10, r2
     31c:	b3 1c       	adc	r11, r3
     31e:	c4 1c       	adc	r12, r4
     320:	d5 1c       	adc	r13, r5
     322:	a2 1a       	sub	r10, r18
     324:	b3 0a       	sbc	r11, r19
     326:	c4 0a       	sbc	r12, r20
     328:	d5 0a       	sbc	r13, r21
     32a:	c6 01       	movw	r24, r12
     32c:	b5 01       	movw	r22, r10
     32e:	2d a9       	ldd	r18, Y+53	; 0x35
     330:	3e a9       	ldd	r19, Y+54	; 0x36
     332:	4f a9       	ldd	r20, Y+55	; 0x37
     334:	58 ad       	ldd	r21, Y+56	; 0x38
     336:	0e 94 f3 42 	call	0x85e6	; 0x85e6 <__udivmodsi4>
     33a:	7b 01       	movw	r14, r22
     33c:	8c 01       	movw	r16, r24
     33e:	c6 01       	movw	r24, r12
     340:	b5 01       	movw	r22, r10
     342:	2d a9       	ldd	r18, Y+53	; 0x35
     344:	3e a9       	ldd	r19, Y+54	; 0x36
     346:	4f a9       	ldd	r20, Y+55	; 0x37
     348:	58 ad       	ldd	r21, Y+56	; 0x38
     34a:	0e 94 f3 42 	call	0x85e6	; 0x85e6 <__udivmodsi4>
     34e:	c9 01       	movw	r24, r18
     350:	da 01       	movw	r26, r20
     352:	5c 01       	movw	r10, r24
     354:	6d 01       	movw	r12, r26
     356:	c6 01       	movw	r24, r12
     358:	b5 01       	movw	r22, r10
     35a:	29 ad       	ldd	r18, Y+57	; 0x39
     35c:	3a ad       	ldd	r19, Y+58	; 0x3a
     35e:	4b ad       	ldd	r20, Y+59	; 0x3b
     360:	5c ad       	ldd	r21, Y+60	; 0x3c
     362:	0e 94 15 43 	call	0x862a	; 0x862a <__mulsi3>
     366:	9b 01       	movw	r18, r22
     368:	ac 01       	movw	r20, r24
     36a:	87 01       	movw	r16, r14
     36c:	ff 24       	eor	r15, r15
     36e:	ee 24       	eor	r14, r14
     370:	8d a5       	ldd	r24, Y+45	; 0x2d
     372:	9e a5       	ldd	r25, Y+46	; 0x2e
     374:	af a5       	ldd	r26, Y+47	; 0x2f
     376:	b8 a9       	ldd	r27, Y+48	; 0x30
     378:	a0 70       	andi	r26, 0x00	; 0
     37a:	b0 70       	andi	r27, 0x00	; 0
     37c:	e8 2a       	or	r14, r24
     37e:	f9 2a       	or	r15, r25
     380:	0a 2b       	or	r16, r26
     382:	1b 2b       	or	r17, r27
     384:	e2 16       	cp	r14, r18
     386:	f3 06       	cpc	r15, r19
     388:	04 07       	cpc	r16, r20
     38a:	15 07       	cpc	r17, r21
     38c:	c0 f4       	brcc	.+48     	; 0x3be <__udivdi3+0x2ea>
     38e:	08 94       	sec
     390:	a1 08       	sbc	r10, r1
     392:	b1 08       	sbc	r11, r1
     394:	c1 08       	sbc	r12, r1
     396:	d1 08       	sbc	r13, r1
     398:	e2 0c       	add	r14, r2
     39a:	f3 1c       	adc	r15, r3
     39c:	04 1d       	adc	r16, r4
     39e:	15 1d       	adc	r17, r5
     3a0:	e2 14       	cp	r14, r2
     3a2:	f3 04       	cpc	r15, r3
     3a4:	04 05       	cpc	r16, r4
     3a6:	15 05       	cpc	r17, r5
     3a8:	50 f0       	brcs	.+20     	; 0x3be <__udivdi3+0x2ea>
     3aa:	e2 16       	cp	r14, r18
     3ac:	f3 06       	cpc	r15, r19
     3ae:	04 07       	cpc	r16, r20
     3b0:	15 07       	cpc	r17, r21
     3b2:	28 f4       	brcc	.+10     	; 0x3be <__udivdi3+0x2ea>
     3b4:	08 94       	sec
     3b6:	a1 08       	sbc	r10, r1
     3b8:	b1 08       	sbc	r11, r1
     3ba:	c1 08       	sbc	r12, r1
     3bc:	d1 08       	sbc	r13, r1
     3be:	d3 01       	movw	r26, r6
     3c0:	99 27       	eor	r25, r25
     3c2:	88 27       	eor	r24, r24
     3c4:	86 01       	movw	r16, r12
     3c6:	75 01       	movw	r14, r10
     3c8:	e8 2a       	or	r14, r24
     3ca:	f9 2a       	or	r15, r25
     3cc:	0a 2b       	or	r16, r26
     3ce:	1b 2b       	or	r17, r27
     3d0:	e9 aa       	std	Y+49, r14	; 0x31
     3d2:	fa aa       	std	Y+50, r15	; 0x32
     3d4:	0b ab       	std	Y+51, r16	; 0x33
     3d6:	1c ab       	std	Y+52, r17	; 0x34
     3d8:	cf c4       	rjmp	.+2462   	; 0xd78 <__udivdi3+0xca4>
     3da:	21 14       	cp	r2, r1
     3dc:	31 04       	cpc	r3, r1
     3de:	41 04       	cpc	r4, r1
     3e0:	51 04       	cpc	r5, r1
     3e2:	71 f4       	brne	.+28     	; 0x400 <__udivdi3+0x32c>
     3e4:	61 e0       	ldi	r22, 0x01	; 1
     3e6:	70 e0       	ldi	r23, 0x00	; 0
     3e8:	80 e0       	ldi	r24, 0x00	; 0
     3ea:	90 e0       	ldi	r25, 0x00	; 0
     3ec:	20 e0       	ldi	r18, 0x00	; 0
     3ee:	30 e0       	ldi	r19, 0x00	; 0
     3f0:	40 e0       	ldi	r20, 0x00	; 0
     3f2:	50 e0       	ldi	r21, 0x00	; 0
     3f4:	0e 94 f3 42 	call	0x85e6	; 0x85e6 <__udivmodsi4>
     3f8:	c9 01       	movw	r24, r18
     3fa:	da 01       	movw	r26, r20
     3fc:	1c 01       	movw	r2, r24
     3fe:	2d 01       	movw	r4, r26
     400:	00 e0       	ldi	r16, 0x00	; 0
     402:	20 16       	cp	r2, r16
     404:	00 e0       	ldi	r16, 0x00	; 0
     406:	30 06       	cpc	r3, r16
     408:	01 e0       	ldi	r16, 0x01	; 1
     40a:	40 06       	cpc	r4, r16
     40c:	00 e0       	ldi	r16, 0x00	; 0
     40e:	50 06       	cpc	r5, r16
     410:	88 f4       	brcc	.+34     	; 0x434 <__udivdi3+0x360>
     412:	1f ef       	ldi	r17, 0xFF	; 255
     414:	21 16       	cp	r2, r17
     416:	31 04       	cpc	r3, r1
     418:	41 04       	cpc	r4, r1
     41a:	51 04       	cpc	r5, r1
     41c:	31 f0       	breq	.+12     	; 0x42a <__udivdi3+0x356>
     41e:	28 f0       	brcs	.+10     	; 0x42a <__udivdi3+0x356>
     420:	48 e0       	ldi	r20, 0x08	; 8
     422:	50 e0       	ldi	r21, 0x00	; 0
     424:	60 e0       	ldi	r22, 0x00	; 0
     426:	70 e0       	ldi	r23, 0x00	; 0
     428:	17 c0       	rjmp	.+46     	; 0x458 <__udivdi3+0x384>
     42a:	40 e0       	ldi	r20, 0x00	; 0
     42c:	50 e0       	ldi	r21, 0x00	; 0
     42e:	60 e0       	ldi	r22, 0x00	; 0
     430:	70 e0       	ldi	r23, 0x00	; 0
     432:	12 c0       	rjmp	.+36     	; 0x458 <__udivdi3+0x384>
     434:	20 e0       	ldi	r18, 0x00	; 0
     436:	22 16       	cp	r2, r18
     438:	20 e0       	ldi	r18, 0x00	; 0
     43a:	32 06       	cpc	r3, r18
     43c:	20 e0       	ldi	r18, 0x00	; 0
     43e:	42 06       	cpc	r4, r18
     440:	21 e0       	ldi	r18, 0x01	; 1
     442:	52 06       	cpc	r5, r18
     444:	28 f0       	brcs	.+10     	; 0x450 <__udivdi3+0x37c>
     446:	48 e1       	ldi	r20, 0x18	; 24
     448:	50 e0       	ldi	r21, 0x00	; 0
     44a:	60 e0       	ldi	r22, 0x00	; 0
     44c:	70 e0       	ldi	r23, 0x00	; 0
     44e:	04 c0       	rjmp	.+8      	; 0x458 <__udivdi3+0x384>
     450:	40 e1       	ldi	r20, 0x10	; 16
     452:	50 e0       	ldi	r21, 0x00	; 0
     454:	60 e0       	ldi	r22, 0x00	; 0
     456:	70 e0       	ldi	r23, 0x00	; 0
     458:	d2 01       	movw	r26, r4
     45a:	c1 01       	movw	r24, r2
     45c:	04 2e       	mov	r0, r20
     45e:	04 c0       	rjmp	.+8      	; 0x468 <__udivdi3+0x394>
     460:	b6 95       	lsr	r27
     462:	a7 95       	ror	r26
     464:	97 95       	ror	r25
     466:	87 95       	ror	r24
     468:	0a 94       	dec	r0
     46a:	d2 f7       	brpl	.-12     	; 0x460 <__udivdi3+0x38c>
     46c:	80 50       	subi	r24, 0x00	; 0
     46e:	9f 4f       	sbci	r25, 0xFF	; 255
     470:	dc 01       	movw	r26, r24
     472:	2c 91       	ld	r18, X
     474:	e0 e2       	ldi	r30, 0x20	; 32
     476:	ee 2e       	mov	r14, r30
     478:	f1 2c       	mov	r15, r1
     47a:	01 2d       	mov	r16, r1
     47c:	11 2d       	mov	r17, r1
     47e:	d8 01       	movw	r26, r16
     480:	c7 01       	movw	r24, r14
     482:	84 1b       	sub	r24, r20
     484:	95 0b       	sbc	r25, r21
     486:	a6 0b       	sbc	r26, r22
     488:	b7 0b       	sbc	r27, r23
     48a:	82 1b       	sub	r24, r18
     48c:	91 09       	sbc	r25, r1
     48e:	a1 09       	sbc	r26, r1
     490:	b1 09       	sbc	r27, r1
     492:	00 97       	sbiw	r24, 0x00	; 0
     494:	a1 05       	cpc	r26, r1
     496:	b1 05       	cpc	r27, r1
     498:	61 f4       	brne	.+24     	; 0x4b2 <__udivdi3+0x3de>
     49a:	64 01       	movw	r12, r8
     49c:	53 01       	movw	r10, r6
     49e:	a2 18       	sub	r10, r2
     4a0:	b3 08       	sbc	r11, r3
     4a2:	c4 08       	sbc	r12, r4
     4a4:	d5 08       	sbc	r13, r5
     4a6:	31 e0       	ldi	r19, 0x01	; 1
     4a8:	63 2e       	mov	r6, r19
     4aa:	71 2c       	mov	r7, r1
     4ac:	81 2c       	mov	r8, r1
     4ae:	91 2c       	mov	r9, r1
     4b0:	1e c1       	rjmp	.+572    	; 0x6ee <__udivdi3+0x61a>
     4b2:	6f 96       	adiw	r28, 0x1f	; 31
     4b4:	8f af       	std	Y+63, r24	; 0x3f
     4b6:	6f 97       	sbiw	r28, 0x1f	; 31
     4b8:	08 2e       	mov	r0, r24
     4ba:	04 c0       	rjmp	.+8      	; 0x4c4 <__udivdi3+0x3f0>
     4bc:	22 0c       	add	r2, r2
     4be:	33 1c       	adc	r3, r3
     4c0:	44 1c       	adc	r4, r4
     4c2:	55 1c       	adc	r5, r5
     4c4:	0a 94       	dec	r0
     4c6:	d2 f7       	brpl	.-12     	; 0x4bc <__udivdi3+0x3e8>
     4c8:	ee 2d       	mov	r30, r14
     4ca:	e8 1b       	sub	r30, r24
     4cc:	64 01       	movw	r12, r8
     4ce:	53 01       	movw	r10, r6
     4d0:	0e 2e       	mov	r0, r30
     4d2:	04 c0       	rjmp	.+8      	; 0x4dc <__udivdi3+0x408>
     4d4:	d6 94       	lsr	r13
     4d6:	c7 94       	ror	r12
     4d8:	b7 94       	ror	r11
     4da:	a7 94       	ror	r10
     4dc:	0a 94       	dec	r0
     4de:	d2 f7       	brpl	.-12     	; 0x4d4 <__udivdi3+0x400>
     4e0:	a4 01       	movw	r20, r8
     4e2:	93 01       	movw	r18, r6
     4e4:	6f 96       	adiw	r28, 0x1f	; 31
     4e6:	0f ac       	ldd	r0, Y+63	; 0x3f
     4e8:	6f 97       	sbiw	r28, 0x1f	; 31
     4ea:	04 c0       	rjmp	.+8      	; 0x4f4 <__udivdi3+0x420>
     4ec:	22 0f       	add	r18, r18
     4ee:	33 1f       	adc	r19, r19
     4f0:	44 1f       	adc	r20, r20
     4f2:	55 1f       	adc	r21, r21
     4f4:	0a 94       	dec	r0
     4f6:	d2 f7       	brpl	.-12     	; 0x4ec <__udivdi3+0x418>
     4f8:	6d a4       	ldd	r6, Y+45	; 0x2d
     4fa:	7e a4       	ldd	r7, Y+46	; 0x2e
     4fc:	8f a4       	ldd	r8, Y+47	; 0x2f
     4fe:	98 a8       	ldd	r9, Y+48	; 0x30
     500:	0e 2e       	mov	r0, r30
     502:	04 c0       	rjmp	.+8      	; 0x50c <__udivdi3+0x438>
     504:	96 94       	lsr	r9
     506:	87 94       	ror	r8
     508:	77 94       	ror	r7
     50a:	67 94       	ror	r6
     50c:	0a 94       	dec	r0
     50e:	d2 f7       	brpl	.-12     	; 0x504 <__udivdi3+0x430>
     510:	84 01       	movw	r16, r8
     512:	73 01       	movw	r14, r6
     514:	e2 2a       	or	r14, r18
     516:	f3 2a       	or	r15, r19
     518:	04 2b       	or	r16, r20
     51a:	15 2b       	or	r17, r21
     51c:	e9 a6       	std	Y+41, r14	; 0x29
     51e:	fa a6       	std	Y+42, r15	; 0x2a
     520:	0b a7       	std	Y+43, r16	; 0x2b
     522:	1c a7       	std	Y+44, r17	; 0x2c
     524:	32 01       	movw	r6, r4
     526:	88 24       	eor	r8, r8
     528:	99 24       	eor	r9, r9
     52a:	92 01       	movw	r18, r4
     52c:	81 01       	movw	r16, r2
     52e:	20 70       	andi	r18, 0x00	; 0
     530:	30 70       	andi	r19, 0x00	; 0
     532:	21 96       	adiw	r28, 0x01	; 1
     534:	0c af       	std	Y+60, r16	; 0x3c
     536:	1d af       	std	Y+61, r17	; 0x3d
     538:	2e af       	std	Y+62, r18	; 0x3e
     53a:	3f af       	std	Y+63, r19	; 0x3f
     53c:	21 97       	sbiw	r28, 0x01	; 1
     53e:	c6 01       	movw	r24, r12
     540:	b5 01       	movw	r22, r10
     542:	a4 01       	movw	r20, r8
     544:	93 01       	movw	r18, r6
     546:	0e 94 f3 42 	call	0x85e6	; 0x85e6 <__udivmodsi4>
     54a:	7b 01       	movw	r14, r22
     54c:	8c 01       	movw	r16, r24
     54e:	c6 01       	movw	r24, r12
     550:	b5 01       	movw	r22, r10
     552:	a4 01       	movw	r20, r8
     554:	93 01       	movw	r18, r6
     556:	0e 94 f3 42 	call	0x85e6	; 0x85e6 <__udivmodsi4>
     55a:	c9 01       	movw	r24, r18
     55c:	da 01       	movw	r26, r20
     55e:	25 96       	adiw	r28, 0x05	; 5
     560:	8c af       	std	Y+60, r24	; 0x3c
     562:	9d af       	std	Y+61, r25	; 0x3d
     564:	ae af       	std	Y+62, r26	; 0x3e
     566:	bf af       	std	Y+63, r27	; 0x3f
     568:	25 97       	sbiw	r28, 0x05	; 5
     56a:	bc 01       	movw	r22, r24
     56c:	cd 01       	movw	r24, r26
     56e:	21 96       	adiw	r28, 0x01	; 1
     570:	2c ad       	ldd	r18, Y+60	; 0x3c
     572:	3d ad       	ldd	r19, Y+61	; 0x3d
     574:	4e ad       	ldd	r20, Y+62	; 0x3e
     576:	5f ad       	ldd	r21, Y+63	; 0x3f
     578:	21 97       	sbiw	r28, 0x01	; 1
     57a:	0e 94 15 43 	call	0x862a	; 0x862a <__mulsi3>
     57e:	9b 01       	movw	r18, r22
     580:	ac 01       	movw	r20, r24
     582:	87 01       	movw	r16, r14
     584:	ff 24       	eor	r15, r15
     586:	ee 24       	eor	r14, r14
     588:	a9 a4       	ldd	r10, Y+41	; 0x29
     58a:	ba a4       	ldd	r11, Y+42	; 0x2a
     58c:	cb a4       	ldd	r12, Y+43	; 0x2b
     58e:	dc a4       	ldd	r13, Y+44	; 0x2c
     590:	c6 01       	movw	r24, r12
     592:	aa 27       	eor	r26, r26
     594:	bb 27       	eor	r27, r27
     596:	5c 01       	movw	r10, r24
     598:	6d 01       	movw	r12, r26
     59a:	ae 28       	or	r10, r14
     59c:	bf 28       	or	r11, r15
     59e:	c0 2a       	or	r12, r16
     5a0:	d1 2a       	or	r13, r17
     5a2:	a2 16       	cp	r10, r18
     5a4:	b3 06       	cpc	r11, r19
     5a6:	c4 06       	cpc	r12, r20
     5a8:	d5 06       	cpc	r13, r21
     5aa:	60 f5       	brcc	.+88     	; 0x604 <__udivdi3+0x530>
     5ac:	25 96       	adiw	r28, 0x05	; 5
     5ae:	6c ad       	ldd	r22, Y+60	; 0x3c
     5b0:	7d ad       	ldd	r23, Y+61	; 0x3d
     5b2:	8e ad       	ldd	r24, Y+62	; 0x3e
     5b4:	9f ad       	ldd	r25, Y+63	; 0x3f
     5b6:	25 97       	sbiw	r28, 0x05	; 5
     5b8:	61 50       	subi	r22, 0x01	; 1
     5ba:	70 40       	sbci	r23, 0x00	; 0
     5bc:	80 40       	sbci	r24, 0x00	; 0
     5be:	90 40       	sbci	r25, 0x00	; 0
     5c0:	25 96       	adiw	r28, 0x05	; 5
     5c2:	6c af       	std	Y+60, r22	; 0x3c
     5c4:	7d af       	std	Y+61, r23	; 0x3d
     5c6:	8e af       	std	Y+62, r24	; 0x3e
     5c8:	9f af       	std	Y+63, r25	; 0x3f
     5ca:	25 97       	sbiw	r28, 0x05	; 5
     5cc:	a2 0c       	add	r10, r2
     5ce:	b3 1c       	adc	r11, r3
     5d0:	c4 1c       	adc	r12, r4
     5d2:	d5 1c       	adc	r13, r5
     5d4:	a2 14       	cp	r10, r2
     5d6:	b3 04       	cpc	r11, r3
     5d8:	c4 04       	cpc	r12, r4
     5da:	d5 04       	cpc	r13, r5
     5dc:	98 f0       	brcs	.+38     	; 0x604 <__udivdi3+0x530>
     5de:	a2 16       	cp	r10, r18
     5e0:	b3 06       	cpc	r11, r19
     5e2:	c4 06       	cpc	r12, r20
     5e4:	d5 06       	cpc	r13, r21
     5e6:	70 f4       	brcc	.+28     	; 0x604 <__udivdi3+0x530>
     5e8:	61 50       	subi	r22, 0x01	; 1
     5ea:	70 40       	sbci	r23, 0x00	; 0
     5ec:	80 40       	sbci	r24, 0x00	; 0
     5ee:	90 40       	sbci	r25, 0x00	; 0
     5f0:	25 96       	adiw	r28, 0x05	; 5
     5f2:	6c af       	std	Y+60, r22	; 0x3c
     5f4:	7d af       	std	Y+61, r23	; 0x3d
     5f6:	8e af       	std	Y+62, r24	; 0x3e
     5f8:	9f af       	std	Y+63, r25	; 0x3f
     5fa:	25 97       	sbiw	r28, 0x05	; 5
     5fc:	a2 0c       	add	r10, r2
     5fe:	b3 1c       	adc	r11, r3
     600:	c4 1c       	adc	r12, r4
     602:	d5 1c       	adc	r13, r5
     604:	a2 1a       	sub	r10, r18
     606:	b3 0a       	sbc	r11, r19
     608:	c4 0a       	sbc	r12, r20
     60a:	d5 0a       	sbc	r13, r21
     60c:	c6 01       	movw	r24, r12
     60e:	b5 01       	movw	r22, r10
     610:	a4 01       	movw	r20, r8
     612:	93 01       	movw	r18, r6
     614:	0e 94 f3 42 	call	0x85e6	; 0x85e6 <__udivmodsi4>
     618:	7b 01       	movw	r14, r22
     61a:	8c 01       	movw	r16, r24
     61c:	c6 01       	movw	r24, r12
     61e:	b5 01       	movw	r22, r10
     620:	a4 01       	movw	r20, r8
     622:	93 01       	movw	r18, r6
     624:	0e 94 f3 42 	call	0x85e6	; 0x85e6 <__udivmodsi4>
     628:	c9 01       	movw	r24, r18
     62a:	da 01       	movw	r26, r20
     62c:	3c 01       	movw	r6, r24
     62e:	4d 01       	movw	r8, r26
     630:	c4 01       	movw	r24, r8
     632:	b3 01       	movw	r22, r6
     634:	21 96       	adiw	r28, 0x01	; 1
     636:	2c ad       	ldd	r18, Y+60	; 0x3c
     638:	3d ad       	ldd	r19, Y+61	; 0x3d
     63a:	4e ad       	ldd	r20, Y+62	; 0x3e
     63c:	5f ad       	ldd	r21, Y+63	; 0x3f
     63e:	21 97       	sbiw	r28, 0x01	; 1
     640:	0e 94 15 43 	call	0x862a	; 0x862a <__mulsi3>
     644:	9b 01       	movw	r18, r22
     646:	ac 01       	movw	r20, r24
     648:	87 01       	movw	r16, r14
     64a:	ff 24       	eor	r15, r15
     64c:	ee 24       	eor	r14, r14
     64e:	89 a5       	ldd	r24, Y+41	; 0x29
     650:	9a a5       	ldd	r25, Y+42	; 0x2a
     652:	ab a5       	ldd	r26, Y+43	; 0x2b
     654:	bc a5       	ldd	r27, Y+44	; 0x2c
     656:	a0 70       	andi	r26, 0x00	; 0
     658:	b0 70       	andi	r27, 0x00	; 0
     65a:	57 01       	movw	r10, r14
     65c:	68 01       	movw	r12, r16
     65e:	a8 2a       	or	r10, r24
     660:	b9 2a       	or	r11, r25
     662:	ca 2a       	or	r12, r26
     664:	db 2a       	or	r13, r27
     666:	a2 16       	cp	r10, r18
     668:	b3 06       	cpc	r11, r19
     66a:	c4 06       	cpc	r12, r20
     66c:	d5 06       	cpc	r13, r21
     66e:	e0 f4       	brcc	.+56     	; 0x6a8 <__udivdi3+0x5d4>
     670:	08 94       	sec
     672:	61 08       	sbc	r6, r1
     674:	71 08       	sbc	r7, r1
     676:	81 08       	sbc	r8, r1
     678:	91 08       	sbc	r9, r1
     67a:	a2 0c       	add	r10, r2
     67c:	b3 1c       	adc	r11, r3
     67e:	c4 1c       	adc	r12, r4
     680:	d5 1c       	adc	r13, r5
     682:	a2 14       	cp	r10, r2
     684:	b3 04       	cpc	r11, r3
     686:	c4 04       	cpc	r12, r4
     688:	d5 04       	cpc	r13, r5
     68a:	70 f0       	brcs	.+28     	; 0x6a8 <__udivdi3+0x5d4>
     68c:	a2 16       	cp	r10, r18
     68e:	b3 06       	cpc	r11, r19
     690:	c4 06       	cpc	r12, r20
     692:	d5 06       	cpc	r13, r21
     694:	48 f4       	brcc	.+18     	; 0x6a8 <__udivdi3+0x5d4>
     696:	08 94       	sec
     698:	61 08       	sbc	r6, r1
     69a:	71 08       	sbc	r7, r1
     69c:	81 08       	sbc	r8, r1
     69e:	91 08       	sbc	r9, r1
     6a0:	a2 0c       	add	r10, r2
     6a2:	b3 1c       	adc	r11, r3
     6a4:	c4 1c       	adc	r12, r4
     6a6:	d5 1c       	adc	r13, r5
     6a8:	8d a5       	ldd	r24, Y+45	; 0x2d
     6aa:	9e a5       	ldd	r25, Y+46	; 0x2e
     6ac:	af a5       	ldd	r26, Y+47	; 0x2f
     6ae:	b8 a9       	ldd	r27, Y+48	; 0x30
     6b0:	6f 96       	adiw	r28, 0x1f	; 31
     6b2:	0f ac       	ldd	r0, Y+63	; 0x3f
     6b4:	6f 97       	sbiw	r28, 0x1f	; 31
     6b6:	04 c0       	rjmp	.+8      	; 0x6c0 <__udivdi3+0x5ec>
     6b8:	88 0f       	add	r24, r24
     6ba:	99 1f       	adc	r25, r25
     6bc:	aa 1f       	adc	r26, r26
     6be:	bb 1f       	adc	r27, r27
     6c0:	0a 94       	dec	r0
     6c2:	d2 f7       	brpl	.-12     	; 0x6b8 <__udivdi3+0x5e4>
     6c4:	8d a7       	std	Y+45, r24	; 0x2d
     6c6:	9e a7       	std	Y+46, r25	; 0x2e
     6c8:	af a7       	std	Y+47, r26	; 0x2f
     6ca:	b8 ab       	std	Y+48, r27	; 0x30
     6cc:	a2 1a       	sub	r10, r18
     6ce:	b3 0a       	sbc	r11, r19
     6d0:	c4 0a       	sbc	r12, r20
     6d2:	d5 0a       	sbc	r13, r21
     6d4:	25 96       	adiw	r28, 0x05	; 5
     6d6:	ec ac       	ldd	r14, Y+60	; 0x3c
     6d8:	fd ac       	ldd	r15, Y+61	; 0x3d
     6da:	0e ad       	ldd	r16, Y+62	; 0x3e
     6dc:	1f ad       	ldd	r17, Y+63	; 0x3f
     6de:	25 97       	sbiw	r28, 0x05	; 5
     6e0:	d7 01       	movw	r26, r14
     6e2:	99 27       	eor	r25, r25
     6e4:	88 27       	eor	r24, r24
     6e6:	68 2a       	or	r6, r24
     6e8:	79 2a       	or	r7, r25
     6ea:	8a 2a       	or	r8, r26
     6ec:	9b 2a       	or	r9, r27
     6ee:	82 01       	movw	r16, r4
     6f0:	22 27       	eor	r18, r18
     6f2:	33 27       	eor	r19, r19
     6f4:	29 96       	adiw	r28, 0x09	; 9
     6f6:	0c af       	std	Y+60, r16	; 0x3c
     6f8:	1d af       	std	Y+61, r17	; 0x3d
     6fa:	2e af       	std	Y+62, r18	; 0x3e
     6fc:	3f af       	std	Y+63, r19	; 0x3f
     6fe:	29 97       	sbiw	r28, 0x09	; 9
     700:	a2 01       	movw	r20, r4
     702:	91 01       	movw	r18, r2
     704:	40 70       	andi	r20, 0x00	; 0
     706:	50 70       	andi	r21, 0x00	; 0
     708:	2d 96       	adiw	r28, 0x0d	; 13
     70a:	2c af       	std	Y+60, r18	; 0x3c
     70c:	3d af       	std	Y+61, r19	; 0x3d
     70e:	4e af       	std	Y+62, r20	; 0x3e
     710:	5f af       	std	Y+63, r21	; 0x3f
     712:	2d 97       	sbiw	r28, 0x0d	; 13
     714:	c6 01       	movw	r24, r12
     716:	b5 01       	movw	r22, r10
     718:	29 96       	adiw	r28, 0x09	; 9
     71a:	2c ad       	ldd	r18, Y+60	; 0x3c
     71c:	3d ad       	ldd	r19, Y+61	; 0x3d
     71e:	4e ad       	ldd	r20, Y+62	; 0x3e
     720:	5f ad       	ldd	r21, Y+63	; 0x3f
     722:	29 97       	sbiw	r28, 0x09	; 9
     724:	0e 94 f3 42 	call	0x85e6	; 0x85e6 <__udivmodsi4>
     728:	7b 01       	movw	r14, r22
     72a:	8c 01       	movw	r16, r24
     72c:	c6 01       	movw	r24, r12
     72e:	b5 01       	movw	r22, r10
     730:	29 96       	adiw	r28, 0x09	; 9
     732:	2c ad       	ldd	r18, Y+60	; 0x3c
     734:	3d ad       	ldd	r19, Y+61	; 0x3d
     736:	4e ad       	ldd	r20, Y+62	; 0x3e
     738:	5f ad       	ldd	r21, Y+63	; 0x3f
     73a:	29 97       	sbiw	r28, 0x09	; 9
     73c:	0e 94 f3 42 	call	0x85e6	; 0x85e6 <__udivmodsi4>
     740:	c9 01       	movw	r24, r18
     742:	da 01       	movw	r26, r20
     744:	61 96       	adiw	r28, 0x11	; 17
     746:	8c af       	std	Y+60, r24	; 0x3c
     748:	9d af       	std	Y+61, r25	; 0x3d
     74a:	ae af       	std	Y+62, r26	; 0x3e
     74c:	bf af       	std	Y+63, r27	; 0x3f
     74e:	61 97       	sbiw	r28, 0x11	; 17
     750:	bc 01       	movw	r22, r24
     752:	cd 01       	movw	r24, r26
     754:	2d 96       	adiw	r28, 0x0d	; 13
     756:	2c ad       	ldd	r18, Y+60	; 0x3c
     758:	3d ad       	ldd	r19, Y+61	; 0x3d
     75a:	4e ad       	ldd	r20, Y+62	; 0x3e
     75c:	5f ad       	ldd	r21, Y+63	; 0x3f
     75e:	2d 97       	sbiw	r28, 0x0d	; 13
     760:	0e 94 15 43 	call	0x862a	; 0x862a <__mulsi3>
     764:	9b 01       	movw	r18, r22
     766:	ac 01       	movw	r20, r24
     768:	87 01       	movw	r16, r14
     76a:	ff 24       	eor	r15, r15
     76c:	ee 24       	eor	r14, r14
     76e:	ad a4       	ldd	r10, Y+45	; 0x2d
     770:	be a4       	ldd	r11, Y+46	; 0x2e
     772:	cf a4       	ldd	r12, Y+47	; 0x2f
     774:	d8 a8       	ldd	r13, Y+48	; 0x30
     776:	c6 01       	movw	r24, r12
     778:	aa 27       	eor	r26, r26
     77a:	bb 27       	eor	r27, r27
     77c:	57 01       	movw	r10, r14
     77e:	68 01       	movw	r12, r16
     780:	a8 2a       	or	r10, r24
     782:	b9 2a       	or	r11, r25
     784:	ca 2a       	or	r12, r26
     786:	db 2a       	or	r13, r27
     788:	a2 16       	cp	r10, r18
     78a:	b3 06       	cpc	r11, r19
     78c:	c4 06       	cpc	r12, r20
     78e:	d5 06       	cpc	r13, r21
     790:	60 f5       	brcc	.+88     	; 0x7ea <__udivdi3+0x716>
     792:	61 96       	adiw	r28, 0x11	; 17
     794:	6c ad       	ldd	r22, Y+60	; 0x3c
     796:	7d ad       	ldd	r23, Y+61	; 0x3d
     798:	8e ad       	ldd	r24, Y+62	; 0x3e
     79a:	9f ad       	ldd	r25, Y+63	; 0x3f
     79c:	61 97       	sbiw	r28, 0x11	; 17
     79e:	61 50       	subi	r22, 0x01	; 1
     7a0:	70 40       	sbci	r23, 0x00	; 0
     7a2:	80 40       	sbci	r24, 0x00	; 0
     7a4:	90 40       	sbci	r25, 0x00	; 0
     7a6:	61 96       	adiw	r28, 0x11	; 17
     7a8:	6c af       	std	Y+60, r22	; 0x3c
     7aa:	7d af       	std	Y+61, r23	; 0x3d
     7ac:	8e af       	std	Y+62, r24	; 0x3e
     7ae:	9f af       	std	Y+63, r25	; 0x3f
     7b0:	61 97       	sbiw	r28, 0x11	; 17
     7b2:	a2 0c       	add	r10, r2
     7b4:	b3 1c       	adc	r11, r3
     7b6:	c4 1c       	adc	r12, r4
     7b8:	d5 1c       	adc	r13, r5
     7ba:	a2 14       	cp	r10, r2
     7bc:	b3 04       	cpc	r11, r3
     7be:	c4 04       	cpc	r12, r4
     7c0:	d5 04       	cpc	r13, r5
     7c2:	98 f0       	brcs	.+38     	; 0x7ea <__udivdi3+0x716>
     7c4:	a2 16       	cp	r10, r18
     7c6:	b3 06       	cpc	r11, r19
     7c8:	c4 06       	cpc	r12, r20
     7ca:	d5 06       	cpc	r13, r21
     7cc:	70 f4       	brcc	.+28     	; 0x7ea <__udivdi3+0x716>
     7ce:	61 50       	subi	r22, 0x01	; 1
     7d0:	70 40       	sbci	r23, 0x00	; 0
     7d2:	80 40       	sbci	r24, 0x00	; 0
     7d4:	90 40       	sbci	r25, 0x00	; 0
     7d6:	61 96       	adiw	r28, 0x11	; 17
     7d8:	6c af       	std	Y+60, r22	; 0x3c
     7da:	7d af       	std	Y+61, r23	; 0x3d
     7dc:	8e af       	std	Y+62, r24	; 0x3e
     7de:	9f af       	std	Y+63, r25	; 0x3f
     7e0:	61 97       	sbiw	r28, 0x11	; 17
     7e2:	a2 0c       	add	r10, r2
     7e4:	b3 1c       	adc	r11, r3
     7e6:	c4 1c       	adc	r12, r4
     7e8:	d5 1c       	adc	r13, r5
     7ea:	a2 1a       	sub	r10, r18
     7ec:	b3 0a       	sbc	r11, r19
     7ee:	c4 0a       	sbc	r12, r20
     7f0:	d5 0a       	sbc	r13, r21
     7f2:	c6 01       	movw	r24, r12
     7f4:	b5 01       	movw	r22, r10
     7f6:	29 96       	adiw	r28, 0x09	; 9
     7f8:	2c ad       	ldd	r18, Y+60	; 0x3c
     7fa:	3d ad       	ldd	r19, Y+61	; 0x3d
     7fc:	4e ad       	ldd	r20, Y+62	; 0x3e
     7fe:	5f ad       	ldd	r21, Y+63	; 0x3f
     800:	29 97       	sbiw	r28, 0x09	; 9
     802:	0e 94 f3 42 	call	0x85e6	; 0x85e6 <__udivmodsi4>
     806:	7b 01       	movw	r14, r22
     808:	8c 01       	movw	r16, r24
     80a:	c6 01       	movw	r24, r12
     80c:	b5 01       	movw	r22, r10
     80e:	29 96       	adiw	r28, 0x09	; 9
     810:	2c ad       	ldd	r18, Y+60	; 0x3c
     812:	3d ad       	ldd	r19, Y+61	; 0x3d
     814:	4e ad       	ldd	r20, Y+62	; 0x3e
     816:	5f ad       	ldd	r21, Y+63	; 0x3f
     818:	29 97       	sbiw	r28, 0x09	; 9
     81a:	0e 94 f3 42 	call	0x85e6	; 0x85e6 <__udivmodsi4>
     81e:	c9 01       	movw	r24, r18
     820:	da 01       	movw	r26, r20
     822:	5c 01       	movw	r10, r24
     824:	6d 01       	movw	r12, r26
     826:	c6 01       	movw	r24, r12
     828:	b5 01       	movw	r22, r10
     82a:	2d 96       	adiw	r28, 0x0d	; 13
     82c:	2c ad       	ldd	r18, Y+60	; 0x3c
     82e:	3d ad       	ldd	r19, Y+61	; 0x3d
     830:	4e ad       	ldd	r20, Y+62	; 0x3e
     832:	5f ad       	ldd	r21, Y+63	; 0x3f
     834:	2d 97       	sbiw	r28, 0x0d	; 13
     836:	0e 94 15 43 	call	0x862a	; 0x862a <__mulsi3>
     83a:	9b 01       	movw	r18, r22
     83c:	ac 01       	movw	r20, r24
     83e:	87 01       	movw	r16, r14
     840:	ff 24       	eor	r15, r15
     842:	ee 24       	eor	r14, r14
     844:	8d a5       	ldd	r24, Y+45	; 0x2d
     846:	9e a5       	ldd	r25, Y+46	; 0x2e
     848:	af a5       	ldd	r26, Y+47	; 0x2f
     84a:	b8 a9       	ldd	r27, Y+48	; 0x30
     84c:	a0 70       	andi	r26, 0x00	; 0
     84e:	b0 70       	andi	r27, 0x00	; 0
     850:	e8 2a       	or	r14, r24
     852:	f9 2a       	or	r15, r25
     854:	0a 2b       	or	r16, r26
     856:	1b 2b       	or	r17, r27
     858:	e2 16       	cp	r14, r18
     85a:	f3 06       	cpc	r15, r19
     85c:	04 07       	cpc	r16, r20
     85e:	15 07       	cpc	r17, r21
     860:	c0 f4       	brcc	.+48     	; 0x892 <__udivdi3+0x7be>
     862:	08 94       	sec
     864:	a1 08       	sbc	r10, r1
     866:	b1 08       	sbc	r11, r1
     868:	c1 08       	sbc	r12, r1
     86a:	d1 08       	sbc	r13, r1
     86c:	e2 0c       	add	r14, r2
     86e:	f3 1c       	adc	r15, r3
     870:	04 1d       	adc	r16, r4
     872:	15 1d       	adc	r17, r5
     874:	e2 14       	cp	r14, r2
     876:	f3 04       	cpc	r15, r3
     878:	04 05       	cpc	r16, r4
     87a:	15 05       	cpc	r17, r5
     87c:	50 f0       	brcs	.+20     	; 0x892 <__udivdi3+0x7be>
     87e:	e2 16       	cp	r14, r18
     880:	f3 06       	cpc	r15, r19
     882:	04 07       	cpc	r16, r20
     884:	15 07       	cpc	r17, r21
     886:	28 f4       	brcc	.+10     	; 0x892 <__udivdi3+0x7be>
     888:	08 94       	sec
     88a:	a1 08       	sbc	r10, r1
     88c:	b1 08       	sbc	r11, r1
     88e:	c1 08       	sbc	r12, r1
     890:	d1 08       	sbc	r13, r1
     892:	61 96       	adiw	r28, 0x11	; 17
     894:	ec ac       	ldd	r14, Y+60	; 0x3c
     896:	fd ac       	ldd	r15, Y+61	; 0x3d
     898:	0e ad       	ldd	r16, Y+62	; 0x3e
     89a:	1f ad       	ldd	r17, Y+63	; 0x3f
     89c:	61 97       	sbiw	r28, 0x11	; 17
     89e:	d7 01       	movw	r26, r14
     8a0:	99 27       	eor	r25, r25
     8a2:	88 27       	eor	r24, r24
     8a4:	96 01       	movw	r18, r12
     8a6:	85 01       	movw	r16, r10
     8a8:	08 2b       	or	r16, r24
     8aa:	19 2b       	or	r17, r25
     8ac:	2a 2b       	or	r18, r26
     8ae:	3b 2b       	or	r19, r27
     8b0:	09 ab       	std	Y+49, r16	; 0x31
     8b2:	1a ab       	std	Y+50, r17	; 0x32
     8b4:	2b ab       	std	Y+51, r18	; 0x33
     8b6:	3c ab       	std	Y+52, r19	; 0x34
     8b8:	62 c2       	rjmp	.+1220   	; 0xd7e <__udivdi3+0xcaa>
     8ba:	6e 14       	cp	r6, r14
     8bc:	7f 04       	cpc	r7, r15
     8be:	80 06       	cpc	r8, r16
     8c0:	91 06       	cpc	r9, r17
     8c2:	08 f4       	brcc	.+2      	; 0x8c6 <__udivdi3+0x7f2>
     8c4:	51 c2       	rjmp	.+1186   	; 0xd68 <__udivdi3+0xc94>
     8c6:	20 e0       	ldi	r18, 0x00	; 0
     8c8:	e2 16       	cp	r14, r18
     8ca:	20 e0       	ldi	r18, 0x00	; 0
     8cc:	f2 06       	cpc	r15, r18
     8ce:	21 e0       	ldi	r18, 0x01	; 1
     8d0:	02 07       	cpc	r16, r18
     8d2:	20 e0       	ldi	r18, 0x00	; 0
     8d4:	12 07       	cpc	r17, r18
     8d6:	88 f4       	brcc	.+34     	; 0x8fa <__udivdi3+0x826>
     8d8:	3f ef       	ldi	r19, 0xFF	; 255
     8da:	e3 16       	cp	r14, r19
     8dc:	f1 04       	cpc	r15, r1
     8de:	01 05       	cpc	r16, r1
     8e0:	11 05       	cpc	r17, r1
     8e2:	31 f0       	breq	.+12     	; 0x8f0 <__udivdi3+0x81c>
     8e4:	28 f0       	brcs	.+10     	; 0x8f0 <__udivdi3+0x81c>
     8e6:	48 e0       	ldi	r20, 0x08	; 8
     8e8:	50 e0       	ldi	r21, 0x00	; 0
     8ea:	60 e0       	ldi	r22, 0x00	; 0
     8ec:	70 e0       	ldi	r23, 0x00	; 0
     8ee:	17 c0       	rjmp	.+46     	; 0x91e <__udivdi3+0x84a>
     8f0:	40 e0       	ldi	r20, 0x00	; 0
     8f2:	50 e0       	ldi	r21, 0x00	; 0
     8f4:	60 e0       	ldi	r22, 0x00	; 0
     8f6:	70 e0       	ldi	r23, 0x00	; 0
     8f8:	12 c0       	rjmp	.+36     	; 0x91e <__udivdi3+0x84a>
     8fa:	40 e0       	ldi	r20, 0x00	; 0
     8fc:	e4 16       	cp	r14, r20
     8fe:	40 e0       	ldi	r20, 0x00	; 0
     900:	f4 06       	cpc	r15, r20
     902:	40 e0       	ldi	r20, 0x00	; 0
     904:	04 07       	cpc	r16, r20
     906:	41 e0       	ldi	r20, 0x01	; 1
     908:	14 07       	cpc	r17, r20
     90a:	28 f0       	brcs	.+10     	; 0x916 <__udivdi3+0x842>
     90c:	48 e1       	ldi	r20, 0x18	; 24
     90e:	50 e0       	ldi	r21, 0x00	; 0
     910:	60 e0       	ldi	r22, 0x00	; 0
     912:	70 e0       	ldi	r23, 0x00	; 0
     914:	04 c0       	rjmp	.+8      	; 0x91e <__udivdi3+0x84a>
     916:	40 e1       	ldi	r20, 0x10	; 16
     918:	50 e0       	ldi	r21, 0x00	; 0
     91a:	60 e0       	ldi	r22, 0x00	; 0
     91c:	70 e0       	ldi	r23, 0x00	; 0
     91e:	d8 01       	movw	r26, r16
     920:	c7 01       	movw	r24, r14
     922:	04 2e       	mov	r0, r20
     924:	04 c0       	rjmp	.+8      	; 0x92e <__udivdi3+0x85a>
     926:	b6 95       	lsr	r27
     928:	a7 95       	ror	r26
     92a:	97 95       	ror	r25
     92c:	87 95       	ror	r24
     92e:	0a 94       	dec	r0
     930:	d2 f7       	brpl	.-12     	; 0x926 <__udivdi3+0x852>
     932:	80 50       	subi	r24, 0x00	; 0
     934:	9f 4f       	sbci	r25, 0xFF	; 255
     936:	dc 01       	movw	r26, r24
     938:	2c 91       	ld	r18, X
     93a:	30 e2       	ldi	r19, 0x20	; 32
     93c:	a3 2e       	mov	r10, r19
     93e:	b1 2c       	mov	r11, r1
     940:	c1 2c       	mov	r12, r1
     942:	d1 2c       	mov	r13, r1
     944:	d6 01       	movw	r26, r12
     946:	c5 01       	movw	r24, r10
     948:	84 1b       	sub	r24, r20
     94a:	95 0b       	sbc	r25, r21
     94c:	a6 0b       	sbc	r26, r22
     94e:	b7 0b       	sbc	r27, r23
     950:	82 1b       	sub	r24, r18
     952:	91 09       	sbc	r25, r1
     954:	a1 09       	sbc	r26, r1
     956:	b1 09       	sbc	r27, r1
     958:	00 97       	sbiw	r24, 0x00	; 0
     95a:	a1 05       	cpc	r26, r1
     95c:	b1 05       	cpc	r27, r1
     95e:	89 f4       	brne	.+34     	; 0x982 <__udivdi3+0x8ae>
     960:	e6 14       	cp	r14, r6
     962:	f7 04       	cpc	r15, r7
     964:	08 05       	cpc	r16, r8
     966:	19 05       	cpc	r17, r9
     968:	08 f4       	brcc	.+2      	; 0x96c <__udivdi3+0x898>
     96a:	f2 c1       	rjmp	.+996    	; 0xd50 <__udivdi3+0xc7c>
     96c:	6d a4       	ldd	r6, Y+45	; 0x2d
     96e:	7e a4       	ldd	r7, Y+46	; 0x2e
     970:	8f a4       	ldd	r8, Y+47	; 0x2f
     972:	98 a8       	ldd	r9, Y+48	; 0x30
     974:	62 14       	cp	r6, r2
     976:	73 04       	cpc	r7, r3
     978:	84 04       	cpc	r8, r4
     97a:	95 04       	cpc	r9, r5
     97c:	08 f0       	brcs	.+2      	; 0x980 <__udivdi3+0x8ac>
     97e:	e8 c1       	rjmp	.+976    	; 0xd50 <__udivdi3+0xc7c>
     980:	f3 c1       	rjmp	.+998    	; 0xd68 <__udivdi3+0xc94>
     982:	6e 96       	adiw	r28, 0x1e	; 30
     984:	8f af       	std	Y+63, r24	; 0x3f
     986:	6e 97       	sbiw	r28, 0x1e	; 30
     988:	08 2e       	mov	r0, r24
     98a:	04 c0       	rjmp	.+8      	; 0x994 <__udivdi3+0x8c0>
     98c:	ee 0c       	add	r14, r14
     98e:	ff 1c       	adc	r15, r15
     990:	00 1f       	adc	r16, r16
     992:	11 1f       	adc	r17, r17
     994:	0a 94       	dec	r0
     996:	d2 f7       	brpl	.-12     	; 0x98c <__udivdi3+0x8b8>
     998:	6a 2d       	mov	r22, r10
     99a:	68 1b       	sub	r22, r24
     99c:	d2 01       	movw	r26, r4
     99e:	c1 01       	movw	r24, r2
     9a0:	06 2e       	mov	r0, r22
     9a2:	04 c0       	rjmp	.+8      	; 0x9ac <__udivdi3+0x8d8>
     9a4:	b6 95       	lsr	r27
     9a6:	a7 95       	ror	r26
     9a8:	97 95       	ror	r25
     9aa:	87 95       	ror	r24
     9ac:	0a 94       	dec	r0
     9ae:	d2 f7       	brpl	.-12     	; 0x9a4 <__udivdi3+0x8d0>
     9b0:	5c 01       	movw	r10, r24
     9b2:	6d 01       	movw	r12, r26
     9b4:	ae 28       	or	r10, r14
     9b6:	bf 28       	or	r11, r15
     9b8:	c0 2a       	or	r12, r16
     9ba:	d1 2a       	or	r13, r17
     9bc:	ad a2       	std	Y+37, r10	; 0x25
     9be:	be a2       	std	Y+38, r11	; 0x26
     9c0:	cf a2       	std	Y+39, r12	; 0x27
     9c2:	d8 a6       	std	Y+40, r13	; 0x28
     9c4:	72 01       	movw	r14, r4
     9c6:	61 01       	movw	r12, r2
     9c8:	6e 96       	adiw	r28, 0x1e	; 30
     9ca:	0f ac       	ldd	r0, Y+63	; 0x3f
     9cc:	6e 97       	sbiw	r28, 0x1e	; 30
     9ce:	04 c0       	rjmp	.+8      	; 0x9d8 <__udivdi3+0x904>
     9d0:	cc 0c       	add	r12, r12
     9d2:	dd 1c       	adc	r13, r13
     9d4:	ee 1c       	adc	r14, r14
     9d6:	ff 1c       	adc	r15, r15
     9d8:	0a 94       	dec	r0
     9da:	d2 f7       	brpl	.-12     	; 0x9d0 <__udivdi3+0x8fc>
     9dc:	c9 a2       	std	Y+33, r12	; 0x21
     9de:	da a2       	std	Y+34, r13	; 0x22
     9e0:	eb a2       	std	Y+35, r14	; 0x23
     9e2:	fc a2       	std	Y+36, r15	; 0x24
     9e4:	64 01       	movw	r12, r8
     9e6:	53 01       	movw	r10, r6
     9e8:	06 2e       	mov	r0, r22
     9ea:	04 c0       	rjmp	.+8      	; 0x9f4 <__udivdi3+0x920>
     9ec:	d6 94       	lsr	r13
     9ee:	c7 94       	ror	r12
     9f0:	b7 94       	ror	r11
     9f2:	a7 94       	ror	r10
     9f4:	0a 94       	dec	r0
     9f6:	d2 f7       	brpl	.-12     	; 0x9ec <__udivdi3+0x918>
     9f8:	d4 01       	movw	r26, r8
     9fa:	c3 01       	movw	r24, r6
     9fc:	6e 96       	adiw	r28, 0x1e	; 30
     9fe:	0f ac       	ldd	r0, Y+63	; 0x3f
     a00:	6e 97       	sbiw	r28, 0x1e	; 30
     a02:	04 c0       	rjmp	.+8      	; 0xa0c <__udivdi3+0x938>
     a04:	88 0f       	add	r24, r24
     a06:	99 1f       	adc	r25, r25
     a08:	aa 1f       	adc	r26, r26
     a0a:	bb 1f       	adc	r27, r27
     a0c:	0a 94       	dec	r0
     a0e:	d2 f7       	brpl	.-12     	; 0xa04 <__udivdi3+0x930>
     a10:	ed a4       	ldd	r14, Y+45	; 0x2d
     a12:	fe a4       	ldd	r15, Y+46	; 0x2e
     a14:	0f a5       	ldd	r16, Y+47	; 0x2f
     a16:	18 a9       	ldd	r17, Y+48	; 0x30
     a18:	04 c0       	rjmp	.+8      	; 0xa22 <__udivdi3+0x94e>
     a1a:	16 95       	lsr	r17
     a1c:	07 95       	ror	r16
     a1e:	f7 94       	ror	r15
     a20:	e7 94       	ror	r14
     a22:	6a 95       	dec	r22
     a24:	d2 f7       	brpl	.-12     	; 0xa1a <__udivdi3+0x946>
     a26:	37 01       	movw	r6, r14
     a28:	48 01       	movw	r8, r16
     a2a:	68 2a       	or	r6, r24
     a2c:	79 2a       	or	r7, r25
     a2e:	8a 2a       	or	r8, r26
     a30:	9b 2a       	or	r9, r27
     a32:	6d 8e       	std	Y+29, r6	; 0x1d
     a34:	7e 8e       	std	Y+30, r7	; 0x1e
     a36:	8f 8e       	std	Y+31, r8	; 0x1f
     a38:	98 a2       	std	Y+32, r9	; 0x20
     a3a:	ed a0       	ldd	r14, Y+37	; 0x25
     a3c:	fe a0       	ldd	r15, Y+38	; 0x26
     a3e:	0f a1       	ldd	r16, Y+39	; 0x27
     a40:	18 a5       	ldd	r17, Y+40	; 0x28
     a42:	38 01       	movw	r6, r16
     a44:	88 24       	eor	r8, r8
     a46:	99 24       	eor	r9, r9
     a48:	98 01       	movw	r18, r16
     a4a:	87 01       	movw	r16, r14
     a4c:	20 70       	andi	r18, 0x00	; 0
     a4e:	30 70       	andi	r19, 0x00	; 0
     a50:	65 96       	adiw	r28, 0x15	; 21
     a52:	0c af       	std	Y+60, r16	; 0x3c
     a54:	1d af       	std	Y+61, r17	; 0x3d
     a56:	2e af       	std	Y+62, r18	; 0x3e
     a58:	3f af       	std	Y+63, r19	; 0x3f
     a5a:	65 97       	sbiw	r28, 0x15	; 21
     a5c:	c6 01       	movw	r24, r12
     a5e:	b5 01       	movw	r22, r10
     a60:	a4 01       	movw	r20, r8
     a62:	93 01       	movw	r18, r6
     a64:	0e 94 f3 42 	call	0x85e6	; 0x85e6 <__udivmodsi4>
     a68:	7b 01       	movw	r14, r22
     a6a:	8c 01       	movw	r16, r24
     a6c:	c6 01       	movw	r24, r12
     a6e:	b5 01       	movw	r22, r10
     a70:	a4 01       	movw	r20, r8
     a72:	93 01       	movw	r18, r6
     a74:	0e 94 f3 42 	call	0x85e6	; 0x85e6 <__udivmodsi4>
     a78:	c9 01       	movw	r24, r18
     a7a:	da 01       	movw	r26, r20
     a7c:	1c 01       	movw	r2, r24
     a7e:	2d 01       	movw	r4, r26
     a80:	c2 01       	movw	r24, r4
     a82:	b1 01       	movw	r22, r2
     a84:	65 96       	adiw	r28, 0x15	; 21
     a86:	2c ad       	ldd	r18, Y+60	; 0x3c
     a88:	3d ad       	ldd	r19, Y+61	; 0x3d
     a8a:	4e ad       	ldd	r20, Y+62	; 0x3e
     a8c:	5f ad       	ldd	r21, Y+63	; 0x3f
     a8e:	65 97       	sbiw	r28, 0x15	; 21
     a90:	0e 94 15 43 	call	0x862a	; 0x862a <__mulsi3>
     a94:	9b 01       	movw	r18, r22
     a96:	ac 01       	movw	r20, r24
     a98:	87 01       	movw	r16, r14
     a9a:	ff 24       	eor	r15, r15
     a9c:	ee 24       	eor	r14, r14
     a9e:	ad 8c       	ldd	r10, Y+29	; 0x1d
     aa0:	be 8c       	ldd	r11, Y+30	; 0x1e
     aa2:	cf 8c       	ldd	r12, Y+31	; 0x1f
     aa4:	d8 a0       	ldd	r13, Y+32	; 0x20
     aa6:	c6 01       	movw	r24, r12
     aa8:	aa 27       	eor	r26, r26
     aaa:	bb 27       	eor	r27, r27
     aac:	57 01       	movw	r10, r14
     aae:	68 01       	movw	r12, r16
     ab0:	a8 2a       	or	r10, r24
     ab2:	b9 2a       	or	r11, r25
     ab4:	ca 2a       	or	r12, r26
     ab6:	db 2a       	or	r13, r27
     ab8:	a2 16       	cp	r10, r18
     aba:	b3 06       	cpc	r11, r19
     abc:	c4 06       	cpc	r12, r20
     abe:	d5 06       	cpc	r13, r21
     ac0:	00 f5       	brcc	.+64     	; 0xb02 <__udivdi3+0xa2e>
     ac2:	08 94       	sec
     ac4:	21 08       	sbc	r2, r1
     ac6:	31 08       	sbc	r3, r1
     ac8:	41 08       	sbc	r4, r1
     aca:	51 08       	sbc	r5, r1
     acc:	ed a0       	ldd	r14, Y+37	; 0x25
     ace:	fe a0       	ldd	r15, Y+38	; 0x26
     ad0:	0f a1       	ldd	r16, Y+39	; 0x27
     ad2:	18 a5       	ldd	r17, Y+40	; 0x28
     ad4:	ae 0c       	add	r10, r14
     ad6:	bf 1c       	adc	r11, r15
     ad8:	c0 1e       	adc	r12, r16
     ada:	d1 1e       	adc	r13, r17
     adc:	ae 14       	cp	r10, r14
     ade:	bf 04       	cpc	r11, r15
     ae0:	c0 06       	cpc	r12, r16
     ae2:	d1 06       	cpc	r13, r17
     ae4:	70 f0       	brcs	.+28     	; 0xb02 <__udivdi3+0xa2e>
     ae6:	a2 16       	cp	r10, r18
     ae8:	b3 06       	cpc	r11, r19
     aea:	c4 06       	cpc	r12, r20
     aec:	d5 06       	cpc	r13, r21
     aee:	48 f4       	brcc	.+18     	; 0xb02 <__udivdi3+0xa2e>
     af0:	08 94       	sec
     af2:	21 08       	sbc	r2, r1
     af4:	31 08       	sbc	r3, r1
     af6:	41 08       	sbc	r4, r1
     af8:	51 08       	sbc	r5, r1
     afa:	ae 0c       	add	r10, r14
     afc:	bf 1c       	adc	r11, r15
     afe:	c0 1e       	adc	r12, r16
     b00:	d1 1e       	adc	r13, r17
     b02:	a2 1a       	sub	r10, r18
     b04:	b3 0a       	sbc	r11, r19
     b06:	c4 0a       	sbc	r12, r20
     b08:	d5 0a       	sbc	r13, r21
     b0a:	c6 01       	movw	r24, r12
     b0c:	b5 01       	movw	r22, r10
     b0e:	a4 01       	movw	r20, r8
     b10:	93 01       	movw	r18, r6
     b12:	0e 94 f3 42 	call	0x85e6	; 0x85e6 <__udivmodsi4>
     b16:	7b 01       	movw	r14, r22
     b18:	8c 01       	movw	r16, r24
     b1a:	c6 01       	movw	r24, r12
     b1c:	b5 01       	movw	r22, r10
     b1e:	a4 01       	movw	r20, r8
     b20:	93 01       	movw	r18, r6
     b22:	0e 94 f3 42 	call	0x85e6	; 0x85e6 <__udivmodsi4>
     b26:	c9 01       	movw	r24, r18
     b28:	da 01       	movw	r26, r20
     b2a:	3c 01       	movw	r6, r24
     b2c:	4d 01       	movw	r8, r26
     b2e:	c4 01       	movw	r24, r8
     b30:	b3 01       	movw	r22, r6
     b32:	65 96       	adiw	r28, 0x15	; 21
     b34:	2c ad       	ldd	r18, Y+60	; 0x3c
     b36:	3d ad       	ldd	r19, Y+61	; 0x3d
     b38:	4e ad       	ldd	r20, Y+62	; 0x3e
     b3a:	5f ad       	ldd	r21, Y+63	; 0x3f
     b3c:	65 97       	sbiw	r28, 0x15	; 21
     b3e:	0e 94 15 43 	call	0x862a	; 0x862a <__mulsi3>
     b42:	9b 01       	movw	r18, r22
     b44:	ac 01       	movw	r20, r24
     b46:	87 01       	movw	r16, r14
     b48:	ff 24       	eor	r15, r15
     b4a:	ee 24       	eor	r14, r14
     b4c:	8d 8d       	ldd	r24, Y+29	; 0x1d
     b4e:	9e 8d       	ldd	r25, Y+30	; 0x1e
     b50:	af 8d       	ldd	r26, Y+31	; 0x1f
     b52:	b8 a1       	ldd	r27, Y+32	; 0x20
     b54:	a0 70       	andi	r26, 0x00	; 0
     b56:	b0 70       	andi	r27, 0x00	; 0
     b58:	57 01       	movw	r10, r14
     b5a:	68 01       	movw	r12, r16
     b5c:	a8 2a       	or	r10, r24
     b5e:	b9 2a       	or	r11, r25
     b60:	ca 2a       	or	r12, r26
     b62:	db 2a       	or	r13, r27
     b64:	a2 16       	cp	r10, r18
     b66:	b3 06       	cpc	r11, r19
     b68:	c4 06       	cpc	r12, r20
     b6a:	d5 06       	cpc	r13, r21
     b6c:	00 f5       	brcc	.+64     	; 0xbae <__udivdi3+0xada>
     b6e:	08 94       	sec
     b70:	61 08       	sbc	r6, r1
     b72:	71 08       	sbc	r7, r1
     b74:	81 08       	sbc	r8, r1
     b76:	91 08       	sbc	r9, r1
     b78:	6d a1       	ldd	r22, Y+37	; 0x25
     b7a:	7e a1       	ldd	r23, Y+38	; 0x26
     b7c:	8f a1       	ldd	r24, Y+39	; 0x27
     b7e:	98 a5       	ldd	r25, Y+40	; 0x28
     b80:	a6 0e       	add	r10, r22
     b82:	b7 1e       	adc	r11, r23
     b84:	c8 1e       	adc	r12, r24
     b86:	d9 1e       	adc	r13, r25
     b88:	a6 16       	cp	r10, r22
     b8a:	b7 06       	cpc	r11, r23
     b8c:	c8 06       	cpc	r12, r24
     b8e:	d9 06       	cpc	r13, r25
     b90:	70 f0       	brcs	.+28     	; 0xbae <__udivdi3+0xada>
     b92:	a2 16       	cp	r10, r18
     b94:	b3 06       	cpc	r11, r19
     b96:	c4 06       	cpc	r12, r20
     b98:	d5 06       	cpc	r13, r21
     b9a:	48 f4       	brcc	.+18     	; 0xbae <__udivdi3+0xada>
     b9c:	08 94       	sec
     b9e:	61 08       	sbc	r6, r1
     ba0:	71 08       	sbc	r7, r1
     ba2:	81 08       	sbc	r8, r1
     ba4:	91 08       	sbc	r9, r1
     ba6:	a6 0e       	add	r10, r22
     ba8:	b7 1e       	adc	r11, r23
     baa:	c8 1e       	adc	r12, r24
     bac:	d9 1e       	adc	r13, r25
     bae:	d6 01       	movw	r26, r12
     bb0:	c5 01       	movw	r24, r10
     bb2:	82 1b       	sub	r24, r18
     bb4:	93 0b       	sbc	r25, r19
     bb6:	a4 0b       	sbc	r26, r20
     bb8:	b5 0b       	sbc	r27, r21
     bba:	89 8f       	std	Y+25, r24	; 0x19
     bbc:	9a 8f       	std	Y+26, r25	; 0x1a
     bbe:	ab 8f       	std	Y+27, r26	; 0x1b
     bc0:	bc 8f       	std	Y+28, r27	; 0x1c
     bc2:	d1 01       	movw	r26, r2
     bc4:	99 27       	eor	r25, r25
     bc6:	88 27       	eor	r24, r24
     bc8:	64 01       	movw	r12, r8
     bca:	53 01       	movw	r10, r6
     bcc:	a8 2a       	or	r10, r24
     bce:	b9 2a       	or	r11, r25
     bd0:	ca 2a       	or	r12, r26
     bd2:	db 2a       	or	r13, r27
     bd4:	a9 aa       	std	Y+49, r10	; 0x31
     bd6:	ba aa       	std	Y+50, r11	; 0x32
     bd8:	cb aa       	std	Y+51, r12	; 0x33
     bda:	dc aa       	std	Y+52, r13	; 0x34
     bdc:	86 01       	movw	r16, r12
     bde:	75 01       	movw	r14, r10
     be0:	2f ef       	ldi	r18, 0xFF	; 255
     be2:	3f ef       	ldi	r19, 0xFF	; 255
     be4:	40 e0       	ldi	r20, 0x00	; 0
     be6:	50 e0       	ldi	r21, 0x00	; 0
     be8:	e2 22       	and	r14, r18
     bea:	f3 22       	and	r15, r19
     bec:	04 23       	and	r16, r20
     bee:	15 23       	and	r17, r21
     bf0:	a6 01       	movw	r20, r12
     bf2:	66 27       	eor	r22, r22
     bf4:	77 27       	eor	r23, r23
     bf6:	6d 96       	adiw	r28, 0x1d	; 29
     bf8:	4c af       	std	Y+60, r20	; 0x3c
     bfa:	5d af       	std	Y+61, r21	; 0x3d
     bfc:	6e af       	std	Y+62, r22	; 0x3e
     bfe:	7f af       	std	Y+63, r23	; 0x3f
     c00:	6d 97       	sbiw	r28, 0x1d	; 29
     c02:	a9 a0       	ldd	r10, Y+33	; 0x21
     c04:	ba a0       	ldd	r11, Y+34	; 0x22
     c06:	cb a0       	ldd	r12, Y+35	; 0x23
     c08:	dc a0       	ldd	r13, Y+36	; 0x24
     c0a:	6f ef       	ldi	r22, 0xFF	; 255
     c0c:	7f ef       	ldi	r23, 0xFF	; 255
     c0e:	80 e0       	ldi	r24, 0x00	; 0
     c10:	90 e0       	ldi	r25, 0x00	; 0
     c12:	a6 22       	and	r10, r22
     c14:	b7 22       	and	r11, r23
     c16:	c8 22       	and	r12, r24
     c18:	d9 22       	and	r13, r25
     c1a:	89 a1       	ldd	r24, Y+33	; 0x21
     c1c:	9a a1       	ldd	r25, Y+34	; 0x22
     c1e:	ab a1       	ldd	r26, Y+35	; 0x23
     c20:	bc a1       	ldd	r27, Y+36	; 0x24
     c22:	1d 01       	movw	r2, r26
     c24:	44 24       	eor	r4, r4
     c26:	55 24       	eor	r5, r5
     c28:	c8 01       	movw	r24, r16
     c2a:	b7 01       	movw	r22, r14
     c2c:	a6 01       	movw	r20, r12
     c2e:	95 01       	movw	r18, r10
     c30:	0e 94 15 43 	call	0x862a	; 0x862a <__mulsi3>
     c34:	69 96       	adiw	r28, 0x19	; 25
     c36:	6c af       	std	Y+60, r22	; 0x3c
     c38:	7d af       	std	Y+61, r23	; 0x3d
     c3a:	8e af       	std	Y+62, r24	; 0x3e
     c3c:	9f af       	std	Y+63, r25	; 0x3f
     c3e:	69 97       	sbiw	r28, 0x19	; 25
     c40:	c8 01       	movw	r24, r16
     c42:	b7 01       	movw	r22, r14
     c44:	a2 01       	movw	r20, r4
     c46:	91 01       	movw	r18, r2
     c48:	0e 94 15 43 	call	0x862a	; 0x862a <__mulsi3>
     c4c:	3b 01       	movw	r6, r22
     c4e:	4c 01       	movw	r8, r24
     c50:	6d 96       	adiw	r28, 0x1d	; 29
     c52:	6c ad       	ldd	r22, Y+60	; 0x3c
     c54:	7d ad       	ldd	r23, Y+61	; 0x3d
     c56:	8e ad       	ldd	r24, Y+62	; 0x3e
     c58:	9f ad       	ldd	r25, Y+63	; 0x3f
     c5a:	6d 97       	sbiw	r28, 0x1d	; 29
     c5c:	a6 01       	movw	r20, r12
     c5e:	95 01       	movw	r18, r10
     c60:	0e 94 15 43 	call	0x862a	; 0x862a <__mulsi3>
     c64:	7b 01       	movw	r14, r22
     c66:	8c 01       	movw	r16, r24
     c68:	6d 96       	adiw	r28, 0x1d	; 29
     c6a:	6c ad       	ldd	r22, Y+60	; 0x3c
     c6c:	7d ad       	ldd	r23, Y+61	; 0x3d
     c6e:	8e ad       	ldd	r24, Y+62	; 0x3e
     c70:	9f ad       	ldd	r25, Y+63	; 0x3f
     c72:	6d 97       	sbiw	r28, 0x1d	; 29
     c74:	a2 01       	movw	r20, r4
     c76:	91 01       	movw	r18, r2
     c78:	0e 94 15 43 	call	0x862a	; 0x862a <__mulsi3>
     c7c:	5b 01       	movw	r10, r22
     c7e:	6c 01       	movw	r12, r24
     c80:	a8 01       	movw	r20, r16
     c82:	97 01       	movw	r18, r14
     c84:	26 0d       	add	r18, r6
     c86:	37 1d       	adc	r19, r7
     c88:	48 1d       	adc	r20, r8
     c8a:	59 1d       	adc	r21, r9
     c8c:	69 96       	adiw	r28, 0x19	; 25
     c8e:	6c ac       	ldd	r6, Y+60	; 0x3c
     c90:	7d ac       	ldd	r7, Y+61	; 0x3d
     c92:	8e ac       	ldd	r8, Y+62	; 0x3e
     c94:	9f ac       	ldd	r9, Y+63	; 0x3f
     c96:	69 97       	sbiw	r28, 0x19	; 25
     c98:	c4 01       	movw	r24, r8
     c9a:	aa 27       	eor	r26, r26
     c9c:	bb 27       	eor	r27, r27
     c9e:	28 0f       	add	r18, r24
     ca0:	39 1f       	adc	r19, r25
     ca2:	4a 1f       	adc	r20, r26
     ca4:	5b 1f       	adc	r21, r27
     ca6:	2e 15       	cp	r18, r14
     ca8:	3f 05       	cpc	r19, r15
     caa:	40 07       	cpc	r20, r16
     cac:	51 07       	cpc	r21, r17
     cae:	48 f4       	brcc	.+18     	; 0xcc2 <__udivdi3+0xbee>
     cb0:	e1 2c       	mov	r14, r1
     cb2:	f1 2c       	mov	r15, r1
     cb4:	61 e0       	ldi	r22, 0x01	; 1
     cb6:	06 2f       	mov	r16, r22
     cb8:	11 2d       	mov	r17, r1
     cba:	ae 0c       	add	r10, r14
     cbc:	bf 1c       	adc	r11, r15
     cbe:	c0 1e       	adc	r12, r16
     cc0:	d1 1e       	adc	r13, r17
     cc2:	ca 01       	movw	r24, r20
     cc4:	aa 27       	eor	r26, r26
     cc6:	bb 27       	eor	r27, r27
     cc8:	bc 01       	movw	r22, r24
     cca:	cd 01       	movw	r24, r26
     ccc:	6a 0d       	add	r22, r10
     cce:	7b 1d       	adc	r23, r11
     cd0:	8c 1d       	adc	r24, r12
     cd2:	9d 1d       	adc	r25, r13
     cd4:	69 8c       	ldd	r6, Y+25	; 0x19
     cd6:	7a 8c       	ldd	r7, Y+26	; 0x1a
     cd8:	8b 8c       	ldd	r8, Y+27	; 0x1b
     cda:	9c 8c       	ldd	r9, Y+28	; 0x1c
     cdc:	66 16       	cp	r6, r22
     cde:	77 06       	cpc	r7, r23
     ce0:	88 06       	cpc	r8, r24
     ce2:	99 06       	cpc	r9, r25
     ce4:	40 f1       	brcs	.+80     	; 0xd36 <__udivdi3+0xc62>
     ce6:	66 15       	cp	r22, r6
     ce8:	77 05       	cpc	r23, r7
     cea:	88 05       	cpc	r24, r8
     cec:	99 05       	cpc	r25, r9
     cee:	09 f0       	breq	.+2      	; 0xcf2 <__udivdi3+0xc1e>
     cf0:	43 c0       	rjmp	.+134    	; 0xd78 <__udivdi3+0xca4>
     cf2:	d9 01       	movw	r26, r18
     cf4:	99 27       	eor	r25, r25
     cf6:	88 27       	eor	r24, r24
     cf8:	69 96       	adiw	r28, 0x19	; 25
     cfa:	2c ad       	ldd	r18, Y+60	; 0x3c
     cfc:	3d ad       	ldd	r19, Y+61	; 0x3d
     cfe:	4e ad       	ldd	r20, Y+62	; 0x3e
     d00:	5f ad       	ldd	r21, Y+63	; 0x3f
     d02:	69 97       	sbiw	r28, 0x19	; 25
     d04:	40 70       	andi	r20, 0x00	; 0
     d06:	50 70       	andi	r21, 0x00	; 0
     d08:	82 0f       	add	r24, r18
     d0a:	93 1f       	adc	r25, r19
     d0c:	a4 1f       	adc	r26, r20
     d0e:	b5 1f       	adc	r27, r21
     d10:	2d a5       	ldd	r18, Y+45	; 0x2d
     d12:	3e a5       	ldd	r19, Y+46	; 0x2e
     d14:	4f a5       	ldd	r20, Y+47	; 0x2f
     d16:	58 a9       	ldd	r21, Y+48	; 0x30
     d18:	6e 96       	adiw	r28, 0x1e	; 30
     d1a:	0f ac       	ldd	r0, Y+63	; 0x3f
     d1c:	6e 97       	sbiw	r28, 0x1e	; 30
     d1e:	04 c0       	rjmp	.+8      	; 0xd28 <__udivdi3+0xc54>
     d20:	22 0f       	add	r18, r18
     d22:	33 1f       	adc	r19, r19
     d24:	44 1f       	adc	r20, r20
     d26:	55 1f       	adc	r21, r21
     d28:	0a 94       	dec	r0
     d2a:	d2 f7       	brpl	.-12     	; 0xd20 <__udivdi3+0xc4c>
     d2c:	28 17       	cp	r18, r24
     d2e:	39 07       	cpc	r19, r25
     d30:	4a 07       	cpc	r20, r26
     d32:	5b 07       	cpc	r21, r27
     d34:	08 f5       	brcc	.+66     	; 0xd78 <__udivdi3+0xca4>
     d36:	09 a9       	ldd	r16, Y+49	; 0x31
     d38:	1a a9       	ldd	r17, Y+50	; 0x32
     d3a:	2b a9       	ldd	r18, Y+51	; 0x33
     d3c:	3c a9       	ldd	r19, Y+52	; 0x34
     d3e:	01 50       	subi	r16, 0x01	; 1
     d40:	10 40       	sbci	r17, 0x00	; 0
     d42:	20 40       	sbci	r18, 0x00	; 0
     d44:	30 40       	sbci	r19, 0x00	; 0
     d46:	09 ab       	std	Y+49, r16	; 0x31
     d48:	1a ab       	std	Y+50, r17	; 0x32
     d4a:	2b ab       	std	Y+51, r18	; 0x33
     d4c:	3c ab       	std	Y+52, r19	; 0x34
     d4e:	14 c0       	rjmp	.+40     	; 0xd78 <__udivdi3+0xca4>
     d50:	66 24       	eor	r6, r6
     d52:	77 24       	eor	r7, r7
     d54:	43 01       	movw	r8, r6
     d56:	21 e0       	ldi	r18, 0x01	; 1
     d58:	30 e0       	ldi	r19, 0x00	; 0
     d5a:	40 e0       	ldi	r20, 0x00	; 0
     d5c:	50 e0       	ldi	r21, 0x00	; 0
     d5e:	29 ab       	std	Y+49, r18	; 0x31
     d60:	3a ab       	std	Y+50, r19	; 0x32
     d62:	4b ab       	std	Y+51, r20	; 0x33
     d64:	5c ab       	std	Y+52, r21	; 0x34
     d66:	0b c0       	rjmp	.+22     	; 0xd7e <__udivdi3+0xcaa>
     d68:	66 24       	eor	r6, r6
     d6a:	77 24       	eor	r7, r7
     d6c:	43 01       	movw	r8, r6
     d6e:	19 aa       	std	Y+49, r1	; 0x31
     d70:	1a aa       	std	Y+50, r1	; 0x32
     d72:	1b aa       	std	Y+51, r1	; 0x33
     d74:	1c aa       	std	Y+52, r1	; 0x34
     d76:	03 c0       	rjmp	.+6      	; 0xd7e <__udivdi3+0xcaa>
     d78:	66 24       	eor	r6, r6
     d7a:	77 24       	eor	r7, r7
     d7c:	43 01       	movw	r8, r6
     d7e:	fe 01       	movw	r30, r28
     d80:	71 96       	adiw	r30, 0x11	; 17
     d82:	88 e0       	ldi	r24, 0x08	; 8
     d84:	df 01       	movw	r26, r30
     d86:	1d 92       	st	X+, r1
     d88:	8a 95       	dec	r24
     d8a:	e9 f7       	brne	.-6      	; 0xd86 <__udivdi3+0xcb2>
     d8c:	a9 a8       	ldd	r10, Y+49	; 0x31
     d8e:	ba a8       	ldd	r11, Y+50	; 0x32
     d90:	cb a8       	ldd	r12, Y+51	; 0x33
     d92:	dc a8       	ldd	r13, Y+52	; 0x34
     d94:	a9 8a       	std	Y+17, r10	; 0x11
     d96:	ba 8a       	std	Y+18, r11	; 0x12
     d98:	cb 8a       	std	Y+19, r12	; 0x13
     d9a:	dc 8a       	std	Y+20, r13	; 0x14
     d9c:	6d 8a       	std	Y+21, r6	; 0x15
     d9e:	7e 8a       	std	Y+22, r7	; 0x16
     da0:	8f 8a       	std	Y+23, r8	; 0x17
     da2:	98 8e       	std	Y+24, r9	; 0x18
     da4:	29 a9       	ldd	r18, Y+49	; 0x31
     da6:	3a 89       	ldd	r19, Y+18	; 0x12
     da8:	4b 89       	ldd	r20, Y+19	; 0x13
     daa:	5c 89       	ldd	r21, Y+20	; 0x14
     dac:	66 2d       	mov	r22, r6
     dae:	7e 89       	ldd	r23, Y+22	; 0x16
     db0:	8f 89       	ldd	r24, Y+23	; 0x17
     db2:	98 8d       	ldd	r25, Y+24	; 0x18
     db4:	c2 5a       	subi	r28, 0xA2	; 162
     db6:	df 4f       	sbci	r29, 0xFF	; 255
     db8:	e2 e1       	ldi	r30, 0x12	; 18
     dba:	0c 94 50 43 	jmp	0x86a0	; 0x86a0 <__epilogue_restores__>

00000dbe <knockDownTheClapperboards>:
     dbe:	df 93       	push	r29
     dc0:	cf 93       	push	r28
     dc2:	cd b7       	in	r28, 0x3d	; 61
     dc4:	de b7       	in	r29, 0x3e	; 62
     dc6:	a6 97       	sbiw	r28, 0x26	; 38
     dc8:	0f b6       	in	r0, 0x3f	; 63
     dca:	f8 94       	cli
     dcc:	de bf       	out	0x3e, r29	; 62
     dce:	0f be       	out	0x3f, r0	; 63
     dd0:	cd bf       	out	0x3d, r28	; 61
     dd2:	8d a3       	std	Y+37, r24	; 0x25
     dd4:	6e a3       	std	Y+38, r22	; 0x26
     dd6:	81 e4       	ldi	r24, 0x41	; 65
     dd8:	8d 8f       	std	Y+29, r24	; 0x1d
     dda:	8d a1       	ldd	r24, Y+37	; 0x25
     ddc:	81 30       	cpi	r24, 0x01	; 1
     dde:	19 f4       	brne	.+6      	; 0xde6 <knockDownTheClapperboards+0x28>
     de0:	81 e0       	ldi	r24, 0x01	; 1
     de2:	8e 8f       	std	Y+30, r24	; 0x1e
     de4:	02 c0       	rjmp	.+4      	; 0xdea <knockDownTheClapperboards+0x2c>
     de6:	8f ef       	ldi	r24, 0xFF	; 255
     de8:	8e 8f       	std	Y+30, r24	; 0x1e
     dea:	8e a1       	ldd	r24, Y+38	; 0x26
     dec:	81 30       	cpi	r24, 0x01	; 1
     dee:	09 f0       	breq	.+2      	; 0xdf2 <knockDownTheClapperboards+0x34>
     df0:	7e c0       	rjmp	.+252    	; 0xeee <knockDownTheClapperboards+0x130>
     df2:	81 e0       	ldi	r24, 0x01	; 1
     df4:	8f 8f       	std	Y+31, r24	; 0x1f
     df6:	72 c0       	rjmp	.+228    	; 0xedc <knockDownTheClapperboards+0x11e>
     df8:	80 e0       	ldi	r24, 0x00	; 0
     dfa:	90 e0       	ldi	r25, 0x00	; 0
     dfc:	a8 e4       	ldi	r26, 0x48	; 72
     dfe:	b2 e4       	ldi	r27, 0x42	; 66
     e00:	89 8f       	std	Y+25, r24	; 0x19
     e02:	9a 8f       	std	Y+26, r25	; 0x1a
     e04:	ab 8f       	std	Y+27, r26	; 0x1b
     e06:	bc 8f       	std	Y+28, r27	; 0x1c
     e08:	69 8d       	ldd	r22, Y+25	; 0x19
     e0a:	7a 8d       	ldd	r23, Y+26	; 0x1a
     e0c:	8b 8d       	ldd	r24, Y+27	; 0x1b
     e0e:	9c 8d       	ldd	r25, Y+28	; 0x1c
     e10:	20 e0       	ldi	r18, 0x00	; 0
     e12:	30 e4       	ldi	r19, 0x40	; 64
     e14:	4c e1       	ldi	r20, 0x1C	; 28
     e16:	55 e4       	ldi	r21, 0x45	; 69
     e18:	0e 94 90 42 	call	0x8520	; 0x8520 <__mulsf3>
     e1c:	dc 01       	movw	r26, r24
     e1e:	cb 01       	movw	r24, r22
     e20:	8d 8b       	std	Y+21, r24	; 0x15
     e22:	9e 8b       	std	Y+22, r25	; 0x16
     e24:	af 8b       	std	Y+23, r26	; 0x17
     e26:	b8 8f       	std	Y+24, r27	; 0x18
     e28:	6d 89       	ldd	r22, Y+21	; 0x15
     e2a:	7e 89       	ldd	r23, Y+22	; 0x16
     e2c:	8f 89       	ldd	r24, Y+23	; 0x17
     e2e:	98 8d       	ldd	r25, Y+24	; 0x18
     e30:	20 e0       	ldi	r18, 0x00	; 0
     e32:	30 e0       	ldi	r19, 0x00	; 0
     e34:	40 e8       	ldi	r20, 0x80	; 128
     e36:	5f e3       	ldi	r21, 0x3F	; 63
     e38:	0e 94 04 41 	call	0x8208	; 0x8208 <__cmpsf2>
     e3c:	88 23       	and	r24, r24
     e3e:	2c f4       	brge	.+10     	; 0xe4a <knockDownTheClapperboards+0x8c>
     e40:	81 e0       	ldi	r24, 0x01	; 1
     e42:	90 e0       	ldi	r25, 0x00	; 0
     e44:	9c 8b       	std	Y+20, r25	; 0x14
     e46:	8b 8b       	std	Y+19, r24	; 0x13
     e48:	3f c0       	rjmp	.+126    	; 0xec8 <knockDownTheClapperboards+0x10a>
     e4a:	6d 89       	ldd	r22, Y+21	; 0x15
     e4c:	7e 89       	ldd	r23, Y+22	; 0x16
     e4e:	8f 89       	ldd	r24, Y+23	; 0x17
     e50:	98 8d       	ldd	r25, Y+24	; 0x18
     e52:	20 e0       	ldi	r18, 0x00	; 0
     e54:	3f ef       	ldi	r19, 0xFF	; 255
     e56:	4f e7       	ldi	r20, 0x7F	; 127
     e58:	57 e4       	ldi	r21, 0x47	; 71
     e5a:	0e 94 8c 42 	call	0x8518	; 0x8518 <__gesf2>
     e5e:	18 16       	cp	r1, r24
     e60:	4c f5       	brge	.+82     	; 0xeb4 <knockDownTheClapperboards+0xf6>
     e62:	69 8d       	ldd	r22, Y+25	; 0x19
     e64:	7a 8d       	ldd	r23, Y+26	; 0x1a
     e66:	8b 8d       	ldd	r24, Y+27	; 0x1b
     e68:	9c 8d       	ldd	r25, Y+28	; 0x1c
     e6a:	20 e0       	ldi	r18, 0x00	; 0
     e6c:	30 e0       	ldi	r19, 0x00	; 0
     e6e:	40 e2       	ldi	r20, 0x20	; 32
     e70:	51 e4       	ldi	r21, 0x41	; 65
     e72:	0e 94 90 42 	call	0x8520	; 0x8520 <__mulsf3>
     e76:	dc 01       	movw	r26, r24
     e78:	cb 01       	movw	r24, r22
     e7a:	bc 01       	movw	r22, r24
     e7c:	cd 01       	movw	r24, r26
     e7e:	0e 94 70 41 	call	0x82e0	; 0x82e0 <__fixunssfsi>
     e82:	dc 01       	movw	r26, r24
     e84:	cb 01       	movw	r24, r22
     e86:	9c 8b       	std	Y+20, r25	; 0x14
     e88:	8b 8b       	std	Y+19, r24	; 0x13
     e8a:	0f c0       	rjmp	.+30     	; 0xeaa <knockDownTheClapperboards+0xec>
     e8c:	8a ef       	ldi	r24, 0xFA	; 250
     e8e:	90 e0       	ldi	r25, 0x00	; 0
     e90:	9a 8b       	std	Y+18, r25	; 0x12
     e92:	89 8b       	std	Y+17, r24	; 0x11
     e94:	89 89       	ldd	r24, Y+17	; 0x11
     e96:	9a 89       	ldd	r25, Y+18	; 0x12
     e98:	01 97       	sbiw	r24, 0x01	; 1
     e9a:	f1 f7       	brne	.-4      	; 0xe98 <knockDownTheClapperboards+0xda>
     e9c:	9a 8b       	std	Y+18, r25	; 0x12
     e9e:	89 8b       	std	Y+17, r24	; 0x11
     ea0:	8b 89       	ldd	r24, Y+19	; 0x13
     ea2:	9c 89       	ldd	r25, Y+20	; 0x14
     ea4:	01 97       	sbiw	r24, 0x01	; 1
     ea6:	9c 8b       	std	Y+20, r25	; 0x14
     ea8:	8b 8b       	std	Y+19, r24	; 0x13
     eaa:	8b 89       	ldd	r24, Y+19	; 0x13
     eac:	9c 89       	ldd	r25, Y+20	; 0x14
     eae:	00 97       	sbiw	r24, 0x00	; 0
     eb0:	69 f7       	brne	.-38     	; 0xe8c <knockDownTheClapperboards+0xce>
     eb2:	14 c0       	rjmp	.+40     	; 0xedc <knockDownTheClapperboards+0x11e>
     eb4:	6d 89       	ldd	r22, Y+21	; 0x15
     eb6:	7e 89       	ldd	r23, Y+22	; 0x16
     eb8:	8f 89       	ldd	r24, Y+23	; 0x17
     eba:	98 8d       	ldd	r25, Y+24	; 0x18
     ebc:	0e 94 70 41 	call	0x82e0	; 0x82e0 <__fixunssfsi>
     ec0:	dc 01       	movw	r26, r24
     ec2:	cb 01       	movw	r24, r22
     ec4:	9c 8b       	std	Y+20, r25	; 0x14
     ec6:	8b 8b       	std	Y+19, r24	; 0x13
     ec8:	8b 89       	ldd	r24, Y+19	; 0x13
     eca:	9c 89       	ldd	r25, Y+20	; 0x14
     ecc:	98 8b       	std	Y+16, r25	; 0x10
     ece:	8f 87       	std	Y+15, r24	; 0x0f
     ed0:	8f 85       	ldd	r24, Y+15	; 0x0f
     ed2:	98 89       	ldd	r25, Y+16	; 0x10
     ed4:	01 97       	sbiw	r24, 0x01	; 1
     ed6:	f1 f7       	brne	.-4      	; 0xed4 <knockDownTheClapperboards+0x116>
     ed8:	98 8b       	std	Y+16, r25	; 0x10
     eda:	8f 87       	std	Y+15, r24	; 0x0f
     edc:	ce 01       	movw	r24, r28
     ede:	4d 96       	adiw	r24, 0x1d	; 29
     ee0:	64 ed       	ldi	r22, 0xD4	; 212
     ee2:	0e 94 95 11 	call	0x232a	; 0x232a <CAN_Write>
     ee6:	88 23       	and	r24, r24
     ee8:	09 f0       	breq	.+2      	; 0xeec <knockDownTheClapperboards+0x12e>
     eea:	86 cf       	rjmp	.-244    	; 0xdf8 <knockDownTheClapperboards+0x3a>
     eec:	81 c0       	rjmp	.+258    	; 0xff0 <knockDownTheClapperboards+0x232>
     eee:	8e a1       	ldd	r24, Y+38	; 0x26
     ef0:	8f 3f       	cpi	r24, 0xFF	; 255
     ef2:	09 f0       	breq	.+2      	; 0xef6 <knockDownTheClapperboards+0x138>
     ef4:	7d c0       	rjmp	.+250    	; 0xff0 <knockDownTheClapperboards+0x232>
     ef6:	8f ef       	ldi	r24, 0xFF	; 255
     ef8:	8f 8f       	std	Y+31, r24	; 0x1f
     efa:	72 c0       	rjmp	.+228    	; 0xfe0 <knockDownTheClapperboards+0x222>
     efc:	80 e0       	ldi	r24, 0x00	; 0
     efe:	90 e0       	ldi	r25, 0x00	; 0
     f00:	a8 e4       	ldi	r26, 0x48	; 72
     f02:	b2 e4       	ldi	r27, 0x42	; 66
     f04:	8b 87       	std	Y+11, r24	; 0x0b
     f06:	9c 87       	std	Y+12, r25	; 0x0c
     f08:	ad 87       	std	Y+13, r26	; 0x0d
     f0a:	be 87       	std	Y+14, r27	; 0x0e
     f0c:	6b 85       	ldd	r22, Y+11	; 0x0b
     f0e:	7c 85       	ldd	r23, Y+12	; 0x0c
     f10:	8d 85       	ldd	r24, Y+13	; 0x0d
     f12:	9e 85       	ldd	r25, Y+14	; 0x0e
     f14:	20 e0       	ldi	r18, 0x00	; 0
     f16:	30 e4       	ldi	r19, 0x40	; 64
     f18:	4c e1       	ldi	r20, 0x1C	; 28
     f1a:	55 e4       	ldi	r21, 0x45	; 69
     f1c:	0e 94 90 42 	call	0x8520	; 0x8520 <__mulsf3>
     f20:	dc 01       	movw	r26, r24
     f22:	cb 01       	movw	r24, r22
     f24:	8f 83       	std	Y+7, r24	; 0x07
     f26:	98 87       	std	Y+8, r25	; 0x08
     f28:	a9 87       	std	Y+9, r26	; 0x09
     f2a:	ba 87       	std	Y+10, r27	; 0x0a
     f2c:	6f 81       	ldd	r22, Y+7	; 0x07
     f2e:	78 85       	ldd	r23, Y+8	; 0x08
     f30:	89 85       	ldd	r24, Y+9	; 0x09
     f32:	9a 85       	ldd	r25, Y+10	; 0x0a
     f34:	20 e0       	ldi	r18, 0x00	; 0
     f36:	30 e0       	ldi	r19, 0x00	; 0
     f38:	40 e8       	ldi	r20, 0x80	; 128
     f3a:	5f e3       	ldi	r21, 0x3F	; 63
     f3c:	0e 94 04 41 	call	0x8208	; 0x8208 <__cmpsf2>
     f40:	88 23       	and	r24, r24
     f42:	2c f4       	brge	.+10     	; 0xf4e <knockDownTheClapperboards+0x190>
     f44:	81 e0       	ldi	r24, 0x01	; 1
     f46:	90 e0       	ldi	r25, 0x00	; 0
     f48:	9e 83       	std	Y+6, r25	; 0x06
     f4a:	8d 83       	std	Y+5, r24	; 0x05
     f4c:	3f c0       	rjmp	.+126    	; 0xfcc <knockDownTheClapperboards+0x20e>
     f4e:	6f 81       	ldd	r22, Y+7	; 0x07
     f50:	78 85       	ldd	r23, Y+8	; 0x08
     f52:	89 85       	ldd	r24, Y+9	; 0x09
     f54:	9a 85       	ldd	r25, Y+10	; 0x0a
     f56:	20 e0       	ldi	r18, 0x00	; 0
     f58:	3f ef       	ldi	r19, 0xFF	; 255
     f5a:	4f e7       	ldi	r20, 0x7F	; 127
     f5c:	57 e4       	ldi	r21, 0x47	; 71
     f5e:	0e 94 8c 42 	call	0x8518	; 0x8518 <__gesf2>
     f62:	18 16       	cp	r1, r24
     f64:	4c f5       	brge	.+82     	; 0xfb8 <knockDownTheClapperboards+0x1fa>
     f66:	6b 85       	ldd	r22, Y+11	; 0x0b
     f68:	7c 85       	ldd	r23, Y+12	; 0x0c
     f6a:	8d 85       	ldd	r24, Y+13	; 0x0d
     f6c:	9e 85       	ldd	r25, Y+14	; 0x0e
     f6e:	20 e0       	ldi	r18, 0x00	; 0
     f70:	30 e0       	ldi	r19, 0x00	; 0
     f72:	40 e2       	ldi	r20, 0x20	; 32
     f74:	51 e4       	ldi	r21, 0x41	; 65
     f76:	0e 94 90 42 	call	0x8520	; 0x8520 <__mulsf3>
     f7a:	dc 01       	movw	r26, r24
     f7c:	cb 01       	movw	r24, r22
     f7e:	bc 01       	movw	r22, r24
     f80:	cd 01       	movw	r24, r26
     f82:	0e 94 70 41 	call	0x82e0	; 0x82e0 <__fixunssfsi>
     f86:	dc 01       	movw	r26, r24
     f88:	cb 01       	movw	r24, r22
     f8a:	9e 83       	std	Y+6, r25	; 0x06
     f8c:	8d 83       	std	Y+5, r24	; 0x05
     f8e:	0f c0       	rjmp	.+30     	; 0xfae <knockDownTheClapperboards+0x1f0>
     f90:	8a ef       	ldi	r24, 0xFA	; 250
     f92:	90 e0       	ldi	r25, 0x00	; 0
     f94:	9c 83       	std	Y+4, r25	; 0x04
     f96:	8b 83       	std	Y+3, r24	; 0x03
     f98:	8b 81       	ldd	r24, Y+3	; 0x03
     f9a:	9c 81       	ldd	r25, Y+4	; 0x04
     f9c:	01 97       	sbiw	r24, 0x01	; 1
     f9e:	f1 f7       	brne	.-4      	; 0xf9c <knockDownTheClapperboards+0x1de>
     fa0:	9c 83       	std	Y+4, r25	; 0x04
     fa2:	8b 83       	std	Y+3, r24	; 0x03
     fa4:	8d 81       	ldd	r24, Y+5	; 0x05
     fa6:	9e 81       	ldd	r25, Y+6	; 0x06
     fa8:	01 97       	sbiw	r24, 0x01	; 1
     faa:	9e 83       	std	Y+6, r25	; 0x06
     fac:	8d 83       	std	Y+5, r24	; 0x05
     fae:	8d 81       	ldd	r24, Y+5	; 0x05
     fb0:	9e 81       	ldd	r25, Y+6	; 0x06
     fb2:	00 97       	sbiw	r24, 0x00	; 0
     fb4:	69 f7       	brne	.-38     	; 0xf90 <knockDownTheClapperboards+0x1d2>
     fb6:	14 c0       	rjmp	.+40     	; 0xfe0 <knockDownTheClapperboards+0x222>
     fb8:	6f 81       	ldd	r22, Y+7	; 0x07
     fba:	78 85       	ldd	r23, Y+8	; 0x08
     fbc:	89 85       	ldd	r24, Y+9	; 0x09
     fbe:	9a 85       	ldd	r25, Y+10	; 0x0a
     fc0:	0e 94 70 41 	call	0x82e0	; 0x82e0 <__fixunssfsi>
     fc4:	dc 01       	movw	r26, r24
     fc6:	cb 01       	movw	r24, r22
     fc8:	9e 83       	std	Y+6, r25	; 0x06
     fca:	8d 83       	std	Y+5, r24	; 0x05
     fcc:	8d 81       	ldd	r24, Y+5	; 0x05
     fce:	9e 81       	ldd	r25, Y+6	; 0x06
     fd0:	9a 83       	std	Y+2, r25	; 0x02
     fd2:	89 83       	std	Y+1, r24	; 0x01
     fd4:	89 81       	ldd	r24, Y+1	; 0x01
     fd6:	9a 81       	ldd	r25, Y+2	; 0x02
     fd8:	01 97       	sbiw	r24, 0x01	; 1
     fda:	f1 f7       	brne	.-4      	; 0xfd8 <knockDownTheClapperboards+0x21a>
     fdc:	9a 83       	std	Y+2, r25	; 0x02
     fde:	89 83       	std	Y+1, r24	; 0x01
     fe0:	ce 01       	movw	r24, r28
     fe2:	4d 96       	adiw	r24, 0x1d	; 29
     fe4:	64 ed       	ldi	r22, 0xD4	; 212
     fe6:	0e 94 95 11 	call	0x232a	; 0x232a <CAN_Write>
     fea:	88 23       	and	r24, r24
     fec:	09 f0       	breq	.+2      	; 0xff0 <knockDownTheClapperboards+0x232>
     fee:	86 cf       	rjmp	.-244    	; 0xefc <knockDownTheClapperboards+0x13e>
     ff0:	a6 96       	adiw	r28, 0x26	; 38
     ff2:	0f b6       	in	r0, 0x3f	; 63
     ff4:	f8 94       	cli
     ff6:	de bf       	out	0x3e, r29	; 62
     ff8:	0f be       	out	0x3f, r0	; 63
     ffa:	cd bf       	out	0x3d, r28	; 61
     ffc:	cf 91       	pop	r28
     ffe:	df 91       	pop	r29
    1000:	08 95       	ret

00001002 <colectThePopcorn>:
    1002:	0f 93       	push	r16
    1004:	1f 93       	push	r17
    1006:	df 93       	push	r29
    1008:	cf 93       	push	r28
    100a:	cd b7       	in	r28, 0x3d	; 61
    100c:	de b7       	in	r29, 0x3e	; 62
    100e:	c0 55       	subi	r28, 0x50	; 80
    1010:	d0 40       	sbci	r29, 0x00	; 0
    1012:	0f b6       	in	r0, 0x3f	; 63
    1014:	f8 94       	cli
    1016:	de bf       	out	0x3e, r29	; 62
    1018:	0f be       	out	0x3f, r0	; 63
    101a:	cd bf       	out	0x3d, r28	; 61
    101c:	fe 01       	movw	r30, r28
    101e:	e1 5b       	subi	r30, 0xB1	; 177
    1020:	ff 4f       	sbci	r31, 0xFF	; 255
    1022:	80 83       	st	Z, r24
    1024:	fe 01       	movw	r30, r28
    1026:	e0 5b       	subi	r30, 0xB0	; 176
    1028:	ff 4f       	sbci	r31, 0xFF	; 255
    102a:	60 83       	st	Z, r22
    102c:	fe 01       	movw	r30, r28
    102e:	e9 5b       	subi	r30, 0xB9	; 185
    1030:	ff 4f       	sbci	r31, 0xFF	; 255
    1032:	82 e4       	ldi	r24, 0x42	; 66
    1034:	80 83       	st	Z, r24
    1036:	fe 01       	movw	r30, r28
    1038:	e1 5b       	subi	r30, 0xB1	; 177
    103a:	ff 4f       	sbci	r31, 0xFF	; 255
    103c:	80 81       	ld	r24, Z
    103e:	81 30       	cpi	r24, 0x01	; 1
    1040:	09 f0       	breq	.+2      	; 0x1044 <colectThePopcorn+0x42>
    1042:	95 c0       	rjmp	.+298    	; 0x116e <__stack+0x6f>
    1044:	fe 01       	movw	r30, r28
    1046:	e9 5b       	subi	r30, 0xB9	; 185
    1048:	ff 4f       	sbci	r31, 0xFF	; 255
    104a:	81 e0       	ldi	r24, 0x01	; 1
    104c:	81 83       	std	Z+1, r24	; 0x01
    104e:	85 c0       	rjmp	.+266    	; 0x115a <__stack+0x5b>
    1050:	fe 01       	movw	r30, r28
    1052:	ed 5b       	subi	r30, 0xBD	; 189
    1054:	ff 4f       	sbci	r31, 0xFF	; 255
    1056:	80 e0       	ldi	r24, 0x00	; 0
    1058:	90 e0       	ldi	r25, 0x00	; 0
    105a:	a8 e4       	ldi	r26, 0x48	; 72
    105c:	b2 e4       	ldi	r27, 0x42	; 66
    105e:	80 83       	st	Z, r24
    1060:	91 83       	std	Z+1, r25	; 0x01
    1062:	a2 83       	std	Z+2, r26	; 0x02
    1064:	b3 83       	std	Z+3, r27	; 0x03
    1066:	8e 01       	movw	r16, r28
    1068:	01 5c       	subi	r16, 0xC1	; 193
    106a:	1f 4f       	sbci	r17, 0xFF	; 255
    106c:	fe 01       	movw	r30, r28
    106e:	ed 5b       	subi	r30, 0xBD	; 189
    1070:	ff 4f       	sbci	r31, 0xFF	; 255
    1072:	60 81       	ld	r22, Z
    1074:	71 81       	ldd	r23, Z+1	; 0x01
    1076:	82 81       	ldd	r24, Z+2	; 0x02
    1078:	93 81       	ldd	r25, Z+3	; 0x03
    107a:	20 e0       	ldi	r18, 0x00	; 0
    107c:	30 e4       	ldi	r19, 0x40	; 64
    107e:	4c e1       	ldi	r20, 0x1C	; 28
    1080:	55 e4       	ldi	r21, 0x45	; 69
    1082:	0e 94 90 42 	call	0x8520	; 0x8520 <__mulsf3>
    1086:	dc 01       	movw	r26, r24
    1088:	cb 01       	movw	r24, r22
    108a:	f8 01       	movw	r30, r16
    108c:	80 83       	st	Z, r24
    108e:	91 83       	std	Z+1, r25	; 0x01
    1090:	a2 83       	std	Z+2, r26	; 0x02
    1092:	b3 83       	std	Z+3, r27	; 0x03
    1094:	fe 01       	movw	r30, r28
    1096:	ff 96       	adiw	r30, 0x3f	; 63
    1098:	60 81       	ld	r22, Z
    109a:	71 81       	ldd	r23, Z+1	; 0x01
    109c:	82 81       	ldd	r24, Z+2	; 0x02
    109e:	93 81       	ldd	r25, Z+3	; 0x03
    10a0:	20 e0       	ldi	r18, 0x00	; 0
    10a2:	30 e0       	ldi	r19, 0x00	; 0
    10a4:	40 e8       	ldi	r20, 0x80	; 128
    10a6:	5f e3       	ldi	r21, 0x3F	; 63
    10a8:	0e 94 04 41 	call	0x8208	; 0x8208 <__cmpsf2>
    10ac:	88 23       	and	r24, r24
    10ae:	2c f4       	brge	.+10     	; 0x10ba <colectThePopcorn+0xb8>
    10b0:	81 e0       	ldi	r24, 0x01	; 1
    10b2:	90 e0       	ldi	r25, 0x00	; 0
    10b4:	9e af       	std	Y+62, r25	; 0x3e
    10b6:	8d af       	std	Y+61, r24	; 0x3d
    10b8:	46 c0       	rjmp	.+140    	; 0x1146 <__stack+0x47>
    10ba:	fe 01       	movw	r30, r28
    10bc:	ff 96       	adiw	r30, 0x3f	; 63
    10be:	60 81       	ld	r22, Z
    10c0:	71 81       	ldd	r23, Z+1	; 0x01
    10c2:	82 81       	ldd	r24, Z+2	; 0x02
    10c4:	93 81       	ldd	r25, Z+3	; 0x03
    10c6:	20 e0       	ldi	r18, 0x00	; 0
    10c8:	3f ef       	ldi	r19, 0xFF	; 255
    10ca:	4f e7       	ldi	r20, 0x7F	; 127
    10cc:	57 e4       	ldi	r21, 0x47	; 71
    10ce:	0e 94 8c 42 	call	0x8518	; 0x8518 <__gesf2>
    10d2:	18 16       	cp	r1, r24
    10d4:	64 f5       	brge	.+88     	; 0x112e <__stack+0x2f>
    10d6:	fe 01       	movw	r30, r28
    10d8:	ed 5b       	subi	r30, 0xBD	; 189
    10da:	ff 4f       	sbci	r31, 0xFF	; 255
    10dc:	60 81       	ld	r22, Z
    10de:	71 81       	ldd	r23, Z+1	; 0x01
    10e0:	82 81       	ldd	r24, Z+2	; 0x02
    10e2:	93 81       	ldd	r25, Z+3	; 0x03
    10e4:	20 e0       	ldi	r18, 0x00	; 0
    10e6:	30 e0       	ldi	r19, 0x00	; 0
    10e8:	40 e2       	ldi	r20, 0x20	; 32
    10ea:	51 e4       	ldi	r21, 0x41	; 65
    10ec:	0e 94 90 42 	call	0x8520	; 0x8520 <__mulsf3>
    10f0:	dc 01       	movw	r26, r24
    10f2:	cb 01       	movw	r24, r22
    10f4:	bc 01       	movw	r22, r24
    10f6:	cd 01       	movw	r24, r26
    10f8:	0e 94 70 41 	call	0x82e0	; 0x82e0 <__fixunssfsi>
    10fc:	dc 01       	movw	r26, r24
    10fe:	cb 01       	movw	r24, r22
    1100:	9e af       	std	Y+62, r25	; 0x3e
    1102:	8d af       	std	Y+61, r24	; 0x3d
    1104:	0f c0       	rjmp	.+30     	; 0x1124 <__stack+0x25>
    1106:	8a ef       	ldi	r24, 0xFA	; 250
    1108:	90 e0       	ldi	r25, 0x00	; 0
    110a:	9c af       	std	Y+60, r25	; 0x3c
    110c:	8b af       	std	Y+59, r24	; 0x3b
    110e:	8b ad       	ldd	r24, Y+59	; 0x3b
    1110:	9c ad       	ldd	r25, Y+60	; 0x3c
    1112:	01 97       	sbiw	r24, 0x01	; 1
    1114:	f1 f7       	brne	.-4      	; 0x1112 <__stack+0x13>
    1116:	9c af       	std	Y+60, r25	; 0x3c
    1118:	8b af       	std	Y+59, r24	; 0x3b
    111a:	8d ad       	ldd	r24, Y+61	; 0x3d
    111c:	9e ad       	ldd	r25, Y+62	; 0x3e
    111e:	01 97       	sbiw	r24, 0x01	; 1
    1120:	9e af       	std	Y+62, r25	; 0x3e
    1122:	8d af       	std	Y+61, r24	; 0x3d
    1124:	8d ad       	ldd	r24, Y+61	; 0x3d
    1126:	9e ad       	ldd	r25, Y+62	; 0x3e
    1128:	00 97       	sbiw	r24, 0x00	; 0
    112a:	69 f7       	brne	.-38     	; 0x1106 <__stack+0x7>
    112c:	16 c0       	rjmp	.+44     	; 0x115a <__stack+0x5b>
    112e:	fe 01       	movw	r30, r28
    1130:	ff 96       	adiw	r30, 0x3f	; 63
    1132:	60 81       	ld	r22, Z
    1134:	71 81       	ldd	r23, Z+1	; 0x01
    1136:	82 81       	ldd	r24, Z+2	; 0x02
    1138:	93 81       	ldd	r25, Z+3	; 0x03
    113a:	0e 94 70 41 	call	0x82e0	; 0x82e0 <__fixunssfsi>
    113e:	dc 01       	movw	r26, r24
    1140:	cb 01       	movw	r24, r22
    1142:	9e af       	std	Y+62, r25	; 0x3e
    1144:	8d af       	std	Y+61, r24	; 0x3d
    1146:	8d ad       	ldd	r24, Y+61	; 0x3d
    1148:	9e ad       	ldd	r25, Y+62	; 0x3e
    114a:	9a af       	std	Y+58, r25	; 0x3a
    114c:	89 af       	std	Y+57, r24	; 0x39
    114e:	89 ad       	ldd	r24, Y+57	; 0x39
    1150:	9a ad       	ldd	r25, Y+58	; 0x3a
    1152:	01 97       	sbiw	r24, 0x01	; 1
    1154:	f1 f7       	brne	.-4      	; 0x1152 <__stack+0x53>
    1156:	9a af       	std	Y+58, r25	; 0x3a
    1158:	89 af       	std	Y+57, r24	; 0x39
    115a:	ce 01       	movw	r24, r28
    115c:	89 5b       	subi	r24, 0xB9	; 185
    115e:	9f 4f       	sbci	r25, 0xFF	; 255
    1160:	64 ed       	ldi	r22, 0xD4	; 212
    1162:	0e 94 95 11 	call	0x232a	; 0x232a <CAN_Write>
    1166:	88 23       	and	r24, r24
    1168:	09 f0       	breq	.+2      	; 0x116c <__stack+0x6d>
    116a:	72 cf       	rjmp	.-284    	; 0x1050 <colectThePopcorn+0x4e>
    116c:	81 c0       	rjmp	.+258    	; 0x1270 <__stack+0x171>
    116e:	fe 01       	movw	r30, r28
    1170:	e9 5b       	subi	r30, 0xB9	; 185
    1172:	ff 4f       	sbci	r31, 0xFF	; 255
    1174:	8f ef       	ldi	r24, 0xFF	; 255
    1176:	81 83       	std	Z+1, r24	; 0x01
    1178:	72 c0       	rjmp	.+228    	; 0x125e <__stack+0x15f>
    117a:	80 e0       	ldi	r24, 0x00	; 0
    117c:	90 e0       	ldi	r25, 0x00	; 0
    117e:	a8 e4       	ldi	r26, 0x48	; 72
    1180:	b2 e4       	ldi	r27, 0x42	; 66
    1182:	8d ab       	std	Y+53, r24	; 0x35
    1184:	9e ab       	std	Y+54, r25	; 0x36
    1186:	af ab       	std	Y+55, r26	; 0x37
    1188:	b8 af       	std	Y+56, r27	; 0x38
    118a:	6d a9       	ldd	r22, Y+53	; 0x35
    118c:	7e a9       	ldd	r23, Y+54	; 0x36
    118e:	8f a9       	ldd	r24, Y+55	; 0x37
    1190:	98 ad       	ldd	r25, Y+56	; 0x38
    1192:	20 e0       	ldi	r18, 0x00	; 0
    1194:	30 e4       	ldi	r19, 0x40	; 64
    1196:	4c e1       	ldi	r20, 0x1C	; 28
    1198:	55 e4       	ldi	r21, 0x45	; 69
    119a:	0e 94 90 42 	call	0x8520	; 0x8520 <__mulsf3>
    119e:	dc 01       	movw	r26, r24
    11a0:	cb 01       	movw	r24, r22
    11a2:	89 ab       	std	Y+49, r24	; 0x31
    11a4:	9a ab       	std	Y+50, r25	; 0x32
    11a6:	ab ab       	std	Y+51, r26	; 0x33
    11a8:	bc ab       	std	Y+52, r27	; 0x34
    11aa:	69 a9       	ldd	r22, Y+49	; 0x31
    11ac:	7a a9       	ldd	r23, Y+50	; 0x32
    11ae:	8b a9       	ldd	r24, Y+51	; 0x33
    11b0:	9c a9       	ldd	r25, Y+52	; 0x34
    11b2:	20 e0       	ldi	r18, 0x00	; 0
    11b4:	30 e0       	ldi	r19, 0x00	; 0
    11b6:	40 e8       	ldi	r20, 0x80	; 128
    11b8:	5f e3       	ldi	r21, 0x3F	; 63
    11ba:	0e 94 04 41 	call	0x8208	; 0x8208 <__cmpsf2>
    11be:	88 23       	and	r24, r24
    11c0:	2c f4       	brge	.+10     	; 0x11cc <__stack+0xcd>
    11c2:	81 e0       	ldi	r24, 0x01	; 1
    11c4:	90 e0       	ldi	r25, 0x00	; 0
    11c6:	98 ab       	std	Y+48, r25	; 0x30
    11c8:	8f a7       	std	Y+47, r24	; 0x2f
    11ca:	3f c0       	rjmp	.+126    	; 0x124a <__stack+0x14b>
    11cc:	69 a9       	ldd	r22, Y+49	; 0x31
    11ce:	7a a9       	ldd	r23, Y+50	; 0x32
    11d0:	8b a9       	ldd	r24, Y+51	; 0x33
    11d2:	9c a9       	ldd	r25, Y+52	; 0x34
    11d4:	20 e0       	ldi	r18, 0x00	; 0
    11d6:	3f ef       	ldi	r19, 0xFF	; 255
    11d8:	4f e7       	ldi	r20, 0x7F	; 127
    11da:	57 e4       	ldi	r21, 0x47	; 71
    11dc:	0e 94 8c 42 	call	0x8518	; 0x8518 <__gesf2>
    11e0:	18 16       	cp	r1, r24
    11e2:	4c f5       	brge	.+82     	; 0x1236 <__stack+0x137>
    11e4:	6d a9       	ldd	r22, Y+53	; 0x35
    11e6:	7e a9       	ldd	r23, Y+54	; 0x36
    11e8:	8f a9       	ldd	r24, Y+55	; 0x37
    11ea:	98 ad       	ldd	r25, Y+56	; 0x38
    11ec:	20 e0       	ldi	r18, 0x00	; 0
    11ee:	30 e0       	ldi	r19, 0x00	; 0
    11f0:	40 e2       	ldi	r20, 0x20	; 32
    11f2:	51 e4       	ldi	r21, 0x41	; 65
    11f4:	0e 94 90 42 	call	0x8520	; 0x8520 <__mulsf3>
    11f8:	dc 01       	movw	r26, r24
    11fa:	cb 01       	movw	r24, r22
    11fc:	bc 01       	movw	r22, r24
    11fe:	cd 01       	movw	r24, r26
    1200:	0e 94 70 41 	call	0x82e0	; 0x82e0 <__fixunssfsi>
    1204:	dc 01       	movw	r26, r24
    1206:	cb 01       	movw	r24, r22
    1208:	98 ab       	std	Y+48, r25	; 0x30
    120a:	8f a7       	std	Y+47, r24	; 0x2f
    120c:	0f c0       	rjmp	.+30     	; 0x122c <__stack+0x12d>
    120e:	8a ef       	ldi	r24, 0xFA	; 250
    1210:	90 e0       	ldi	r25, 0x00	; 0
    1212:	9e a7       	std	Y+46, r25	; 0x2e
    1214:	8d a7       	std	Y+45, r24	; 0x2d
    1216:	8d a5       	ldd	r24, Y+45	; 0x2d
    1218:	9e a5       	ldd	r25, Y+46	; 0x2e
    121a:	01 97       	sbiw	r24, 0x01	; 1
    121c:	f1 f7       	brne	.-4      	; 0x121a <__stack+0x11b>
    121e:	9e a7       	std	Y+46, r25	; 0x2e
    1220:	8d a7       	std	Y+45, r24	; 0x2d
    1222:	8f a5       	ldd	r24, Y+47	; 0x2f
    1224:	98 a9       	ldd	r25, Y+48	; 0x30
    1226:	01 97       	sbiw	r24, 0x01	; 1
    1228:	98 ab       	std	Y+48, r25	; 0x30
    122a:	8f a7       	std	Y+47, r24	; 0x2f
    122c:	8f a5       	ldd	r24, Y+47	; 0x2f
    122e:	98 a9       	ldd	r25, Y+48	; 0x30
    1230:	00 97       	sbiw	r24, 0x00	; 0
    1232:	69 f7       	brne	.-38     	; 0x120e <__stack+0x10f>
    1234:	14 c0       	rjmp	.+40     	; 0x125e <__stack+0x15f>
    1236:	69 a9       	ldd	r22, Y+49	; 0x31
    1238:	7a a9       	ldd	r23, Y+50	; 0x32
    123a:	8b a9       	ldd	r24, Y+51	; 0x33
    123c:	9c a9       	ldd	r25, Y+52	; 0x34
    123e:	0e 94 70 41 	call	0x82e0	; 0x82e0 <__fixunssfsi>
    1242:	dc 01       	movw	r26, r24
    1244:	cb 01       	movw	r24, r22
    1246:	98 ab       	std	Y+48, r25	; 0x30
    1248:	8f a7       	std	Y+47, r24	; 0x2f
    124a:	8f a5       	ldd	r24, Y+47	; 0x2f
    124c:	98 a9       	ldd	r25, Y+48	; 0x30
    124e:	9c a7       	std	Y+44, r25	; 0x2c
    1250:	8b a7       	std	Y+43, r24	; 0x2b
    1252:	8b a5       	ldd	r24, Y+43	; 0x2b
    1254:	9c a5       	ldd	r25, Y+44	; 0x2c
    1256:	01 97       	sbiw	r24, 0x01	; 1
    1258:	f1 f7       	brne	.-4      	; 0x1256 <__stack+0x157>
    125a:	9c a7       	std	Y+44, r25	; 0x2c
    125c:	8b a7       	std	Y+43, r24	; 0x2b
    125e:	ce 01       	movw	r24, r28
    1260:	89 5b       	subi	r24, 0xB9	; 185
    1262:	9f 4f       	sbci	r25, 0xFF	; 255
    1264:	64 ed       	ldi	r22, 0xD4	; 212
    1266:	0e 94 95 11 	call	0x232a	; 0x232a <CAN_Write>
    126a:	88 23       	and	r24, r24
    126c:	09 f0       	breq	.+2      	; 0x1270 <__stack+0x171>
    126e:	85 cf       	rjmp	.-246    	; 0x117a <__stack+0x7b>
    1270:	fe 01       	movw	r30, r28
    1272:	e0 5b       	subi	r30, 0xB0	; 176
    1274:	ff 4f       	sbci	r31, 0xFF	; 255
    1276:	80 81       	ld	r24, Z
    1278:	81 30       	cpi	r24, 0x01	; 1
    127a:	09 f0       	breq	.+2      	; 0x127e <__stack+0x17f>
    127c:	81 c0       	rjmp	.+258    	; 0x1380 <__stack+0x281>
    127e:	fe 01       	movw	r30, r28
    1280:	e9 5b       	subi	r30, 0xB9	; 185
    1282:	ff 4f       	sbci	r31, 0xFF	; 255
    1284:	81 e0       	ldi	r24, 0x01	; 1
    1286:	82 83       	std	Z+2, r24	; 0x02
    1288:	72 c0       	rjmp	.+228    	; 0x136e <__stack+0x26f>
    128a:	80 e0       	ldi	r24, 0x00	; 0
    128c:	90 e0       	ldi	r25, 0x00	; 0
    128e:	a8 e4       	ldi	r26, 0x48	; 72
    1290:	b2 e4       	ldi	r27, 0x42	; 66
    1292:	8f a3       	std	Y+39, r24	; 0x27
    1294:	98 a7       	std	Y+40, r25	; 0x28
    1296:	a9 a7       	std	Y+41, r26	; 0x29
    1298:	ba a7       	std	Y+42, r27	; 0x2a
    129a:	6f a1       	ldd	r22, Y+39	; 0x27
    129c:	78 a5       	ldd	r23, Y+40	; 0x28
    129e:	89 a5       	ldd	r24, Y+41	; 0x29
    12a0:	9a a5       	ldd	r25, Y+42	; 0x2a
    12a2:	20 e0       	ldi	r18, 0x00	; 0
    12a4:	30 e4       	ldi	r19, 0x40	; 64
    12a6:	4c e1       	ldi	r20, 0x1C	; 28
    12a8:	55 e4       	ldi	r21, 0x45	; 69
    12aa:	0e 94 90 42 	call	0x8520	; 0x8520 <__mulsf3>
    12ae:	dc 01       	movw	r26, r24
    12b0:	cb 01       	movw	r24, r22
    12b2:	8b a3       	std	Y+35, r24	; 0x23
    12b4:	9c a3       	std	Y+36, r25	; 0x24
    12b6:	ad a3       	std	Y+37, r26	; 0x25
    12b8:	be a3       	std	Y+38, r27	; 0x26
    12ba:	6b a1       	ldd	r22, Y+35	; 0x23
    12bc:	7c a1       	ldd	r23, Y+36	; 0x24
    12be:	8d a1       	ldd	r24, Y+37	; 0x25
    12c0:	9e a1       	ldd	r25, Y+38	; 0x26
    12c2:	20 e0       	ldi	r18, 0x00	; 0
    12c4:	30 e0       	ldi	r19, 0x00	; 0
    12c6:	40 e8       	ldi	r20, 0x80	; 128
    12c8:	5f e3       	ldi	r21, 0x3F	; 63
    12ca:	0e 94 04 41 	call	0x8208	; 0x8208 <__cmpsf2>
    12ce:	88 23       	and	r24, r24
    12d0:	2c f4       	brge	.+10     	; 0x12dc <__stack+0x1dd>
    12d2:	81 e0       	ldi	r24, 0x01	; 1
    12d4:	90 e0       	ldi	r25, 0x00	; 0
    12d6:	9a a3       	std	Y+34, r25	; 0x22
    12d8:	89 a3       	std	Y+33, r24	; 0x21
    12da:	3f c0       	rjmp	.+126    	; 0x135a <__stack+0x25b>
    12dc:	6b a1       	ldd	r22, Y+35	; 0x23
    12de:	7c a1       	ldd	r23, Y+36	; 0x24
    12e0:	8d a1       	ldd	r24, Y+37	; 0x25
    12e2:	9e a1       	ldd	r25, Y+38	; 0x26
    12e4:	20 e0       	ldi	r18, 0x00	; 0
    12e6:	3f ef       	ldi	r19, 0xFF	; 255
    12e8:	4f e7       	ldi	r20, 0x7F	; 127
    12ea:	57 e4       	ldi	r21, 0x47	; 71
    12ec:	0e 94 8c 42 	call	0x8518	; 0x8518 <__gesf2>
    12f0:	18 16       	cp	r1, r24
    12f2:	4c f5       	brge	.+82     	; 0x1346 <__stack+0x247>
    12f4:	6f a1       	ldd	r22, Y+39	; 0x27
    12f6:	78 a5       	ldd	r23, Y+40	; 0x28
    12f8:	89 a5       	ldd	r24, Y+41	; 0x29
    12fa:	9a a5       	ldd	r25, Y+42	; 0x2a
    12fc:	20 e0       	ldi	r18, 0x00	; 0
    12fe:	30 e0       	ldi	r19, 0x00	; 0
    1300:	40 e2       	ldi	r20, 0x20	; 32
    1302:	51 e4       	ldi	r21, 0x41	; 65
    1304:	0e 94 90 42 	call	0x8520	; 0x8520 <__mulsf3>
    1308:	dc 01       	movw	r26, r24
    130a:	cb 01       	movw	r24, r22
    130c:	bc 01       	movw	r22, r24
    130e:	cd 01       	movw	r24, r26
    1310:	0e 94 70 41 	call	0x82e0	; 0x82e0 <__fixunssfsi>
    1314:	dc 01       	movw	r26, r24
    1316:	cb 01       	movw	r24, r22
    1318:	9a a3       	std	Y+34, r25	; 0x22
    131a:	89 a3       	std	Y+33, r24	; 0x21
    131c:	0f c0       	rjmp	.+30     	; 0x133c <__stack+0x23d>
    131e:	8a ef       	ldi	r24, 0xFA	; 250
    1320:	90 e0       	ldi	r25, 0x00	; 0
    1322:	98 a3       	std	Y+32, r25	; 0x20
    1324:	8f 8f       	std	Y+31, r24	; 0x1f
    1326:	8f 8d       	ldd	r24, Y+31	; 0x1f
    1328:	98 a1       	ldd	r25, Y+32	; 0x20
    132a:	01 97       	sbiw	r24, 0x01	; 1
    132c:	f1 f7       	brne	.-4      	; 0x132a <__stack+0x22b>
    132e:	98 a3       	std	Y+32, r25	; 0x20
    1330:	8f 8f       	std	Y+31, r24	; 0x1f
    1332:	89 a1       	ldd	r24, Y+33	; 0x21
    1334:	9a a1       	ldd	r25, Y+34	; 0x22
    1336:	01 97       	sbiw	r24, 0x01	; 1
    1338:	9a a3       	std	Y+34, r25	; 0x22
    133a:	89 a3       	std	Y+33, r24	; 0x21
    133c:	89 a1       	ldd	r24, Y+33	; 0x21
    133e:	9a a1       	ldd	r25, Y+34	; 0x22
    1340:	00 97       	sbiw	r24, 0x00	; 0
    1342:	69 f7       	brne	.-38     	; 0x131e <__stack+0x21f>
    1344:	14 c0       	rjmp	.+40     	; 0x136e <__stack+0x26f>
    1346:	6b a1       	ldd	r22, Y+35	; 0x23
    1348:	7c a1       	ldd	r23, Y+36	; 0x24
    134a:	8d a1       	ldd	r24, Y+37	; 0x25
    134c:	9e a1       	ldd	r25, Y+38	; 0x26
    134e:	0e 94 70 41 	call	0x82e0	; 0x82e0 <__fixunssfsi>
    1352:	dc 01       	movw	r26, r24
    1354:	cb 01       	movw	r24, r22
    1356:	9a a3       	std	Y+34, r25	; 0x22
    1358:	89 a3       	std	Y+33, r24	; 0x21
    135a:	89 a1       	ldd	r24, Y+33	; 0x21
    135c:	9a a1       	ldd	r25, Y+34	; 0x22
    135e:	9e 8f       	std	Y+30, r25	; 0x1e
    1360:	8d 8f       	std	Y+29, r24	; 0x1d
    1362:	8d 8d       	ldd	r24, Y+29	; 0x1d
    1364:	9e 8d       	ldd	r25, Y+30	; 0x1e
    1366:	01 97       	sbiw	r24, 0x01	; 1
    1368:	f1 f7       	brne	.-4      	; 0x1366 <__stack+0x267>
    136a:	9e 8f       	std	Y+30, r25	; 0x1e
    136c:	8d 8f       	std	Y+29, r24	; 0x1d
    136e:	ce 01       	movw	r24, r28
    1370:	89 5b       	subi	r24, 0xB9	; 185
    1372:	9f 4f       	sbci	r25, 0xFF	; 255
    1374:	64 ed       	ldi	r22, 0xD4	; 212
    1376:	d9 d7       	rcall	.+4018   	; 0x232a <CAN_Write>
    1378:	88 23       	and	r24, r24
    137a:	09 f0       	breq	.+2      	; 0x137e <__stack+0x27f>
    137c:	86 cf       	rjmp	.-244    	; 0x128a <__stack+0x18b>
    137e:	0f c1       	rjmp	.+542    	; 0x159e <__stack+0x49f>
    1380:	fe 01       	movw	r30, r28
    1382:	e0 5b       	subi	r30, 0xB0	; 176
    1384:	ff 4f       	sbci	r31, 0xFF	; 255
    1386:	80 81       	ld	r24, Z
    1388:	8f 3f       	cpi	r24, 0xFF	; 255
    138a:	09 f0       	breq	.+2      	; 0x138e <__stack+0x28f>
    138c:	81 c0       	rjmp	.+258    	; 0x1490 <__stack+0x391>
    138e:	fe 01       	movw	r30, r28
    1390:	e9 5b       	subi	r30, 0xB9	; 185
    1392:	ff 4f       	sbci	r31, 0xFF	; 255
    1394:	8f ef       	ldi	r24, 0xFF	; 255
    1396:	82 83       	std	Z+2, r24	; 0x02
    1398:	72 c0       	rjmp	.+228    	; 0x147e <__stack+0x37f>
    139a:	80 e0       	ldi	r24, 0x00	; 0
    139c:	90 e0       	ldi	r25, 0x00	; 0
    139e:	a8 e4       	ldi	r26, 0x48	; 72
    13a0:	b2 e4       	ldi	r27, 0x42	; 66
    13a2:	89 8f       	std	Y+25, r24	; 0x19
    13a4:	9a 8f       	std	Y+26, r25	; 0x1a
    13a6:	ab 8f       	std	Y+27, r26	; 0x1b
    13a8:	bc 8f       	std	Y+28, r27	; 0x1c
    13aa:	69 8d       	ldd	r22, Y+25	; 0x19
    13ac:	7a 8d       	ldd	r23, Y+26	; 0x1a
    13ae:	8b 8d       	ldd	r24, Y+27	; 0x1b
    13b0:	9c 8d       	ldd	r25, Y+28	; 0x1c
    13b2:	20 e0       	ldi	r18, 0x00	; 0
    13b4:	30 e4       	ldi	r19, 0x40	; 64
    13b6:	4c e1       	ldi	r20, 0x1C	; 28
    13b8:	55 e4       	ldi	r21, 0x45	; 69
    13ba:	0e 94 90 42 	call	0x8520	; 0x8520 <__mulsf3>
    13be:	dc 01       	movw	r26, r24
    13c0:	cb 01       	movw	r24, r22
    13c2:	8d 8b       	std	Y+21, r24	; 0x15
    13c4:	9e 8b       	std	Y+22, r25	; 0x16
    13c6:	af 8b       	std	Y+23, r26	; 0x17
    13c8:	b8 8f       	std	Y+24, r27	; 0x18
    13ca:	6d 89       	ldd	r22, Y+21	; 0x15
    13cc:	7e 89       	ldd	r23, Y+22	; 0x16
    13ce:	8f 89       	ldd	r24, Y+23	; 0x17
    13d0:	98 8d       	ldd	r25, Y+24	; 0x18
    13d2:	20 e0       	ldi	r18, 0x00	; 0
    13d4:	30 e0       	ldi	r19, 0x00	; 0
    13d6:	40 e8       	ldi	r20, 0x80	; 128
    13d8:	5f e3       	ldi	r21, 0x3F	; 63
    13da:	0e 94 04 41 	call	0x8208	; 0x8208 <__cmpsf2>
    13de:	88 23       	and	r24, r24
    13e0:	2c f4       	brge	.+10     	; 0x13ec <__stack+0x2ed>
    13e2:	81 e0       	ldi	r24, 0x01	; 1
    13e4:	90 e0       	ldi	r25, 0x00	; 0
    13e6:	9c 8b       	std	Y+20, r25	; 0x14
    13e8:	8b 8b       	std	Y+19, r24	; 0x13
    13ea:	3f c0       	rjmp	.+126    	; 0x146a <__stack+0x36b>
    13ec:	6d 89       	ldd	r22, Y+21	; 0x15
    13ee:	7e 89       	ldd	r23, Y+22	; 0x16
    13f0:	8f 89       	ldd	r24, Y+23	; 0x17
    13f2:	98 8d       	ldd	r25, Y+24	; 0x18
    13f4:	20 e0       	ldi	r18, 0x00	; 0
    13f6:	3f ef       	ldi	r19, 0xFF	; 255
    13f8:	4f e7       	ldi	r20, 0x7F	; 127
    13fa:	57 e4       	ldi	r21, 0x47	; 71
    13fc:	0e 94 8c 42 	call	0x8518	; 0x8518 <__gesf2>
    1400:	18 16       	cp	r1, r24
    1402:	4c f5       	brge	.+82     	; 0x1456 <__stack+0x357>
    1404:	69 8d       	ldd	r22, Y+25	; 0x19
    1406:	7a 8d       	ldd	r23, Y+26	; 0x1a
    1408:	8b 8d       	ldd	r24, Y+27	; 0x1b
    140a:	9c 8d       	ldd	r25, Y+28	; 0x1c
    140c:	20 e0       	ldi	r18, 0x00	; 0
    140e:	30 e0       	ldi	r19, 0x00	; 0
    1410:	40 e2       	ldi	r20, 0x20	; 32
    1412:	51 e4       	ldi	r21, 0x41	; 65
    1414:	0e 94 90 42 	call	0x8520	; 0x8520 <__mulsf3>
    1418:	dc 01       	movw	r26, r24
    141a:	cb 01       	movw	r24, r22
    141c:	bc 01       	movw	r22, r24
    141e:	cd 01       	movw	r24, r26
    1420:	0e 94 70 41 	call	0x82e0	; 0x82e0 <__fixunssfsi>
    1424:	dc 01       	movw	r26, r24
    1426:	cb 01       	movw	r24, r22
    1428:	9c 8b       	std	Y+20, r25	; 0x14
    142a:	8b 8b       	std	Y+19, r24	; 0x13
    142c:	0f c0       	rjmp	.+30     	; 0x144c <__stack+0x34d>
    142e:	8a ef       	ldi	r24, 0xFA	; 250
    1430:	90 e0       	ldi	r25, 0x00	; 0
    1432:	9a 8b       	std	Y+18, r25	; 0x12
    1434:	89 8b       	std	Y+17, r24	; 0x11
    1436:	89 89       	ldd	r24, Y+17	; 0x11
    1438:	9a 89       	ldd	r25, Y+18	; 0x12
    143a:	01 97       	sbiw	r24, 0x01	; 1
    143c:	f1 f7       	brne	.-4      	; 0x143a <__stack+0x33b>
    143e:	9a 8b       	std	Y+18, r25	; 0x12
    1440:	89 8b       	std	Y+17, r24	; 0x11
    1442:	8b 89       	ldd	r24, Y+19	; 0x13
    1444:	9c 89       	ldd	r25, Y+20	; 0x14
    1446:	01 97       	sbiw	r24, 0x01	; 1
    1448:	9c 8b       	std	Y+20, r25	; 0x14
    144a:	8b 8b       	std	Y+19, r24	; 0x13
    144c:	8b 89       	ldd	r24, Y+19	; 0x13
    144e:	9c 89       	ldd	r25, Y+20	; 0x14
    1450:	00 97       	sbiw	r24, 0x00	; 0
    1452:	69 f7       	brne	.-38     	; 0x142e <__stack+0x32f>
    1454:	14 c0       	rjmp	.+40     	; 0x147e <__stack+0x37f>
    1456:	6d 89       	ldd	r22, Y+21	; 0x15
    1458:	7e 89       	ldd	r23, Y+22	; 0x16
    145a:	8f 89       	ldd	r24, Y+23	; 0x17
    145c:	98 8d       	ldd	r25, Y+24	; 0x18
    145e:	0e 94 70 41 	call	0x82e0	; 0x82e0 <__fixunssfsi>
    1462:	dc 01       	movw	r26, r24
    1464:	cb 01       	movw	r24, r22
    1466:	9c 8b       	std	Y+20, r25	; 0x14
    1468:	8b 8b       	std	Y+19, r24	; 0x13
    146a:	8b 89       	ldd	r24, Y+19	; 0x13
    146c:	9c 89       	ldd	r25, Y+20	; 0x14
    146e:	98 8b       	std	Y+16, r25	; 0x10
    1470:	8f 87       	std	Y+15, r24	; 0x0f
    1472:	8f 85       	ldd	r24, Y+15	; 0x0f
    1474:	98 89       	ldd	r25, Y+16	; 0x10
    1476:	01 97       	sbiw	r24, 0x01	; 1
    1478:	f1 f7       	brne	.-4      	; 0x1476 <__stack+0x377>
    147a:	98 8b       	std	Y+16, r25	; 0x10
    147c:	8f 87       	std	Y+15, r24	; 0x0f
    147e:	ce 01       	movw	r24, r28
    1480:	89 5b       	subi	r24, 0xB9	; 185
    1482:	9f 4f       	sbci	r25, 0xFF	; 255
    1484:	64 ed       	ldi	r22, 0xD4	; 212
    1486:	51 d7       	rcall	.+3746   	; 0x232a <CAN_Write>
    1488:	88 23       	and	r24, r24
    148a:	09 f0       	breq	.+2      	; 0x148e <__stack+0x38f>
    148c:	86 cf       	rjmp	.-244    	; 0x139a <__stack+0x29b>
    148e:	87 c0       	rjmp	.+270    	; 0x159e <__stack+0x49f>
    1490:	fe 01       	movw	r30, r28
    1492:	e0 5b       	subi	r30, 0xB0	; 176
    1494:	ff 4f       	sbci	r31, 0xFF	; 255
    1496:	80 81       	ld	r24, Z
    1498:	82 30       	cpi	r24, 0x02	; 2
    149a:	09 f0       	breq	.+2      	; 0x149e <__stack+0x39f>
    149c:	80 c0       	rjmp	.+256    	; 0x159e <__stack+0x49f>
    149e:	fe 01       	movw	r30, r28
    14a0:	e9 5b       	subi	r30, 0xB9	; 185
    14a2:	ff 4f       	sbci	r31, 0xFF	; 255
    14a4:	82 e0       	ldi	r24, 0x02	; 2
    14a6:	82 83       	std	Z+2, r24	; 0x02
    14a8:	72 c0       	rjmp	.+228    	; 0x158e <__stack+0x48f>
    14aa:	80 e0       	ldi	r24, 0x00	; 0
    14ac:	90 e0       	ldi	r25, 0x00	; 0
    14ae:	a8 e4       	ldi	r26, 0x48	; 72
    14b0:	b2 e4       	ldi	r27, 0x42	; 66
    14b2:	8b 87       	std	Y+11, r24	; 0x0b
    14b4:	9c 87       	std	Y+12, r25	; 0x0c
    14b6:	ad 87       	std	Y+13, r26	; 0x0d
    14b8:	be 87       	std	Y+14, r27	; 0x0e
    14ba:	6b 85       	ldd	r22, Y+11	; 0x0b
    14bc:	7c 85       	ldd	r23, Y+12	; 0x0c
    14be:	8d 85       	ldd	r24, Y+13	; 0x0d
    14c0:	9e 85       	ldd	r25, Y+14	; 0x0e
    14c2:	20 e0       	ldi	r18, 0x00	; 0
    14c4:	30 e4       	ldi	r19, 0x40	; 64
    14c6:	4c e1       	ldi	r20, 0x1C	; 28
    14c8:	55 e4       	ldi	r21, 0x45	; 69
    14ca:	0e 94 90 42 	call	0x8520	; 0x8520 <__mulsf3>
    14ce:	dc 01       	movw	r26, r24
    14d0:	cb 01       	movw	r24, r22
    14d2:	8f 83       	std	Y+7, r24	; 0x07
    14d4:	98 87       	std	Y+8, r25	; 0x08
    14d6:	a9 87       	std	Y+9, r26	; 0x09
    14d8:	ba 87       	std	Y+10, r27	; 0x0a
    14da:	6f 81       	ldd	r22, Y+7	; 0x07
    14dc:	78 85       	ldd	r23, Y+8	; 0x08
    14de:	89 85       	ldd	r24, Y+9	; 0x09
    14e0:	9a 85       	ldd	r25, Y+10	; 0x0a
    14e2:	20 e0       	ldi	r18, 0x00	; 0
    14e4:	30 e0       	ldi	r19, 0x00	; 0
    14e6:	40 e8       	ldi	r20, 0x80	; 128
    14e8:	5f e3       	ldi	r21, 0x3F	; 63
    14ea:	0e 94 04 41 	call	0x8208	; 0x8208 <__cmpsf2>
    14ee:	88 23       	and	r24, r24
    14f0:	2c f4       	brge	.+10     	; 0x14fc <__stack+0x3fd>
    14f2:	81 e0       	ldi	r24, 0x01	; 1
    14f4:	90 e0       	ldi	r25, 0x00	; 0
    14f6:	9e 83       	std	Y+6, r25	; 0x06
    14f8:	8d 83       	std	Y+5, r24	; 0x05
    14fa:	3f c0       	rjmp	.+126    	; 0x157a <__stack+0x47b>
    14fc:	6f 81       	ldd	r22, Y+7	; 0x07
    14fe:	78 85       	ldd	r23, Y+8	; 0x08
    1500:	89 85       	ldd	r24, Y+9	; 0x09
    1502:	9a 85       	ldd	r25, Y+10	; 0x0a
    1504:	20 e0       	ldi	r18, 0x00	; 0
    1506:	3f ef       	ldi	r19, 0xFF	; 255
    1508:	4f e7       	ldi	r20, 0x7F	; 127
    150a:	57 e4       	ldi	r21, 0x47	; 71
    150c:	0e 94 8c 42 	call	0x8518	; 0x8518 <__gesf2>
    1510:	18 16       	cp	r1, r24
    1512:	4c f5       	brge	.+82     	; 0x1566 <__stack+0x467>
    1514:	6b 85       	ldd	r22, Y+11	; 0x0b
    1516:	7c 85       	ldd	r23, Y+12	; 0x0c
    1518:	8d 85       	ldd	r24, Y+13	; 0x0d
    151a:	9e 85       	ldd	r25, Y+14	; 0x0e
    151c:	20 e0       	ldi	r18, 0x00	; 0
    151e:	30 e0       	ldi	r19, 0x00	; 0
    1520:	40 e2       	ldi	r20, 0x20	; 32
    1522:	51 e4       	ldi	r21, 0x41	; 65
    1524:	0e 94 90 42 	call	0x8520	; 0x8520 <__mulsf3>
    1528:	dc 01       	movw	r26, r24
    152a:	cb 01       	movw	r24, r22
    152c:	bc 01       	movw	r22, r24
    152e:	cd 01       	movw	r24, r26
    1530:	0e 94 70 41 	call	0x82e0	; 0x82e0 <__fixunssfsi>
    1534:	dc 01       	movw	r26, r24
    1536:	cb 01       	movw	r24, r22
    1538:	9e 83       	std	Y+6, r25	; 0x06
    153a:	8d 83       	std	Y+5, r24	; 0x05
    153c:	0f c0       	rjmp	.+30     	; 0x155c <__stack+0x45d>
    153e:	8a ef       	ldi	r24, 0xFA	; 250
    1540:	90 e0       	ldi	r25, 0x00	; 0
    1542:	9c 83       	std	Y+4, r25	; 0x04
    1544:	8b 83       	std	Y+3, r24	; 0x03
    1546:	8b 81       	ldd	r24, Y+3	; 0x03
    1548:	9c 81       	ldd	r25, Y+4	; 0x04
    154a:	01 97       	sbiw	r24, 0x01	; 1
    154c:	f1 f7       	brne	.-4      	; 0x154a <__stack+0x44b>
    154e:	9c 83       	std	Y+4, r25	; 0x04
    1550:	8b 83       	std	Y+3, r24	; 0x03
    1552:	8d 81       	ldd	r24, Y+5	; 0x05
    1554:	9e 81       	ldd	r25, Y+6	; 0x06
    1556:	01 97       	sbiw	r24, 0x01	; 1
    1558:	9e 83       	std	Y+6, r25	; 0x06
    155a:	8d 83       	std	Y+5, r24	; 0x05
    155c:	8d 81       	ldd	r24, Y+5	; 0x05
    155e:	9e 81       	ldd	r25, Y+6	; 0x06
    1560:	00 97       	sbiw	r24, 0x00	; 0
    1562:	69 f7       	brne	.-38     	; 0x153e <__stack+0x43f>
    1564:	14 c0       	rjmp	.+40     	; 0x158e <__stack+0x48f>
    1566:	6f 81       	ldd	r22, Y+7	; 0x07
    1568:	78 85       	ldd	r23, Y+8	; 0x08
    156a:	89 85       	ldd	r24, Y+9	; 0x09
    156c:	9a 85       	ldd	r25, Y+10	; 0x0a
    156e:	0e 94 70 41 	call	0x82e0	; 0x82e0 <__fixunssfsi>
    1572:	dc 01       	movw	r26, r24
    1574:	cb 01       	movw	r24, r22
    1576:	9e 83       	std	Y+6, r25	; 0x06
    1578:	8d 83       	std	Y+5, r24	; 0x05
    157a:	8d 81       	ldd	r24, Y+5	; 0x05
    157c:	9e 81       	ldd	r25, Y+6	; 0x06
    157e:	9a 83       	std	Y+2, r25	; 0x02
    1580:	89 83       	std	Y+1, r24	; 0x01
    1582:	89 81       	ldd	r24, Y+1	; 0x01
    1584:	9a 81       	ldd	r25, Y+2	; 0x02
    1586:	01 97       	sbiw	r24, 0x01	; 1
    1588:	f1 f7       	brne	.-4      	; 0x1586 <__stack+0x487>
    158a:	9a 83       	std	Y+2, r25	; 0x02
    158c:	89 83       	std	Y+1, r24	; 0x01
    158e:	ce 01       	movw	r24, r28
    1590:	89 5b       	subi	r24, 0xB9	; 185
    1592:	9f 4f       	sbci	r25, 0xFF	; 255
    1594:	64 ed       	ldi	r22, 0xD4	; 212
    1596:	c9 d6       	rcall	.+3474   	; 0x232a <CAN_Write>
    1598:	88 23       	and	r24, r24
    159a:	09 f0       	breq	.+2      	; 0x159e <__stack+0x49f>
    159c:	86 cf       	rjmp	.-244    	; 0x14aa <__stack+0x3ab>
    159e:	c0 5b       	subi	r28, 0xB0	; 176
    15a0:	df 4f       	sbci	r29, 0xFF	; 255
    15a2:	0f b6       	in	r0, 0x3f	; 63
    15a4:	f8 94       	cli
    15a6:	de bf       	out	0x3e, r29	; 62
    15a8:	0f be       	out	0x3f, r0	; 63
    15aa:	cd bf       	out	0x3d, r28	; 61
    15ac:	cf 91       	pop	r28
    15ae:	df 91       	pop	r29
    15b0:	1f 91       	pop	r17
    15b2:	0f 91       	pop	r16
    15b4:	08 95       	ret

000015b6 <leftDiafram>:
    15b6:	df 93       	push	r29
    15b8:	cf 93       	push	r28
    15ba:	cd b7       	in	r28, 0x3d	; 61
    15bc:	de b7       	in	r29, 0x3e	; 62
    15be:	a5 97       	sbiw	r28, 0x25	; 37
    15c0:	0f b6       	in	r0, 0x3f	; 63
    15c2:	f8 94       	cli
    15c4:	de bf       	out	0x3e, r29	; 62
    15c6:	0f be       	out	0x3f, r0	; 63
    15c8:	cd bf       	out	0x3d, r28	; 61
    15ca:	8d a3       	std	Y+37, r24	; 0x25
    15cc:	83 e4       	ldi	r24, 0x43	; 67
    15ce:	8d 8f       	std	Y+29, r24	; 0x1d
    15d0:	8d a1       	ldd	r24, Y+37	; 0x25
    15d2:	81 30       	cpi	r24, 0x01	; 1
    15d4:	09 f0       	breq	.+2      	; 0x15d8 <leftDiafram+0x22>
    15d6:	7d c0       	rjmp	.+250    	; 0x16d2 <leftDiafram+0x11c>
    15d8:	81 e0       	ldi	r24, 0x01	; 1
    15da:	8e 8f       	std	Y+30, r24	; 0x1e
    15dc:	72 c0       	rjmp	.+228    	; 0x16c2 <leftDiafram+0x10c>
    15de:	80 e0       	ldi	r24, 0x00	; 0
    15e0:	90 e0       	ldi	r25, 0x00	; 0
    15e2:	a8 e4       	ldi	r26, 0x48	; 72
    15e4:	b2 e4       	ldi	r27, 0x42	; 66
    15e6:	89 8f       	std	Y+25, r24	; 0x19
    15e8:	9a 8f       	std	Y+26, r25	; 0x1a
    15ea:	ab 8f       	std	Y+27, r26	; 0x1b
    15ec:	bc 8f       	std	Y+28, r27	; 0x1c
    15ee:	69 8d       	ldd	r22, Y+25	; 0x19
    15f0:	7a 8d       	ldd	r23, Y+26	; 0x1a
    15f2:	8b 8d       	ldd	r24, Y+27	; 0x1b
    15f4:	9c 8d       	ldd	r25, Y+28	; 0x1c
    15f6:	20 e0       	ldi	r18, 0x00	; 0
    15f8:	30 e4       	ldi	r19, 0x40	; 64
    15fa:	4c e1       	ldi	r20, 0x1C	; 28
    15fc:	55 e4       	ldi	r21, 0x45	; 69
    15fe:	0e 94 90 42 	call	0x8520	; 0x8520 <__mulsf3>
    1602:	dc 01       	movw	r26, r24
    1604:	cb 01       	movw	r24, r22
    1606:	8d 8b       	std	Y+21, r24	; 0x15
    1608:	9e 8b       	std	Y+22, r25	; 0x16
    160a:	af 8b       	std	Y+23, r26	; 0x17
    160c:	b8 8f       	std	Y+24, r27	; 0x18
    160e:	6d 89       	ldd	r22, Y+21	; 0x15
    1610:	7e 89       	ldd	r23, Y+22	; 0x16
    1612:	8f 89       	ldd	r24, Y+23	; 0x17
    1614:	98 8d       	ldd	r25, Y+24	; 0x18
    1616:	20 e0       	ldi	r18, 0x00	; 0
    1618:	30 e0       	ldi	r19, 0x00	; 0
    161a:	40 e8       	ldi	r20, 0x80	; 128
    161c:	5f e3       	ldi	r21, 0x3F	; 63
    161e:	0e 94 04 41 	call	0x8208	; 0x8208 <__cmpsf2>
    1622:	88 23       	and	r24, r24
    1624:	2c f4       	brge	.+10     	; 0x1630 <leftDiafram+0x7a>
    1626:	81 e0       	ldi	r24, 0x01	; 1
    1628:	90 e0       	ldi	r25, 0x00	; 0
    162a:	9c 8b       	std	Y+20, r25	; 0x14
    162c:	8b 8b       	std	Y+19, r24	; 0x13
    162e:	3f c0       	rjmp	.+126    	; 0x16ae <leftDiafram+0xf8>
    1630:	6d 89       	ldd	r22, Y+21	; 0x15
    1632:	7e 89       	ldd	r23, Y+22	; 0x16
    1634:	8f 89       	ldd	r24, Y+23	; 0x17
    1636:	98 8d       	ldd	r25, Y+24	; 0x18
    1638:	20 e0       	ldi	r18, 0x00	; 0
    163a:	3f ef       	ldi	r19, 0xFF	; 255
    163c:	4f e7       	ldi	r20, 0x7F	; 127
    163e:	57 e4       	ldi	r21, 0x47	; 71
    1640:	0e 94 8c 42 	call	0x8518	; 0x8518 <__gesf2>
    1644:	18 16       	cp	r1, r24
    1646:	4c f5       	brge	.+82     	; 0x169a <leftDiafram+0xe4>
    1648:	69 8d       	ldd	r22, Y+25	; 0x19
    164a:	7a 8d       	ldd	r23, Y+26	; 0x1a
    164c:	8b 8d       	ldd	r24, Y+27	; 0x1b
    164e:	9c 8d       	ldd	r25, Y+28	; 0x1c
    1650:	20 e0       	ldi	r18, 0x00	; 0
    1652:	30 e0       	ldi	r19, 0x00	; 0
    1654:	40 e2       	ldi	r20, 0x20	; 32
    1656:	51 e4       	ldi	r21, 0x41	; 65
    1658:	0e 94 90 42 	call	0x8520	; 0x8520 <__mulsf3>
    165c:	dc 01       	movw	r26, r24
    165e:	cb 01       	movw	r24, r22
    1660:	bc 01       	movw	r22, r24
    1662:	cd 01       	movw	r24, r26
    1664:	0e 94 70 41 	call	0x82e0	; 0x82e0 <__fixunssfsi>
    1668:	dc 01       	movw	r26, r24
    166a:	cb 01       	movw	r24, r22
    166c:	9c 8b       	std	Y+20, r25	; 0x14
    166e:	8b 8b       	std	Y+19, r24	; 0x13
    1670:	0f c0       	rjmp	.+30     	; 0x1690 <leftDiafram+0xda>
    1672:	8a ef       	ldi	r24, 0xFA	; 250
    1674:	90 e0       	ldi	r25, 0x00	; 0
    1676:	9a 8b       	std	Y+18, r25	; 0x12
    1678:	89 8b       	std	Y+17, r24	; 0x11
    167a:	89 89       	ldd	r24, Y+17	; 0x11
    167c:	9a 89       	ldd	r25, Y+18	; 0x12
    167e:	01 97       	sbiw	r24, 0x01	; 1
    1680:	f1 f7       	brne	.-4      	; 0x167e <leftDiafram+0xc8>
    1682:	9a 8b       	std	Y+18, r25	; 0x12
    1684:	89 8b       	std	Y+17, r24	; 0x11
    1686:	8b 89       	ldd	r24, Y+19	; 0x13
    1688:	9c 89       	ldd	r25, Y+20	; 0x14
    168a:	01 97       	sbiw	r24, 0x01	; 1
    168c:	9c 8b       	std	Y+20, r25	; 0x14
    168e:	8b 8b       	std	Y+19, r24	; 0x13
    1690:	8b 89       	ldd	r24, Y+19	; 0x13
    1692:	9c 89       	ldd	r25, Y+20	; 0x14
    1694:	00 97       	sbiw	r24, 0x00	; 0
    1696:	69 f7       	brne	.-38     	; 0x1672 <leftDiafram+0xbc>
    1698:	14 c0       	rjmp	.+40     	; 0x16c2 <leftDiafram+0x10c>
    169a:	6d 89       	ldd	r22, Y+21	; 0x15
    169c:	7e 89       	ldd	r23, Y+22	; 0x16
    169e:	8f 89       	ldd	r24, Y+23	; 0x17
    16a0:	98 8d       	ldd	r25, Y+24	; 0x18
    16a2:	0e 94 70 41 	call	0x82e0	; 0x82e0 <__fixunssfsi>
    16a6:	dc 01       	movw	r26, r24
    16a8:	cb 01       	movw	r24, r22
    16aa:	9c 8b       	std	Y+20, r25	; 0x14
    16ac:	8b 8b       	std	Y+19, r24	; 0x13
    16ae:	8b 89       	ldd	r24, Y+19	; 0x13
    16b0:	9c 89       	ldd	r25, Y+20	; 0x14
    16b2:	98 8b       	std	Y+16, r25	; 0x10
    16b4:	8f 87       	std	Y+15, r24	; 0x0f
    16b6:	8f 85       	ldd	r24, Y+15	; 0x0f
    16b8:	98 89       	ldd	r25, Y+16	; 0x10
    16ba:	01 97       	sbiw	r24, 0x01	; 1
    16bc:	f1 f7       	brne	.-4      	; 0x16ba <leftDiafram+0x104>
    16be:	98 8b       	std	Y+16, r25	; 0x10
    16c0:	8f 87       	std	Y+15, r24	; 0x0f
    16c2:	ce 01       	movw	r24, r28
    16c4:	4d 96       	adiw	r24, 0x1d	; 29
    16c6:	64 ed       	ldi	r22, 0xD4	; 212
    16c8:	30 d6       	rcall	.+3168   	; 0x232a <CAN_Write>
    16ca:	88 23       	and	r24, r24
    16cc:	09 f0       	breq	.+2      	; 0x16d0 <leftDiafram+0x11a>
    16ce:	87 cf       	rjmp	.-242    	; 0x15de <leftDiafram+0x28>
    16d0:	7c c0       	rjmp	.+248    	; 0x17ca <leftDiafram+0x214>
    16d2:	8f ef       	ldi	r24, 0xFF	; 255
    16d4:	8e 8f       	std	Y+30, r24	; 0x1e
    16d6:	72 c0       	rjmp	.+228    	; 0x17bc <leftDiafram+0x206>
    16d8:	80 e0       	ldi	r24, 0x00	; 0
    16da:	90 e0       	ldi	r25, 0x00	; 0
    16dc:	a8 e4       	ldi	r26, 0x48	; 72
    16de:	b2 e4       	ldi	r27, 0x42	; 66
    16e0:	8b 87       	std	Y+11, r24	; 0x0b
    16e2:	9c 87       	std	Y+12, r25	; 0x0c
    16e4:	ad 87       	std	Y+13, r26	; 0x0d
    16e6:	be 87       	std	Y+14, r27	; 0x0e
    16e8:	6b 85       	ldd	r22, Y+11	; 0x0b
    16ea:	7c 85       	ldd	r23, Y+12	; 0x0c
    16ec:	8d 85       	ldd	r24, Y+13	; 0x0d
    16ee:	9e 85       	ldd	r25, Y+14	; 0x0e
    16f0:	20 e0       	ldi	r18, 0x00	; 0
    16f2:	30 e4       	ldi	r19, 0x40	; 64
    16f4:	4c e1       	ldi	r20, 0x1C	; 28
    16f6:	55 e4       	ldi	r21, 0x45	; 69
    16f8:	0e 94 90 42 	call	0x8520	; 0x8520 <__mulsf3>
    16fc:	dc 01       	movw	r26, r24
    16fe:	cb 01       	movw	r24, r22
    1700:	8f 83       	std	Y+7, r24	; 0x07
    1702:	98 87       	std	Y+8, r25	; 0x08
    1704:	a9 87       	std	Y+9, r26	; 0x09
    1706:	ba 87       	std	Y+10, r27	; 0x0a
    1708:	6f 81       	ldd	r22, Y+7	; 0x07
    170a:	78 85       	ldd	r23, Y+8	; 0x08
    170c:	89 85       	ldd	r24, Y+9	; 0x09
    170e:	9a 85       	ldd	r25, Y+10	; 0x0a
    1710:	20 e0       	ldi	r18, 0x00	; 0
    1712:	30 e0       	ldi	r19, 0x00	; 0
    1714:	40 e8       	ldi	r20, 0x80	; 128
    1716:	5f e3       	ldi	r21, 0x3F	; 63
    1718:	0e 94 04 41 	call	0x8208	; 0x8208 <__cmpsf2>
    171c:	88 23       	and	r24, r24
    171e:	2c f4       	brge	.+10     	; 0x172a <leftDiafram+0x174>
    1720:	81 e0       	ldi	r24, 0x01	; 1
    1722:	90 e0       	ldi	r25, 0x00	; 0
    1724:	9e 83       	std	Y+6, r25	; 0x06
    1726:	8d 83       	std	Y+5, r24	; 0x05
    1728:	3f c0       	rjmp	.+126    	; 0x17a8 <leftDiafram+0x1f2>
    172a:	6f 81       	ldd	r22, Y+7	; 0x07
    172c:	78 85       	ldd	r23, Y+8	; 0x08
    172e:	89 85       	ldd	r24, Y+9	; 0x09
    1730:	9a 85       	ldd	r25, Y+10	; 0x0a
    1732:	20 e0       	ldi	r18, 0x00	; 0
    1734:	3f ef       	ldi	r19, 0xFF	; 255
    1736:	4f e7       	ldi	r20, 0x7F	; 127
    1738:	57 e4       	ldi	r21, 0x47	; 71
    173a:	0e 94 8c 42 	call	0x8518	; 0x8518 <__gesf2>
    173e:	18 16       	cp	r1, r24
    1740:	4c f5       	brge	.+82     	; 0x1794 <leftDiafram+0x1de>
    1742:	6b 85       	ldd	r22, Y+11	; 0x0b
    1744:	7c 85       	ldd	r23, Y+12	; 0x0c
    1746:	8d 85       	ldd	r24, Y+13	; 0x0d
    1748:	9e 85       	ldd	r25, Y+14	; 0x0e
    174a:	20 e0       	ldi	r18, 0x00	; 0
    174c:	30 e0       	ldi	r19, 0x00	; 0
    174e:	40 e2       	ldi	r20, 0x20	; 32
    1750:	51 e4       	ldi	r21, 0x41	; 65
    1752:	0e 94 90 42 	call	0x8520	; 0x8520 <__mulsf3>
    1756:	dc 01       	movw	r26, r24
    1758:	cb 01       	movw	r24, r22
    175a:	bc 01       	movw	r22, r24
    175c:	cd 01       	movw	r24, r26
    175e:	0e 94 70 41 	call	0x82e0	; 0x82e0 <__fixunssfsi>
    1762:	dc 01       	movw	r26, r24
    1764:	cb 01       	movw	r24, r22
    1766:	9e 83       	std	Y+6, r25	; 0x06
    1768:	8d 83       	std	Y+5, r24	; 0x05
    176a:	0f c0       	rjmp	.+30     	; 0x178a <leftDiafram+0x1d4>
    176c:	8a ef       	ldi	r24, 0xFA	; 250
    176e:	90 e0       	ldi	r25, 0x00	; 0
    1770:	9c 83       	std	Y+4, r25	; 0x04
    1772:	8b 83       	std	Y+3, r24	; 0x03
    1774:	8b 81       	ldd	r24, Y+3	; 0x03
    1776:	9c 81       	ldd	r25, Y+4	; 0x04
    1778:	01 97       	sbiw	r24, 0x01	; 1
    177a:	f1 f7       	brne	.-4      	; 0x1778 <leftDiafram+0x1c2>
    177c:	9c 83       	std	Y+4, r25	; 0x04
    177e:	8b 83       	std	Y+3, r24	; 0x03
    1780:	8d 81       	ldd	r24, Y+5	; 0x05
    1782:	9e 81       	ldd	r25, Y+6	; 0x06
    1784:	01 97       	sbiw	r24, 0x01	; 1
    1786:	9e 83       	std	Y+6, r25	; 0x06
    1788:	8d 83       	std	Y+5, r24	; 0x05
    178a:	8d 81       	ldd	r24, Y+5	; 0x05
    178c:	9e 81       	ldd	r25, Y+6	; 0x06
    178e:	00 97       	sbiw	r24, 0x00	; 0
    1790:	69 f7       	brne	.-38     	; 0x176c <leftDiafram+0x1b6>
    1792:	14 c0       	rjmp	.+40     	; 0x17bc <leftDiafram+0x206>
    1794:	6f 81       	ldd	r22, Y+7	; 0x07
    1796:	78 85       	ldd	r23, Y+8	; 0x08
    1798:	89 85       	ldd	r24, Y+9	; 0x09
    179a:	9a 85       	ldd	r25, Y+10	; 0x0a
    179c:	0e 94 70 41 	call	0x82e0	; 0x82e0 <__fixunssfsi>
    17a0:	dc 01       	movw	r26, r24
    17a2:	cb 01       	movw	r24, r22
    17a4:	9e 83       	std	Y+6, r25	; 0x06
    17a6:	8d 83       	std	Y+5, r24	; 0x05
    17a8:	8d 81       	ldd	r24, Y+5	; 0x05
    17aa:	9e 81       	ldd	r25, Y+6	; 0x06
    17ac:	9a 83       	std	Y+2, r25	; 0x02
    17ae:	89 83       	std	Y+1, r24	; 0x01
    17b0:	89 81       	ldd	r24, Y+1	; 0x01
    17b2:	9a 81       	ldd	r25, Y+2	; 0x02
    17b4:	01 97       	sbiw	r24, 0x01	; 1
    17b6:	f1 f7       	brne	.-4      	; 0x17b4 <leftDiafram+0x1fe>
    17b8:	9a 83       	std	Y+2, r25	; 0x02
    17ba:	89 83       	std	Y+1, r24	; 0x01
    17bc:	ce 01       	movw	r24, r28
    17be:	4d 96       	adiw	r24, 0x1d	; 29
    17c0:	64 ed       	ldi	r22, 0xD4	; 212
    17c2:	b3 d5       	rcall	.+2918   	; 0x232a <CAN_Write>
    17c4:	88 23       	and	r24, r24
    17c6:	09 f0       	breq	.+2      	; 0x17ca <leftDiafram+0x214>
    17c8:	87 cf       	rjmp	.-242    	; 0x16d8 <leftDiafram+0x122>
    17ca:	a5 96       	adiw	r28, 0x25	; 37
    17cc:	0f b6       	in	r0, 0x3f	; 63
    17ce:	f8 94       	cli
    17d0:	de bf       	out	0x3e, r29	; 62
    17d2:	0f be       	out	0x3f, r0	; 63
    17d4:	cd bf       	out	0x3d, r28	; 61
    17d6:	cf 91       	pop	r28
    17d8:	df 91       	pop	r29
    17da:	08 95       	ret

000017dc <rightDiafram>:
    17dc:	df 93       	push	r29
    17de:	cf 93       	push	r28
    17e0:	cd b7       	in	r28, 0x3d	; 61
    17e2:	de b7       	in	r29, 0x3e	; 62
    17e4:	a5 97       	sbiw	r28, 0x25	; 37
    17e6:	0f b6       	in	r0, 0x3f	; 63
    17e8:	f8 94       	cli
    17ea:	de bf       	out	0x3e, r29	; 62
    17ec:	0f be       	out	0x3f, r0	; 63
    17ee:	cd bf       	out	0x3d, r28	; 61
    17f0:	8d a3       	std	Y+37, r24	; 0x25
    17f2:	84 e4       	ldi	r24, 0x44	; 68
    17f4:	8d 8f       	std	Y+29, r24	; 0x1d
    17f6:	8d a1       	ldd	r24, Y+37	; 0x25
    17f8:	81 30       	cpi	r24, 0x01	; 1
    17fa:	09 f0       	breq	.+2      	; 0x17fe <rightDiafram+0x22>
    17fc:	7d c0       	rjmp	.+250    	; 0x18f8 <rightDiafram+0x11c>
    17fe:	81 e0       	ldi	r24, 0x01	; 1
    1800:	8e 8f       	std	Y+30, r24	; 0x1e
    1802:	72 c0       	rjmp	.+228    	; 0x18e8 <rightDiafram+0x10c>
    1804:	80 e0       	ldi	r24, 0x00	; 0
    1806:	90 e0       	ldi	r25, 0x00	; 0
    1808:	a8 e4       	ldi	r26, 0x48	; 72
    180a:	b2 e4       	ldi	r27, 0x42	; 66
    180c:	89 8f       	std	Y+25, r24	; 0x19
    180e:	9a 8f       	std	Y+26, r25	; 0x1a
    1810:	ab 8f       	std	Y+27, r26	; 0x1b
    1812:	bc 8f       	std	Y+28, r27	; 0x1c
    1814:	69 8d       	ldd	r22, Y+25	; 0x19
    1816:	7a 8d       	ldd	r23, Y+26	; 0x1a
    1818:	8b 8d       	ldd	r24, Y+27	; 0x1b
    181a:	9c 8d       	ldd	r25, Y+28	; 0x1c
    181c:	20 e0       	ldi	r18, 0x00	; 0
    181e:	30 e4       	ldi	r19, 0x40	; 64
    1820:	4c e1       	ldi	r20, 0x1C	; 28
    1822:	55 e4       	ldi	r21, 0x45	; 69
    1824:	0e 94 90 42 	call	0x8520	; 0x8520 <__mulsf3>
    1828:	dc 01       	movw	r26, r24
    182a:	cb 01       	movw	r24, r22
    182c:	8d 8b       	std	Y+21, r24	; 0x15
    182e:	9e 8b       	std	Y+22, r25	; 0x16
    1830:	af 8b       	std	Y+23, r26	; 0x17
    1832:	b8 8f       	std	Y+24, r27	; 0x18
    1834:	6d 89       	ldd	r22, Y+21	; 0x15
    1836:	7e 89       	ldd	r23, Y+22	; 0x16
    1838:	8f 89       	ldd	r24, Y+23	; 0x17
    183a:	98 8d       	ldd	r25, Y+24	; 0x18
    183c:	20 e0       	ldi	r18, 0x00	; 0
    183e:	30 e0       	ldi	r19, 0x00	; 0
    1840:	40 e8       	ldi	r20, 0x80	; 128
    1842:	5f e3       	ldi	r21, 0x3F	; 63
    1844:	0e 94 04 41 	call	0x8208	; 0x8208 <__cmpsf2>
    1848:	88 23       	and	r24, r24
    184a:	2c f4       	brge	.+10     	; 0x1856 <rightDiafram+0x7a>
    184c:	81 e0       	ldi	r24, 0x01	; 1
    184e:	90 e0       	ldi	r25, 0x00	; 0
    1850:	9c 8b       	std	Y+20, r25	; 0x14
    1852:	8b 8b       	std	Y+19, r24	; 0x13
    1854:	3f c0       	rjmp	.+126    	; 0x18d4 <rightDiafram+0xf8>
    1856:	6d 89       	ldd	r22, Y+21	; 0x15
    1858:	7e 89       	ldd	r23, Y+22	; 0x16
    185a:	8f 89       	ldd	r24, Y+23	; 0x17
    185c:	98 8d       	ldd	r25, Y+24	; 0x18
    185e:	20 e0       	ldi	r18, 0x00	; 0
    1860:	3f ef       	ldi	r19, 0xFF	; 255
    1862:	4f e7       	ldi	r20, 0x7F	; 127
    1864:	57 e4       	ldi	r21, 0x47	; 71
    1866:	0e 94 8c 42 	call	0x8518	; 0x8518 <__gesf2>
    186a:	18 16       	cp	r1, r24
    186c:	4c f5       	brge	.+82     	; 0x18c0 <rightDiafram+0xe4>
    186e:	69 8d       	ldd	r22, Y+25	; 0x19
    1870:	7a 8d       	ldd	r23, Y+26	; 0x1a
    1872:	8b 8d       	ldd	r24, Y+27	; 0x1b
    1874:	9c 8d       	ldd	r25, Y+28	; 0x1c
    1876:	20 e0       	ldi	r18, 0x00	; 0
    1878:	30 e0       	ldi	r19, 0x00	; 0
    187a:	40 e2       	ldi	r20, 0x20	; 32
    187c:	51 e4       	ldi	r21, 0x41	; 65
    187e:	0e 94 90 42 	call	0x8520	; 0x8520 <__mulsf3>
    1882:	dc 01       	movw	r26, r24
    1884:	cb 01       	movw	r24, r22
    1886:	bc 01       	movw	r22, r24
    1888:	cd 01       	movw	r24, r26
    188a:	0e 94 70 41 	call	0x82e0	; 0x82e0 <__fixunssfsi>
    188e:	dc 01       	movw	r26, r24
    1890:	cb 01       	movw	r24, r22
    1892:	9c 8b       	std	Y+20, r25	; 0x14
    1894:	8b 8b       	std	Y+19, r24	; 0x13
    1896:	0f c0       	rjmp	.+30     	; 0x18b6 <rightDiafram+0xda>
    1898:	8a ef       	ldi	r24, 0xFA	; 250
    189a:	90 e0       	ldi	r25, 0x00	; 0
    189c:	9a 8b       	std	Y+18, r25	; 0x12
    189e:	89 8b       	std	Y+17, r24	; 0x11
    18a0:	89 89       	ldd	r24, Y+17	; 0x11
    18a2:	9a 89       	ldd	r25, Y+18	; 0x12
    18a4:	01 97       	sbiw	r24, 0x01	; 1
    18a6:	f1 f7       	brne	.-4      	; 0x18a4 <rightDiafram+0xc8>
    18a8:	9a 8b       	std	Y+18, r25	; 0x12
    18aa:	89 8b       	std	Y+17, r24	; 0x11
    18ac:	8b 89       	ldd	r24, Y+19	; 0x13
    18ae:	9c 89       	ldd	r25, Y+20	; 0x14
    18b0:	01 97       	sbiw	r24, 0x01	; 1
    18b2:	9c 8b       	std	Y+20, r25	; 0x14
    18b4:	8b 8b       	std	Y+19, r24	; 0x13
    18b6:	8b 89       	ldd	r24, Y+19	; 0x13
    18b8:	9c 89       	ldd	r25, Y+20	; 0x14
    18ba:	00 97       	sbiw	r24, 0x00	; 0
    18bc:	69 f7       	brne	.-38     	; 0x1898 <rightDiafram+0xbc>
    18be:	14 c0       	rjmp	.+40     	; 0x18e8 <rightDiafram+0x10c>
    18c0:	6d 89       	ldd	r22, Y+21	; 0x15
    18c2:	7e 89       	ldd	r23, Y+22	; 0x16
    18c4:	8f 89       	ldd	r24, Y+23	; 0x17
    18c6:	98 8d       	ldd	r25, Y+24	; 0x18
    18c8:	0e 94 70 41 	call	0x82e0	; 0x82e0 <__fixunssfsi>
    18cc:	dc 01       	movw	r26, r24
    18ce:	cb 01       	movw	r24, r22
    18d0:	9c 8b       	std	Y+20, r25	; 0x14
    18d2:	8b 8b       	std	Y+19, r24	; 0x13
    18d4:	8b 89       	ldd	r24, Y+19	; 0x13
    18d6:	9c 89       	ldd	r25, Y+20	; 0x14
    18d8:	98 8b       	std	Y+16, r25	; 0x10
    18da:	8f 87       	std	Y+15, r24	; 0x0f
    18dc:	8f 85       	ldd	r24, Y+15	; 0x0f
    18de:	98 89       	ldd	r25, Y+16	; 0x10
    18e0:	01 97       	sbiw	r24, 0x01	; 1
    18e2:	f1 f7       	brne	.-4      	; 0x18e0 <rightDiafram+0x104>
    18e4:	98 8b       	std	Y+16, r25	; 0x10
    18e6:	8f 87       	std	Y+15, r24	; 0x0f
    18e8:	ce 01       	movw	r24, r28
    18ea:	4d 96       	adiw	r24, 0x1d	; 29
    18ec:	64 ed       	ldi	r22, 0xD4	; 212
    18ee:	1d d5       	rcall	.+2618   	; 0x232a <CAN_Write>
    18f0:	88 23       	and	r24, r24
    18f2:	09 f0       	breq	.+2      	; 0x18f6 <rightDiafram+0x11a>
    18f4:	87 cf       	rjmp	.-242    	; 0x1804 <rightDiafram+0x28>
    18f6:	7c c0       	rjmp	.+248    	; 0x19f0 <rightDiafram+0x214>
    18f8:	8f ef       	ldi	r24, 0xFF	; 255
    18fa:	8e 8f       	std	Y+30, r24	; 0x1e
    18fc:	72 c0       	rjmp	.+228    	; 0x19e2 <rightDiafram+0x206>
    18fe:	80 e0       	ldi	r24, 0x00	; 0
    1900:	90 e0       	ldi	r25, 0x00	; 0
    1902:	a8 e4       	ldi	r26, 0x48	; 72
    1904:	b2 e4       	ldi	r27, 0x42	; 66
    1906:	8b 87       	std	Y+11, r24	; 0x0b
    1908:	9c 87       	std	Y+12, r25	; 0x0c
    190a:	ad 87       	std	Y+13, r26	; 0x0d
    190c:	be 87       	std	Y+14, r27	; 0x0e
    190e:	6b 85       	ldd	r22, Y+11	; 0x0b
    1910:	7c 85       	ldd	r23, Y+12	; 0x0c
    1912:	8d 85       	ldd	r24, Y+13	; 0x0d
    1914:	9e 85       	ldd	r25, Y+14	; 0x0e
    1916:	20 e0       	ldi	r18, 0x00	; 0
    1918:	30 e4       	ldi	r19, 0x40	; 64
    191a:	4c e1       	ldi	r20, 0x1C	; 28
    191c:	55 e4       	ldi	r21, 0x45	; 69
    191e:	0e 94 90 42 	call	0x8520	; 0x8520 <__mulsf3>
    1922:	dc 01       	movw	r26, r24
    1924:	cb 01       	movw	r24, r22
    1926:	8f 83       	std	Y+7, r24	; 0x07
    1928:	98 87       	std	Y+8, r25	; 0x08
    192a:	a9 87       	std	Y+9, r26	; 0x09
    192c:	ba 87       	std	Y+10, r27	; 0x0a
    192e:	6f 81       	ldd	r22, Y+7	; 0x07
    1930:	78 85       	ldd	r23, Y+8	; 0x08
    1932:	89 85       	ldd	r24, Y+9	; 0x09
    1934:	9a 85       	ldd	r25, Y+10	; 0x0a
    1936:	20 e0       	ldi	r18, 0x00	; 0
    1938:	30 e0       	ldi	r19, 0x00	; 0
    193a:	40 e8       	ldi	r20, 0x80	; 128
    193c:	5f e3       	ldi	r21, 0x3F	; 63
    193e:	0e 94 04 41 	call	0x8208	; 0x8208 <__cmpsf2>
    1942:	88 23       	and	r24, r24
    1944:	2c f4       	brge	.+10     	; 0x1950 <rightDiafram+0x174>
    1946:	81 e0       	ldi	r24, 0x01	; 1
    1948:	90 e0       	ldi	r25, 0x00	; 0
    194a:	9e 83       	std	Y+6, r25	; 0x06
    194c:	8d 83       	std	Y+5, r24	; 0x05
    194e:	3f c0       	rjmp	.+126    	; 0x19ce <rightDiafram+0x1f2>
    1950:	6f 81       	ldd	r22, Y+7	; 0x07
    1952:	78 85       	ldd	r23, Y+8	; 0x08
    1954:	89 85       	ldd	r24, Y+9	; 0x09
    1956:	9a 85       	ldd	r25, Y+10	; 0x0a
    1958:	20 e0       	ldi	r18, 0x00	; 0
    195a:	3f ef       	ldi	r19, 0xFF	; 255
    195c:	4f e7       	ldi	r20, 0x7F	; 127
    195e:	57 e4       	ldi	r21, 0x47	; 71
    1960:	0e 94 8c 42 	call	0x8518	; 0x8518 <__gesf2>
    1964:	18 16       	cp	r1, r24
    1966:	4c f5       	brge	.+82     	; 0x19ba <rightDiafram+0x1de>
    1968:	6b 85       	ldd	r22, Y+11	; 0x0b
    196a:	7c 85       	ldd	r23, Y+12	; 0x0c
    196c:	8d 85       	ldd	r24, Y+13	; 0x0d
    196e:	9e 85       	ldd	r25, Y+14	; 0x0e
    1970:	20 e0       	ldi	r18, 0x00	; 0
    1972:	30 e0       	ldi	r19, 0x00	; 0
    1974:	40 e2       	ldi	r20, 0x20	; 32
    1976:	51 e4       	ldi	r21, 0x41	; 65
    1978:	0e 94 90 42 	call	0x8520	; 0x8520 <__mulsf3>
    197c:	dc 01       	movw	r26, r24
    197e:	cb 01       	movw	r24, r22
    1980:	bc 01       	movw	r22, r24
    1982:	cd 01       	movw	r24, r26
    1984:	0e 94 70 41 	call	0x82e0	; 0x82e0 <__fixunssfsi>
    1988:	dc 01       	movw	r26, r24
    198a:	cb 01       	movw	r24, r22
    198c:	9e 83       	std	Y+6, r25	; 0x06
    198e:	8d 83       	std	Y+5, r24	; 0x05
    1990:	0f c0       	rjmp	.+30     	; 0x19b0 <rightDiafram+0x1d4>
    1992:	8a ef       	ldi	r24, 0xFA	; 250
    1994:	90 e0       	ldi	r25, 0x00	; 0
    1996:	9c 83       	std	Y+4, r25	; 0x04
    1998:	8b 83       	std	Y+3, r24	; 0x03
    199a:	8b 81       	ldd	r24, Y+3	; 0x03
    199c:	9c 81       	ldd	r25, Y+4	; 0x04
    199e:	01 97       	sbiw	r24, 0x01	; 1
    19a0:	f1 f7       	brne	.-4      	; 0x199e <rightDiafram+0x1c2>
    19a2:	9c 83       	std	Y+4, r25	; 0x04
    19a4:	8b 83       	std	Y+3, r24	; 0x03
    19a6:	8d 81       	ldd	r24, Y+5	; 0x05
    19a8:	9e 81       	ldd	r25, Y+6	; 0x06
    19aa:	01 97       	sbiw	r24, 0x01	; 1
    19ac:	9e 83       	std	Y+6, r25	; 0x06
    19ae:	8d 83       	std	Y+5, r24	; 0x05
    19b0:	8d 81       	ldd	r24, Y+5	; 0x05
    19b2:	9e 81       	ldd	r25, Y+6	; 0x06
    19b4:	00 97       	sbiw	r24, 0x00	; 0
    19b6:	69 f7       	brne	.-38     	; 0x1992 <rightDiafram+0x1b6>
    19b8:	14 c0       	rjmp	.+40     	; 0x19e2 <rightDiafram+0x206>
    19ba:	6f 81       	ldd	r22, Y+7	; 0x07
    19bc:	78 85       	ldd	r23, Y+8	; 0x08
    19be:	89 85       	ldd	r24, Y+9	; 0x09
    19c0:	9a 85       	ldd	r25, Y+10	; 0x0a
    19c2:	0e 94 70 41 	call	0x82e0	; 0x82e0 <__fixunssfsi>
    19c6:	dc 01       	movw	r26, r24
    19c8:	cb 01       	movw	r24, r22
    19ca:	9e 83       	std	Y+6, r25	; 0x06
    19cc:	8d 83       	std	Y+5, r24	; 0x05
    19ce:	8d 81       	ldd	r24, Y+5	; 0x05
    19d0:	9e 81       	ldd	r25, Y+6	; 0x06
    19d2:	9a 83       	std	Y+2, r25	; 0x02
    19d4:	89 83       	std	Y+1, r24	; 0x01
    19d6:	89 81       	ldd	r24, Y+1	; 0x01
    19d8:	9a 81       	ldd	r25, Y+2	; 0x02
    19da:	01 97       	sbiw	r24, 0x01	; 1
    19dc:	f1 f7       	brne	.-4      	; 0x19da <rightDiafram+0x1fe>
    19de:	9a 83       	std	Y+2, r25	; 0x02
    19e0:	89 83       	std	Y+1, r24	; 0x01
    19e2:	ce 01       	movw	r24, r28
    19e4:	4d 96       	adiw	r24, 0x1d	; 29
    19e6:	64 ed       	ldi	r22, 0xD4	; 212
    19e8:	a0 d4       	rcall	.+2368   	; 0x232a <CAN_Write>
    19ea:	88 23       	and	r24, r24
    19ec:	09 f0       	breq	.+2      	; 0x19f0 <rightDiafram+0x214>
    19ee:	87 cf       	rjmp	.-242    	; 0x18fe <rightDiafram+0x122>
    19f0:	a5 96       	adiw	r28, 0x25	; 37
    19f2:	0f b6       	in	r0, 0x3f	; 63
    19f4:	f8 94       	cli
    19f6:	de bf       	out	0x3e, r29	; 62
    19f8:	0f be       	out	0x3f, r0	; 63
    19fa:	cd bf       	out	0x3d, r28	; 61
    19fc:	cf 91       	pop	r28
    19fe:	df 91       	pop	r29
    1a00:	08 95       	ret

00001a02 <liftStates>:
    1a02:	df 93       	push	r29
    1a04:	cf 93       	push	r28
    1a06:	cd b7       	in	r28, 0x3d	; 61
    1a08:	de b7       	in	r29, 0x3e	; 62
    1a0a:	a5 97       	sbiw	r28, 0x25	; 37
    1a0c:	0f b6       	in	r0, 0x3f	; 63
    1a0e:	f8 94       	cli
    1a10:	de bf       	out	0x3e, r29	; 62
    1a12:	0f be       	out	0x3f, r0	; 63
    1a14:	cd bf       	out	0x3d, r28	; 61
    1a16:	8d a3       	std	Y+37, r24	; 0x25
    1a18:	85 e4       	ldi	r24, 0x45	; 69
    1a1a:	8d 8f       	std	Y+29, r24	; 0x1d
    1a1c:	8d a1       	ldd	r24, Y+37	; 0x25
    1a1e:	81 30       	cpi	r24, 0x01	; 1
    1a20:	09 f0       	breq	.+2      	; 0x1a24 <liftStates+0x22>
    1a22:	7d c0       	rjmp	.+250    	; 0x1b1e <liftStates+0x11c>
    1a24:	81 e0       	ldi	r24, 0x01	; 1
    1a26:	8e 8f       	std	Y+30, r24	; 0x1e
    1a28:	72 c0       	rjmp	.+228    	; 0x1b0e <liftStates+0x10c>
    1a2a:	80 e0       	ldi	r24, 0x00	; 0
    1a2c:	90 e0       	ldi	r25, 0x00	; 0
    1a2e:	a8 e4       	ldi	r26, 0x48	; 72
    1a30:	b2 e4       	ldi	r27, 0x42	; 66
    1a32:	89 8f       	std	Y+25, r24	; 0x19
    1a34:	9a 8f       	std	Y+26, r25	; 0x1a
    1a36:	ab 8f       	std	Y+27, r26	; 0x1b
    1a38:	bc 8f       	std	Y+28, r27	; 0x1c
    1a3a:	69 8d       	ldd	r22, Y+25	; 0x19
    1a3c:	7a 8d       	ldd	r23, Y+26	; 0x1a
    1a3e:	8b 8d       	ldd	r24, Y+27	; 0x1b
    1a40:	9c 8d       	ldd	r25, Y+28	; 0x1c
    1a42:	20 e0       	ldi	r18, 0x00	; 0
    1a44:	30 e4       	ldi	r19, 0x40	; 64
    1a46:	4c e1       	ldi	r20, 0x1C	; 28
    1a48:	55 e4       	ldi	r21, 0x45	; 69
    1a4a:	0e 94 90 42 	call	0x8520	; 0x8520 <__mulsf3>
    1a4e:	dc 01       	movw	r26, r24
    1a50:	cb 01       	movw	r24, r22
    1a52:	8d 8b       	std	Y+21, r24	; 0x15
    1a54:	9e 8b       	std	Y+22, r25	; 0x16
    1a56:	af 8b       	std	Y+23, r26	; 0x17
    1a58:	b8 8f       	std	Y+24, r27	; 0x18
    1a5a:	6d 89       	ldd	r22, Y+21	; 0x15
    1a5c:	7e 89       	ldd	r23, Y+22	; 0x16
    1a5e:	8f 89       	ldd	r24, Y+23	; 0x17
    1a60:	98 8d       	ldd	r25, Y+24	; 0x18
    1a62:	20 e0       	ldi	r18, 0x00	; 0
    1a64:	30 e0       	ldi	r19, 0x00	; 0
    1a66:	40 e8       	ldi	r20, 0x80	; 128
    1a68:	5f e3       	ldi	r21, 0x3F	; 63
    1a6a:	0e 94 04 41 	call	0x8208	; 0x8208 <__cmpsf2>
    1a6e:	88 23       	and	r24, r24
    1a70:	2c f4       	brge	.+10     	; 0x1a7c <liftStates+0x7a>
    1a72:	81 e0       	ldi	r24, 0x01	; 1
    1a74:	90 e0       	ldi	r25, 0x00	; 0
    1a76:	9c 8b       	std	Y+20, r25	; 0x14
    1a78:	8b 8b       	std	Y+19, r24	; 0x13
    1a7a:	3f c0       	rjmp	.+126    	; 0x1afa <liftStates+0xf8>
    1a7c:	6d 89       	ldd	r22, Y+21	; 0x15
    1a7e:	7e 89       	ldd	r23, Y+22	; 0x16
    1a80:	8f 89       	ldd	r24, Y+23	; 0x17
    1a82:	98 8d       	ldd	r25, Y+24	; 0x18
    1a84:	20 e0       	ldi	r18, 0x00	; 0
    1a86:	3f ef       	ldi	r19, 0xFF	; 255
    1a88:	4f e7       	ldi	r20, 0x7F	; 127
    1a8a:	57 e4       	ldi	r21, 0x47	; 71
    1a8c:	0e 94 8c 42 	call	0x8518	; 0x8518 <__gesf2>
    1a90:	18 16       	cp	r1, r24
    1a92:	4c f5       	brge	.+82     	; 0x1ae6 <liftStates+0xe4>
    1a94:	69 8d       	ldd	r22, Y+25	; 0x19
    1a96:	7a 8d       	ldd	r23, Y+26	; 0x1a
    1a98:	8b 8d       	ldd	r24, Y+27	; 0x1b
    1a9a:	9c 8d       	ldd	r25, Y+28	; 0x1c
    1a9c:	20 e0       	ldi	r18, 0x00	; 0
    1a9e:	30 e0       	ldi	r19, 0x00	; 0
    1aa0:	40 e2       	ldi	r20, 0x20	; 32
    1aa2:	51 e4       	ldi	r21, 0x41	; 65
    1aa4:	0e 94 90 42 	call	0x8520	; 0x8520 <__mulsf3>
    1aa8:	dc 01       	movw	r26, r24
    1aaa:	cb 01       	movw	r24, r22
    1aac:	bc 01       	movw	r22, r24
    1aae:	cd 01       	movw	r24, r26
    1ab0:	0e 94 70 41 	call	0x82e0	; 0x82e0 <__fixunssfsi>
    1ab4:	dc 01       	movw	r26, r24
    1ab6:	cb 01       	movw	r24, r22
    1ab8:	9c 8b       	std	Y+20, r25	; 0x14
    1aba:	8b 8b       	std	Y+19, r24	; 0x13
    1abc:	0f c0       	rjmp	.+30     	; 0x1adc <liftStates+0xda>
    1abe:	8a ef       	ldi	r24, 0xFA	; 250
    1ac0:	90 e0       	ldi	r25, 0x00	; 0
    1ac2:	9a 8b       	std	Y+18, r25	; 0x12
    1ac4:	89 8b       	std	Y+17, r24	; 0x11
    1ac6:	89 89       	ldd	r24, Y+17	; 0x11
    1ac8:	9a 89       	ldd	r25, Y+18	; 0x12
    1aca:	01 97       	sbiw	r24, 0x01	; 1
    1acc:	f1 f7       	brne	.-4      	; 0x1aca <liftStates+0xc8>
    1ace:	9a 8b       	std	Y+18, r25	; 0x12
    1ad0:	89 8b       	std	Y+17, r24	; 0x11
    1ad2:	8b 89       	ldd	r24, Y+19	; 0x13
    1ad4:	9c 89       	ldd	r25, Y+20	; 0x14
    1ad6:	01 97       	sbiw	r24, 0x01	; 1
    1ad8:	9c 8b       	std	Y+20, r25	; 0x14
    1ada:	8b 8b       	std	Y+19, r24	; 0x13
    1adc:	8b 89       	ldd	r24, Y+19	; 0x13
    1ade:	9c 89       	ldd	r25, Y+20	; 0x14
    1ae0:	00 97       	sbiw	r24, 0x00	; 0
    1ae2:	69 f7       	brne	.-38     	; 0x1abe <liftStates+0xbc>
    1ae4:	14 c0       	rjmp	.+40     	; 0x1b0e <liftStates+0x10c>
    1ae6:	6d 89       	ldd	r22, Y+21	; 0x15
    1ae8:	7e 89       	ldd	r23, Y+22	; 0x16
    1aea:	8f 89       	ldd	r24, Y+23	; 0x17
    1aec:	98 8d       	ldd	r25, Y+24	; 0x18
    1aee:	0e 94 70 41 	call	0x82e0	; 0x82e0 <__fixunssfsi>
    1af2:	dc 01       	movw	r26, r24
    1af4:	cb 01       	movw	r24, r22
    1af6:	9c 8b       	std	Y+20, r25	; 0x14
    1af8:	8b 8b       	std	Y+19, r24	; 0x13
    1afa:	8b 89       	ldd	r24, Y+19	; 0x13
    1afc:	9c 89       	ldd	r25, Y+20	; 0x14
    1afe:	98 8b       	std	Y+16, r25	; 0x10
    1b00:	8f 87       	std	Y+15, r24	; 0x0f
    1b02:	8f 85       	ldd	r24, Y+15	; 0x0f
    1b04:	98 89       	ldd	r25, Y+16	; 0x10
    1b06:	01 97       	sbiw	r24, 0x01	; 1
    1b08:	f1 f7       	brne	.-4      	; 0x1b06 <liftStates+0x104>
    1b0a:	98 8b       	std	Y+16, r25	; 0x10
    1b0c:	8f 87       	std	Y+15, r24	; 0x0f
    1b0e:	ce 01       	movw	r24, r28
    1b10:	4d 96       	adiw	r24, 0x1d	; 29
    1b12:	64 ed       	ldi	r22, 0xD4	; 212
    1b14:	0a d4       	rcall	.+2068   	; 0x232a <CAN_Write>
    1b16:	88 23       	and	r24, r24
    1b18:	09 f0       	breq	.+2      	; 0x1b1c <liftStates+0x11a>
    1b1a:	87 cf       	rjmp	.-242    	; 0x1a2a <liftStates+0x28>
    1b1c:	7c c0       	rjmp	.+248    	; 0x1c16 <liftStates+0x214>
    1b1e:	8f ef       	ldi	r24, 0xFF	; 255
    1b20:	8e 8f       	std	Y+30, r24	; 0x1e
    1b22:	72 c0       	rjmp	.+228    	; 0x1c08 <liftStates+0x206>
    1b24:	80 e0       	ldi	r24, 0x00	; 0
    1b26:	90 e0       	ldi	r25, 0x00	; 0
    1b28:	a8 e4       	ldi	r26, 0x48	; 72
    1b2a:	b2 e4       	ldi	r27, 0x42	; 66
    1b2c:	8b 87       	std	Y+11, r24	; 0x0b
    1b2e:	9c 87       	std	Y+12, r25	; 0x0c
    1b30:	ad 87       	std	Y+13, r26	; 0x0d
    1b32:	be 87       	std	Y+14, r27	; 0x0e
    1b34:	6b 85       	ldd	r22, Y+11	; 0x0b
    1b36:	7c 85       	ldd	r23, Y+12	; 0x0c
    1b38:	8d 85       	ldd	r24, Y+13	; 0x0d
    1b3a:	9e 85       	ldd	r25, Y+14	; 0x0e
    1b3c:	20 e0       	ldi	r18, 0x00	; 0
    1b3e:	30 e4       	ldi	r19, 0x40	; 64
    1b40:	4c e1       	ldi	r20, 0x1C	; 28
    1b42:	55 e4       	ldi	r21, 0x45	; 69
    1b44:	0e 94 90 42 	call	0x8520	; 0x8520 <__mulsf3>
    1b48:	dc 01       	movw	r26, r24
    1b4a:	cb 01       	movw	r24, r22
    1b4c:	8f 83       	std	Y+7, r24	; 0x07
    1b4e:	98 87       	std	Y+8, r25	; 0x08
    1b50:	a9 87       	std	Y+9, r26	; 0x09
    1b52:	ba 87       	std	Y+10, r27	; 0x0a
    1b54:	6f 81       	ldd	r22, Y+7	; 0x07
    1b56:	78 85       	ldd	r23, Y+8	; 0x08
    1b58:	89 85       	ldd	r24, Y+9	; 0x09
    1b5a:	9a 85       	ldd	r25, Y+10	; 0x0a
    1b5c:	20 e0       	ldi	r18, 0x00	; 0
    1b5e:	30 e0       	ldi	r19, 0x00	; 0
    1b60:	40 e8       	ldi	r20, 0x80	; 128
    1b62:	5f e3       	ldi	r21, 0x3F	; 63
    1b64:	0e 94 04 41 	call	0x8208	; 0x8208 <__cmpsf2>
    1b68:	88 23       	and	r24, r24
    1b6a:	2c f4       	brge	.+10     	; 0x1b76 <liftStates+0x174>
    1b6c:	81 e0       	ldi	r24, 0x01	; 1
    1b6e:	90 e0       	ldi	r25, 0x00	; 0
    1b70:	9e 83       	std	Y+6, r25	; 0x06
    1b72:	8d 83       	std	Y+5, r24	; 0x05
    1b74:	3f c0       	rjmp	.+126    	; 0x1bf4 <liftStates+0x1f2>
    1b76:	6f 81       	ldd	r22, Y+7	; 0x07
    1b78:	78 85       	ldd	r23, Y+8	; 0x08
    1b7a:	89 85       	ldd	r24, Y+9	; 0x09
    1b7c:	9a 85       	ldd	r25, Y+10	; 0x0a
    1b7e:	20 e0       	ldi	r18, 0x00	; 0
    1b80:	3f ef       	ldi	r19, 0xFF	; 255
    1b82:	4f e7       	ldi	r20, 0x7F	; 127
    1b84:	57 e4       	ldi	r21, 0x47	; 71
    1b86:	0e 94 8c 42 	call	0x8518	; 0x8518 <__gesf2>
    1b8a:	18 16       	cp	r1, r24
    1b8c:	4c f5       	brge	.+82     	; 0x1be0 <liftStates+0x1de>
    1b8e:	6b 85       	ldd	r22, Y+11	; 0x0b
    1b90:	7c 85       	ldd	r23, Y+12	; 0x0c
    1b92:	8d 85       	ldd	r24, Y+13	; 0x0d
    1b94:	9e 85       	ldd	r25, Y+14	; 0x0e
    1b96:	20 e0       	ldi	r18, 0x00	; 0
    1b98:	30 e0       	ldi	r19, 0x00	; 0
    1b9a:	40 e2       	ldi	r20, 0x20	; 32
    1b9c:	51 e4       	ldi	r21, 0x41	; 65
    1b9e:	0e 94 90 42 	call	0x8520	; 0x8520 <__mulsf3>
    1ba2:	dc 01       	movw	r26, r24
    1ba4:	cb 01       	movw	r24, r22
    1ba6:	bc 01       	movw	r22, r24
    1ba8:	cd 01       	movw	r24, r26
    1baa:	0e 94 70 41 	call	0x82e0	; 0x82e0 <__fixunssfsi>
    1bae:	dc 01       	movw	r26, r24
    1bb0:	cb 01       	movw	r24, r22
    1bb2:	9e 83       	std	Y+6, r25	; 0x06
    1bb4:	8d 83       	std	Y+5, r24	; 0x05
    1bb6:	0f c0       	rjmp	.+30     	; 0x1bd6 <liftStates+0x1d4>
    1bb8:	8a ef       	ldi	r24, 0xFA	; 250
    1bba:	90 e0       	ldi	r25, 0x00	; 0
    1bbc:	9c 83       	std	Y+4, r25	; 0x04
    1bbe:	8b 83       	std	Y+3, r24	; 0x03
    1bc0:	8b 81       	ldd	r24, Y+3	; 0x03
    1bc2:	9c 81       	ldd	r25, Y+4	; 0x04
    1bc4:	01 97       	sbiw	r24, 0x01	; 1
    1bc6:	f1 f7       	brne	.-4      	; 0x1bc4 <liftStates+0x1c2>
    1bc8:	9c 83       	std	Y+4, r25	; 0x04
    1bca:	8b 83       	std	Y+3, r24	; 0x03
    1bcc:	8d 81       	ldd	r24, Y+5	; 0x05
    1bce:	9e 81       	ldd	r25, Y+6	; 0x06
    1bd0:	01 97       	sbiw	r24, 0x01	; 1
    1bd2:	9e 83       	std	Y+6, r25	; 0x06
    1bd4:	8d 83       	std	Y+5, r24	; 0x05
    1bd6:	8d 81       	ldd	r24, Y+5	; 0x05
    1bd8:	9e 81       	ldd	r25, Y+6	; 0x06
    1bda:	00 97       	sbiw	r24, 0x00	; 0
    1bdc:	69 f7       	brne	.-38     	; 0x1bb8 <liftStates+0x1b6>
    1bde:	14 c0       	rjmp	.+40     	; 0x1c08 <liftStates+0x206>
    1be0:	6f 81       	ldd	r22, Y+7	; 0x07
    1be2:	78 85       	ldd	r23, Y+8	; 0x08
    1be4:	89 85       	ldd	r24, Y+9	; 0x09
    1be6:	9a 85       	ldd	r25, Y+10	; 0x0a
    1be8:	0e 94 70 41 	call	0x82e0	; 0x82e0 <__fixunssfsi>
    1bec:	dc 01       	movw	r26, r24
    1bee:	cb 01       	movw	r24, r22
    1bf0:	9e 83       	std	Y+6, r25	; 0x06
    1bf2:	8d 83       	std	Y+5, r24	; 0x05
    1bf4:	8d 81       	ldd	r24, Y+5	; 0x05
    1bf6:	9e 81       	ldd	r25, Y+6	; 0x06
    1bf8:	9a 83       	std	Y+2, r25	; 0x02
    1bfa:	89 83       	std	Y+1, r24	; 0x01
    1bfc:	89 81       	ldd	r24, Y+1	; 0x01
    1bfe:	9a 81       	ldd	r25, Y+2	; 0x02
    1c00:	01 97       	sbiw	r24, 0x01	; 1
    1c02:	f1 f7       	brne	.-4      	; 0x1c00 <liftStates+0x1fe>
    1c04:	9a 83       	std	Y+2, r25	; 0x02
    1c06:	89 83       	std	Y+1, r24	; 0x01
    1c08:	ce 01       	movw	r24, r28
    1c0a:	4d 96       	adiw	r24, 0x1d	; 29
    1c0c:	64 ed       	ldi	r22, 0xD4	; 212
    1c0e:	8d d3       	rcall	.+1818   	; 0x232a <CAN_Write>
    1c10:	88 23       	and	r24, r24
    1c12:	09 f0       	breq	.+2      	; 0x1c16 <liftStates+0x214>
    1c14:	87 cf       	rjmp	.-242    	; 0x1b24 <liftStates+0x122>
    1c16:	a5 96       	adiw	r28, 0x25	; 37
    1c18:	0f b6       	in	r0, 0x3f	; 63
    1c1a:	f8 94       	cli
    1c1c:	de bf       	out	0x3e, r29	; 62
    1c1e:	0f be       	out	0x3f, r0	; 63
    1c20:	cd bf       	out	0x3d, r28	; 61
    1c22:	cf 91       	pop	r28
    1c24:	df 91       	pop	r29
    1c26:	08 95       	ret

00001c28 <liftMove>:
    1c28:	df 93       	push	r29
    1c2a:	cf 93       	push	r28
    1c2c:	00 d0       	rcall	.+0      	; 0x1c2e <liftMove+0x6>
    1c2e:	0f 92       	push	r0
    1c30:	cd b7       	in	r28, 0x3d	; 61
    1c32:	de b7       	in	r29, 0x3e	; 62
    1c34:	89 83       	std	Y+1, r24	; 0x01
    1c36:	6a 83       	std	Y+2, r22	; 0x02
    1c38:	89 81       	ldd	r24, Y+1	; 0x01
    1c3a:	81 30       	cpi	r24, 0x01	; 1
    1c3c:	d1 f4       	brne	.+52     	; 0x1c72 <liftMove+0x4a>
    1c3e:	8a 81       	ldd	r24, Y+2	; 0x02
    1c40:	81 30       	cpi	r24, 0x01	; 1
    1c42:	19 f4       	brne	.+6      	; 0x1c4a <liftMove+0x22>
    1c44:	81 e0       	ldi	r24, 0x01	; 1
    1c46:	ca dd       	rcall	.-1132   	; 0x17dc <rightDiafram>
    1c48:	0a c0       	rjmp	.+20     	; 0x1c5e <liftMove+0x36>
    1c4a:	8a 81       	ldd	r24, Y+2	; 0x02
    1c4c:	8f 3f       	cpi	r24, 0xFF	; 255
    1c4e:	19 f4       	brne	.+6      	; 0x1c56 <liftMove+0x2e>
    1c50:	81 e0       	ldi	r24, 0x01	; 1
    1c52:	b1 dc       	rcall	.-1694   	; 0x15b6 <leftDiafram>
    1c54:	04 c0       	rjmp	.+8      	; 0x1c5e <liftMove+0x36>
    1c56:	81 e0       	ldi	r24, 0x01	; 1
    1c58:	c1 dd       	rcall	.-1150   	; 0x17dc <rightDiafram>
    1c5a:	81 e0       	ldi	r24, 0x01	; 1
    1c5c:	ac dc       	rcall	.-1704   	; 0x15b6 <leftDiafram>
    1c5e:	81 e0       	ldi	r24, 0x01	; 1
    1c60:	d0 de       	rcall	.-608    	; 0x1a02 <liftStates>
    1c62:	81 e0       	ldi	r24, 0x01	; 1
    1c64:	0e 94 8f 31 	call	0x631e	; 0x631e <checkLiftSensor>
    1c68:	8f 3f       	cpi	r24, 0xFF	; 255
    1c6a:	e9 f4       	brne	.+58     	; 0x1ca6 <liftMove+0x7e>
    1c6c:	8f ef       	ldi	r24, 0xFF	; 255
    1c6e:	8b 83       	std	Y+3, r24	; 0x03
    1c70:	1c c0       	rjmp	.+56     	; 0x1caa <liftMove+0x82>
    1c72:	8f ef       	ldi	r24, 0xFF	; 255
    1c74:	c6 de       	rcall	.-628    	; 0x1a02 <liftStates>
    1c76:	8a 81       	ldd	r24, Y+2	; 0x02
    1c78:	81 30       	cpi	r24, 0x01	; 1
    1c7a:	19 f4       	brne	.+6      	; 0x1c82 <liftMove+0x5a>
    1c7c:	8f ef       	ldi	r24, 0xFF	; 255
    1c7e:	ae dd       	rcall	.-1188   	; 0x17dc <rightDiafram>
    1c80:	0a c0       	rjmp	.+20     	; 0x1c96 <liftMove+0x6e>
    1c82:	8a 81       	ldd	r24, Y+2	; 0x02
    1c84:	8f 3f       	cpi	r24, 0xFF	; 255
    1c86:	19 f4       	brne	.+6      	; 0x1c8e <liftMove+0x66>
    1c88:	8f ef       	ldi	r24, 0xFF	; 255
    1c8a:	95 dc       	rcall	.-1750   	; 0x15b6 <leftDiafram>
    1c8c:	04 c0       	rjmp	.+8      	; 0x1c96 <liftMove+0x6e>
    1c8e:	8f ef       	ldi	r24, 0xFF	; 255
    1c90:	a5 dd       	rcall	.-1206   	; 0x17dc <rightDiafram>
    1c92:	8f ef       	ldi	r24, 0xFF	; 255
    1c94:	90 dc       	rcall	.-1760   	; 0x15b6 <leftDiafram>
    1c96:	8f ef       	ldi	r24, 0xFF	; 255
    1c98:	0e 94 8f 31 	call	0x631e	; 0x631e <checkLiftSensor>
    1c9c:	8f 3f       	cpi	r24, 0xFF	; 255
    1c9e:	19 f4       	brne	.+6      	; 0x1ca6 <liftMove+0x7e>
    1ca0:	8f ef       	ldi	r24, 0xFF	; 255
    1ca2:	8b 83       	std	Y+3, r24	; 0x03
    1ca4:	02 c0       	rjmp	.+4      	; 0x1caa <liftMove+0x82>
    1ca6:	81 e0       	ldi	r24, 0x01	; 1
    1ca8:	8b 83       	std	Y+3, r24	; 0x03
    1caa:	8b 81       	ldd	r24, Y+3	; 0x03
    1cac:	0f 90       	pop	r0
    1cae:	0f 90       	pop	r0
    1cb0:	0f 90       	pop	r0
    1cb2:	cf 91       	pop	r28
    1cb4:	df 91       	pop	r29
    1cb6:	08 95       	ret

00001cb8 <servo_init>:
    1cb8:	2f 92       	push	r2
    1cba:	3f 92       	push	r3
    1cbc:	4f 92       	push	r4
    1cbe:	5f 92       	push	r5
    1cc0:	6f 92       	push	r6
    1cc2:	7f 92       	push	r7
    1cc4:	8f 92       	push	r8
    1cc6:	9f 92       	push	r9
    1cc8:	af 92       	push	r10
    1cca:	bf 92       	push	r11
    1ccc:	cf 92       	push	r12
    1cce:	df 92       	push	r13
    1cd0:	ef 92       	push	r14
    1cd2:	ff 92       	push	r15
    1cd4:	0f 93       	push	r16
    1cd6:	1f 93       	push	r17
    1cd8:	df 93       	push	r29
    1cda:	cf 93       	push	r28
    1cdc:	00 d0       	rcall	.+0      	; 0x1cde <servo_init+0x26>
    1cde:	00 d0       	rcall	.+0      	; 0x1ce0 <servo_init+0x28>
    1ce0:	cd b7       	in	r28, 0x3d	; 61
    1ce2:	de b7       	in	r29, 0x3e	; 62
    1ce4:	9a 83       	std	Y+2, r25	; 0x02
    1ce6:	89 83       	std	Y+1, r24	; 0x01
    1ce8:	ad e2       	ldi	r26, 0x2D	; 45
    1cea:	b0 e0       	ldi	r27, 0x00	; 0
    1cec:	ed e2       	ldi	r30, 0x2D	; 45
    1cee:	f0 e0       	ldi	r31, 0x00	; 0
    1cf0:	80 81       	ld	r24, Z
    1cf2:	88 63       	ori	r24, 0x38	; 56
    1cf4:	8c 93       	st	X, r24
    1cf6:	e4 e9       	ldi	r30, 0x94	; 148
    1cf8:	f0 e0       	ldi	r31, 0x00	; 0
    1cfa:	11 82       	std	Z+1, r1	; 0x01
    1cfc:	10 82       	st	Z, r1
    1cfe:	e8 e9       	ldi	r30, 0x98	; 152
    1d00:	f0 e0       	ldi	r31, 0x00	; 0
    1d02:	11 82       	std	Z+1, r1	; 0x01
    1d04:	10 82       	st	Z, r1
    1d06:	ea e9       	ldi	r30, 0x9A	; 154
    1d08:	f0 e0       	ldi	r31, 0x00	; 0
    1d0a:	11 82       	std	Z+1, r1	; 0x01
    1d0c:	10 82       	st	Z, r1
    1d0e:	ec e9       	ldi	r30, 0x9C	; 156
    1d10:	f0 e0       	ldi	r31, 0x00	; 0
    1d12:	11 82       	std	Z+1, r1	; 0x01
    1d14:	10 82       	st	Z, r1
    1d16:	e0 e9       	ldi	r30, 0x90	; 144
    1d18:	f0 e0       	ldi	r31, 0x00	; 0
    1d1a:	8e ef       	ldi	r24, 0xFE	; 254
    1d1c:	80 83       	st	Z, r24
    1d1e:	e1 e9       	ldi	r30, 0x91	; 145
    1d20:	f0 e0       	ldi	r31, 0x00	; 0
    1d22:	89 e1       	ldi	r24, 0x19	; 25
    1d24:	80 83       	st	Z, r24
    1d26:	86 e9       	ldi	r24, 0x96	; 150
    1d28:	90 e0       	ldi	r25, 0x00	; 0
    1d2a:	9c 83       	std	Y+4, r25	; 0x04
    1d2c:	8b 83       	std	Y+3, r24	; 0x03
    1d2e:	89 81       	ldd	r24, Y+1	; 0x01
    1d30:	9a 81       	ldd	r25, Y+2	; 0x02
    1d32:	1c 01       	movw	r2, r24
    1d34:	44 24       	eor	r4, r4
    1d36:	55 24       	eor	r5, r5
    1d38:	66 24       	eor	r6, r6
    1d3a:	77 24       	eor	r7, r7
    1d3c:	43 01       	movw	r8, r6
    1d3e:	20 e8       	ldi	r18, 0x80	; 128
    1d40:	36 e9       	ldi	r19, 0x96	; 150
    1d42:	48 e9       	ldi	r20, 0x98	; 152
    1d44:	50 e0       	ldi	r21, 0x00	; 0
    1d46:	60 e0       	ldi	r22, 0x00	; 0
    1d48:	70 e0       	ldi	r23, 0x00	; 0
    1d4a:	80 e0       	ldi	r24, 0x00	; 0
    1d4c:	90 e0       	ldi	r25, 0x00	; 0
    1d4e:	a2 2c       	mov	r10, r2
    1d50:	b3 2c       	mov	r11, r3
    1d52:	c4 2c       	mov	r12, r4
    1d54:	d5 2c       	mov	r13, r5
    1d56:	e6 2c       	mov	r14, r6
    1d58:	f7 2c       	mov	r15, r7
    1d5a:	08 2d       	mov	r16, r8
    1d5c:	19 2d       	mov	r17, r9
    1d5e:	0e 94 6a 00 	call	0xd4	; 0xd4 <__udivdi3>
    1d62:	22 2e       	mov	r2, r18
    1d64:	33 2e       	mov	r3, r19
    1d66:	44 2e       	mov	r4, r20
    1d68:	55 2e       	mov	r5, r21
    1d6a:	66 2e       	mov	r6, r22
    1d6c:	77 2e       	mov	r7, r23
    1d6e:	88 2e       	mov	r8, r24
    1d70:	99 2e       	mov	r9, r25
    1d72:	a2 2c       	mov	r10, r2
    1d74:	b3 2c       	mov	r11, r3
    1d76:	c4 2c       	mov	r12, r4
    1d78:	d5 2c       	mov	r13, r5
    1d7a:	e6 2c       	mov	r14, r6
    1d7c:	f7 2c       	mov	r15, r7
    1d7e:	08 2d       	mov	r16, r8
    1d80:	19 2d       	mov	r17, r9
    1d82:	2a 2d       	mov	r18, r10
    1d84:	3b 2d       	mov	r19, r11
    1d86:	4c 2d       	mov	r20, r12
    1d88:	5d 2d       	mov	r21, r13
    1d8a:	6e 2d       	mov	r22, r14
    1d8c:	7f 2d       	mov	r23, r15
    1d8e:	80 2f       	mov	r24, r16
    1d90:	91 2f       	mov	r25, r17
    1d92:	0e 94 d9 41 	call	0x83b2	; 0x83b2 <__floatundisf>
    1d96:	dc 01       	movw	r26, r24
    1d98:	cb 01       	movw	r24, r22
    1d9a:	bc 01       	movw	r22, r24
    1d9c:	cd 01       	movw	r24, r26
    1d9e:	20 e0       	ldi	r18, 0x00	; 0
    1da0:	30 e0       	ldi	r19, 0x00	; 0
    1da2:	40 e0       	ldi	r20, 0x00	; 0
    1da4:	5f e3       	ldi	r21, 0x3F	; 63
    1da6:	0e 94 9f 40 	call	0x813e	; 0x813e <__subsf3>
    1daa:	dc 01       	movw	r26, r24
    1dac:	cb 01       	movw	r24, r22
    1dae:	bc 01       	movw	r22, r24
    1db0:	cd 01       	movw	r24, r26
    1db2:	0e 94 70 41 	call	0x82e0	; 0x82e0 <__fixunssfsi>
    1db6:	dc 01       	movw	r26, r24
    1db8:	cb 01       	movw	r24, r22
    1dba:	eb 81       	ldd	r30, Y+3	; 0x03
    1dbc:	fc 81       	ldd	r31, Y+4	; 0x04
    1dbe:	91 83       	std	Z+1, r25	; 0x01
    1dc0:	80 83       	st	Z, r24
    1dc2:	0f 90       	pop	r0
    1dc4:	0f 90       	pop	r0
    1dc6:	0f 90       	pop	r0
    1dc8:	0f 90       	pop	r0
    1dca:	cf 91       	pop	r28
    1dcc:	df 91       	pop	r29
    1dce:	1f 91       	pop	r17
    1dd0:	0f 91       	pop	r16
    1dd2:	ff 90       	pop	r15
    1dd4:	ef 90       	pop	r14
    1dd6:	df 90       	pop	r13
    1dd8:	cf 90       	pop	r12
    1dda:	bf 90       	pop	r11
    1ddc:	af 90       	pop	r10
    1dde:	9f 90       	pop	r9
    1de0:	8f 90       	pop	r8
    1de2:	7f 90       	pop	r7
    1de4:	6f 90       	pop	r6
    1de6:	5f 90       	pop	r5
    1de8:	4f 90       	pop	r4
    1dea:	3f 90       	pop	r3
    1dec:	2f 90       	pop	r2
    1dee:	08 95       	ret

00001df0 <__vector_18>:
    1df0:	1f 92       	push	r1
    1df2:	0f 92       	push	r0
    1df4:	00 90 5f 00 	lds	r0, 0x005F
    1df8:	0f 92       	push	r0
    1dfa:	11 24       	eor	r1, r1
    1dfc:	00 90 5b 00 	lds	r0, 0x005B
    1e00:	0f 92       	push	r0
    1e02:	2f 93       	push	r18
    1e04:	3f 93       	push	r19
    1e06:	4f 93       	push	r20
    1e08:	5f 93       	push	r21
    1e0a:	8f 93       	push	r24
    1e0c:	9f 93       	push	r25
    1e0e:	ef 93       	push	r30
    1e10:	ff 93       	push	r31
    1e12:	cf 93       	push	r28
    1e14:	df 93       	push	r29
    1e16:	00 d0       	rcall	.+0      	; 0x1e18 <__vector_18+0x28>
    1e18:	00 d0       	rcall	.+0      	; 0x1e1a <__vector_18+0x2a>
    1e1a:	cd b7       	in	r28, 0x3d	; 61
    1e1c:	de b7       	in	r29, 0x3e	; 62
    1e1e:	8d ee       	ldi	r24, 0xED	; 237
    1e20:	90 e0       	ldi	r25, 0x00	; 0
    1e22:	fc 01       	movw	r30, r24
    1e24:	80 81       	ld	r24, Z
    1e26:	8b 83       	std	Y+3, r24	; 0x03
    1e28:	19 82       	std	Y+1, r1	; 0x01
    1e2a:	a4 c0       	rjmp	.+328    	; 0x1f74 <__vector_18+0x184>
    1e2c:	8d ee       	ldi	r24, 0xED	; 237
    1e2e:	90 e0       	ldi	r25, 0x00	; 0
    1e30:	29 81       	ldd	r18, Y+1	; 0x01
    1e32:	22 95       	swap	r18
    1e34:	20 7f       	andi	r18, 0xF0	; 240
    1e36:	fc 01       	movw	r30, r24
    1e38:	20 83       	st	Z, r18
    1e3a:	8e ee       	ldi	r24, 0xEE	; 238
    1e3c:	90 e0       	ldi	r25, 0x00	; 0
    1e3e:	fc 01       	movw	r30, r24
    1e40:	80 81       	ld	r24, Z
    1e42:	82 95       	swap	r24
    1e44:	86 95       	lsr	r24
    1e46:	87 70       	andi	r24, 0x07	; 7
    1e48:	88 2f       	mov	r24, r24
    1e4a:	90 e0       	ldi	r25, 0x00	; 0
    1e4c:	81 70       	andi	r24, 0x01	; 1
    1e4e:	99 27       	eor	r25, r25
    1e50:	00 97       	sbiw	r24, 0x00	; 0
    1e52:	09 f4       	brne	.+2      	; 0x1e56 <__vector_18+0x66>
    1e54:	70 c0       	rjmp	.+224    	; 0x1f36 <__vector_18+0x146>
    1e56:	8f ee       	ldi	r24, 0xEF	; 239
    1e58:	90 e0       	ldi	r25, 0x00	; 0
    1e5a:	20 e8       	ldi	r18, 0x80	; 128
    1e5c:	fc 01       	movw	r30, r24
    1e5e:	20 83       	st	Z, r18
    1e60:	8e ee       	ldi	r24, 0xEE	; 238
    1e62:	90 e0       	ldi	r25, 0x00	; 0
    1e64:	2e ee       	ldi	r18, 0xEE	; 238
    1e66:	30 e0       	ldi	r19, 0x00	; 0
    1e68:	f9 01       	movw	r30, r18
    1e6a:	20 81       	ld	r18, Z
    1e6c:	2f 7d       	andi	r18, 0xDF	; 223
    1e6e:	fc 01       	movw	r30, r24
    1e70:	20 83       	st	Z, r18
    1e72:	82 ef       	ldi	r24, 0xF2	; 242
    1e74:	90 e0       	ldi	r25, 0x00	; 0
    1e76:	fc 01       	movw	r30, r24
    1e78:	80 81       	ld	r24, Z
    1e7a:	82 95       	swap	r24
    1e7c:	86 95       	lsr	r24
    1e7e:	87 70       	andi	r24, 0x07	; 7
    1e80:	28 2f       	mov	r18, r24
    1e82:	83 ef       	ldi	r24, 0xF3	; 243
    1e84:	90 e0       	ldi	r25, 0x00	; 0
    1e86:	fc 01       	movw	r30, r24
    1e88:	80 81       	ld	r24, Z
    1e8a:	88 2f       	mov	r24, r24
    1e8c:	90 e0       	ldi	r25, 0x00	; 0
    1e8e:	88 0f       	add	r24, r24
    1e90:	99 1f       	adc	r25, r25
    1e92:	88 0f       	add	r24, r24
    1e94:	99 1f       	adc	r25, r25
    1e96:	88 0f       	add	r24, r24
    1e98:	99 1f       	adc	r25, r25
    1e9a:	82 2b       	or	r24, r18
    1e9c:	8c 83       	std	Y+4, r24	; 0x04
    1e9e:	1a 82       	std	Y+2, r1	; 0x02
    1ea0:	26 c0       	rjmp	.+76     	; 0x1eee <__vector_18+0xfe>
    1ea2:	8c 81       	ldd	r24, Y+4	; 0x04
    1ea4:	88 2f       	mov	r24, r24
    1ea6:	90 e0       	ldi	r25, 0x00	; 0
    1ea8:	81 50       	subi	r24, 0x01	; 1
    1eaa:	90 48       	sbci	r25, 0x80	; 128
    1eac:	88 0f       	add	r24, r24
    1eae:	99 1f       	adc	r25, r25
    1eb0:	8e 51       	subi	r24, 0x1E	; 30
    1eb2:	9d 4f       	sbci	r25, 0xFD	; 253
    1eb4:	fc 01       	movw	r30, r24
    1eb6:	20 81       	ld	r18, Z
    1eb8:	31 81       	ldd	r19, Z+1	; 0x01
    1eba:	8c 81       	ldd	r24, Y+4	; 0x04
    1ebc:	88 2f       	mov	r24, r24
    1ebe:	90 e0       	ldi	r25, 0x00	; 0
    1ec0:	01 97       	sbiw	r24, 0x01	; 1
    1ec2:	8a 50       	subi	r24, 0x0A	; 10
    1ec4:	9d 4f       	sbci	r25, 0xFD	; 253
    1ec6:	fc 01       	movw	r30, r24
    1ec8:	80 81       	ld	r24, Z
    1eca:	48 2f       	mov	r20, r24
    1ecc:	50 e0       	ldi	r21, 0x00	; 0
    1ece:	8a 81       	ldd	r24, Y+2	; 0x02
    1ed0:	88 2f       	mov	r24, r24
    1ed2:	90 e0       	ldi	r25, 0x00	; 0
    1ed4:	84 0f       	add	r24, r20
    1ed6:	95 1f       	adc	r25, r21
    1ed8:	82 0f       	add	r24, r18
    1eda:	93 1f       	adc	r25, r19
    1edc:	2a ef       	ldi	r18, 0xFA	; 250
    1ede:	30 e0       	ldi	r19, 0x00	; 0
    1ee0:	f9 01       	movw	r30, r18
    1ee2:	20 81       	ld	r18, Z
    1ee4:	fc 01       	movw	r30, r24
    1ee6:	20 83       	st	Z, r18
    1ee8:	8a 81       	ldd	r24, Y+2	; 0x02
    1eea:	8f 5f       	subi	r24, 0xFF	; 255
    1eec:	8a 83       	std	Y+2, r24	; 0x02
    1eee:	8a 81       	ldd	r24, Y+2	; 0x02
    1ef0:	88 30       	cpi	r24, 0x08	; 8
    1ef2:	b8 f2       	brcs	.-82     	; 0x1ea2 <__vector_18+0xb2>
    1ef4:	8c 81       	ldd	r24, Y+4	; 0x04
    1ef6:	88 2f       	mov	r24, r24
    1ef8:	90 e0       	ldi	r25, 0x00	; 0
    1efa:	01 97       	sbiw	r24, 0x01	; 1
    1efc:	8a 50       	subi	r24, 0x0A	; 10
    1efe:	9d 4f       	sbci	r25, 0xFD	; 253
    1f00:	fc 01       	movw	r30, r24
    1f02:	20 81       	ld	r18, Z
    1f04:	2f 5f       	subi	r18, 0xFF	; 255
    1f06:	fc 01       	movw	r30, r24
    1f08:	20 83       	st	Z, r18
    1f0a:	25 30       	cpi	r18, 0x05	; 5
    1f0c:	41 f4       	brne	.+16     	; 0x1f1e <__vector_18+0x12e>
    1f0e:	8c 81       	ldd	r24, Y+4	; 0x04
    1f10:	88 2f       	mov	r24, r24
    1f12:	90 e0       	ldi	r25, 0x00	; 0
    1f14:	01 97       	sbiw	r24, 0x01	; 1
    1f16:	8a 50       	subi	r24, 0x0A	; 10
    1f18:	9d 4f       	sbci	r25, 0xFD	; 253
    1f1a:	fc 01       	movw	r30, r24
    1f1c:	10 82       	st	Z, r1
    1f1e:	8c 81       	ldd	r24, Y+4	; 0x04
    1f20:	88 2f       	mov	r24, r24
    1f22:	90 e0       	ldi	r25, 0x00	; 0
    1f24:	01 97       	sbiw	r24, 0x01	; 1
    1f26:	86 5f       	subi	r24, 0xF6	; 246
    1f28:	9c 4f       	sbci	r25, 0xFC	; 252
    1f2a:	fc 01       	movw	r30, r24
    1f2c:	20 81       	ld	r18, Z
    1f2e:	2f 5f       	subi	r18, 0xFF	; 255
    1f30:	fc 01       	movw	r30, r24
    1f32:	20 83       	st	Z, r18
    1f34:	23 c0       	rjmp	.+70     	; 0x1f7c <__vector_18+0x18c>
    1f36:	8e ee       	ldi	r24, 0xEE	; 238
    1f38:	90 e0       	ldi	r25, 0x00	; 0
    1f3a:	fc 01       	movw	r30, r24
    1f3c:	80 81       	ld	r24, Z
    1f3e:	82 95       	swap	r24
    1f40:	86 95       	lsr	r24
    1f42:	86 95       	lsr	r24
    1f44:	83 70       	andi	r24, 0x03	; 3
    1f46:	88 2f       	mov	r24, r24
    1f48:	90 e0       	ldi	r25, 0x00	; 0
    1f4a:	81 70       	andi	r24, 0x01	; 1
    1f4c:	99 27       	eor	r25, r25
    1f4e:	00 97       	sbiw	r24, 0x00	; 0
    1f50:	71 f0       	breq	.+28     	; 0x1f6e <__vector_18+0x17e>
    1f52:	8f ee       	ldi	r24, 0xEF	; 239
    1f54:	90 e0       	ldi	r25, 0x00	; 0
    1f56:	fc 01       	movw	r30, r24
    1f58:	10 82       	st	Z, r1
    1f5a:	8e ee       	ldi	r24, 0xEE	; 238
    1f5c:	90 e0       	ldi	r25, 0x00	; 0
    1f5e:	2e ee       	ldi	r18, 0xEE	; 238
    1f60:	30 e0       	ldi	r19, 0x00	; 0
    1f62:	f9 01       	movw	r30, r18
    1f64:	20 81       	ld	r18, Z
    1f66:	2f 7b       	andi	r18, 0xBF	; 191
    1f68:	fc 01       	movw	r30, r24
    1f6a:	20 83       	st	Z, r18
    1f6c:	07 c0       	rjmp	.+14     	; 0x1f7c <__vector_18+0x18c>
    1f6e:	89 81       	ldd	r24, Y+1	; 0x01
    1f70:	8f 5f       	subi	r24, 0xFF	; 255
    1f72:	89 83       	std	Y+1, r24	; 0x01
    1f74:	89 81       	ldd	r24, Y+1	; 0x01
    1f76:	8f 30       	cpi	r24, 0x0F	; 15
    1f78:	08 f4       	brcc	.+2      	; 0x1f7c <__vector_18+0x18c>
    1f7a:	58 cf       	rjmp	.-336    	; 0x1e2c <__vector_18+0x3c>
    1f7c:	8d ee       	ldi	r24, 0xED	; 237
    1f7e:	90 e0       	ldi	r25, 0x00	; 0
    1f80:	2b 81       	ldd	r18, Y+3	; 0x03
    1f82:	fc 01       	movw	r30, r24
    1f84:	20 83       	st	Z, r18
    1f86:	8a ed       	ldi	r24, 0xDA	; 218
    1f88:	90 e0       	ldi	r25, 0x00	; 0
    1f8a:	2a ed       	ldi	r18, 0xDA	; 218
    1f8c:	30 e0       	ldi	r19, 0x00	; 0
    1f8e:	f9 01       	movw	r30, r18
    1f90:	20 81       	ld	r18, Z
    1f92:	fc 01       	movw	r30, r24
    1f94:	20 83       	st	Z, r18
    1f96:	0f 90       	pop	r0
    1f98:	0f 90       	pop	r0
    1f9a:	0f 90       	pop	r0
    1f9c:	0f 90       	pop	r0
    1f9e:	df 91       	pop	r29
    1fa0:	cf 91       	pop	r28
    1fa2:	ff 91       	pop	r31
    1fa4:	ef 91       	pop	r30
    1fa6:	9f 91       	pop	r25
    1fa8:	8f 91       	pop	r24
    1faa:	5f 91       	pop	r21
    1fac:	4f 91       	pop	r20
    1fae:	3f 91       	pop	r19
    1fb0:	2f 91       	pop	r18
    1fb2:	0f 90       	pop	r0
    1fb4:	00 92 5b 00 	sts	0x005B, r0
    1fb8:	0f 90       	pop	r0
    1fba:	00 92 5f 00 	sts	0x005F, r0
    1fbe:	0f 90       	pop	r0
    1fc0:	1f 90       	pop	r1
    1fc2:	18 95       	reti

00001fc4 <CAN_InitModule>:
    1fc4:	cf 93       	push	r28
    1fc6:	df 93       	push	r29
    1fc8:	00 d0       	rcall	.+0      	; 0x1fca <CAN_InitModule+0x6>
    1fca:	cd b7       	in	r28, 0x3d	; 61
    1fcc:	de b7       	in	r29, 0x3e	; 62
    1fce:	88 ed       	ldi	r24, 0xD8	; 216
    1fd0:	90 e0       	ldi	r25, 0x00	; 0
    1fd2:	21 e0       	ldi	r18, 0x01	; 1
    1fd4:	fc 01       	movw	r30, r24
    1fd6:	20 83       	st	Z, r18
    1fd8:	19 82       	std	Y+1, r1	; 0x01
    1fda:	3e c0       	rjmp	.+124    	; 0x2058 <CAN_InitModule+0x94>
    1fdc:	8d ee       	ldi	r24, 0xED	; 237
    1fde:	90 e0       	ldi	r25, 0x00	; 0
    1fe0:	29 81       	ldd	r18, Y+1	; 0x01
    1fe2:	22 95       	swap	r18
    1fe4:	20 7f       	andi	r18, 0xF0	; 240
    1fe6:	fc 01       	movw	r30, r24
    1fe8:	20 83       	st	Z, r18
    1fea:	8e ee       	ldi	r24, 0xEE	; 238
    1fec:	90 e0       	ldi	r25, 0x00	; 0
    1fee:	fc 01       	movw	r30, r24
    1ff0:	10 82       	st	Z, r1
    1ff2:	8f ee       	ldi	r24, 0xEF	; 239
    1ff4:	90 e0       	ldi	r25, 0x00	; 0
    1ff6:	fc 01       	movw	r30, r24
    1ff8:	10 82       	st	Z, r1
    1ffa:	83 ef       	ldi	r24, 0xF3	; 243
    1ffc:	90 e0       	ldi	r25, 0x00	; 0
    1ffe:	fc 01       	movw	r30, r24
    2000:	10 82       	st	Z, r1
    2002:	82 ef       	ldi	r24, 0xF2	; 242
    2004:	90 e0       	ldi	r25, 0x00	; 0
    2006:	fc 01       	movw	r30, r24
    2008:	10 82       	st	Z, r1
    200a:	81 ef       	ldi	r24, 0xF1	; 241
    200c:	90 e0       	ldi	r25, 0x00	; 0
    200e:	fc 01       	movw	r30, r24
    2010:	10 82       	st	Z, r1
    2012:	80 ef       	ldi	r24, 0xF0	; 240
    2014:	90 e0       	ldi	r25, 0x00	; 0
    2016:	fc 01       	movw	r30, r24
    2018:	10 82       	st	Z, r1
    201a:	87 ef       	ldi	r24, 0xF7	; 247
    201c:	90 e0       	ldi	r25, 0x00	; 0
    201e:	fc 01       	movw	r30, r24
    2020:	10 82       	st	Z, r1
    2022:	86 ef       	ldi	r24, 0xF6	; 246
    2024:	90 e0       	ldi	r25, 0x00	; 0
    2026:	fc 01       	movw	r30, r24
    2028:	10 82       	st	Z, r1
    202a:	85 ef       	ldi	r24, 0xF5	; 245
    202c:	90 e0       	ldi	r25, 0x00	; 0
    202e:	fc 01       	movw	r30, r24
    2030:	10 82       	st	Z, r1
    2032:	84 ef       	ldi	r24, 0xF4	; 244
    2034:	90 e0       	ldi	r25, 0x00	; 0
    2036:	fc 01       	movw	r30, r24
    2038:	10 82       	st	Z, r1
    203a:	1a 82       	std	Y+2, r1	; 0x02
    203c:	07 c0       	rjmp	.+14     	; 0x204c <CAN_InitModule+0x88>
    203e:	8a ef       	ldi	r24, 0xFA	; 250
    2040:	90 e0       	ldi	r25, 0x00	; 0
    2042:	fc 01       	movw	r30, r24
    2044:	10 82       	st	Z, r1
    2046:	8a 81       	ldd	r24, Y+2	; 0x02
    2048:	8f 5f       	subi	r24, 0xFF	; 255
    204a:	8a 83       	std	Y+2, r24	; 0x02
    204c:	8a 81       	ldd	r24, Y+2	; 0x02
    204e:	88 30       	cpi	r24, 0x08	; 8
    2050:	b0 f3       	brcs	.-20     	; 0x203e <CAN_InitModule+0x7a>
    2052:	89 81       	ldd	r24, Y+1	; 0x01
    2054:	8f 5f       	subi	r24, 0xFF	; 255
    2056:	89 83       	std	Y+1, r24	; 0x01
    2058:	89 81       	ldd	r24, Y+1	; 0x01
    205a:	8f 30       	cpi	r24, 0x0F	; 15
    205c:	08 f4       	brcc	.+2      	; 0x2060 <CAN_InitModule+0x9c>
    205e:	be cf       	rjmp	.-132    	; 0x1fdc <CAN_InitModule+0x18>
    2060:	88 ed       	ldi	r24, 0xD8	; 216
    2062:	90 e0       	ldi	r25, 0x00	; 0
    2064:	22 e0       	ldi	r18, 0x02	; 2
    2066:	fc 01       	movw	r30, r24
    2068:	20 83       	st	Z, r18
    206a:	82 ee       	ldi	r24, 0xE2	; 226
    206c:	90 e0       	ldi	r25, 0x00	; 0
    206e:	21 e0       	ldi	r18, 0x01	; 1
    2070:	fc 01       	movw	r30, r24
    2072:	20 83       	st	Z, r18
    2074:	83 ee       	ldi	r24, 0xE3	; 227
    2076:	90 e0       	ldi	r25, 0x00	; 0
    2078:	28 e0       	ldi	r18, 0x08	; 8
    207a:	fc 01       	movw	r30, r24
    207c:	20 83       	st	Z, r18
    207e:	84 ee       	ldi	r24, 0xE4	; 228
    2080:	90 e0       	ldi	r25, 0x00	; 0
    2082:	2e e5       	ldi	r18, 0x5E	; 94
    2084:	fc 01       	movw	r30, r24
    2086:	20 83       	st	Z, r18
    2088:	85 ee       	ldi	r24, 0xE5	; 229
    208a:	90 e0       	ldi	r25, 0x00	; 0
    208c:	fc 01       	movw	r30, r24
    208e:	10 82       	st	Z, r1
    2090:	8b ed       	ldi	r24, 0xDB	; 219
    2092:	90 e0       	ldi	r25, 0x00	; 0
    2094:	20 eb       	ldi	r18, 0xB0	; 176
    2096:	fc 01       	movw	r30, r24
    2098:	20 83       	st	Z, r18
    209a:	8f ed       	ldi	r24, 0xDF	; 223
    209c:	90 e0       	ldi	r25, 0x00	; 0
    209e:	2f e7       	ldi	r18, 0x7F	; 127
    20a0:	fc 01       	movw	r30, r24
    20a2:	20 83       	st	Z, r18
    20a4:	8e ed       	ldi	r24, 0xDE	; 222
    20a6:	90 e0       	ldi	r25, 0x00	; 0
    20a8:	2f ef       	ldi	r18, 0xFF	; 255
    20aa:	fc 01       	movw	r30, r24
    20ac:	20 83       	st	Z, r18
    20ae:	78 94       	sei
    20b0:	0f 90       	pop	r0
    20b2:	0f 90       	pop	r0
    20b4:	df 91       	pop	r29
    20b6:	cf 91       	pop	r28
    20b8:	08 95       	ret

000020ba <CAN_InitRxMob>:
    20ba:	cf 93       	push	r28
    20bc:	df 93       	push	r29
    20be:	00 d0       	rcall	.+0      	; 0x20c0 <CAN_InitRxMob+0x6>
    20c0:	00 d0       	rcall	.+0      	; 0x20c2 <CAN_InitRxMob+0x8>
    20c2:	cd b7       	in	r28, 0x3d	; 61
    20c4:	de b7       	in	r29, 0x3e	; 62
    20c6:	9c 83       	std	Y+4, r25	; 0x04
    20c8:	8b 83       	std	Y+3, r24	; 0x03
    20ca:	8d ee       	ldi	r24, 0xED	; 237
    20cc:	90 e0       	ldi	r25, 0x00	; 0
    20ce:	fc 01       	movw	r30, r24
    20d0:	80 81       	ld	r24, Z
    20d2:	8a 83       	std	Y+2, r24	; 0x02
    20d4:	00 00       	nop
    20d6:	89 ed       	ldi	r24, 0xD9	; 217
    20d8:	90 e0       	ldi	r25, 0x00	; 0
    20da:	fc 01       	movw	r30, r24
    20dc:	80 81       	ld	r24, Z
    20de:	82 95       	swap	r24
    20e0:	8f 70       	andi	r24, 0x0F	; 15
    20e2:	88 2f       	mov	r24, r24
    20e4:	90 e0       	ldi	r25, 0x00	; 0
    20e6:	81 70       	andi	r24, 0x01	; 1
    20e8:	99 27       	eor	r25, r25
    20ea:	00 97       	sbiw	r24, 0x00	; 0
    20ec:	a1 f7       	brne	.-24     	; 0x20d6 <CAN_InitRxMob+0x1c>
    20ee:	89 ed       	ldi	r24, 0xD9	; 217
    20f0:	90 e0       	ldi	r25, 0x00	; 0
    20f2:	fc 01       	movw	r30, r24
    20f4:	80 81       	ld	r24, Z
    20f6:	86 95       	lsr	r24
    20f8:	86 95       	lsr	r24
    20fa:	86 95       	lsr	r24
    20fc:	88 2f       	mov	r24, r24
    20fe:	90 e0       	ldi	r25, 0x00	; 0
    2100:	81 70       	andi	r24, 0x01	; 1
    2102:	99 27       	eor	r25, r25
    2104:	00 97       	sbiw	r24, 0x00	; 0
    2106:	39 f7       	brne	.-50     	; 0x20d6 <CAN_InitRxMob+0x1c>
    2108:	19 82       	std	Y+1, r1	; 0x01
    210a:	49 c0       	rjmp	.+146    	; 0x219e <CAN_InitRxMob+0xe4>
    210c:	8d ee       	ldi	r24, 0xED	; 237
    210e:	90 e0       	ldi	r25, 0x00	; 0
    2110:	29 81       	ldd	r18, Y+1	; 0x01
    2112:	22 95       	swap	r18
    2114:	20 7f       	andi	r18, 0xF0	; 240
    2116:	fc 01       	movw	r30, r24
    2118:	20 83       	st	Z, r18
    211a:	8f ee       	ldi	r24, 0xEF	; 239
    211c:	90 e0       	ldi	r25, 0x00	; 0
    211e:	fc 01       	movw	r30, r24
    2120:	80 81       	ld	r24, Z
    2122:	82 95       	swap	r24
    2124:	86 95       	lsr	r24
    2126:	86 95       	lsr	r24
    2128:	83 70       	andi	r24, 0x03	; 3
    212a:	88 23       	and	r24, r24
    212c:	21 f0       	breq	.+8      	; 0x2136 <CAN_InitRxMob+0x7c>
    212e:	89 81       	ldd	r24, Y+1	; 0x01
    2130:	8f 5f       	subi	r24, 0xFF	; 255
    2132:	89 83       	std	Y+1, r24	; 0x01
    2134:	34 c0       	rjmp	.+104    	; 0x219e <CAN_InitRxMob+0xe4>
    2136:	8f ee       	ldi	r24, 0xEF	; 239
    2138:	90 e0       	ldi	r25, 0x00	; 0
    213a:	2f e0       	ldi	r18, 0x0F	; 15
    213c:	fc 01       	movw	r30, r24
    213e:	20 83       	st	Z, r18
    2140:	83 ef       	ldi	r24, 0xF3	; 243
    2142:	90 e0       	ldi	r25, 0x00	; 0
    2144:	2b 81       	ldd	r18, Y+3	; 0x03
    2146:	3c 81       	ldd	r19, Y+4	; 0x04
    2148:	33 27       	eor	r19, r19
    214a:	36 95       	lsr	r19
    214c:	27 95       	ror	r18
    214e:	36 95       	lsr	r19
    2150:	27 95       	ror	r18
    2152:	36 95       	lsr	r19
    2154:	27 95       	ror	r18
    2156:	fc 01       	movw	r30, r24
    2158:	20 83       	st	Z, r18
    215a:	82 ef       	ldi	r24, 0xF2	; 242
    215c:	90 e0       	ldi	r25, 0x00	; 0
    215e:	2b 81       	ldd	r18, Y+3	; 0x03
    2160:	22 95       	swap	r18
    2162:	22 0f       	add	r18, r18
    2164:	20 7e       	andi	r18, 0xE0	; 224
    2166:	fc 01       	movw	r30, r24
    2168:	20 83       	st	Z, r18
    216a:	86 ef       	ldi	r24, 0xF6	; 246
    216c:	90 e0       	ldi	r25, 0x00	; 0
    216e:	20 ee       	ldi	r18, 0xE0	; 224
    2170:	fc 01       	movw	r30, r24
    2172:	20 83       	st	Z, r18
    2174:	87 ef       	ldi	r24, 0xF7	; 247
    2176:	90 e0       	ldi	r25, 0x00	; 0
    2178:	2f ef       	ldi	r18, 0xFF	; 255
    217a:	fc 01       	movw	r30, r24
    217c:	20 83       	st	Z, r18
    217e:	8f ee       	ldi	r24, 0xEF	; 239
    2180:	90 e0       	ldi	r25, 0x00	; 0
    2182:	2f ee       	ldi	r18, 0xEF	; 239
    2184:	30 e0       	ldi	r19, 0x00	; 0
    2186:	f9 01       	movw	r30, r18
    2188:	20 81       	ld	r18, Z
    218a:	20 68       	ori	r18, 0x80	; 128
    218c:	fc 01       	movw	r30, r24
    218e:	20 83       	st	Z, r18
    2190:	8d ee       	ldi	r24, 0xED	; 237
    2192:	90 e0       	ldi	r25, 0x00	; 0
    2194:	2a 81       	ldd	r18, Y+2	; 0x02
    2196:	fc 01       	movw	r30, r24
    2198:	20 83       	st	Z, r18
    219a:	81 e0       	ldi	r24, 0x01	; 1
    219c:	0a c0       	rjmp	.+20     	; 0x21b2 <CAN_InitRxMob+0xf8>
    219e:	89 81       	ldd	r24, Y+1	; 0x01
    21a0:	8f 30       	cpi	r24, 0x0F	; 15
    21a2:	08 f4       	brcc	.+2      	; 0x21a6 <CAN_InitRxMob+0xec>
    21a4:	b3 cf       	rjmp	.-154    	; 0x210c <CAN_InitRxMob+0x52>
    21a6:	8d ee       	ldi	r24, 0xED	; 237
    21a8:	90 e0       	ldi	r25, 0x00	; 0
    21aa:	2a 81       	ldd	r18, Y+2	; 0x02
    21ac:	fc 01       	movw	r30, r24
    21ae:	20 83       	st	Z, r18
    21b0:	80 e0       	ldi	r24, 0x00	; 0
    21b2:	0f 90       	pop	r0
    21b4:	0f 90       	pop	r0
    21b6:	0f 90       	pop	r0
    21b8:	0f 90       	pop	r0
    21ba:	df 91       	pop	r29
    21bc:	cf 91       	pop	r28
    21be:	08 95       	ret

000021c0 <CAN_Init>:
    21c0:	0f 93       	push	r16
    21c2:	1f 93       	push	r17
    21c4:	cf 93       	push	r28
    21c6:	df 93       	push	r29
    21c8:	00 d0       	rcall	.+0      	; 0x21ca <CAN_Init+0xa>
    21ca:	cd b7       	in	r28, 0x3d	; 61
    21cc:	de b7       	in	r29, 0x3e	; 62
    21ce:	8a 83       	std	Y+2, r24	; 0x02
    21d0:	f9 de       	rcall	.-526    	; 0x1fc4 <CAN_InitModule>
    21d2:	19 82       	std	Y+1, r1	; 0x01
    21d4:	2f c0       	rjmp	.+94     	; 0x2234 <CAN_Init+0x74>
    21d6:	89 81       	ldd	r24, Y+1	; 0x01
    21d8:	88 2f       	mov	r24, r24
    21da:	90 e0       	ldi	r25, 0x00	; 0
    21dc:	01 96       	adiw	r24, 0x01	; 1
    21de:	6d df       	rcall	.-294    	; 0x20ba <CAN_InitRxMob>
    21e0:	89 81       	ldd	r24, Y+1	; 0x01
    21e2:	88 2f       	mov	r24, r24
    21e4:	90 e0       	ldi	r25, 0x00	; 0
    21e6:	88 0f       	add	r24, r24
    21e8:	99 1f       	adc	r25, r25
    21ea:	8c 01       	movw	r16, r24
    21ec:	0e 51       	subi	r16, 0x1E	; 30
    21ee:	1d 4f       	sbci	r17, 0xFD	; 253
    21f0:	61 e0       	ldi	r22, 0x01	; 1
    21f2:	70 e0       	ldi	r23, 0x00	; 0
    21f4:	85 e0       	ldi	r24, 0x05	; 5
    21f6:	90 e0       	ldi	r25, 0x00	; 0
    21f8:	0e 94 6b 43 	call	0x86d6	; 0x86d6 <calloc>
    21fc:	f8 01       	movw	r30, r16
    21fe:	91 83       	std	Z+1, r25	; 0x01
    2200:	80 83       	st	Z, r24
    2202:	89 81       	ldd	r24, Y+1	; 0x01
    2204:	88 2f       	mov	r24, r24
    2206:	90 e0       	ldi	r25, 0x00	; 0
    2208:	29 81       	ldd	r18, Y+1	; 0x01
    220a:	22 2f       	mov	r18, r18
    220c:	30 e0       	ldi	r19, 0x00	; 0
    220e:	49 81       	ldd	r20, Y+1	; 0x01
    2210:	44 2f       	mov	r20, r20
    2212:	50 e0       	ldi	r21, 0x00	; 0
    2214:	60 e0       	ldi	r22, 0x00	; 0
    2216:	46 5f       	subi	r20, 0xF6	; 246
    2218:	5c 4f       	sbci	r21, 0xFC	; 252
    221a:	fa 01       	movw	r30, r20
    221c:	60 83       	st	Z, r22
    221e:	20 50       	subi	r18, 0x00	; 0
    2220:	3d 4f       	sbci	r19, 0xFD	; 253
    2222:	f9 01       	movw	r30, r18
    2224:	60 83       	st	Z, r22
    2226:	8a 50       	subi	r24, 0x0A	; 10
    2228:	9d 4f       	sbci	r25, 0xFD	; 253
    222a:	fc 01       	movw	r30, r24
    222c:	60 83       	st	Z, r22
    222e:	89 81       	ldd	r24, Y+1	; 0x01
    2230:	8f 5f       	subi	r24, 0xFF	; 255
    2232:	89 83       	std	Y+1, r24	; 0x01
    2234:	99 81       	ldd	r25, Y+1	; 0x01
    2236:	8a 81       	ldd	r24, Y+2	; 0x02
    2238:	98 17       	cp	r25, r24
    223a:	68 f2       	brcs	.-102    	; 0x21d6 <CAN_Init+0x16>
    223c:	0f 90       	pop	r0
    223e:	0f 90       	pop	r0
    2240:	df 91       	pop	r29
    2242:	cf 91       	pop	r28
    2244:	1f 91       	pop	r17
    2246:	0f 91       	pop	r16
    2248:	08 95       	ret

0000224a <CAN_Read>:
    224a:	cf 93       	push	r28
    224c:	df 93       	push	r29
    224e:	00 d0       	rcall	.+0      	; 0x2250 <CAN_Read+0x6>
    2250:	00 d0       	rcall	.+0      	; 0x2252 <CAN_Read+0x8>
    2252:	cd b7       	in	r28, 0x3d	; 61
    2254:	de b7       	in	r29, 0x3e	; 62
    2256:	9b 83       	std	Y+3, r25	; 0x03
    2258:	8a 83       	std	Y+2, r24	; 0x02
    225a:	6c 83       	std	Y+4, r22	; 0x04
    225c:	00 00       	nop
    225e:	8c 81       	ldd	r24, Y+4	; 0x04
    2260:	88 2f       	mov	r24, r24
    2262:	90 e0       	ldi	r25, 0x00	; 0
    2264:	01 97       	sbiw	r24, 0x01	; 1
    2266:	86 5f       	subi	r24, 0xF6	; 246
    2268:	9c 4f       	sbci	r25, 0xFC	; 252
    226a:	fc 01       	movw	r30, r24
    226c:	80 81       	ld	r24, Z
    226e:	88 23       	and	r24, r24
    2270:	b1 f3       	breq	.-20     	; 0x225e <CAN_Read+0x14>
    2272:	19 82       	std	Y+1, r1	; 0x01
    2274:	2c c0       	rjmp	.+88     	; 0x22ce <CAN_Read+0x84>
    2276:	89 81       	ldd	r24, Y+1	; 0x01
    2278:	88 2f       	mov	r24, r24
    227a:	90 e0       	ldi	r25, 0x00	; 0
    227c:	2a 81       	ldd	r18, Y+2	; 0x02
    227e:	3b 81       	ldd	r19, Y+3	; 0x03
    2280:	82 0f       	add	r24, r18
    2282:	93 1f       	adc	r25, r19
    2284:	2c 81       	ldd	r18, Y+4	; 0x04
    2286:	22 2f       	mov	r18, r18
    2288:	30 e0       	ldi	r19, 0x00	; 0
    228a:	21 50       	subi	r18, 0x01	; 1
    228c:	30 48       	sbci	r19, 0x80	; 128
    228e:	22 0f       	add	r18, r18
    2290:	33 1f       	adc	r19, r19
    2292:	2e 51       	subi	r18, 0x1E	; 30
    2294:	3d 4f       	sbci	r19, 0xFD	; 253
    2296:	f9 01       	movw	r30, r18
    2298:	40 81       	ld	r20, Z
    229a:	51 81       	ldd	r21, Z+1	; 0x01
    229c:	2c 81       	ldd	r18, Y+4	; 0x04
    229e:	22 2f       	mov	r18, r18
    22a0:	30 e0       	ldi	r19, 0x00	; 0
    22a2:	21 50       	subi	r18, 0x01	; 1
    22a4:	31 09       	sbc	r19, r1
    22a6:	20 50       	subi	r18, 0x00	; 0
    22a8:	3d 4f       	sbci	r19, 0xFD	; 253
    22aa:	f9 01       	movw	r30, r18
    22ac:	20 81       	ld	r18, Z
    22ae:	62 2f       	mov	r22, r18
    22b0:	70 e0       	ldi	r23, 0x00	; 0
    22b2:	29 81       	ldd	r18, Y+1	; 0x01
    22b4:	22 2f       	mov	r18, r18
    22b6:	30 e0       	ldi	r19, 0x00	; 0
    22b8:	26 0f       	add	r18, r22
    22ba:	37 1f       	adc	r19, r23
    22bc:	24 0f       	add	r18, r20
    22be:	35 1f       	adc	r19, r21
    22c0:	f9 01       	movw	r30, r18
    22c2:	20 81       	ld	r18, Z
    22c4:	fc 01       	movw	r30, r24
    22c6:	20 83       	st	Z, r18
    22c8:	89 81       	ldd	r24, Y+1	; 0x01
    22ca:	8f 5f       	subi	r24, 0xFF	; 255
    22cc:	89 83       	std	Y+1, r24	; 0x01
    22ce:	89 81       	ldd	r24, Y+1	; 0x01
    22d0:	88 30       	cpi	r24, 0x08	; 8
    22d2:	88 f2       	brcs	.-94     	; 0x2276 <CAN_Read+0x2c>
    22d4:	8c 81       	ldd	r24, Y+4	; 0x04
    22d6:	88 2f       	mov	r24, r24
    22d8:	90 e0       	ldi	r25, 0x00	; 0
    22da:	01 97       	sbiw	r24, 0x01	; 1
    22dc:	80 50       	subi	r24, 0x00	; 0
    22de:	9d 4f       	sbci	r25, 0xFD	; 253
    22e0:	fc 01       	movw	r30, r24
    22e2:	20 81       	ld	r18, Z
    22e4:	2f 5f       	subi	r18, 0xFF	; 255
    22e6:	fc 01       	movw	r30, r24
    22e8:	20 83       	st	Z, r18
    22ea:	25 30       	cpi	r18, 0x05	; 5
    22ec:	41 f4       	brne	.+16     	; 0x22fe <CAN_Read+0xb4>
    22ee:	8c 81       	ldd	r24, Y+4	; 0x04
    22f0:	88 2f       	mov	r24, r24
    22f2:	90 e0       	ldi	r25, 0x00	; 0
    22f4:	01 97       	sbiw	r24, 0x01	; 1
    22f6:	80 50       	subi	r24, 0x00	; 0
    22f8:	9d 4f       	sbci	r25, 0xFD	; 253
    22fa:	fc 01       	movw	r30, r24
    22fc:	10 82       	st	Z, r1
    22fe:	8c 81       	ldd	r24, Y+4	; 0x04
    2300:	88 2f       	mov	r24, r24
    2302:	90 e0       	ldi	r25, 0x00	; 0
    2304:	01 97       	sbiw	r24, 0x01	; 1
    2306:	9c 01       	movw	r18, r24
    2308:	26 5f       	subi	r18, 0xF6	; 246
    230a:	3c 4f       	sbci	r19, 0xFC	; 252
    230c:	f9 01       	movw	r30, r18
    230e:	20 81       	ld	r18, Z
    2310:	21 50       	subi	r18, 0x01	; 1
    2312:	86 5f       	subi	r24, 0xF6	; 246
    2314:	9c 4f       	sbci	r25, 0xFC	; 252
    2316:	fc 01       	movw	r30, r24
    2318:	20 83       	st	Z, r18
    231a:	80 e0       	ldi	r24, 0x00	; 0
    231c:	0f 90       	pop	r0
    231e:	0f 90       	pop	r0
    2320:	0f 90       	pop	r0
    2322:	0f 90       	pop	r0
    2324:	df 91       	pop	r29
    2326:	cf 91       	pop	r28
    2328:	08 95       	ret

0000232a <CAN_Write>:
    232a:	cf 93       	push	r28
    232c:	df 93       	push	r29
    232e:	00 d0       	rcall	.+0      	; 0x2330 <CAN_Write+0x6>
    2330:	00 d0       	rcall	.+0      	; 0x2332 <CAN_Write+0x8>
    2332:	00 d0       	rcall	.+0      	; 0x2334 <CAN_Write+0xa>
    2334:	cd b7       	in	r28, 0x3d	; 61
    2336:	de b7       	in	r29, 0x3e	; 62
    2338:	9d 83       	std	Y+5, r25	; 0x05
    233a:	8c 83       	std	Y+4, r24	; 0x04
    233c:	6e 83       	std	Y+6, r22	; 0x06
    233e:	00 00       	nop
    2340:	89 ed       	ldi	r24, 0xD9	; 217
    2342:	90 e0       	ldi	r25, 0x00	; 0
    2344:	fc 01       	movw	r30, r24
    2346:	80 81       	ld	r24, Z
    2348:	82 95       	swap	r24
    234a:	8f 70       	andi	r24, 0x0F	; 15
    234c:	88 2f       	mov	r24, r24
    234e:	90 e0       	ldi	r25, 0x00	; 0
    2350:	81 70       	andi	r24, 0x01	; 1
    2352:	99 27       	eor	r25, r25
    2354:	00 97       	sbiw	r24, 0x00	; 0
    2356:	a1 f7       	brne	.-24     	; 0x2340 <CAN_Write+0x16>
    2358:	89 ed       	ldi	r24, 0xD9	; 217
    235a:	90 e0       	ldi	r25, 0x00	; 0
    235c:	fc 01       	movw	r30, r24
    235e:	80 81       	ld	r24, Z
    2360:	86 95       	lsr	r24
    2362:	86 95       	lsr	r24
    2364:	86 95       	lsr	r24
    2366:	88 2f       	mov	r24, r24
    2368:	90 e0       	ldi	r25, 0x00	; 0
    236a:	81 70       	andi	r24, 0x01	; 1
    236c:	99 27       	eor	r25, r25
    236e:	00 97       	sbiw	r24, 0x00	; 0
    2370:	39 f7       	brne	.-50     	; 0x2340 <CAN_Write+0x16>
    2372:	8d ee       	ldi	r24, 0xED	; 237
    2374:	90 e0       	ldi	r25, 0x00	; 0
    2376:	fc 01       	movw	r30, r24
    2378:	80 81       	ld	r24, Z
    237a:	8b 83       	std	Y+3, r24	; 0x03
    237c:	1a 82       	std	Y+2, r1	; 0x02
    237e:	15 c0       	rjmp	.+42     	; 0x23aa <CAN_Write+0x80>
    2380:	8d ee       	ldi	r24, 0xED	; 237
    2382:	90 e0       	ldi	r25, 0x00	; 0
    2384:	2a 81       	ldd	r18, Y+2	; 0x02
    2386:	22 95       	swap	r18
    2388:	20 7f       	andi	r18, 0xF0	; 240
    238a:	fc 01       	movw	r30, r24
    238c:	20 83       	st	Z, r18
    238e:	8f ee       	ldi	r24, 0xEF	; 239
    2390:	90 e0       	ldi	r25, 0x00	; 0
    2392:	fc 01       	movw	r30, r24
    2394:	80 81       	ld	r24, Z
    2396:	82 95       	swap	r24
    2398:	86 95       	lsr	r24
    239a:	86 95       	lsr	r24
    239c:	83 70       	andi	r24, 0x03	; 3
    239e:	88 23       	and	r24, r24
    23a0:	09 f4       	brne	.+2      	; 0x23a4 <CAN_Write+0x7a>
    23a2:	06 c0       	rjmp	.+12     	; 0x23b0 <CAN_Write+0x86>
    23a4:	8a 81       	ldd	r24, Y+2	; 0x02
    23a6:	8f 5f       	subi	r24, 0xFF	; 255
    23a8:	8a 83       	std	Y+2, r24	; 0x02
    23aa:	8a 81       	ldd	r24, Y+2	; 0x02
    23ac:	8f 30       	cpi	r24, 0x0F	; 15
    23ae:	40 f3       	brcs	.-48     	; 0x2380 <CAN_Write+0x56>
    23b0:	8a 81       	ldd	r24, Y+2	; 0x02
    23b2:	8f 30       	cpi	r24, 0x0F	; 15
    23b4:	11 f4       	brne	.+4      	; 0x23ba <CAN_Write+0x90>
    23b6:	8f ef       	ldi	r24, 0xFF	; 255
    23b8:	39 c0       	rjmp	.+114    	; 0x242c <CAN_Write+0x102>
    23ba:	82 ef       	ldi	r24, 0xF2	; 242
    23bc:	90 e0       	ldi	r25, 0x00	; 0
    23be:	2e 81       	ldd	r18, Y+6	; 0x06
    23c0:	22 95       	swap	r18
    23c2:	22 0f       	add	r18, r18
    23c4:	20 7e       	andi	r18, 0xE0	; 224
    23c6:	fc 01       	movw	r30, r24
    23c8:	20 83       	st	Z, r18
    23ca:	83 ef       	ldi	r24, 0xF3	; 243
    23cc:	90 e0       	ldi	r25, 0x00	; 0
    23ce:	2e 81       	ldd	r18, Y+6	; 0x06
    23d0:	26 95       	lsr	r18
    23d2:	26 95       	lsr	r18
    23d4:	26 95       	lsr	r18
    23d6:	fc 01       	movw	r30, r24
    23d8:	20 83       	st	Z, r18
    23da:	8f ee       	ldi	r24, 0xEF	; 239
    23dc:	90 e0       	ldi	r25, 0x00	; 0
    23de:	28 e0       	ldi	r18, 0x08	; 8
    23e0:	fc 01       	movw	r30, r24
    23e2:	20 83       	st	Z, r18
    23e4:	19 82       	std	Y+1, r1	; 0x01
    23e6:	10 c0       	rjmp	.+32     	; 0x2408 <CAN_Write+0xde>
    23e8:	8a ef       	ldi	r24, 0xFA	; 250
    23ea:	90 e0       	ldi	r25, 0x00	; 0
    23ec:	29 81       	ldd	r18, Y+1	; 0x01
    23ee:	22 2f       	mov	r18, r18
    23f0:	30 e0       	ldi	r19, 0x00	; 0
    23f2:	4c 81       	ldd	r20, Y+4	; 0x04
    23f4:	5d 81       	ldd	r21, Y+5	; 0x05
    23f6:	24 0f       	add	r18, r20
    23f8:	35 1f       	adc	r19, r21
    23fa:	f9 01       	movw	r30, r18
    23fc:	20 81       	ld	r18, Z
    23fe:	fc 01       	movw	r30, r24
    2400:	20 83       	st	Z, r18
    2402:	89 81       	ldd	r24, Y+1	; 0x01
    2404:	8f 5f       	subi	r24, 0xFF	; 255
    2406:	89 83       	std	Y+1, r24	; 0x01
    2408:	89 81       	ldd	r24, Y+1	; 0x01
    240a:	88 30       	cpi	r24, 0x08	; 8
    240c:	68 f3       	brcs	.-38     	; 0x23e8 <CAN_Write+0xbe>
    240e:	8f ee       	ldi	r24, 0xEF	; 239
    2410:	90 e0       	ldi	r25, 0x00	; 0
    2412:	2f ee       	ldi	r18, 0xEF	; 239
    2414:	30 e0       	ldi	r19, 0x00	; 0
    2416:	f9 01       	movw	r30, r18
    2418:	20 81       	ld	r18, Z
    241a:	20 64       	ori	r18, 0x40	; 64
    241c:	fc 01       	movw	r30, r24
    241e:	20 83       	st	Z, r18
    2420:	8d ee       	ldi	r24, 0xED	; 237
    2422:	90 e0       	ldi	r25, 0x00	; 0
    2424:	2b 81       	ldd	r18, Y+3	; 0x03
    2426:	fc 01       	movw	r30, r24
    2428:	20 83       	st	Z, r18
    242a:	80 e0       	ldi	r24, 0x00	; 0
    242c:	26 96       	adiw	r28, 0x06	; 6
    242e:	0f b6       	in	r0, 0x3f	; 63
    2430:	f8 94       	cli
    2432:	de bf       	out	0x3e, r29	; 62
    2434:	0f be       	out	0x3f, r0	; 63
    2436:	cd bf       	out	0x3d, r28	; 61
    2438:	df 91       	pop	r29
    243a:	cf 91       	pop	r28
    243c:	08 95       	ret

0000243e <releaseLeftStand>:
    243e:	df 93       	push	r29
    2440:	cf 93       	push	r28
    2442:	00 d0       	rcall	.+0      	; 0x2444 <releaseLeftStand+0x6>
    2444:	00 d0       	rcall	.+0      	; 0x2446 <releaseLeftStand+0x8>
    2446:	cd b7       	in	r28, 0x3d	; 61
    2448:	de b7       	in	r29, 0x3e	; 62
    244a:	69 83       	std	Y+1, r22	; 0x01
    244c:	7a 83       	std	Y+2, r23	; 0x02
    244e:	8b 83       	std	Y+3, r24	; 0x03
    2450:	9c 83       	std	Y+4, r25	; 0x04
    2452:	10 92 4a 04 	sts	0x044A, r1
    2456:	80 91 4a 04 	lds	r24, 0x044A
    245a:	88 23       	and	r24, r24
    245c:	29 f4       	brne	.+10     	; 0x2468 <releaseLeftStand+0x2a>
    245e:	8f ef       	ldi	r24, 0xFF	; 255
    2460:	aa d8       	rcall	.-3756   	; 0x15b6 <leftDiafram>
    2462:	81 e0       	ldi	r24, 0x01	; 1
    2464:	80 93 4a 04 	sts	0x044A, r24
    2468:	80 e0       	ldi	r24, 0x00	; 0
    246a:	0f 90       	pop	r0
    246c:	0f 90       	pop	r0
    246e:	0f 90       	pop	r0
    2470:	0f 90       	pop	r0
    2472:	cf 91       	pop	r28
    2474:	df 91       	pop	r29
    2476:	08 95       	ret

00002478 <releaseCupGreen>:
    2478:	df 93       	push	r29
    247a:	cf 93       	push	r28
    247c:	00 d0       	rcall	.+0      	; 0x247e <releaseCupGreen+0x6>
    247e:	00 d0       	rcall	.+0      	; 0x2480 <releaseCupGreen+0x8>
    2480:	cd b7       	in	r28, 0x3d	; 61
    2482:	de b7       	in	r29, 0x3e	; 62
    2484:	69 83       	std	Y+1, r22	; 0x01
    2486:	7a 83       	std	Y+2, r23	; 0x02
    2488:	8b 83       	std	Y+3, r24	; 0x03
    248a:	9c 83       	std	Y+4, r25	; 0x04
    248c:	8f ef       	ldi	r24, 0xFF	; 255
    248e:	6f ef       	ldi	r22, 0xFF	; 255
    2490:	0e 94 01 08 	call	0x1002	; 0x1002 <colectThePopcorn>
    2494:	80 e0       	ldi	r24, 0x00	; 0
    2496:	0f 90       	pop	r0
    2498:	0f 90       	pop	r0
    249a:	0f 90       	pop	r0
    249c:	0f 90       	pop	r0
    249e:	cf 91       	pop	r28
    24a0:	df 91       	pop	r29
    24a2:	08 95       	ret

000024a4 <clapperboardsKnockDownGreenSide>:
    24a4:	df 93       	push	r29
    24a6:	cf 93       	push	r28
    24a8:	cd b7       	in	r28, 0x3d	; 61
    24aa:	de b7       	in	r29, 0x3e	; 62
    24ac:	a0 97       	sbiw	r28, 0x20	; 32
    24ae:	0f b6       	in	r0, 0x3f	; 63
    24b0:	f8 94       	cli
    24b2:	de bf       	out	0x3e, r29	; 62
    24b4:	0f be       	out	0x3f, r0	; 63
    24b6:	cd bf       	out	0x3d, r28	; 61
    24b8:	6d 8f       	std	Y+29, r22	; 0x1d
    24ba:	7e 8f       	std	Y+30, r23	; 0x1e
    24bc:	8f 8f       	std	Y+31, r24	; 0x1f
    24be:	98 a3       	std	Y+32, r25	; 0x20
    24c0:	80 91 50 04 	lds	r24, 0x0450
    24c4:	88 23       	and	r24, r24
    24c6:	09 f0       	breq	.+2      	; 0x24ca <clapperboardsKnockDownGreenSide+0x26>
    24c8:	ef c0       	rjmp	.+478    	; 0x26a8 <clapperboardsKnockDownGreenSide+0x204>
    24ca:	80 e0       	ldi	r24, 0x00	; 0
    24cc:	90 e0       	ldi	r25, 0x00	; 0
    24ce:	af e2       	ldi	r26, 0x2F	; 47
    24d0:	b4 e4       	ldi	r27, 0x44	; 68
    24d2:	89 8f       	std	Y+25, r24	; 0x19
    24d4:	9a 8f       	std	Y+26, r25	; 0x1a
    24d6:	ab 8f       	std	Y+27, r26	; 0x1b
    24d8:	bc 8f       	std	Y+28, r27	; 0x1c
    24da:	69 8d       	ldd	r22, Y+25	; 0x19
    24dc:	7a 8d       	ldd	r23, Y+26	; 0x1a
    24de:	8b 8d       	ldd	r24, Y+27	; 0x1b
    24e0:	9c 8d       	ldd	r25, Y+28	; 0x1c
    24e2:	20 e0       	ldi	r18, 0x00	; 0
    24e4:	30 e4       	ldi	r19, 0x40	; 64
    24e6:	4c e1       	ldi	r20, 0x1C	; 28
    24e8:	55 e4       	ldi	r21, 0x45	; 69
    24ea:	0e 94 90 42 	call	0x8520	; 0x8520 <__mulsf3>
    24ee:	dc 01       	movw	r26, r24
    24f0:	cb 01       	movw	r24, r22
    24f2:	8d 8b       	std	Y+21, r24	; 0x15
    24f4:	9e 8b       	std	Y+22, r25	; 0x16
    24f6:	af 8b       	std	Y+23, r26	; 0x17
    24f8:	b8 8f       	std	Y+24, r27	; 0x18
    24fa:	6d 89       	ldd	r22, Y+21	; 0x15
    24fc:	7e 89       	ldd	r23, Y+22	; 0x16
    24fe:	8f 89       	ldd	r24, Y+23	; 0x17
    2500:	98 8d       	ldd	r25, Y+24	; 0x18
    2502:	20 e0       	ldi	r18, 0x00	; 0
    2504:	30 e0       	ldi	r19, 0x00	; 0
    2506:	40 e8       	ldi	r20, 0x80	; 128
    2508:	5f e3       	ldi	r21, 0x3F	; 63
    250a:	0e 94 04 41 	call	0x8208	; 0x8208 <__cmpsf2>
    250e:	88 23       	and	r24, r24
    2510:	2c f4       	brge	.+10     	; 0x251c <clapperboardsKnockDownGreenSide+0x78>
    2512:	81 e0       	ldi	r24, 0x01	; 1
    2514:	90 e0       	ldi	r25, 0x00	; 0
    2516:	9c 8b       	std	Y+20, r25	; 0x14
    2518:	8b 8b       	std	Y+19, r24	; 0x13
    251a:	3f c0       	rjmp	.+126    	; 0x259a <clapperboardsKnockDownGreenSide+0xf6>
    251c:	6d 89       	ldd	r22, Y+21	; 0x15
    251e:	7e 89       	ldd	r23, Y+22	; 0x16
    2520:	8f 89       	ldd	r24, Y+23	; 0x17
    2522:	98 8d       	ldd	r25, Y+24	; 0x18
    2524:	20 e0       	ldi	r18, 0x00	; 0
    2526:	3f ef       	ldi	r19, 0xFF	; 255
    2528:	4f e7       	ldi	r20, 0x7F	; 127
    252a:	57 e4       	ldi	r21, 0x47	; 71
    252c:	0e 94 8c 42 	call	0x8518	; 0x8518 <__gesf2>
    2530:	18 16       	cp	r1, r24
    2532:	4c f5       	brge	.+82     	; 0x2586 <clapperboardsKnockDownGreenSide+0xe2>
    2534:	69 8d       	ldd	r22, Y+25	; 0x19
    2536:	7a 8d       	ldd	r23, Y+26	; 0x1a
    2538:	8b 8d       	ldd	r24, Y+27	; 0x1b
    253a:	9c 8d       	ldd	r25, Y+28	; 0x1c
    253c:	20 e0       	ldi	r18, 0x00	; 0
    253e:	30 e0       	ldi	r19, 0x00	; 0
    2540:	40 e2       	ldi	r20, 0x20	; 32
    2542:	51 e4       	ldi	r21, 0x41	; 65
    2544:	0e 94 90 42 	call	0x8520	; 0x8520 <__mulsf3>
    2548:	dc 01       	movw	r26, r24
    254a:	cb 01       	movw	r24, r22
    254c:	bc 01       	movw	r22, r24
    254e:	cd 01       	movw	r24, r26
    2550:	0e 94 70 41 	call	0x82e0	; 0x82e0 <__fixunssfsi>
    2554:	dc 01       	movw	r26, r24
    2556:	cb 01       	movw	r24, r22
    2558:	9c 8b       	std	Y+20, r25	; 0x14
    255a:	8b 8b       	std	Y+19, r24	; 0x13
    255c:	0f c0       	rjmp	.+30     	; 0x257c <clapperboardsKnockDownGreenSide+0xd8>
    255e:	8a ef       	ldi	r24, 0xFA	; 250
    2560:	90 e0       	ldi	r25, 0x00	; 0
    2562:	9a 8b       	std	Y+18, r25	; 0x12
    2564:	89 8b       	std	Y+17, r24	; 0x11
    2566:	89 89       	ldd	r24, Y+17	; 0x11
    2568:	9a 89       	ldd	r25, Y+18	; 0x12
    256a:	01 97       	sbiw	r24, 0x01	; 1
    256c:	f1 f7       	brne	.-4      	; 0x256a <clapperboardsKnockDownGreenSide+0xc6>
    256e:	9a 8b       	std	Y+18, r25	; 0x12
    2570:	89 8b       	std	Y+17, r24	; 0x11
    2572:	8b 89       	ldd	r24, Y+19	; 0x13
    2574:	9c 89       	ldd	r25, Y+20	; 0x14
    2576:	01 97       	sbiw	r24, 0x01	; 1
    2578:	9c 8b       	std	Y+20, r25	; 0x14
    257a:	8b 8b       	std	Y+19, r24	; 0x13
    257c:	8b 89       	ldd	r24, Y+19	; 0x13
    257e:	9c 89       	ldd	r25, Y+20	; 0x14
    2580:	00 97       	sbiw	r24, 0x00	; 0
    2582:	69 f7       	brne	.-38     	; 0x255e <clapperboardsKnockDownGreenSide+0xba>
    2584:	14 c0       	rjmp	.+40     	; 0x25ae <clapperboardsKnockDownGreenSide+0x10a>
    2586:	6d 89       	ldd	r22, Y+21	; 0x15
    2588:	7e 89       	ldd	r23, Y+22	; 0x16
    258a:	8f 89       	ldd	r24, Y+23	; 0x17
    258c:	98 8d       	ldd	r25, Y+24	; 0x18
    258e:	0e 94 70 41 	call	0x82e0	; 0x82e0 <__fixunssfsi>
    2592:	dc 01       	movw	r26, r24
    2594:	cb 01       	movw	r24, r22
    2596:	9c 8b       	std	Y+20, r25	; 0x14
    2598:	8b 8b       	std	Y+19, r24	; 0x13
    259a:	8b 89       	ldd	r24, Y+19	; 0x13
    259c:	9c 89       	ldd	r25, Y+20	; 0x14
    259e:	98 8b       	std	Y+16, r25	; 0x10
    25a0:	8f 87       	std	Y+15, r24	; 0x0f
    25a2:	8f 85       	ldd	r24, Y+15	; 0x0f
    25a4:	98 89       	ldd	r25, Y+16	; 0x10
    25a6:	01 97       	sbiw	r24, 0x01	; 1
    25a8:	f1 f7       	brne	.-4      	; 0x25a6 <clapperboardsKnockDownGreenSide+0x102>
    25aa:	98 8b       	std	Y+16, r25	; 0x10
    25ac:	8f 87       	std	Y+15, r24	; 0x0f
    25ae:	81 e0       	ldi	r24, 0x01	; 1
    25b0:	6f ef       	ldi	r22, 0xFF	; 255
    25b2:	0e 94 df 06 	call	0xdbe	; 0xdbe <knockDownTheClapperboards>
    25b6:	80 e0       	ldi	r24, 0x00	; 0
    25b8:	90 e0       	ldi	r25, 0x00	; 0
    25ba:	a6 e9       	ldi	r26, 0x96	; 150
    25bc:	b4 e4       	ldi	r27, 0x44	; 68
    25be:	8b 87       	std	Y+11, r24	; 0x0b
    25c0:	9c 87       	std	Y+12, r25	; 0x0c
    25c2:	ad 87       	std	Y+13, r26	; 0x0d
    25c4:	be 87       	std	Y+14, r27	; 0x0e
    25c6:	6b 85       	ldd	r22, Y+11	; 0x0b
    25c8:	7c 85       	ldd	r23, Y+12	; 0x0c
    25ca:	8d 85       	ldd	r24, Y+13	; 0x0d
    25cc:	9e 85       	ldd	r25, Y+14	; 0x0e
    25ce:	20 e0       	ldi	r18, 0x00	; 0
    25d0:	30 e4       	ldi	r19, 0x40	; 64
    25d2:	4c e1       	ldi	r20, 0x1C	; 28
    25d4:	55 e4       	ldi	r21, 0x45	; 69
    25d6:	0e 94 90 42 	call	0x8520	; 0x8520 <__mulsf3>
    25da:	dc 01       	movw	r26, r24
    25dc:	cb 01       	movw	r24, r22
    25de:	8f 83       	std	Y+7, r24	; 0x07
    25e0:	98 87       	std	Y+8, r25	; 0x08
    25e2:	a9 87       	std	Y+9, r26	; 0x09
    25e4:	ba 87       	std	Y+10, r27	; 0x0a
    25e6:	6f 81       	ldd	r22, Y+7	; 0x07
    25e8:	78 85       	ldd	r23, Y+8	; 0x08
    25ea:	89 85       	ldd	r24, Y+9	; 0x09
    25ec:	9a 85       	ldd	r25, Y+10	; 0x0a
    25ee:	20 e0       	ldi	r18, 0x00	; 0
    25f0:	30 e0       	ldi	r19, 0x00	; 0
    25f2:	40 e8       	ldi	r20, 0x80	; 128
    25f4:	5f e3       	ldi	r21, 0x3F	; 63
    25f6:	0e 94 04 41 	call	0x8208	; 0x8208 <__cmpsf2>
    25fa:	88 23       	and	r24, r24
    25fc:	2c f4       	brge	.+10     	; 0x2608 <clapperboardsKnockDownGreenSide+0x164>
    25fe:	81 e0       	ldi	r24, 0x01	; 1
    2600:	90 e0       	ldi	r25, 0x00	; 0
    2602:	9e 83       	std	Y+6, r25	; 0x06
    2604:	8d 83       	std	Y+5, r24	; 0x05
    2606:	3f c0       	rjmp	.+126    	; 0x2686 <clapperboardsKnockDownGreenSide+0x1e2>
    2608:	6f 81       	ldd	r22, Y+7	; 0x07
    260a:	78 85       	ldd	r23, Y+8	; 0x08
    260c:	89 85       	ldd	r24, Y+9	; 0x09
    260e:	9a 85       	ldd	r25, Y+10	; 0x0a
    2610:	20 e0       	ldi	r18, 0x00	; 0
    2612:	3f ef       	ldi	r19, 0xFF	; 255
    2614:	4f e7       	ldi	r20, 0x7F	; 127
    2616:	57 e4       	ldi	r21, 0x47	; 71
    2618:	0e 94 8c 42 	call	0x8518	; 0x8518 <__gesf2>
    261c:	18 16       	cp	r1, r24
    261e:	4c f5       	brge	.+82     	; 0x2672 <clapperboardsKnockDownGreenSide+0x1ce>
    2620:	6b 85       	ldd	r22, Y+11	; 0x0b
    2622:	7c 85       	ldd	r23, Y+12	; 0x0c
    2624:	8d 85       	ldd	r24, Y+13	; 0x0d
    2626:	9e 85       	ldd	r25, Y+14	; 0x0e
    2628:	20 e0       	ldi	r18, 0x00	; 0
    262a:	30 e0       	ldi	r19, 0x00	; 0
    262c:	40 e2       	ldi	r20, 0x20	; 32
    262e:	51 e4       	ldi	r21, 0x41	; 65
    2630:	0e 94 90 42 	call	0x8520	; 0x8520 <__mulsf3>
    2634:	dc 01       	movw	r26, r24
    2636:	cb 01       	movw	r24, r22
    2638:	bc 01       	movw	r22, r24
    263a:	cd 01       	movw	r24, r26
    263c:	0e 94 70 41 	call	0x82e0	; 0x82e0 <__fixunssfsi>
    2640:	dc 01       	movw	r26, r24
    2642:	cb 01       	movw	r24, r22
    2644:	9e 83       	std	Y+6, r25	; 0x06
    2646:	8d 83       	std	Y+5, r24	; 0x05
    2648:	0f c0       	rjmp	.+30     	; 0x2668 <clapperboardsKnockDownGreenSide+0x1c4>
    264a:	8a ef       	ldi	r24, 0xFA	; 250
    264c:	90 e0       	ldi	r25, 0x00	; 0
    264e:	9c 83       	std	Y+4, r25	; 0x04
    2650:	8b 83       	std	Y+3, r24	; 0x03
    2652:	8b 81       	ldd	r24, Y+3	; 0x03
    2654:	9c 81       	ldd	r25, Y+4	; 0x04
    2656:	01 97       	sbiw	r24, 0x01	; 1
    2658:	f1 f7       	brne	.-4      	; 0x2656 <clapperboardsKnockDownGreenSide+0x1b2>
    265a:	9c 83       	std	Y+4, r25	; 0x04
    265c:	8b 83       	std	Y+3, r24	; 0x03
    265e:	8d 81       	ldd	r24, Y+5	; 0x05
    2660:	9e 81       	ldd	r25, Y+6	; 0x06
    2662:	01 97       	sbiw	r24, 0x01	; 1
    2664:	9e 83       	std	Y+6, r25	; 0x06
    2666:	8d 83       	std	Y+5, r24	; 0x05
    2668:	8d 81       	ldd	r24, Y+5	; 0x05
    266a:	9e 81       	ldd	r25, Y+6	; 0x06
    266c:	00 97       	sbiw	r24, 0x00	; 0
    266e:	69 f7       	brne	.-38     	; 0x264a <clapperboardsKnockDownGreenSide+0x1a6>
    2670:	14 c0       	rjmp	.+40     	; 0x269a <clapperboardsKnockDownGreenSide+0x1f6>
    2672:	6f 81       	ldd	r22, Y+7	; 0x07
    2674:	78 85       	ldd	r23, Y+8	; 0x08
    2676:	89 85       	ldd	r24, Y+9	; 0x09
    2678:	9a 85       	ldd	r25, Y+10	; 0x0a
    267a:	0e 94 70 41 	call	0x82e0	; 0x82e0 <__fixunssfsi>
    267e:	dc 01       	movw	r26, r24
    2680:	cb 01       	movw	r24, r22
    2682:	9e 83       	std	Y+6, r25	; 0x06
    2684:	8d 83       	std	Y+5, r24	; 0x05
    2686:	8d 81       	ldd	r24, Y+5	; 0x05
    2688:	9e 81       	ldd	r25, Y+6	; 0x06
    268a:	9a 83       	std	Y+2, r25	; 0x02
    268c:	89 83       	std	Y+1, r24	; 0x01
    268e:	89 81       	ldd	r24, Y+1	; 0x01
    2690:	9a 81       	ldd	r25, Y+2	; 0x02
    2692:	01 97       	sbiw	r24, 0x01	; 1
    2694:	f1 f7       	brne	.-4      	; 0x2692 <clapperboardsKnockDownGreenSide+0x1ee>
    2696:	9a 83       	std	Y+2, r25	; 0x02
    2698:	89 83       	std	Y+1, r24	; 0x01
    269a:	81 e0       	ldi	r24, 0x01	; 1
    269c:	61 e0       	ldi	r22, 0x01	; 1
    269e:	0e 94 df 06 	call	0xdbe	; 0xdbe <knockDownTheClapperboards>
    26a2:	81 e0       	ldi	r24, 0x01	; 1
    26a4:	80 93 50 04 	sts	0x0450, r24
    26a8:	80 e0       	ldi	r24, 0x00	; 0
    26aa:	a0 96       	adiw	r28, 0x20	; 32
    26ac:	0f b6       	in	r0, 0x3f	; 63
    26ae:	f8 94       	cli
    26b0:	de bf       	out	0x3e, r29	; 62
    26b2:	0f be       	out	0x3f, r0	; 63
    26b4:	cd bf       	out	0x3d, r28	; 61
    26b6:	cf 91       	pop	r28
    26b8:	df 91       	pop	r29
    26ba:	08 95       	ret

000026bc <popcornColectionGreenSide>:
    26bc:	df 93       	push	r29
    26be:	cf 93       	push	r28
    26c0:	00 d0       	rcall	.+0      	; 0x26c2 <popcornColectionGreenSide+0x6>
    26c2:	00 d0       	rcall	.+0      	; 0x26c4 <popcornColectionGreenSide+0x8>
    26c4:	cd b7       	in	r28, 0x3d	; 61
    26c6:	de b7       	in	r29, 0x3e	; 62
    26c8:	69 83       	std	Y+1, r22	; 0x01
    26ca:	7a 83       	std	Y+2, r23	; 0x02
    26cc:	8b 83       	std	Y+3, r24	; 0x03
    26ce:	9c 83       	std	Y+4, r25	; 0x04
    26d0:	80 91 59 04 	lds	r24, 0x0459
    26d4:	88 23       	and	r24, r24
    26d6:	39 f4       	brne	.+14     	; 0x26e6 <popcornColectionGreenSide+0x2a>
    26d8:	8f ef       	ldi	r24, 0xFF	; 255
    26da:	61 e0       	ldi	r22, 0x01	; 1
    26dc:	0e 94 01 08 	call	0x1002	; 0x1002 <colectThePopcorn>
    26e0:	81 e0       	ldi	r24, 0x01	; 1
    26e2:	80 93 59 04 	sts	0x0459, r24
    26e6:	80 e0       	ldi	r24, 0x00	; 0
    26e8:	0f 90       	pop	r0
    26ea:	0f 90       	pop	r0
    26ec:	0f 90       	pop	r0
    26ee:	0f 90       	pop	r0
    26f0:	cf 91       	pop	r28
    26f2:	df 91       	pop	r29
    26f4:	08 95       	ret

000026f6 <greenSide>:
    26f6:	ef 92       	push	r14
    26f8:	ff 92       	push	r15
    26fa:	0f 93       	push	r16
    26fc:	1f 93       	push	r17
    26fe:	df 93       	push	r29
    2700:	cf 93       	push	r28
    2702:	cd b7       	in	r28, 0x3d	; 61
    2704:	de b7       	in	r29, 0x3e	; 62
    2706:	cb 53       	subi	r28, 0x3B	; 59
    2708:	d1 40       	sbci	r29, 0x01	; 1
    270a:	0f b6       	in	r0, 0x3f	; 63
    270c:	f8 94       	cli
    270e:	de bf       	out	0x3e, r29	; 62
    2710:	0f be       	out	0x3f, r0	; 63
    2712:	cd bf       	out	0x3d, r28	; 61
    2714:	fe 01       	movw	r30, r28
    2716:	e6 5d       	subi	r30, 0xD6	; 214
    2718:	fe 4f       	sbci	r31, 0xFE	; 254
    271a:	10 82       	st	Z, r1
    271c:	fe 01       	movw	r30, r28
    271e:	e7 5d       	subi	r30, 0xD7	; 215
    2720:	fe 4f       	sbci	r31, 0xFE	; 254
    2722:	10 82       	st	Z, r1
    2724:	fe 01       	movw	r30, r28
    2726:	e9 5d       	subi	r30, 0xD9	; 217
    2728:	fe 4f       	sbci	r31, 0xFE	; 254
    272a:	81 e0       	ldi	r24, 0x01	; 1
    272c:	80 83       	st	Z, r24
    272e:	fe 01       	movw	r30, r28
    2730:	e5 5d       	subi	r30, 0xD5	; 213
    2732:	fe 4f       	sbci	r31, 0xFE	; 254
    2734:	8e e5       	ldi	r24, 0x5E	; 94
    2736:	90 e0       	ldi	r25, 0x00	; 0
    2738:	91 83       	std	Z+1, r25	; 0x01
    273a:	80 83       	st	Z, r24
    273c:	fe 01       	movw	r30, r28
    273e:	e5 5d       	subi	r30, 0xD5	; 213
    2740:	fe 4f       	sbci	r31, 0xFE	; 254
    2742:	8b e2       	ldi	r24, 0x2B	; 43
    2744:	94 e0       	ldi	r25, 0x04	; 4
    2746:	93 83       	std	Z+3, r25	; 0x03
    2748:	82 83       	std	Z+2, r24	; 0x02
    274a:	fe 01       	movw	r30, r28
    274c:	e5 5d       	subi	r30, 0xD5	; 213
    274e:	fe 4f       	sbci	r31, 0xFE	; 254
    2750:	15 82       	std	Z+5, r1	; 0x05
    2752:	14 82       	std	Z+4, r1	; 0x04
    2754:	fe 01       	movw	r30, r28
    2756:	e5 5d       	subi	r30, 0xD5	; 213
    2758:	fe 4f       	sbci	r31, 0xFE	; 254
    275a:	40 81       	ld	r20, Z
    275c:	51 81       	ldd	r21, Z+1	; 0x01
    275e:	62 81       	ldd	r22, Z+2	; 0x02
    2760:	73 81       	ldd	r23, Z+3	; 0x03
    2762:	84 81       	ldd	r24, Z+4	; 0x04
    2764:	95 81       	ldd	r25, Z+5	; 0x05
    2766:	0e 94 d9 29 	call	0x53b2	; 0x53b2 <setPosition>
    276a:	fe 01       	movw	r30, r28
    276c:	e9 5d       	subi	r30, 0xD9	; 217
    276e:	fe 4f       	sbci	r31, 0xFE	; 254
    2770:	80 81       	ld	r24, Z
    2772:	88 2f       	mov	r24, r24
    2774:	90 e0       	ldi	r25, 0x00	; 0
    2776:	81 30       	cpi	r24, 0x01	; 1
    2778:	91 05       	cpc	r25, r1
    277a:	b9 f7       	brne	.-18     	; 0x276a <greenSide+0x74>
    277c:	fe 01       	movw	r30, r28
    277e:	e6 5d       	subi	r30, 0xD6	; 214
    2780:	fe 4f       	sbci	r31, 0xFE	; 254
    2782:	de 01       	movw	r26, r28
    2784:	a7 5d       	subi	r26, 0xD7	; 215
    2786:	be 4f       	sbci	r27, 0xFE	; 254
    2788:	8c 91       	ld	r24, X
    278a:	80 83       	st	Z, r24
    278c:	0c 94 97 23 	jmp	0x472e	; 0x472e <greenSide+0x2038>
    2790:	fe 01       	movw	r30, r28
    2792:	e6 5d       	subi	r30, 0xD6	; 214
    2794:	fe 4f       	sbci	r31, 0xFE	; 254
    2796:	80 81       	ld	r24, Z
    2798:	48 2f       	mov	r20, r24
    279a:	50 e0       	ldi	r21, 0x00	; 0
    279c:	fe 01       	movw	r30, r28
    279e:	e6 5d       	subi	r30, 0xD6	; 214
    27a0:	fe 4f       	sbci	r31, 0xFE	; 254
    27a2:	80 81       	ld	r24, Z
    27a4:	88 2f       	mov	r24, r24
    27a6:	90 e0       	ldi	r25, 0x00	; 0
    27a8:	88 0f       	add	r24, r24
    27aa:	99 1f       	adc	r25, r25
    27ac:	9c 01       	movw	r18, r24
    27ae:	22 0f       	add	r18, r18
    27b0:	33 1f       	adc	r19, r19
    27b2:	22 0f       	add	r18, r18
    27b4:	33 1f       	adc	r19, r19
    27b6:	82 0f       	add	r24, r18
    27b8:	93 1f       	adc	r25, r19
    27ba:	fc 01       	movw	r30, r24
    27bc:	e4 5f       	subi	r30, 0xF4	; 244
    27be:	fd 4f       	sbci	r31, 0xFD	; 253
    27c0:	10 81       	ld	r17, Z
    27c2:	fe 01       	movw	r30, r28
    27c4:	e6 5d       	subi	r30, 0xD6	; 214
    27c6:	fe 4f       	sbci	r31, 0xFE	; 254
    27c8:	80 81       	ld	r24, Z
    27ca:	88 2f       	mov	r24, r24
    27cc:	90 e0       	ldi	r25, 0x00	; 0
    27ce:	88 0f       	add	r24, r24
    27d0:	99 1f       	adc	r25, r25
    27d2:	9c 01       	movw	r18, r24
    27d4:	22 0f       	add	r18, r18
    27d6:	33 1f       	adc	r19, r19
    27d8:	22 0f       	add	r18, r18
    27da:	33 1f       	adc	r19, r19
    27dc:	82 0f       	add	r24, r18
    27de:	93 1f       	adc	r25, r19
    27e0:	fc 01       	movw	r30, r24
    27e2:	e3 5f       	subi	r30, 0xF3	; 243
    27e4:	fd 4f       	sbci	r31, 0xFD	; 253
    27e6:	00 81       	ld	r16, Z
    27e8:	fe 01       	movw	r30, r28
    27ea:	e6 5d       	subi	r30, 0xD6	; 214
    27ec:	fe 4f       	sbci	r31, 0xFE	; 254
    27ee:	80 81       	ld	r24, Z
    27f0:	88 2f       	mov	r24, r24
    27f2:	90 e0       	ldi	r25, 0x00	; 0
    27f4:	88 0f       	add	r24, r24
    27f6:	99 1f       	adc	r25, r25
    27f8:	9c 01       	movw	r18, r24
    27fa:	22 0f       	add	r18, r18
    27fc:	33 1f       	adc	r19, r19
    27fe:	22 0f       	add	r18, r18
    2800:	33 1f       	adc	r19, r19
    2802:	82 0f       	add	r24, r18
    2804:	93 1f       	adc	r25, r19
    2806:	fc 01       	movw	r30, r24
    2808:	e2 5f       	subi	r30, 0xF2	; 242
    280a:	fd 4f       	sbci	r31, 0xFD	; 253
    280c:	a0 81       	ld	r26, Z
    280e:	b1 81       	ldd	r27, Z+1	; 0x01
    2810:	ca 01       	movw	r24, r20
    2812:	88 0f       	add	r24, r24
    2814:	99 1f       	adc	r25, r25
    2816:	9c 01       	movw	r18, r24
    2818:	22 0f       	add	r18, r18
    281a:	33 1f       	adc	r19, r19
    281c:	22 0f       	add	r18, r18
    281e:	33 1f       	adc	r19, r19
    2820:	82 0f       	add	r24, r18
    2822:	93 1f       	adc	r25, r19
    2824:	fc 01       	movw	r30, r24
    2826:	ea 5f       	subi	r30, 0xFA	; 250
    2828:	fd 4f       	sbci	r31, 0xFD	; 253
    282a:	40 81       	ld	r20, Z
    282c:	51 81       	ldd	r21, Z+1	; 0x01
    282e:	62 81       	ldd	r22, Z+2	; 0x02
    2830:	73 81       	ldd	r23, Z+3	; 0x03
    2832:	84 81       	ldd	r24, Z+4	; 0x04
    2834:	95 81       	ldd	r25, Z+5	; 0x05
    2836:	21 2f       	mov	r18, r17
    2838:	7d 01       	movw	r14, r26
    283a:	0e 94 36 27 	call	0x4e6c	; 0x4e6c <gotoXY>
    283e:	fe 01       	movw	r30, r28
    2840:	e8 5d       	subi	r30, 0xD8	; 216
    2842:	fe 4f       	sbci	r31, 0xFE	; 254
    2844:	80 83       	st	Z, r24
    2846:	fe 01       	movw	r30, r28
    2848:	e6 5d       	subi	r30, 0xD6	; 214
    284a:	fe 4f       	sbci	r31, 0xFE	; 254
    284c:	80 81       	ld	r24, Z
    284e:	88 23       	and	r24, r24
    2850:	11 f4       	brne	.+4      	; 0x2856 <greenSide+0x160>
    2852:	0c 94 8e 23 	jmp	0x471c	; 0x471c <greenSide+0x2026>
    2856:	fe 01       	movw	r30, r28
    2858:	e6 5d       	subi	r30, 0xD6	; 214
    285a:	fe 4f       	sbci	r31, 0xFE	; 254
    285c:	80 81       	ld	r24, Z
    285e:	81 30       	cpi	r24, 0x01	; 1
    2860:	29 f4       	brne	.+10     	; 0x286c <greenSide+0x176>
    2862:	81 e0       	ldi	r24, 0x01	; 1
    2864:	61 e0       	ldi	r22, 0x01	; 1
    2866:	e0 d9       	rcall	.-3136   	; 0x1c28 <liftMove>
    2868:	0c 94 8e 23 	jmp	0x471c	; 0x471c <greenSide+0x2026>
    286c:	fe 01       	movw	r30, r28
    286e:	e6 5d       	subi	r30, 0xD6	; 214
    2870:	fe 4f       	sbci	r31, 0xFE	; 254
    2872:	80 81       	ld	r24, Z
    2874:	82 30       	cpi	r24, 0x02	; 2
    2876:	09 f0       	breq	.+2      	; 0x287a <greenSide+0x184>
    2878:	71 c1       	rjmp	.+738    	; 0x2b5c <greenSide+0x466>
    287a:	83 e7       	ldi	r24, 0x73	; 115
    287c:	0e 94 b1 23 	call	0x4762	; 0x4762 <stop>
    2880:	fe 01       	movw	r30, r28
    2882:	ed 5d       	subi	r30, 0xDD	; 221
    2884:	fe 4f       	sbci	r31, 0xFE	; 254
    2886:	80 e0       	ldi	r24, 0x00	; 0
    2888:	90 e0       	ldi	r25, 0x00	; 0
    288a:	a8 e4       	ldi	r26, 0x48	; 72
    288c:	b2 e4       	ldi	r27, 0x42	; 66
    288e:	80 83       	st	Z, r24
    2890:	91 83       	std	Z+1, r25	; 0x01
    2892:	a2 83       	std	Z+2, r26	; 0x02
    2894:	b3 83       	std	Z+3, r27	; 0x03
    2896:	8e 01       	movw	r16, r28
    2898:	01 5e       	subi	r16, 0xE1	; 225
    289a:	1e 4f       	sbci	r17, 0xFE	; 254
    289c:	fe 01       	movw	r30, r28
    289e:	ed 5d       	subi	r30, 0xDD	; 221
    28a0:	fe 4f       	sbci	r31, 0xFE	; 254
    28a2:	60 81       	ld	r22, Z
    28a4:	71 81       	ldd	r23, Z+1	; 0x01
    28a6:	82 81       	ldd	r24, Z+2	; 0x02
    28a8:	93 81       	ldd	r25, Z+3	; 0x03
    28aa:	20 e0       	ldi	r18, 0x00	; 0
    28ac:	30 e4       	ldi	r19, 0x40	; 64
    28ae:	4c e1       	ldi	r20, 0x1C	; 28
    28b0:	55 e4       	ldi	r21, 0x45	; 69
    28b2:	0e 94 90 42 	call	0x8520	; 0x8520 <__mulsf3>
    28b6:	dc 01       	movw	r26, r24
    28b8:	cb 01       	movw	r24, r22
    28ba:	f8 01       	movw	r30, r16
    28bc:	80 83       	st	Z, r24
    28be:	91 83       	std	Z+1, r25	; 0x01
    28c0:	a2 83       	std	Z+2, r26	; 0x02
    28c2:	b3 83       	std	Z+3, r27	; 0x03
    28c4:	fe 01       	movw	r30, r28
    28c6:	e1 5e       	subi	r30, 0xE1	; 225
    28c8:	fe 4f       	sbci	r31, 0xFE	; 254
    28ca:	60 81       	ld	r22, Z
    28cc:	71 81       	ldd	r23, Z+1	; 0x01
    28ce:	82 81       	ldd	r24, Z+2	; 0x02
    28d0:	93 81       	ldd	r25, Z+3	; 0x03
    28d2:	20 e0       	ldi	r18, 0x00	; 0
    28d4:	30 e0       	ldi	r19, 0x00	; 0
    28d6:	40 e8       	ldi	r20, 0x80	; 128
    28d8:	5f e3       	ldi	r21, 0x3F	; 63
    28da:	0e 94 04 41 	call	0x8208	; 0x8208 <__cmpsf2>
    28de:	88 23       	and	r24, r24
    28e0:	44 f4       	brge	.+16     	; 0x28f2 <greenSide+0x1fc>
    28e2:	fe 01       	movw	r30, r28
    28e4:	e3 5e       	subi	r30, 0xE3	; 227
    28e6:	fe 4f       	sbci	r31, 0xFE	; 254
    28e8:	81 e0       	ldi	r24, 0x01	; 1
    28ea:	90 e0       	ldi	r25, 0x00	; 0
    28ec:	91 83       	std	Z+1, r25	; 0x01
    28ee:	80 83       	st	Z, r24
    28f0:	64 c0       	rjmp	.+200    	; 0x29ba <greenSide+0x2c4>
    28f2:	fe 01       	movw	r30, r28
    28f4:	e1 5e       	subi	r30, 0xE1	; 225
    28f6:	fe 4f       	sbci	r31, 0xFE	; 254
    28f8:	60 81       	ld	r22, Z
    28fa:	71 81       	ldd	r23, Z+1	; 0x01
    28fc:	82 81       	ldd	r24, Z+2	; 0x02
    28fe:	93 81       	ldd	r25, Z+3	; 0x03
    2900:	20 e0       	ldi	r18, 0x00	; 0
    2902:	3f ef       	ldi	r19, 0xFF	; 255
    2904:	4f e7       	ldi	r20, 0x7F	; 127
    2906:	57 e4       	ldi	r21, 0x47	; 71
    2908:	0e 94 8c 42 	call	0x8518	; 0x8518 <__gesf2>
    290c:	18 16       	cp	r1, r24
    290e:	0c f0       	brlt	.+2      	; 0x2912 <greenSide+0x21c>
    2910:	43 c0       	rjmp	.+134    	; 0x2998 <greenSide+0x2a2>
    2912:	fe 01       	movw	r30, r28
    2914:	ed 5d       	subi	r30, 0xDD	; 221
    2916:	fe 4f       	sbci	r31, 0xFE	; 254
    2918:	60 81       	ld	r22, Z
    291a:	71 81       	ldd	r23, Z+1	; 0x01
    291c:	82 81       	ldd	r24, Z+2	; 0x02
    291e:	93 81       	ldd	r25, Z+3	; 0x03
    2920:	20 e0       	ldi	r18, 0x00	; 0
    2922:	30 e0       	ldi	r19, 0x00	; 0
    2924:	40 e2       	ldi	r20, 0x20	; 32
    2926:	51 e4       	ldi	r21, 0x41	; 65
    2928:	0e 94 90 42 	call	0x8520	; 0x8520 <__mulsf3>
    292c:	dc 01       	movw	r26, r24
    292e:	cb 01       	movw	r24, r22
    2930:	8e 01       	movw	r16, r28
    2932:	03 5e       	subi	r16, 0xE3	; 227
    2934:	1e 4f       	sbci	r17, 0xFE	; 254
    2936:	bc 01       	movw	r22, r24
    2938:	cd 01       	movw	r24, r26
    293a:	0e 94 70 41 	call	0x82e0	; 0x82e0 <__fixunssfsi>
    293e:	dc 01       	movw	r26, r24
    2940:	cb 01       	movw	r24, r22
    2942:	f8 01       	movw	r30, r16
    2944:	91 83       	std	Z+1, r25	; 0x01
    2946:	80 83       	st	Z, r24
    2948:	1f c0       	rjmp	.+62     	; 0x2988 <greenSide+0x292>
    294a:	fe 01       	movw	r30, r28
    294c:	e5 5e       	subi	r30, 0xE5	; 229
    294e:	fe 4f       	sbci	r31, 0xFE	; 254
    2950:	8a ef       	ldi	r24, 0xFA	; 250
    2952:	90 e0       	ldi	r25, 0x00	; 0
    2954:	91 83       	std	Z+1, r25	; 0x01
    2956:	80 83       	st	Z, r24
    2958:	fe 01       	movw	r30, r28
    295a:	e5 5e       	subi	r30, 0xE5	; 229
    295c:	fe 4f       	sbci	r31, 0xFE	; 254
    295e:	80 81       	ld	r24, Z
    2960:	91 81       	ldd	r25, Z+1	; 0x01
    2962:	01 97       	sbiw	r24, 0x01	; 1
    2964:	f1 f7       	brne	.-4      	; 0x2962 <greenSide+0x26c>
    2966:	fe 01       	movw	r30, r28
    2968:	e5 5e       	subi	r30, 0xE5	; 229
    296a:	fe 4f       	sbci	r31, 0xFE	; 254
    296c:	91 83       	std	Z+1, r25	; 0x01
    296e:	80 83       	st	Z, r24
    2970:	de 01       	movw	r26, r28
    2972:	a3 5e       	subi	r26, 0xE3	; 227
    2974:	be 4f       	sbci	r27, 0xFE	; 254
    2976:	fe 01       	movw	r30, r28
    2978:	e3 5e       	subi	r30, 0xE3	; 227
    297a:	fe 4f       	sbci	r31, 0xFE	; 254
    297c:	80 81       	ld	r24, Z
    297e:	91 81       	ldd	r25, Z+1	; 0x01
    2980:	01 97       	sbiw	r24, 0x01	; 1
    2982:	11 96       	adiw	r26, 0x01	; 1
    2984:	9c 93       	st	X, r25
    2986:	8e 93       	st	-X, r24
    2988:	fe 01       	movw	r30, r28
    298a:	e3 5e       	subi	r30, 0xE3	; 227
    298c:	fe 4f       	sbci	r31, 0xFE	; 254
    298e:	80 81       	ld	r24, Z
    2990:	91 81       	ldd	r25, Z+1	; 0x01
    2992:	00 97       	sbiw	r24, 0x00	; 0
    2994:	d1 f6       	brne	.-76     	; 0x294a <greenSide+0x254>
    2996:	27 c0       	rjmp	.+78     	; 0x29e6 <greenSide+0x2f0>
    2998:	8e 01       	movw	r16, r28
    299a:	03 5e       	subi	r16, 0xE3	; 227
    299c:	1e 4f       	sbci	r17, 0xFE	; 254
    299e:	fe 01       	movw	r30, r28
    29a0:	e1 5e       	subi	r30, 0xE1	; 225
    29a2:	fe 4f       	sbci	r31, 0xFE	; 254
    29a4:	60 81       	ld	r22, Z
    29a6:	71 81       	ldd	r23, Z+1	; 0x01
    29a8:	82 81       	ldd	r24, Z+2	; 0x02
    29aa:	93 81       	ldd	r25, Z+3	; 0x03
    29ac:	0e 94 70 41 	call	0x82e0	; 0x82e0 <__fixunssfsi>
    29b0:	dc 01       	movw	r26, r24
    29b2:	cb 01       	movw	r24, r22
    29b4:	f8 01       	movw	r30, r16
    29b6:	91 83       	std	Z+1, r25	; 0x01
    29b8:	80 83       	st	Z, r24
    29ba:	de 01       	movw	r26, r28
    29bc:	a7 5e       	subi	r26, 0xE7	; 231
    29be:	be 4f       	sbci	r27, 0xFE	; 254
    29c0:	fe 01       	movw	r30, r28
    29c2:	e3 5e       	subi	r30, 0xE3	; 227
    29c4:	fe 4f       	sbci	r31, 0xFE	; 254
    29c6:	80 81       	ld	r24, Z
    29c8:	91 81       	ldd	r25, Z+1	; 0x01
    29ca:	8d 93       	st	X+, r24
    29cc:	9c 93       	st	X, r25
    29ce:	fe 01       	movw	r30, r28
    29d0:	e7 5e       	subi	r30, 0xE7	; 231
    29d2:	fe 4f       	sbci	r31, 0xFE	; 254
    29d4:	80 81       	ld	r24, Z
    29d6:	91 81       	ldd	r25, Z+1	; 0x01
    29d8:	01 97       	sbiw	r24, 0x01	; 1
    29da:	f1 f7       	brne	.-4      	; 0x29d8 <greenSide+0x2e2>
    29dc:	fe 01       	movw	r30, r28
    29de:	e7 5e       	subi	r30, 0xE7	; 231
    29e0:	fe 4f       	sbci	r31, 0xFE	; 254
    29e2:	91 83       	std	Z+1, r25	; 0x01
    29e4:	80 83       	st	Z, r24
    29e6:	8f ef       	ldi	r24, 0xFF	; 255
    29e8:	61 e0       	ldi	r22, 0x01	; 1
    29ea:	1e d9       	rcall	.-3524   	; 0x1c28 <liftMove>
    29ec:	fe 01       	movw	r30, r28
    29ee:	eb 5e       	subi	r30, 0xEB	; 235
    29f0:	fe 4f       	sbci	r31, 0xFE	; 254
    29f2:	80 e0       	ldi	r24, 0x00	; 0
    29f4:	90 e0       	ldi	r25, 0x00	; 0
    29f6:	aa ef       	ldi	r26, 0xFA	; 250
    29f8:	b3 e4       	ldi	r27, 0x43	; 67
    29fa:	80 83       	st	Z, r24
    29fc:	91 83       	std	Z+1, r25	; 0x01
    29fe:	a2 83       	std	Z+2, r26	; 0x02
    2a00:	b3 83       	std	Z+3, r27	; 0x03
    2a02:	8e 01       	movw	r16, r28
    2a04:	0f 5e       	subi	r16, 0xEF	; 239
    2a06:	1e 4f       	sbci	r17, 0xFE	; 254
    2a08:	fe 01       	movw	r30, r28
    2a0a:	eb 5e       	subi	r30, 0xEB	; 235
    2a0c:	fe 4f       	sbci	r31, 0xFE	; 254
    2a0e:	60 81       	ld	r22, Z
    2a10:	71 81       	ldd	r23, Z+1	; 0x01
    2a12:	82 81       	ldd	r24, Z+2	; 0x02
    2a14:	93 81       	ldd	r25, Z+3	; 0x03
    2a16:	20 e0       	ldi	r18, 0x00	; 0
    2a18:	30 e4       	ldi	r19, 0x40	; 64
    2a1a:	4c e1       	ldi	r20, 0x1C	; 28
    2a1c:	55 e4       	ldi	r21, 0x45	; 69
    2a1e:	0e 94 90 42 	call	0x8520	; 0x8520 <__mulsf3>
    2a22:	dc 01       	movw	r26, r24
    2a24:	cb 01       	movw	r24, r22
    2a26:	f8 01       	movw	r30, r16
    2a28:	80 83       	st	Z, r24
    2a2a:	91 83       	std	Z+1, r25	; 0x01
    2a2c:	a2 83       	std	Z+2, r26	; 0x02
    2a2e:	b3 83       	std	Z+3, r27	; 0x03
    2a30:	fe 01       	movw	r30, r28
    2a32:	ef 5e       	subi	r30, 0xEF	; 239
    2a34:	fe 4f       	sbci	r31, 0xFE	; 254
    2a36:	60 81       	ld	r22, Z
    2a38:	71 81       	ldd	r23, Z+1	; 0x01
    2a3a:	82 81       	ldd	r24, Z+2	; 0x02
    2a3c:	93 81       	ldd	r25, Z+3	; 0x03
    2a3e:	20 e0       	ldi	r18, 0x00	; 0
    2a40:	30 e0       	ldi	r19, 0x00	; 0
    2a42:	40 e8       	ldi	r20, 0x80	; 128
    2a44:	5f e3       	ldi	r21, 0x3F	; 63
    2a46:	0e 94 04 41 	call	0x8208	; 0x8208 <__cmpsf2>
    2a4a:	88 23       	and	r24, r24
    2a4c:	44 f4       	brge	.+16     	; 0x2a5e <greenSide+0x368>
    2a4e:	fe 01       	movw	r30, r28
    2a50:	e1 5f       	subi	r30, 0xF1	; 241
    2a52:	fe 4f       	sbci	r31, 0xFE	; 254
    2a54:	81 e0       	ldi	r24, 0x01	; 1
    2a56:	90 e0       	ldi	r25, 0x00	; 0
    2a58:	91 83       	std	Z+1, r25	; 0x01
    2a5a:	80 83       	st	Z, r24
    2a5c:	64 c0       	rjmp	.+200    	; 0x2b26 <greenSide+0x430>
    2a5e:	fe 01       	movw	r30, r28
    2a60:	ef 5e       	subi	r30, 0xEF	; 239
    2a62:	fe 4f       	sbci	r31, 0xFE	; 254
    2a64:	60 81       	ld	r22, Z
    2a66:	71 81       	ldd	r23, Z+1	; 0x01
    2a68:	82 81       	ldd	r24, Z+2	; 0x02
    2a6a:	93 81       	ldd	r25, Z+3	; 0x03
    2a6c:	20 e0       	ldi	r18, 0x00	; 0
    2a6e:	3f ef       	ldi	r19, 0xFF	; 255
    2a70:	4f e7       	ldi	r20, 0x7F	; 127
    2a72:	57 e4       	ldi	r21, 0x47	; 71
    2a74:	0e 94 8c 42 	call	0x8518	; 0x8518 <__gesf2>
    2a78:	18 16       	cp	r1, r24
    2a7a:	0c f0       	brlt	.+2      	; 0x2a7e <greenSide+0x388>
    2a7c:	43 c0       	rjmp	.+134    	; 0x2b04 <greenSide+0x40e>
    2a7e:	fe 01       	movw	r30, r28
    2a80:	eb 5e       	subi	r30, 0xEB	; 235
    2a82:	fe 4f       	sbci	r31, 0xFE	; 254
    2a84:	60 81       	ld	r22, Z
    2a86:	71 81       	ldd	r23, Z+1	; 0x01
    2a88:	82 81       	ldd	r24, Z+2	; 0x02
    2a8a:	93 81       	ldd	r25, Z+3	; 0x03
    2a8c:	20 e0       	ldi	r18, 0x00	; 0
    2a8e:	30 e0       	ldi	r19, 0x00	; 0
    2a90:	40 e2       	ldi	r20, 0x20	; 32
    2a92:	51 e4       	ldi	r21, 0x41	; 65
    2a94:	0e 94 90 42 	call	0x8520	; 0x8520 <__mulsf3>
    2a98:	dc 01       	movw	r26, r24
    2a9a:	cb 01       	movw	r24, r22
    2a9c:	8e 01       	movw	r16, r28
    2a9e:	01 5f       	subi	r16, 0xF1	; 241
    2aa0:	1e 4f       	sbci	r17, 0xFE	; 254
    2aa2:	bc 01       	movw	r22, r24
    2aa4:	cd 01       	movw	r24, r26
    2aa6:	0e 94 70 41 	call	0x82e0	; 0x82e0 <__fixunssfsi>
    2aaa:	dc 01       	movw	r26, r24
    2aac:	cb 01       	movw	r24, r22
    2aae:	f8 01       	movw	r30, r16
    2ab0:	91 83       	std	Z+1, r25	; 0x01
    2ab2:	80 83       	st	Z, r24
    2ab4:	1f c0       	rjmp	.+62     	; 0x2af4 <greenSide+0x3fe>
    2ab6:	fe 01       	movw	r30, r28
    2ab8:	e3 5f       	subi	r30, 0xF3	; 243
    2aba:	fe 4f       	sbci	r31, 0xFE	; 254
    2abc:	8a ef       	ldi	r24, 0xFA	; 250
    2abe:	90 e0       	ldi	r25, 0x00	; 0
    2ac0:	91 83       	std	Z+1, r25	; 0x01
    2ac2:	80 83       	st	Z, r24
    2ac4:	fe 01       	movw	r30, r28
    2ac6:	e3 5f       	subi	r30, 0xF3	; 243
    2ac8:	fe 4f       	sbci	r31, 0xFE	; 254
    2aca:	80 81       	ld	r24, Z
    2acc:	91 81       	ldd	r25, Z+1	; 0x01
    2ace:	01 97       	sbiw	r24, 0x01	; 1
    2ad0:	f1 f7       	brne	.-4      	; 0x2ace <greenSide+0x3d8>
    2ad2:	fe 01       	movw	r30, r28
    2ad4:	e3 5f       	subi	r30, 0xF3	; 243
    2ad6:	fe 4f       	sbci	r31, 0xFE	; 254
    2ad8:	91 83       	std	Z+1, r25	; 0x01
    2ada:	80 83       	st	Z, r24
    2adc:	de 01       	movw	r26, r28
    2ade:	a1 5f       	subi	r26, 0xF1	; 241
    2ae0:	be 4f       	sbci	r27, 0xFE	; 254
    2ae2:	fe 01       	movw	r30, r28
    2ae4:	e1 5f       	subi	r30, 0xF1	; 241
    2ae6:	fe 4f       	sbci	r31, 0xFE	; 254
    2ae8:	80 81       	ld	r24, Z
    2aea:	91 81       	ldd	r25, Z+1	; 0x01
    2aec:	01 97       	sbiw	r24, 0x01	; 1
    2aee:	11 96       	adiw	r26, 0x01	; 1
    2af0:	9c 93       	st	X, r25
    2af2:	8e 93       	st	-X, r24
    2af4:	fe 01       	movw	r30, r28
    2af6:	e1 5f       	subi	r30, 0xF1	; 241
    2af8:	fe 4f       	sbci	r31, 0xFE	; 254
    2afa:	80 81       	ld	r24, Z
    2afc:	91 81       	ldd	r25, Z+1	; 0x01
    2afe:	00 97       	sbiw	r24, 0x00	; 0
    2b00:	d1 f6       	brne	.-76     	; 0x2ab6 <greenSide+0x3c0>
    2b02:	27 c0       	rjmp	.+78     	; 0x2b52 <greenSide+0x45c>
    2b04:	8e 01       	movw	r16, r28
    2b06:	01 5f       	subi	r16, 0xF1	; 241
    2b08:	1e 4f       	sbci	r17, 0xFE	; 254
    2b0a:	fe 01       	movw	r30, r28
    2b0c:	ef 5e       	subi	r30, 0xEF	; 239
    2b0e:	fe 4f       	sbci	r31, 0xFE	; 254
    2b10:	60 81       	ld	r22, Z
    2b12:	71 81       	ldd	r23, Z+1	; 0x01
    2b14:	82 81       	ldd	r24, Z+2	; 0x02
    2b16:	93 81       	ldd	r25, Z+3	; 0x03
    2b18:	0e 94 70 41 	call	0x82e0	; 0x82e0 <__fixunssfsi>
    2b1c:	dc 01       	movw	r26, r24
    2b1e:	cb 01       	movw	r24, r22
    2b20:	f8 01       	movw	r30, r16
    2b22:	91 83       	std	Z+1, r25	; 0x01
    2b24:	80 83       	st	Z, r24
    2b26:	de 01       	movw	r26, r28
    2b28:	a5 5f       	subi	r26, 0xF5	; 245
    2b2a:	be 4f       	sbci	r27, 0xFE	; 254
    2b2c:	fe 01       	movw	r30, r28
    2b2e:	e1 5f       	subi	r30, 0xF1	; 241
    2b30:	fe 4f       	sbci	r31, 0xFE	; 254
    2b32:	80 81       	ld	r24, Z
    2b34:	91 81       	ldd	r25, Z+1	; 0x01
    2b36:	8d 93       	st	X+, r24
    2b38:	9c 93       	st	X, r25
    2b3a:	fe 01       	movw	r30, r28
    2b3c:	e5 5f       	subi	r30, 0xF5	; 245
    2b3e:	fe 4f       	sbci	r31, 0xFE	; 254
    2b40:	80 81       	ld	r24, Z
    2b42:	91 81       	ldd	r25, Z+1	; 0x01
    2b44:	01 97       	sbiw	r24, 0x01	; 1
    2b46:	f1 f7       	brne	.-4      	; 0x2b44 <greenSide+0x44e>
    2b48:	fe 01       	movw	r30, r28
    2b4a:	e5 5f       	subi	r30, 0xF5	; 245
    2b4c:	fe 4f       	sbci	r31, 0xFE	; 254
    2b4e:	91 83       	std	Z+1, r25	; 0x01
    2b50:	80 83       	st	Z, r24
    2b52:	81 e0       	ldi	r24, 0x01	; 1
    2b54:	61 e0       	ldi	r22, 0x01	; 1
    2b56:	68 d8       	rcall	.-3888   	; 0x1c28 <liftMove>
    2b58:	0c 94 8e 23 	jmp	0x471c	; 0x471c <greenSide+0x2026>
    2b5c:	fe 01       	movw	r30, r28
    2b5e:	e6 5d       	subi	r30, 0xD6	; 214
    2b60:	fe 4f       	sbci	r31, 0xFE	; 254
    2b62:	80 81       	ld	r24, Z
    2b64:	83 30       	cpi	r24, 0x03	; 3
    2b66:	11 f4       	brne	.+4      	; 0x2b6c <greenSide+0x476>
    2b68:	0c 94 8e 23 	jmp	0x471c	; 0x471c <greenSide+0x2026>
    2b6c:	fe 01       	movw	r30, r28
    2b6e:	e6 5d       	subi	r30, 0xD6	; 214
    2b70:	fe 4f       	sbci	r31, 0xFE	; 254
    2b72:	80 81       	ld	r24, Z
    2b74:	84 30       	cpi	r24, 0x04	; 4
    2b76:	09 f0       	breq	.+2      	; 0x2b7a <greenSide+0x484>
    2b78:	56 c7       	rjmp	.+3756   	; 0x3a26 <greenSide+0x1330>
    2b7a:	83 e7       	ldi	r24, 0x73	; 115
    2b7c:	0e 94 b1 23 	call	0x4762	; 0x4762 <stop>
    2b80:	fe 01       	movw	r30, r28
    2b82:	e9 5f       	subi	r30, 0xF9	; 249
    2b84:	fe 4f       	sbci	r31, 0xFE	; 254
    2b86:	80 e0       	ldi	r24, 0x00	; 0
    2b88:	90 e0       	ldi	r25, 0x00	; 0
    2b8a:	a8 e4       	ldi	r26, 0x48	; 72
    2b8c:	b2 e4       	ldi	r27, 0x42	; 66
    2b8e:	80 83       	st	Z, r24
    2b90:	91 83       	std	Z+1, r25	; 0x01
    2b92:	a2 83       	std	Z+2, r26	; 0x02
    2b94:	b3 83       	std	Z+3, r27	; 0x03
    2b96:	8e 01       	movw	r16, r28
    2b98:	0d 5f       	subi	r16, 0xFD	; 253
    2b9a:	1e 4f       	sbci	r17, 0xFE	; 254
    2b9c:	fe 01       	movw	r30, r28
    2b9e:	e9 5f       	subi	r30, 0xF9	; 249
    2ba0:	fe 4f       	sbci	r31, 0xFE	; 254
    2ba2:	60 81       	ld	r22, Z
    2ba4:	71 81       	ldd	r23, Z+1	; 0x01
    2ba6:	82 81       	ldd	r24, Z+2	; 0x02
    2ba8:	93 81       	ldd	r25, Z+3	; 0x03
    2baa:	20 e0       	ldi	r18, 0x00	; 0
    2bac:	30 e4       	ldi	r19, 0x40	; 64
    2bae:	4c e1       	ldi	r20, 0x1C	; 28
    2bb0:	55 e4       	ldi	r21, 0x45	; 69
    2bb2:	0e 94 90 42 	call	0x8520	; 0x8520 <__mulsf3>
    2bb6:	dc 01       	movw	r26, r24
    2bb8:	cb 01       	movw	r24, r22
    2bba:	f8 01       	movw	r30, r16
    2bbc:	80 83       	st	Z, r24
    2bbe:	91 83       	std	Z+1, r25	; 0x01
    2bc0:	a2 83       	std	Z+2, r26	; 0x02
    2bc2:	b3 83       	std	Z+3, r27	; 0x03
    2bc4:	fe 01       	movw	r30, r28
    2bc6:	ed 5f       	subi	r30, 0xFD	; 253
    2bc8:	fe 4f       	sbci	r31, 0xFE	; 254
    2bca:	60 81       	ld	r22, Z
    2bcc:	71 81       	ldd	r23, Z+1	; 0x01
    2bce:	82 81       	ldd	r24, Z+2	; 0x02
    2bd0:	93 81       	ldd	r25, Z+3	; 0x03
    2bd2:	20 e0       	ldi	r18, 0x00	; 0
    2bd4:	30 e0       	ldi	r19, 0x00	; 0
    2bd6:	40 e8       	ldi	r20, 0x80	; 128
    2bd8:	5f e3       	ldi	r21, 0x3F	; 63
    2bda:	0e 94 04 41 	call	0x8208	; 0x8208 <__cmpsf2>
    2bde:	88 23       	and	r24, r24
    2be0:	44 f4       	brge	.+16     	; 0x2bf2 <greenSide+0x4fc>
    2be2:	fe 01       	movw	r30, r28
    2be4:	ef 5f       	subi	r30, 0xFF	; 255
    2be6:	fe 4f       	sbci	r31, 0xFE	; 254
    2be8:	81 e0       	ldi	r24, 0x01	; 1
    2bea:	90 e0       	ldi	r25, 0x00	; 0
    2bec:	91 83       	std	Z+1, r25	; 0x01
    2bee:	80 83       	st	Z, r24
    2bf0:	64 c0       	rjmp	.+200    	; 0x2cba <greenSide+0x5c4>
    2bf2:	fe 01       	movw	r30, r28
    2bf4:	ed 5f       	subi	r30, 0xFD	; 253
    2bf6:	fe 4f       	sbci	r31, 0xFE	; 254
    2bf8:	60 81       	ld	r22, Z
    2bfa:	71 81       	ldd	r23, Z+1	; 0x01
    2bfc:	82 81       	ldd	r24, Z+2	; 0x02
    2bfe:	93 81       	ldd	r25, Z+3	; 0x03
    2c00:	20 e0       	ldi	r18, 0x00	; 0
    2c02:	3f ef       	ldi	r19, 0xFF	; 255
    2c04:	4f e7       	ldi	r20, 0x7F	; 127
    2c06:	57 e4       	ldi	r21, 0x47	; 71
    2c08:	0e 94 8c 42 	call	0x8518	; 0x8518 <__gesf2>
    2c0c:	18 16       	cp	r1, r24
    2c0e:	0c f0       	brlt	.+2      	; 0x2c12 <greenSide+0x51c>
    2c10:	43 c0       	rjmp	.+134    	; 0x2c98 <greenSide+0x5a2>
    2c12:	fe 01       	movw	r30, r28
    2c14:	e9 5f       	subi	r30, 0xF9	; 249
    2c16:	fe 4f       	sbci	r31, 0xFE	; 254
    2c18:	60 81       	ld	r22, Z
    2c1a:	71 81       	ldd	r23, Z+1	; 0x01
    2c1c:	82 81       	ldd	r24, Z+2	; 0x02
    2c1e:	93 81       	ldd	r25, Z+3	; 0x03
    2c20:	20 e0       	ldi	r18, 0x00	; 0
    2c22:	30 e0       	ldi	r19, 0x00	; 0
    2c24:	40 e2       	ldi	r20, 0x20	; 32
    2c26:	51 e4       	ldi	r21, 0x41	; 65
    2c28:	0e 94 90 42 	call	0x8520	; 0x8520 <__mulsf3>
    2c2c:	dc 01       	movw	r26, r24
    2c2e:	cb 01       	movw	r24, r22
    2c30:	8e 01       	movw	r16, r28
    2c32:	0f 5f       	subi	r16, 0xFF	; 255
    2c34:	1e 4f       	sbci	r17, 0xFE	; 254
    2c36:	bc 01       	movw	r22, r24
    2c38:	cd 01       	movw	r24, r26
    2c3a:	0e 94 70 41 	call	0x82e0	; 0x82e0 <__fixunssfsi>
    2c3e:	dc 01       	movw	r26, r24
    2c40:	cb 01       	movw	r24, r22
    2c42:	f8 01       	movw	r30, r16
    2c44:	91 83       	std	Z+1, r25	; 0x01
    2c46:	80 83       	st	Z, r24
    2c48:	1f c0       	rjmp	.+62     	; 0x2c88 <greenSide+0x592>
    2c4a:	fe 01       	movw	r30, r28
    2c4c:	e1 50       	subi	r30, 0x01	; 1
    2c4e:	ff 4f       	sbci	r31, 0xFF	; 255
    2c50:	8a ef       	ldi	r24, 0xFA	; 250
    2c52:	90 e0       	ldi	r25, 0x00	; 0
    2c54:	91 83       	std	Z+1, r25	; 0x01
    2c56:	80 83       	st	Z, r24
    2c58:	fe 01       	movw	r30, r28
    2c5a:	e1 50       	subi	r30, 0x01	; 1
    2c5c:	ff 4f       	sbci	r31, 0xFF	; 255
    2c5e:	80 81       	ld	r24, Z
    2c60:	91 81       	ldd	r25, Z+1	; 0x01
    2c62:	01 97       	sbiw	r24, 0x01	; 1
    2c64:	f1 f7       	brne	.-4      	; 0x2c62 <greenSide+0x56c>
    2c66:	fe 01       	movw	r30, r28
    2c68:	e1 50       	subi	r30, 0x01	; 1
    2c6a:	ff 4f       	sbci	r31, 0xFF	; 255
    2c6c:	91 83       	std	Z+1, r25	; 0x01
    2c6e:	80 83       	st	Z, r24
    2c70:	de 01       	movw	r26, r28
    2c72:	af 5f       	subi	r26, 0xFF	; 255
    2c74:	be 4f       	sbci	r27, 0xFE	; 254
    2c76:	fe 01       	movw	r30, r28
    2c78:	ef 5f       	subi	r30, 0xFF	; 255
    2c7a:	fe 4f       	sbci	r31, 0xFE	; 254
    2c7c:	80 81       	ld	r24, Z
    2c7e:	91 81       	ldd	r25, Z+1	; 0x01
    2c80:	01 97       	sbiw	r24, 0x01	; 1
    2c82:	11 96       	adiw	r26, 0x01	; 1
    2c84:	9c 93       	st	X, r25
    2c86:	8e 93       	st	-X, r24
    2c88:	fe 01       	movw	r30, r28
    2c8a:	ef 5f       	subi	r30, 0xFF	; 255
    2c8c:	fe 4f       	sbci	r31, 0xFE	; 254
    2c8e:	80 81       	ld	r24, Z
    2c90:	91 81       	ldd	r25, Z+1	; 0x01
    2c92:	00 97       	sbiw	r24, 0x00	; 0
    2c94:	d1 f6       	brne	.-76     	; 0x2c4a <greenSide+0x554>
    2c96:	27 c0       	rjmp	.+78     	; 0x2ce6 <greenSide+0x5f0>
    2c98:	8e 01       	movw	r16, r28
    2c9a:	0f 5f       	subi	r16, 0xFF	; 255
    2c9c:	1e 4f       	sbci	r17, 0xFE	; 254
    2c9e:	fe 01       	movw	r30, r28
    2ca0:	ed 5f       	subi	r30, 0xFD	; 253
    2ca2:	fe 4f       	sbci	r31, 0xFE	; 254
    2ca4:	60 81       	ld	r22, Z
    2ca6:	71 81       	ldd	r23, Z+1	; 0x01
    2ca8:	82 81       	ldd	r24, Z+2	; 0x02
    2caa:	93 81       	ldd	r25, Z+3	; 0x03
    2cac:	0e 94 70 41 	call	0x82e0	; 0x82e0 <__fixunssfsi>
    2cb0:	dc 01       	movw	r26, r24
    2cb2:	cb 01       	movw	r24, r22
    2cb4:	f8 01       	movw	r30, r16
    2cb6:	91 83       	std	Z+1, r25	; 0x01
    2cb8:	80 83       	st	Z, r24
    2cba:	de 01       	movw	r26, r28
    2cbc:	a3 50       	subi	r26, 0x03	; 3
    2cbe:	bf 4f       	sbci	r27, 0xFF	; 255
    2cc0:	fe 01       	movw	r30, r28
    2cc2:	ef 5f       	subi	r30, 0xFF	; 255
    2cc4:	fe 4f       	sbci	r31, 0xFE	; 254
    2cc6:	80 81       	ld	r24, Z
    2cc8:	91 81       	ldd	r25, Z+1	; 0x01
    2cca:	8d 93       	st	X+, r24
    2ccc:	9c 93       	st	X, r25
    2cce:	fe 01       	movw	r30, r28
    2cd0:	e3 50       	subi	r30, 0x03	; 3
    2cd2:	ff 4f       	sbci	r31, 0xFF	; 255
    2cd4:	80 81       	ld	r24, Z
    2cd6:	91 81       	ldd	r25, Z+1	; 0x01
    2cd8:	01 97       	sbiw	r24, 0x01	; 1
    2cda:	f1 f7       	brne	.-4      	; 0x2cd8 <greenSide+0x5e2>
    2cdc:	fe 01       	movw	r30, r28
    2cde:	e3 50       	subi	r30, 0x03	; 3
    2ce0:	ff 4f       	sbci	r31, 0xFF	; 255
    2ce2:	91 83       	std	Z+1, r25	; 0x01
    2ce4:	80 83       	st	Z, r24
    2ce6:	8f ef       	ldi	r24, 0xFF	; 255
    2ce8:	61 e0       	ldi	r22, 0x01	; 1
    2cea:	0e 94 14 0e 	call	0x1c28	; 0x1c28 <liftMove>
    2cee:	fe 01       	movw	r30, r28
    2cf0:	e7 50       	subi	r30, 0x07	; 7
    2cf2:	ff 4f       	sbci	r31, 0xFF	; 255
    2cf4:	80 e0       	ldi	r24, 0x00	; 0
    2cf6:	90 e0       	ldi	r25, 0x00	; 0
    2cf8:	aa ef       	ldi	r26, 0xFA	; 250
    2cfa:	b3 e4       	ldi	r27, 0x43	; 67
    2cfc:	80 83       	st	Z, r24
    2cfe:	91 83       	std	Z+1, r25	; 0x01
    2d00:	a2 83       	std	Z+2, r26	; 0x02
    2d02:	b3 83       	std	Z+3, r27	; 0x03
    2d04:	8e 01       	movw	r16, r28
    2d06:	0b 50       	subi	r16, 0x0B	; 11
    2d08:	1f 4f       	sbci	r17, 0xFF	; 255
    2d0a:	fe 01       	movw	r30, r28
    2d0c:	e7 50       	subi	r30, 0x07	; 7
    2d0e:	ff 4f       	sbci	r31, 0xFF	; 255
    2d10:	60 81       	ld	r22, Z
    2d12:	71 81       	ldd	r23, Z+1	; 0x01
    2d14:	82 81       	ldd	r24, Z+2	; 0x02
    2d16:	93 81       	ldd	r25, Z+3	; 0x03
    2d18:	20 e0       	ldi	r18, 0x00	; 0
    2d1a:	30 e4       	ldi	r19, 0x40	; 64
    2d1c:	4c e1       	ldi	r20, 0x1C	; 28
    2d1e:	55 e4       	ldi	r21, 0x45	; 69
    2d20:	0e 94 90 42 	call	0x8520	; 0x8520 <__mulsf3>
    2d24:	dc 01       	movw	r26, r24
    2d26:	cb 01       	movw	r24, r22
    2d28:	f8 01       	movw	r30, r16
    2d2a:	80 83       	st	Z, r24
    2d2c:	91 83       	std	Z+1, r25	; 0x01
    2d2e:	a2 83       	std	Z+2, r26	; 0x02
    2d30:	b3 83       	std	Z+3, r27	; 0x03
    2d32:	fe 01       	movw	r30, r28
    2d34:	eb 50       	subi	r30, 0x0B	; 11
    2d36:	ff 4f       	sbci	r31, 0xFF	; 255
    2d38:	60 81       	ld	r22, Z
    2d3a:	71 81       	ldd	r23, Z+1	; 0x01
    2d3c:	82 81       	ldd	r24, Z+2	; 0x02
    2d3e:	93 81       	ldd	r25, Z+3	; 0x03
    2d40:	20 e0       	ldi	r18, 0x00	; 0
    2d42:	30 e0       	ldi	r19, 0x00	; 0
    2d44:	40 e8       	ldi	r20, 0x80	; 128
    2d46:	5f e3       	ldi	r21, 0x3F	; 63
    2d48:	0e 94 04 41 	call	0x8208	; 0x8208 <__cmpsf2>
    2d4c:	88 23       	and	r24, r24
    2d4e:	44 f4       	brge	.+16     	; 0x2d60 <greenSide+0x66a>
    2d50:	fe 01       	movw	r30, r28
    2d52:	ed 50       	subi	r30, 0x0D	; 13
    2d54:	ff 4f       	sbci	r31, 0xFF	; 255
    2d56:	81 e0       	ldi	r24, 0x01	; 1
    2d58:	90 e0       	ldi	r25, 0x00	; 0
    2d5a:	91 83       	std	Z+1, r25	; 0x01
    2d5c:	80 83       	st	Z, r24
    2d5e:	64 c0       	rjmp	.+200    	; 0x2e28 <greenSide+0x732>
    2d60:	fe 01       	movw	r30, r28
    2d62:	eb 50       	subi	r30, 0x0B	; 11
    2d64:	ff 4f       	sbci	r31, 0xFF	; 255
    2d66:	60 81       	ld	r22, Z
    2d68:	71 81       	ldd	r23, Z+1	; 0x01
    2d6a:	82 81       	ldd	r24, Z+2	; 0x02
    2d6c:	93 81       	ldd	r25, Z+3	; 0x03
    2d6e:	20 e0       	ldi	r18, 0x00	; 0
    2d70:	3f ef       	ldi	r19, 0xFF	; 255
    2d72:	4f e7       	ldi	r20, 0x7F	; 127
    2d74:	57 e4       	ldi	r21, 0x47	; 71
    2d76:	0e 94 8c 42 	call	0x8518	; 0x8518 <__gesf2>
    2d7a:	18 16       	cp	r1, r24
    2d7c:	0c f0       	brlt	.+2      	; 0x2d80 <greenSide+0x68a>
    2d7e:	43 c0       	rjmp	.+134    	; 0x2e06 <greenSide+0x710>
    2d80:	fe 01       	movw	r30, r28
    2d82:	e7 50       	subi	r30, 0x07	; 7
    2d84:	ff 4f       	sbci	r31, 0xFF	; 255
    2d86:	60 81       	ld	r22, Z
    2d88:	71 81       	ldd	r23, Z+1	; 0x01
    2d8a:	82 81       	ldd	r24, Z+2	; 0x02
    2d8c:	93 81       	ldd	r25, Z+3	; 0x03
    2d8e:	20 e0       	ldi	r18, 0x00	; 0
    2d90:	30 e0       	ldi	r19, 0x00	; 0
    2d92:	40 e2       	ldi	r20, 0x20	; 32
    2d94:	51 e4       	ldi	r21, 0x41	; 65
    2d96:	0e 94 90 42 	call	0x8520	; 0x8520 <__mulsf3>
    2d9a:	dc 01       	movw	r26, r24
    2d9c:	cb 01       	movw	r24, r22
    2d9e:	8e 01       	movw	r16, r28
    2da0:	0d 50       	subi	r16, 0x0D	; 13
    2da2:	1f 4f       	sbci	r17, 0xFF	; 255
    2da4:	bc 01       	movw	r22, r24
    2da6:	cd 01       	movw	r24, r26
    2da8:	0e 94 70 41 	call	0x82e0	; 0x82e0 <__fixunssfsi>
    2dac:	dc 01       	movw	r26, r24
    2dae:	cb 01       	movw	r24, r22
    2db0:	f8 01       	movw	r30, r16
    2db2:	91 83       	std	Z+1, r25	; 0x01
    2db4:	80 83       	st	Z, r24
    2db6:	1f c0       	rjmp	.+62     	; 0x2df6 <greenSide+0x700>
    2db8:	fe 01       	movw	r30, r28
    2dba:	ef 50       	subi	r30, 0x0F	; 15
    2dbc:	ff 4f       	sbci	r31, 0xFF	; 255
    2dbe:	8a ef       	ldi	r24, 0xFA	; 250
    2dc0:	90 e0       	ldi	r25, 0x00	; 0
    2dc2:	91 83       	std	Z+1, r25	; 0x01
    2dc4:	80 83       	st	Z, r24
    2dc6:	fe 01       	movw	r30, r28
    2dc8:	ef 50       	subi	r30, 0x0F	; 15
    2dca:	ff 4f       	sbci	r31, 0xFF	; 255
    2dcc:	80 81       	ld	r24, Z
    2dce:	91 81       	ldd	r25, Z+1	; 0x01
    2dd0:	01 97       	sbiw	r24, 0x01	; 1
    2dd2:	f1 f7       	brne	.-4      	; 0x2dd0 <greenSide+0x6da>
    2dd4:	fe 01       	movw	r30, r28
    2dd6:	ef 50       	subi	r30, 0x0F	; 15
    2dd8:	ff 4f       	sbci	r31, 0xFF	; 255
    2dda:	91 83       	std	Z+1, r25	; 0x01
    2ddc:	80 83       	st	Z, r24
    2dde:	de 01       	movw	r26, r28
    2de0:	ad 50       	subi	r26, 0x0D	; 13
    2de2:	bf 4f       	sbci	r27, 0xFF	; 255
    2de4:	fe 01       	movw	r30, r28
    2de6:	ed 50       	subi	r30, 0x0D	; 13
    2de8:	ff 4f       	sbci	r31, 0xFF	; 255
    2dea:	80 81       	ld	r24, Z
    2dec:	91 81       	ldd	r25, Z+1	; 0x01
    2dee:	01 97       	sbiw	r24, 0x01	; 1
    2df0:	11 96       	adiw	r26, 0x01	; 1
    2df2:	9c 93       	st	X, r25
    2df4:	8e 93       	st	-X, r24
    2df6:	fe 01       	movw	r30, r28
    2df8:	ed 50       	subi	r30, 0x0D	; 13
    2dfa:	ff 4f       	sbci	r31, 0xFF	; 255
    2dfc:	80 81       	ld	r24, Z
    2dfe:	91 81       	ldd	r25, Z+1	; 0x01
    2e00:	00 97       	sbiw	r24, 0x00	; 0
    2e02:	d1 f6       	brne	.-76     	; 0x2db8 <greenSide+0x6c2>
    2e04:	27 c0       	rjmp	.+78     	; 0x2e54 <greenSide+0x75e>
    2e06:	8e 01       	movw	r16, r28
    2e08:	0d 50       	subi	r16, 0x0D	; 13
    2e0a:	1f 4f       	sbci	r17, 0xFF	; 255
    2e0c:	fe 01       	movw	r30, r28
    2e0e:	eb 50       	subi	r30, 0x0B	; 11
    2e10:	ff 4f       	sbci	r31, 0xFF	; 255
    2e12:	60 81       	ld	r22, Z
    2e14:	71 81       	ldd	r23, Z+1	; 0x01
    2e16:	82 81       	ldd	r24, Z+2	; 0x02
    2e18:	93 81       	ldd	r25, Z+3	; 0x03
    2e1a:	0e 94 70 41 	call	0x82e0	; 0x82e0 <__fixunssfsi>
    2e1e:	dc 01       	movw	r26, r24
    2e20:	cb 01       	movw	r24, r22
    2e22:	f8 01       	movw	r30, r16
    2e24:	91 83       	std	Z+1, r25	; 0x01
    2e26:	80 83       	st	Z, r24
    2e28:	de 01       	movw	r26, r28
    2e2a:	a1 51       	subi	r26, 0x11	; 17
    2e2c:	bf 4f       	sbci	r27, 0xFF	; 255
    2e2e:	fe 01       	movw	r30, r28
    2e30:	ed 50       	subi	r30, 0x0D	; 13
    2e32:	ff 4f       	sbci	r31, 0xFF	; 255
    2e34:	80 81       	ld	r24, Z
    2e36:	91 81       	ldd	r25, Z+1	; 0x01
    2e38:	8d 93       	st	X+, r24
    2e3a:	9c 93       	st	X, r25
    2e3c:	fe 01       	movw	r30, r28
    2e3e:	e1 51       	subi	r30, 0x11	; 17
    2e40:	ff 4f       	sbci	r31, 0xFF	; 255
    2e42:	80 81       	ld	r24, Z
    2e44:	91 81       	ldd	r25, Z+1	; 0x01
    2e46:	01 97       	sbiw	r24, 0x01	; 1
    2e48:	f1 f7       	brne	.-4      	; 0x2e46 <greenSide+0x750>
    2e4a:	fe 01       	movw	r30, r28
    2e4c:	e1 51       	subi	r30, 0x11	; 17
    2e4e:	ff 4f       	sbci	r31, 0xFF	; 255
    2e50:	91 83       	std	Z+1, r25	; 0x01
    2e52:	80 83       	st	Z, r24
    2e54:	81 e0       	ldi	r24, 0x01	; 1
    2e56:	61 e0       	ldi	r22, 0x01	; 1
    2e58:	0e 94 14 0e 	call	0x1c28	; 0x1c28 <liftMove>
    2e5c:	2e e5       	ldi	r18, 0x5E	; 94
    2e5e:	33 e1       	ldi	r19, 0x13	; 19
    2e60:	8a e5       	ldi	r24, 0x5A	; 90
    2e62:	90 e0       	ldi	r25, 0x00	; 0
    2e64:	62 e3       	ldi	r22, 0x32	; 50
    2e66:	a9 01       	movw	r20, r18
    2e68:	0e 94 9a 2b 	call	0x5734	; 0x5734 <rotate>
    2e6c:	8c e3       	ldi	r24, 0x3C	; 60
    2e6e:	90 e0       	ldi	r25, 0x00	; 0
    2e70:	62 e3       	ldi	r22, 0x32	; 50
    2e72:	40 e0       	ldi	r20, 0x00	; 0
    2e74:	50 e0       	ldi	r21, 0x00	; 0
    2e76:	0e 94 cd 24 	call	0x499a	; 0x499a <moveOnDirection>
    2e7a:	8f ef       	ldi	r24, 0xFF	; 255
    2e7c:	6f ef       	ldi	r22, 0xFF	; 255
    2e7e:	0e 94 01 08 	call	0x1002	; 0x1002 <colectThePopcorn>
    2e82:	8c e9       	ldi	r24, 0x9C	; 156
    2e84:	9f ef       	ldi	r25, 0xFF	; 255
    2e86:	62 e3       	ldi	r22, 0x32	; 50
    2e88:	40 e0       	ldi	r20, 0x00	; 0
    2e8a:	50 e0       	ldi	r21, 0x00	; 0
    2e8c:	0e 94 cd 24 	call	0x499a	; 0x499a <moveOnDirection>
    2e90:	8c e9       	ldi	r24, 0x9C	; 156
    2e92:	9f ef       	ldi	r25, 0xFF	; 255
    2e94:	62 e3       	ldi	r22, 0x32	; 50
    2e96:	40 e0       	ldi	r20, 0x00	; 0
    2e98:	50 e0       	ldi	r21, 0x00	; 0
    2e9a:	0e 94 9a 2b 	call	0x5734	; 0x5734 <rotate>
    2e9e:	fe 01       	movw	r30, r28
    2ea0:	e5 51       	subi	r30, 0x15	; 21
    2ea2:	ff 4f       	sbci	r31, 0xFF	; 255
    2ea4:	80 e0       	ldi	r24, 0x00	; 0
    2ea6:	90 e0       	ldi	r25, 0x00	; 0
    2ea8:	aa ef       	ldi	r26, 0xFA	; 250
    2eaa:	b3 e4       	ldi	r27, 0x43	; 67
    2eac:	80 83       	st	Z, r24
    2eae:	91 83       	std	Z+1, r25	; 0x01
    2eb0:	a2 83       	std	Z+2, r26	; 0x02
    2eb2:	b3 83       	std	Z+3, r27	; 0x03
    2eb4:	8e 01       	movw	r16, r28
    2eb6:	09 51       	subi	r16, 0x19	; 25
    2eb8:	1f 4f       	sbci	r17, 0xFF	; 255
    2eba:	fe 01       	movw	r30, r28
    2ebc:	e5 51       	subi	r30, 0x15	; 21
    2ebe:	ff 4f       	sbci	r31, 0xFF	; 255
    2ec0:	60 81       	ld	r22, Z
    2ec2:	71 81       	ldd	r23, Z+1	; 0x01
    2ec4:	82 81       	ldd	r24, Z+2	; 0x02
    2ec6:	93 81       	ldd	r25, Z+3	; 0x03
    2ec8:	20 e0       	ldi	r18, 0x00	; 0
    2eca:	30 e4       	ldi	r19, 0x40	; 64
    2ecc:	4c e1       	ldi	r20, 0x1C	; 28
    2ece:	55 e4       	ldi	r21, 0x45	; 69
    2ed0:	0e 94 90 42 	call	0x8520	; 0x8520 <__mulsf3>
    2ed4:	dc 01       	movw	r26, r24
    2ed6:	cb 01       	movw	r24, r22
    2ed8:	f8 01       	movw	r30, r16
    2eda:	80 83       	st	Z, r24
    2edc:	91 83       	std	Z+1, r25	; 0x01
    2ede:	a2 83       	std	Z+2, r26	; 0x02
    2ee0:	b3 83       	std	Z+3, r27	; 0x03
    2ee2:	fe 01       	movw	r30, r28
    2ee4:	e9 51       	subi	r30, 0x19	; 25
    2ee6:	ff 4f       	sbci	r31, 0xFF	; 255
    2ee8:	60 81       	ld	r22, Z
    2eea:	71 81       	ldd	r23, Z+1	; 0x01
    2eec:	82 81       	ldd	r24, Z+2	; 0x02
    2eee:	93 81       	ldd	r25, Z+3	; 0x03
    2ef0:	20 e0       	ldi	r18, 0x00	; 0
    2ef2:	30 e0       	ldi	r19, 0x00	; 0
    2ef4:	40 e8       	ldi	r20, 0x80	; 128
    2ef6:	5f e3       	ldi	r21, 0x3F	; 63
    2ef8:	0e 94 04 41 	call	0x8208	; 0x8208 <__cmpsf2>
    2efc:	88 23       	and	r24, r24
    2efe:	44 f4       	brge	.+16     	; 0x2f10 <greenSide+0x81a>
    2f00:	fe 01       	movw	r30, r28
    2f02:	eb 51       	subi	r30, 0x1B	; 27
    2f04:	ff 4f       	sbci	r31, 0xFF	; 255
    2f06:	81 e0       	ldi	r24, 0x01	; 1
    2f08:	90 e0       	ldi	r25, 0x00	; 0
    2f0a:	91 83       	std	Z+1, r25	; 0x01
    2f0c:	80 83       	st	Z, r24
    2f0e:	64 c0       	rjmp	.+200    	; 0x2fd8 <greenSide+0x8e2>
    2f10:	fe 01       	movw	r30, r28
    2f12:	e9 51       	subi	r30, 0x19	; 25
    2f14:	ff 4f       	sbci	r31, 0xFF	; 255
    2f16:	60 81       	ld	r22, Z
    2f18:	71 81       	ldd	r23, Z+1	; 0x01
    2f1a:	82 81       	ldd	r24, Z+2	; 0x02
    2f1c:	93 81       	ldd	r25, Z+3	; 0x03
    2f1e:	20 e0       	ldi	r18, 0x00	; 0
    2f20:	3f ef       	ldi	r19, 0xFF	; 255
    2f22:	4f e7       	ldi	r20, 0x7F	; 127
    2f24:	57 e4       	ldi	r21, 0x47	; 71
    2f26:	0e 94 8c 42 	call	0x8518	; 0x8518 <__gesf2>
    2f2a:	18 16       	cp	r1, r24
    2f2c:	0c f0       	brlt	.+2      	; 0x2f30 <greenSide+0x83a>
    2f2e:	43 c0       	rjmp	.+134    	; 0x2fb6 <greenSide+0x8c0>
    2f30:	fe 01       	movw	r30, r28
    2f32:	e5 51       	subi	r30, 0x15	; 21
    2f34:	ff 4f       	sbci	r31, 0xFF	; 255
    2f36:	60 81       	ld	r22, Z
    2f38:	71 81       	ldd	r23, Z+1	; 0x01
    2f3a:	82 81       	ldd	r24, Z+2	; 0x02
    2f3c:	93 81       	ldd	r25, Z+3	; 0x03
    2f3e:	20 e0       	ldi	r18, 0x00	; 0
    2f40:	30 e0       	ldi	r19, 0x00	; 0
    2f42:	40 e2       	ldi	r20, 0x20	; 32
    2f44:	51 e4       	ldi	r21, 0x41	; 65
    2f46:	0e 94 90 42 	call	0x8520	; 0x8520 <__mulsf3>
    2f4a:	dc 01       	movw	r26, r24
    2f4c:	cb 01       	movw	r24, r22
    2f4e:	8e 01       	movw	r16, r28
    2f50:	0b 51       	subi	r16, 0x1B	; 27
    2f52:	1f 4f       	sbci	r17, 0xFF	; 255
    2f54:	bc 01       	movw	r22, r24
    2f56:	cd 01       	movw	r24, r26
    2f58:	0e 94 70 41 	call	0x82e0	; 0x82e0 <__fixunssfsi>
    2f5c:	dc 01       	movw	r26, r24
    2f5e:	cb 01       	movw	r24, r22
    2f60:	f8 01       	movw	r30, r16
    2f62:	91 83       	std	Z+1, r25	; 0x01
    2f64:	80 83       	st	Z, r24
    2f66:	1f c0       	rjmp	.+62     	; 0x2fa6 <greenSide+0x8b0>
    2f68:	fe 01       	movw	r30, r28
    2f6a:	ed 51       	subi	r30, 0x1D	; 29
    2f6c:	ff 4f       	sbci	r31, 0xFF	; 255
    2f6e:	8a ef       	ldi	r24, 0xFA	; 250
    2f70:	90 e0       	ldi	r25, 0x00	; 0
    2f72:	91 83       	std	Z+1, r25	; 0x01
    2f74:	80 83       	st	Z, r24
    2f76:	fe 01       	movw	r30, r28
    2f78:	ed 51       	subi	r30, 0x1D	; 29
    2f7a:	ff 4f       	sbci	r31, 0xFF	; 255
    2f7c:	80 81       	ld	r24, Z
    2f7e:	91 81       	ldd	r25, Z+1	; 0x01
    2f80:	01 97       	sbiw	r24, 0x01	; 1
    2f82:	f1 f7       	brne	.-4      	; 0x2f80 <greenSide+0x88a>
    2f84:	fe 01       	movw	r30, r28
    2f86:	ed 51       	subi	r30, 0x1D	; 29
    2f88:	ff 4f       	sbci	r31, 0xFF	; 255
    2f8a:	91 83       	std	Z+1, r25	; 0x01
    2f8c:	80 83       	st	Z, r24
    2f8e:	de 01       	movw	r26, r28
    2f90:	ab 51       	subi	r26, 0x1B	; 27
    2f92:	bf 4f       	sbci	r27, 0xFF	; 255
    2f94:	fe 01       	movw	r30, r28
    2f96:	eb 51       	subi	r30, 0x1B	; 27
    2f98:	ff 4f       	sbci	r31, 0xFF	; 255
    2f9a:	80 81       	ld	r24, Z
    2f9c:	91 81       	ldd	r25, Z+1	; 0x01
    2f9e:	01 97       	sbiw	r24, 0x01	; 1
    2fa0:	11 96       	adiw	r26, 0x01	; 1
    2fa2:	9c 93       	st	X, r25
    2fa4:	8e 93       	st	-X, r24
    2fa6:	fe 01       	movw	r30, r28
    2fa8:	eb 51       	subi	r30, 0x1B	; 27
    2faa:	ff 4f       	sbci	r31, 0xFF	; 255
    2fac:	80 81       	ld	r24, Z
    2fae:	91 81       	ldd	r25, Z+1	; 0x01
    2fb0:	00 97       	sbiw	r24, 0x00	; 0
    2fb2:	d1 f6       	brne	.-76     	; 0x2f68 <greenSide+0x872>
    2fb4:	27 c0       	rjmp	.+78     	; 0x3004 <greenSide+0x90e>
    2fb6:	8e 01       	movw	r16, r28
    2fb8:	0b 51       	subi	r16, 0x1B	; 27
    2fba:	1f 4f       	sbci	r17, 0xFF	; 255
    2fbc:	fe 01       	movw	r30, r28
    2fbe:	e9 51       	subi	r30, 0x19	; 25
    2fc0:	ff 4f       	sbci	r31, 0xFF	; 255
    2fc2:	60 81       	ld	r22, Z
    2fc4:	71 81       	ldd	r23, Z+1	; 0x01
    2fc6:	82 81       	ldd	r24, Z+2	; 0x02
    2fc8:	93 81       	ldd	r25, Z+3	; 0x03
    2fca:	0e 94 70 41 	call	0x82e0	; 0x82e0 <__fixunssfsi>
    2fce:	dc 01       	movw	r26, r24
    2fd0:	cb 01       	movw	r24, r22
    2fd2:	f8 01       	movw	r30, r16
    2fd4:	91 83       	std	Z+1, r25	; 0x01
    2fd6:	80 83       	st	Z, r24
    2fd8:	de 01       	movw	r26, r28
    2fda:	af 51       	subi	r26, 0x1F	; 31
    2fdc:	bf 4f       	sbci	r27, 0xFF	; 255
    2fde:	fe 01       	movw	r30, r28
    2fe0:	eb 51       	subi	r30, 0x1B	; 27
    2fe2:	ff 4f       	sbci	r31, 0xFF	; 255
    2fe4:	80 81       	ld	r24, Z
    2fe6:	91 81       	ldd	r25, Z+1	; 0x01
    2fe8:	8d 93       	st	X+, r24
    2fea:	9c 93       	st	X, r25
    2fec:	fe 01       	movw	r30, r28
    2fee:	ef 51       	subi	r30, 0x1F	; 31
    2ff0:	ff 4f       	sbci	r31, 0xFF	; 255
    2ff2:	80 81       	ld	r24, Z
    2ff4:	91 81       	ldd	r25, Z+1	; 0x01
    2ff6:	01 97       	sbiw	r24, 0x01	; 1
    2ff8:	f1 f7       	brne	.-4      	; 0x2ff6 <greenSide+0x900>
    2ffa:	fe 01       	movw	r30, r28
    2ffc:	ef 51       	subi	r30, 0x1F	; 31
    2ffe:	ff 4f       	sbci	r31, 0xFF	; 255
    3000:	91 83       	std	Z+1, r25	; 0x01
    3002:	80 83       	st	Z, r24
    3004:	0e 94 02 2e 	call	0x5c04	; 0x5c04 <getPosition>
    3008:	fe 01       	movw	r30, r28
    300a:	ef 5c       	subi	r30, 0xCF	; 207
    300c:	fe 4f       	sbci	r31, 0xFE	; 254
    300e:	20 83       	st	Z, r18
    3010:	fe 01       	movw	r30, r28
    3012:	ee 5c       	subi	r30, 0xCE	; 206
    3014:	fe 4f       	sbci	r31, 0xFE	; 254
    3016:	30 83       	st	Z, r19
    3018:	fe 01       	movw	r30, r28
    301a:	ed 5c       	subi	r30, 0xCD	; 205
    301c:	fe 4f       	sbci	r31, 0xFE	; 254
    301e:	40 83       	st	Z, r20
    3020:	fe 01       	movw	r30, r28
    3022:	ec 5c       	subi	r30, 0xCC	; 204
    3024:	fe 4f       	sbci	r31, 0xFE	; 254
    3026:	50 83       	st	Z, r21
    3028:	fe 01       	movw	r30, r28
    302a:	eb 5c       	subi	r30, 0xCB	; 203
    302c:	fe 4f       	sbci	r31, 0xFE	; 254
    302e:	60 83       	st	Z, r22
    3030:	fe 01       	movw	r30, r28
    3032:	ea 5c       	subi	r30, 0xCA	; 202
    3034:	fe 4f       	sbci	r31, 0xFE	; 254
    3036:	70 83       	st	Z, r23
    3038:	ce 01       	movw	r24, r28
    303a:	8f 5c       	subi	r24, 0xCF	; 207
    303c:	9e 4f       	sbci	r25, 0xFE	; 254
    303e:	2a e5       	ldi	r18, 0x5A	; 90
    3040:	34 e0       	ldi	r19, 0x04	; 4
    3042:	c9 5c       	subi	r28, 0xC9	; 201
    3044:	de 4f       	sbci	r29, 0xFE	; 254
    3046:	39 83       	std	Y+1, r19	; 0x01
    3048:	28 83       	st	Y, r18
    304a:	c7 53       	subi	r28, 0x37	; 55
    304c:	d1 40       	sbci	r29, 0x01	; 1
    304e:	c7 5c       	subi	r28, 0xC7	; 199
    3050:	de 4f       	sbci	r29, 0xFE	; 254
    3052:	99 83       	std	Y+1, r25	; 0x01
    3054:	88 83       	st	Y, r24
    3056:	c9 53       	subi	r28, 0x39	; 57
    3058:	d1 40       	sbci	r29, 0x01	; 1
    305a:	36 e0       	ldi	r19, 0x06	; 6
    305c:	c5 5c       	subi	r28, 0xC5	; 197
    305e:	de 4f       	sbci	r29, 0xFE	; 254
    3060:	38 83       	st	Y, r19
    3062:	cb 53       	subi	r28, 0x3B	; 59
    3064:	d1 40       	sbci	r29, 0x01	; 1
    3066:	c7 5c       	subi	r28, 0xC7	; 199
    3068:	de 4f       	sbci	r29, 0xFE	; 254
    306a:	e8 81       	ld	r30, Y
    306c:	f9 81       	ldd	r31, Y+1	; 0x01
    306e:	c9 53       	subi	r28, 0x39	; 57
    3070:	d1 40       	sbci	r29, 0x01	; 1
    3072:	00 80       	ld	r0, Z
    3074:	c7 5c       	subi	r28, 0xC7	; 199
    3076:	de 4f       	sbci	r29, 0xFE	; 254
    3078:	28 81       	ld	r18, Y
    307a:	39 81       	ldd	r19, Y+1	; 0x01
    307c:	c9 53       	subi	r28, 0x39	; 57
    307e:	d1 40       	sbci	r29, 0x01	; 1
    3080:	2f 5f       	subi	r18, 0xFF	; 255
    3082:	3f 4f       	sbci	r19, 0xFF	; 255
    3084:	c7 5c       	subi	r28, 0xC7	; 199
    3086:	de 4f       	sbci	r29, 0xFE	; 254
    3088:	39 83       	std	Y+1, r19	; 0x01
    308a:	28 83       	st	Y, r18
    308c:	c9 53       	subi	r28, 0x39	; 57
    308e:	d1 40       	sbci	r29, 0x01	; 1
    3090:	c9 5c       	subi	r28, 0xC9	; 201
    3092:	de 4f       	sbci	r29, 0xFE	; 254
    3094:	e8 81       	ld	r30, Y
    3096:	f9 81       	ldd	r31, Y+1	; 0x01
    3098:	c7 53       	subi	r28, 0x37	; 55
    309a:	d1 40       	sbci	r29, 0x01	; 1
    309c:	00 82       	st	Z, r0
    309e:	c9 5c       	subi	r28, 0xC9	; 201
    30a0:	de 4f       	sbci	r29, 0xFE	; 254
    30a2:	28 81       	ld	r18, Y
    30a4:	39 81       	ldd	r19, Y+1	; 0x01
    30a6:	c7 53       	subi	r28, 0x37	; 55
    30a8:	d1 40       	sbci	r29, 0x01	; 1
    30aa:	2f 5f       	subi	r18, 0xFF	; 255
    30ac:	3f 4f       	sbci	r19, 0xFF	; 255
    30ae:	c9 5c       	subi	r28, 0xC9	; 201
    30b0:	de 4f       	sbci	r29, 0xFE	; 254
    30b2:	39 83       	std	Y+1, r19	; 0x01
    30b4:	28 83       	st	Y, r18
    30b6:	c7 53       	subi	r28, 0x37	; 55
    30b8:	d1 40       	sbci	r29, 0x01	; 1
    30ba:	c5 5c       	subi	r28, 0xC5	; 197
    30bc:	de 4f       	sbci	r29, 0xFE	; 254
    30be:	38 81       	ld	r19, Y
    30c0:	cb 53       	subi	r28, 0x3B	; 59
    30c2:	d1 40       	sbci	r29, 0x01	; 1
    30c4:	31 50       	subi	r19, 0x01	; 1
    30c6:	c5 5c       	subi	r28, 0xC5	; 197
    30c8:	de 4f       	sbci	r29, 0xFE	; 254
    30ca:	38 83       	st	Y, r19
    30cc:	cb 53       	subi	r28, 0x3B	; 59
    30ce:	d1 40       	sbci	r29, 0x01	; 1
    30d0:	c5 5c       	subi	r28, 0xC5	; 197
    30d2:	de 4f       	sbci	r29, 0xFE	; 254
    30d4:	88 81       	ld	r24, Y
    30d6:	cb 53       	subi	r28, 0x3B	; 59
    30d8:	d1 40       	sbci	r29, 0x01	; 1
    30da:	88 23       	and	r24, r24
    30dc:	21 f6       	brne	.-120    	; 0x3066 <greenSide+0x970>
    30de:	80 91 5a 04 	lds	r24, 0x045A
    30e2:	90 91 5b 04 	lds	r25, 0x045B
    30e6:	80 5b       	subi	r24, 0xB0	; 176
    30e8:	9f 4f       	sbci	r25, 0xFF	; 255
    30ea:	90 93 5b 04 	sts	0x045B, r25
    30ee:	80 93 5a 04 	sts	0x045A, r24
    30f2:	80 91 5c 04 	lds	r24, 0x045C
    30f6:	90 91 5d 04 	lds	r25, 0x045D
    30fa:	49 97       	sbiw	r24, 0x19	; 25
    30fc:	90 93 5d 04 	sts	0x045D, r25
    3100:	80 93 5c 04 	sts	0x045C, r24
    3104:	40 91 5a 04 	lds	r20, 0x045A
    3108:	50 91 5b 04 	lds	r21, 0x045B
    310c:	60 91 5c 04 	lds	r22, 0x045C
    3110:	70 91 5d 04 	lds	r23, 0x045D
    3114:	80 91 5e 04 	lds	r24, 0x045E
    3118:	90 91 5f 04 	lds	r25, 0x045F
    311c:	22 e3       	ldi	r18, 0x32	; 50
    311e:	0f ef       	ldi	r16, 0xFF	; 255
    3120:	ee 24       	eor	r14, r14
    3122:	ff 24       	eor	r15, r15
    3124:	0e 94 36 27 	call	0x4e6c	; 0x4e6c <gotoXY>
    3128:	fe 01       	movw	r30, r28
    312a:	e3 52       	subi	r30, 0x23	; 35
    312c:	ff 4f       	sbci	r31, 0xFF	; 255
    312e:	80 e0       	ldi	r24, 0x00	; 0
    3130:	90 e0       	ldi	r25, 0x00	; 0
    3132:	a8 e4       	ldi	r26, 0x48	; 72
    3134:	b2 e4       	ldi	r27, 0x42	; 66
    3136:	80 83       	st	Z, r24
    3138:	91 83       	std	Z+1, r25	; 0x01
    313a:	a2 83       	std	Z+2, r26	; 0x02
    313c:	b3 83       	std	Z+3, r27	; 0x03
    313e:	8e 01       	movw	r16, r28
    3140:	07 52       	subi	r16, 0x27	; 39
    3142:	1f 4f       	sbci	r17, 0xFF	; 255
    3144:	fe 01       	movw	r30, r28
    3146:	e3 52       	subi	r30, 0x23	; 35
    3148:	ff 4f       	sbci	r31, 0xFF	; 255
    314a:	60 81       	ld	r22, Z
    314c:	71 81       	ldd	r23, Z+1	; 0x01
    314e:	82 81       	ldd	r24, Z+2	; 0x02
    3150:	93 81       	ldd	r25, Z+3	; 0x03
    3152:	20 e0       	ldi	r18, 0x00	; 0
    3154:	30 e4       	ldi	r19, 0x40	; 64
    3156:	4c e1       	ldi	r20, 0x1C	; 28
    3158:	55 e4       	ldi	r21, 0x45	; 69
    315a:	0e 94 90 42 	call	0x8520	; 0x8520 <__mulsf3>
    315e:	dc 01       	movw	r26, r24
    3160:	cb 01       	movw	r24, r22
    3162:	f8 01       	movw	r30, r16
    3164:	80 83       	st	Z, r24
    3166:	91 83       	std	Z+1, r25	; 0x01
    3168:	a2 83       	std	Z+2, r26	; 0x02
    316a:	b3 83       	std	Z+3, r27	; 0x03
    316c:	fe 01       	movw	r30, r28
    316e:	e7 52       	subi	r30, 0x27	; 39
    3170:	ff 4f       	sbci	r31, 0xFF	; 255
    3172:	60 81       	ld	r22, Z
    3174:	71 81       	ldd	r23, Z+1	; 0x01
    3176:	82 81       	ldd	r24, Z+2	; 0x02
    3178:	93 81       	ldd	r25, Z+3	; 0x03
    317a:	20 e0       	ldi	r18, 0x00	; 0
    317c:	30 e0       	ldi	r19, 0x00	; 0
    317e:	40 e8       	ldi	r20, 0x80	; 128
    3180:	5f e3       	ldi	r21, 0x3F	; 63
    3182:	0e 94 04 41 	call	0x8208	; 0x8208 <__cmpsf2>
    3186:	88 23       	and	r24, r24
    3188:	44 f4       	brge	.+16     	; 0x319a <greenSide+0xaa4>
    318a:	fe 01       	movw	r30, r28
    318c:	e9 52       	subi	r30, 0x29	; 41
    318e:	ff 4f       	sbci	r31, 0xFF	; 255
    3190:	81 e0       	ldi	r24, 0x01	; 1
    3192:	90 e0       	ldi	r25, 0x00	; 0
    3194:	91 83       	std	Z+1, r25	; 0x01
    3196:	80 83       	st	Z, r24
    3198:	64 c0       	rjmp	.+200    	; 0x3262 <greenSide+0xb6c>
    319a:	fe 01       	movw	r30, r28
    319c:	e7 52       	subi	r30, 0x27	; 39
    319e:	ff 4f       	sbci	r31, 0xFF	; 255
    31a0:	60 81       	ld	r22, Z
    31a2:	71 81       	ldd	r23, Z+1	; 0x01
    31a4:	82 81       	ldd	r24, Z+2	; 0x02
    31a6:	93 81       	ldd	r25, Z+3	; 0x03
    31a8:	20 e0       	ldi	r18, 0x00	; 0
    31aa:	3f ef       	ldi	r19, 0xFF	; 255
    31ac:	4f e7       	ldi	r20, 0x7F	; 127
    31ae:	57 e4       	ldi	r21, 0x47	; 71
    31b0:	0e 94 8c 42 	call	0x8518	; 0x8518 <__gesf2>
    31b4:	18 16       	cp	r1, r24
    31b6:	0c f0       	brlt	.+2      	; 0x31ba <greenSide+0xac4>
    31b8:	43 c0       	rjmp	.+134    	; 0x3240 <greenSide+0xb4a>
    31ba:	fe 01       	movw	r30, r28
    31bc:	e3 52       	subi	r30, 0x23	; 35
    31be:	ff 4f       	sbci	r31, 0xFF	; 255
    31c0:	60 81       	ld	r22, Z
    31c2:	71 81       	ldd	r23, Z+1	; 0x01
    31c4:	82 81       	ldd	r24, Z+2	; 0x02
    31c6:	93 81       	ldd	r25, Z+3	; 0x03
    31c8:	20 e0       	ldi	r18, 0x00	; 0
    31ca:	30 e0       	ldi	r19, 0x00	; 0
    31cc:	40 e2       	ldi	r20, 0x20	; 32
    31ce:	51 e4       	ldi	r21, 0x41	; 65
    31d0:	0e 94 90 42 	call	0x8520	; 0x8520 <__mulsf3>
    31d4:	dc 01       	movw	r26, r24
    31d6:	cb 01       	movw	r24, r22
    31d8:	8e 01       	movw	r16, r28
    31da:	09 52       	subi	r16, 0x29	; 41
    31dc:	1f 4f       	sbci	r17, 0xFF	; 255
    31de:	bc 01       	movw	r22, r24
    31e0:	cd 01       	movw	r24, r26
    31e2:	0e 94 70 41 	call	0x82e0	; 0x82e0 <__fixunssfsi>
    31e6:	dc 01       	movw	r26, r24
    31e8:	cb 01       	movw	r24, r22
    31ea:	f8 01       	movw	r30, r16
    31ec:	91 83       	std	Z+1, r25	; 0x01
    31ee:	80 83       	st	Z, r24
    31f0:	1f c0       	rjmp	.+62     	; 0x3230 <greenSide+0xb3a>
    31f2:	fe 01       	movw	r30, r28
    31f4:	eb 52       	subi	r30, 0x2B	; 43
    31f6:	ff 4f       	sbci	r31, 0xFF	; 255
    31f8:	8a ef       	ldi	r24, 0xFA	; 250
    31fa:	90 e0       	ldi	r25, 0x00	; 0
    31fc:	91 83       	std	Z+1, r25	; 0x01
    31fe:	80 83       	st	Z, r24
    3200:	fe 01       	movw	r30, r28
    3202:	eb 52       	subi	r30, 0x2B	; 43
    3204:	ff 4f       	sbci	r31, 0xFF	; 255
    3206:	80 81       	ld	r24, Z
    3208:	91 81       	ldd	r25, Z+1	; 0x01
    320a:	01 97       	sbiw	r24, 0x01	; 1
    320c:	f1 f7       	brne	.-4      	; 0x320a <greenSide+0xb14>
    320e:	fe 01       	movw	r30, r28
    3210:	eb 52       	subi	r30, 0x2B	; 43
    3212:	ff 4f       	sbci	r31, 0xFF	; 255
    3214:	91 83       	std	Z+1, r25	; 0x01
    3216:	80 83       	st	Z, r24
    3218:	de 01       	movw	r26, r28
    321a:	a9 52       	subi	r26, 0x29	; 41
    321c:	bf 4f       	sbci	r27, 0xFF	; 255
    321e:	fe 01       	movw	r30, r28
    3220:	e9 52       	subi	r30, 0x29	; 41
    3222:	ff 4f       	sbci	r31, 0xFF	; 255
    3224:	80 81       	ld	r24, Z
    3226:	91 81       	ldd	r25, Z+1	; 0x01
    3228:	01 97       	sbiw	r24, 0x01	; 1
    322a:	11 96       	adiw	r26, 0x01	; 1
    322c:	9c 93       	st	X, r25
    322e:	8e 93       	st	-X, r24
    3230:	fe 01       	movw	r30, r28
    3232:	e9 52       	subi	r30, 0x29	; 41
    3234:	ff 4f       	sbci	r31, 0xFF	; 255
    3236:	80 81       	ld	r24, Z
    3238:	91 81       	ldd	r25, Z+1	; 0x01
    323a:	00 97       	sbiw	r24, 0x00	; 0
    323c:	d1 f6       	brne	.-76     	; 0x31f2 <greenSide+0xafc>
    323e:	27 c0       	rjmp	.+78     	; 0x328e <greenSide+0xb98>
    3240:	8e 01       	movw	r16, r28
    3242:	09 52       	subi	r16, 0x29	; 41
    3244:	1f 4f       	sbci	r17, 0xFF	; 255
    3246:	fe 01       	movw	r30, r28
    3248:	e7 52       	subi	r30, 0x27	; 39
    324a:	ff 4f       	sbci	r31, 0xFF	; 255
    324c:	60 81       	ld	r22, Z
    324e:	71 81       	ldd	r23, Z+1	; 0x01
    3250:	82 81       	ldd	r24, Z+2	; 0x02
    3252:	93 81       	ldd	r25, Z+3	; 0x03
    3254:	0e 94 70 41 	call	0x82e0	; 0x82e0 <__fixunssfsi>
    3258:	dc 01       	movw	r26, r24
    325a:	cb 01       	movw	r24, r22
    325c:	f8 01       	movw	r30, r16
    325e:	91 83       	std	Z+1, r25	; 0x01
    3260:	80 83       	st	Z, r24
    3262:	de 01       	movw	r26, r28
    3264:	ad 52       	subi	r26, 0x2D	; 45
    3266:	bf 4f       	sbci	r27, 0xFF	; 255
    3268:	fe 01       	movw	r30, r28
    326a:	e9 52       	subi	r30, 0x29	; 41
    326c:	ff 4f       	sbci	r31, 0xFF	; 255
    326e:	80 81       	ld	r24, Z
    3270:	91 81       	ldd	r25, Z+1	; 0x01
    3272:	8d 93       	st	X+, r24
    3274:	9c 93       	st	X, r25
    3276:	fe 01       	movw	r30, r28
    3278:	ed 52       	subi	r30, 0x2D	; 45
    327a:	ff 4f       	sbci	r31, 0xFF	; 255
    327c:	80 81       	ld	r24, Z
    327e:	91 81       	ldd	r25, Z+1	; 0x01
    3280:	01 97       	sbiw	r24, 0x01	; 1
    3282:	f1 f7       	brne	.-4      	; 0x3280 <greenSide+0xb8a>
    3284:	fe 01       	movw	r30, r28
    3286:	ed 52       	subi	r30, 0x2D	; 45
    3288:	ff 4f       	sbci	r31, 0xFF	; 255
    328a:	91 83       	std	Z+1, r25	; 0x01
    328c:	80 83       	st	Z, r24
    328e:	89 e1       	ldi	r24, 0x19	; 25
    3290:	90 e0       	ldi	r25, 0x00	; 0
    3292:	62 e3       	ldi	r22, 0x32	; 50
    3294:	40 e0       	ldi	r20, 0x00	; 0
    3296:	50 e0       	ldi	r21, 0x00	; 0
    3298:	0e 94 9a 2b 	call	0x5734	; 0x5734 <rotate>
    329c:	fe 01       	movw	r30, r28
    329e:	e1 53       	subi	r30, 0x31	; 49
    32a0:	ff 4f       	sbci	r31, 0xFF	; 255
    32a2:	80 e0       	ldi	r24, 0x00	; 0
    32a4:	90 e0       	ldi	r25, 0x00	; 0
    32a6:	a8 e4       	ldi	r26, 0x48	; 72
    32a8:	b2 e4       	ldi	r27, 0x42	; 66
    32aa:	80 83       	st	Z, r24
    32ac:	91 83       	std	Z+1, r25	; 0x01
    32ae:	a2 83       	std	Z+2, r26	; 0x02
    32b0:	b3 83       	std	Z+3, r27	; 0x03
    32b2:	8e 01       	movw	r16, r28
    32b4:	05 53       	subi	r16, 0x35	; 53
    32b6:	1f 4f       	sbci	r17, 0xFF	; 255
    32b8:	fe 01       	movw	r30, r28
    32ba:	e1 53       	subi	r30, 0x31	; 49
    32bc:	ff 4f       	sbci	r31, 0xFF	; 255
    32be:	60 81       	ld	r22, Z
    32c0:	71 81       	ldd	r23, Z+1	; 0x01
    32c2:	82 81       	ldd	r24, Z+2	; 0x02
    32c4:	93 81       	ldd	r25, Z+3	; 0x03
    32c6:	20 e0       	ldi	r18, 0x00	; 0
    32c8:	30 e4       	ldi	r19, 0x40	; 64
    32ca:	4c e1       	ldi	r20, 0x1C	; 28
    32cc:	55 e4       	ldi	r21, 0x45	; 69
    32ce:	0e 94 90 42 	call	0x8520	; 0x8520 <__mulsf3>
    32d2:	dc 01       	movw	r26, r24
    32d4:	cb 01       	movw	r24, r22
    32d6:	f8 01       	movw	r30, r16
    32d8:	80 83       	st	Z, r24
    32da:	91 83       	std	Z+1, r25	; 0x01
    32dc:	a2 83       	std	Z+2, r26	; 0x02
    32de:	b3 83       	std	Z+3, r27	; 0x03
    32e0:	fe 01       	movw	r30, r28
    32e2:	e5 53       	subi	r30, 0x35	; 53
    32e4:	ff 4f       	sbci	r31, 0xFF	; 255
    32e6:	60 81       	ld	r22, Z
    32e8:	71 81       	ldd	r23, Z+1	; 0x01
    32ea:	82 81       	ldd	r24, Z+2	; 0x02
    32ec:	93 81       	ldd	r25, Z+3	; 0x03
    32ee:	20 e0       	ldi	r18, 0x00	; 0
    32f0:	30 e0       	ldi	r19, 0x00	; 0
    32f2:	40 e8       	ldi	r20, 0x80	; 128
    32f4:	5f e3       	ldi	r21, 0x3F	; 63
    32f6:	0e 94 04 41 	call	0x8208	; 0x8208 <__cmpsf2>
    32fa:	88 23       	and	r24, r24
    32fc:	44 f4       	brge	.+16     	; 0x330e <greenSide+0xc18>
    32fe:	fe 01       	movw	r30, r28
    3300:	e7 53       	subi	r30, 0x37	; 55
    3302:	ff 4f       	sbci	r31, 0xFF	; 255
    3304:	81 e0       	ldi	r24, 0x01	; 1
    3306:	90 e0       	ldi	r25, 0x00	; 0
    3308:	91 83       	std	Z+1, r25	; 0x01
    330a:	80 83       	st	Z, r24
    330c:	64 c0       	rjmp	.+200    	; 0x33d6 <greenSide+0xce0>
    330e:	fe 01       	movw	r30, r28
    3310:	e5 53       	subi	r30, 0x35	; 53
    3312:	ff 4f       	sbci	r31, 0xFF	; 255
    3314:	60 81       	ld	r22, Z
    3316:	71 81       	ldd	r23, Z+1	; 0x01
    3318:	82 81       	ldd	r24, Z+2	; 0x02
    331a:	93 81       	ldd	r25, Z+3	; 0x03
    331c:	20 e0       	ldi	r18, 0x00	; 0
    331e:	3f ef       	ldi	r19, 0xFF	; 255
    3320:	4f e7       	ldi	r20, 0x7F	; 127
    3322:	57 e4       	ldi	r21, 0x47	; 71
    3324:	0e 94 8c 42 	call	0x8518	; 0x8518 <__gesf2>
    3328:	18 16       	cp	r1, r24
    332a:	0c f0       	brlt	.+2      	; 0x332e <greenSide+0xc38>
    332c:	43 c0       	rjmp	.+134    	; 0x33b4 <greenSide+0xcbe>
    332e:	fe 01       	movw	r30, r28
    3330:	e1 53       	subi	r30, 0x31	; 49
    3332:	ff 4f       	sbci	r31, 0xFF	; 255
    3334:	60 81       	ld	r22, Z
    3336:	71 81       	ldd	r23, Z+1	; 0x01
    3338:	82 81       	ldd	r24, Z+2	; 0x02
    333a:	93 81       	ldd	r25, Z+3	; 0x03
    333c:	20 e0       	ldi	r18, 0x00	; 0
    333e:	30 e0       	ldi	r19, 0x00	; 0
    3340:	40 e2       	ldi	r20, 0x20	; 32
    3342:	51 e4       	ldi	r21, 0x41	; 65
    3344:	0e 94 90 42 	call	0x8520	; 0x8520 <__mulsf3>
    3348:	dc 01       	movw	r26, r24
    334a:	cb 01       	movw	r24, r22
    334c:	8e 01       	movw	r16, r28
    334e:	07 53       	subi	r16, 0x37	; 55
    3350:	1f 4f       	sbci	r17, 0xFF	; 255
    3352:	bc 01       	movw	r22, r24
    3354:	cd 01       	movw	r24, r26
    3356:	0e 94 70 41 	call	0x82e0	; 0x82e0 <__fixunssfsi>
    335a:	dc 01       	movw	r26, r24
    335c:	cb 01       	movw	r24, r22
    335e:	f8 01       	movw	r30, r16
    3360:	91 83       	std	Z+1, r25	; 0x01
    3362:	80 83       	st	Z, r24
    3364:	1f c0       	rjmp	.+62     	; 0x33a4 <greenSide+0xcae>
    3366:	fe 01       	movw	r30, r28
    3368:	e9 53       	subi	r30, 0x39	; 57
    336a:	ff 4f       	sbci	r31, 0xFF	; 255
    336c:	8a ef       	ldi	r24, 0xFA	; 250
    336e:	90 e0       	ldi	r25, 0x00	; 0
    3370:	91 83       	std	Z+1, r25	; 0x01
    3372:	80 83       	st	Z, r24
    3374:	fe 01       	movw	r30, r28
    3376:	e9 53       	subi	r30, 0x39	; 57
    3378:	ff 4f       	sbci	r31, 0xFF	; 255
    337a:	80 81       	ld	r24, Z
    337c:	91 81       	ldd	r25, Z+1	; 0x01
    337e:	01 97       	sbiw	r24, 0x01	; 1
    3380:	f1 f7       	brne	.-4      	; 0x337e <greenSide+0xc88>
    3382:	fe 01       	movw	r30, r28
    3384:	e9 53       	subi	r30, 0x39	; 57
    3386:	ff 4f       	sbci	r31, 0xFF	; 255
    3388:	91 83       	std	Z+1, r25	; 0x01
    338a:	80 83       	st	Z, r24
    338c:	de 01       	movw	r26, r28
    338e:	a7 53       	subi	r26, 0x37	; 55
    3390:	bf 4f       	sbci	r27, 0xFF	; 255
    3392:	fe 01       	movw	r30, r28
    3394:	e7 53       	subi	r30, 0x37	; 55
    3396:	ff 4f       	sbci	r31, 0xFF	; 255
    3398:	80 81       	ld	r24, Z
    339a:	91 81       	ldd	r25, Z+1	; 0x01
    339c:	01 97       	sbiw	r24, 0x01	; 1
    339e:	11 96       	adiw	r26, 0x01	; 1
    33a0:	9c 93       	st	X, r25
    33a2:	8e 93       	st	-X, r24
    33a4:	fe 01       	movw	r30, r28
    33a6:	e7 53       	subi	r30, 0x37	; 55
    33a8:	ff 4f       	sbci	r31, 0xFF	; 255
    33aa:	80 81       	ld	r24, Z
    33ac:	91 81       	ldd	r25, Z+1	; 0x01
    33ae:	00 97       	sbiw	r24, 0x00	; 0
    33b0:	d1 f6       	brne	.-76     	; 0x3366 <greenSide+0xc70>
    33b2:	27 c0       	rjmp	.+78     	; 0x3402 <greenSide+0xd0c>
    33b4:	8e 01       	movw	r16, r28
    33b6:	07 53       	subi	r16, 0x37	; 55
    33b8:	1f 4f       	sbci	r17, 0xFF	; 255
    33ba:	fe 01       	movw	r30, r28
    33bc:	e5 53       	subi	r30, 0x35	; 53
    33be:	ff 4f       	sbci	r31, 0xFF	; 255
    33c0:	60 81       	ld	r22, Z
    33c2:	71 81       	ldd	r23, Z+1	; 0x01
    33c4:	82 81       	ldd	r24, Z+2	; 0x02
    33c6:	93 81       	ldd	r25, Z+3	; 0x03
    33c8:	0e 94 70 41 	call	0x82e0	; 0x82e0 <__fixunssfsi>
    33cc:	dc 01       	movw	r26, r24
    33ce:	cb 01       	movw	r24, r22
    33d0:	f8 01       	movw	r30, r16
    33d2:	91 83       	std	Z+1, r25	; 0x01
    33d4:	80 83       	st	Z, r24
    33d6:	de 01       	movw	r26, r28
    33d8:	ab 53       	subi	r26, 0x3B	; 59
    33da:	bf 4f       	sbci	r27, 0xFF	; 255
    33dc:	fe 01       	movw	r30, r28
    33de:	e7 53       	subi	r30, 0x37	; 55
    33e0:	ff 4f       	sbci	r31, 0xFF	; 255
    33e2:	80 81       	ld	r24, Z
    33e4:	91 81       	ldd	r25, Z+1	; 0x01
    33e6:	8d 93       	st	X+, r24
    33e8:	9c 93       	st	X, r25
    33ea:	fe 01       	movw	r30, r28
    33ec:	eb 53       	subi	r30, 0x3B	; 59
    33ee:	ff 4f       	sbci	r31, 0xFF	; 255
    33f0:	80 81       	ld	r24, Z
    33f2:	91 81       	ldd	r25, Z+1	; 0x01
    33f4:	01 97       	sbiw	r24, 0x01	; 1
    33f6:	f1 f7       	brne	.-4      	; 0x33f4 <greenSide+0xcfe>
    33f8:	fe 01       	movw	r30, r28
    33fa:	eb 53       	subi	r30, 0x3B	; 59
    33fc:	ff 4f       	sbci	r31, 0xFF	; 255
    33fe:	91 83       	std	Z+1, r25	; 0x01
    3400:	80 83       	st	Z, r24
    3402:	8e e0       	ldi	r24, 0x0E	; 14
    3404:	91 e0       	ldi	r25, 0x01	; 1
    3406:	66 e9       	ldi	r22, 0x96	; 150
    3408:	40 e0       	ldi	r20, 0x00	; 0
    340a:	50 e0       	ldi	r21, 0x00	; 0
    340c:	0e 94 cd 24 	call	0x499a	; 0x499a <moveOnDirection>
    3410:	fe 01       	movw	r30, r28
    3412:	ef 53       	subi	r30, 0x3F	; 63
    3414:	ff 4f       	sbci	r31, 0xFF	; 255
    3416:	80 e0       	ldi	r24, 0x00	; 0
    3418:	90 e0       	ldi	r25, 0x00	; 0
    341a:	a8 e4       	ldi	r26, 0x48	; 72
    341c:	b2 e4       	ldi	r27, 0x42	; 66
    341e:	80 83       	st	Z, r24
    3420:	91 83       	std	Z+1, r25	; 0x01
    3422:	a2 83       	std	Z+2, r26	; 0x02
    3424:	b3 83       	std	Z+3, r27	; 0x03
    3426:	8e 01       	movw	r16, r28
    3428:	03 54       	subi	r16, 0x43	; 67
    342a:	1f 4f       	sbci	r17, 0xFF	; 255
    342c:	fe 01       	movw	r30, r28
    342e:	ef 53       	subi	r30, 0x3F	; 63
    3430:	ff 4f       	sbci	r31, 0xFF	; 255
    3432:	60 81       	ld	r22, Z
    3434:	71 81       	ldd	r23, Z+1	; 0x01
    3436:	82 81       	ldd	r24, Z+2	; 0x02
    3438:	93 81       	ldd	r25, Z+3	; 0x03
    343a:	20 e0       	ldi	r18, 0x00	; 0
    343c:	30 e4       	ldi	r19, 0x40	; 64
    343e:	4c e1       	ldi	r20, 0x1C	; 28
    3440:	55 e4       	ldi	r21, 0x45	; 69
    3442:	0e 94 90 42 	call	0x8520	; 0x8520 <__mulsf3>
    3446:	dc 01       	movw	r26, r24
    3448:	cb 01       	movw	r24, r22
    344a:	f8 01       	movw	r30, r16
    344c:	80 83       	st	Z, r24
    344e:	91 83       	std	Z+1, r25	; 0x01
    3450:	a2 83       	std	Z+2, r26	; 0x02
    3452:	b3 83       	std	Z+3, r27	; 0x03
    3454:	fe 01       	movw	r30, r28
    3456:	e3 54       	subi	r30, 0x43	; 67
    3458:	ff 4f       	sbci	r31, 0xFF	; 255
    345a:	60 81       	ld	r22, Z
    345c:	71 81       	ldd	r23, Z+1	; 0x01
    345e:	82 81       	ldd	r24, Z+2	; 0x02
    3460:	93 81       	ldd	r25, Z+3	; 0x03
    3462:	20 e0       	ldi	r18, 0x00	; 0
    3464:	30 e0       	ldi	r19, 0x00	; 0
    3466:	40 e8       	ldi	r20, 0x80	; 128
    3468:	5f e3       	ldi	r21, 0x3F	; 63
    346a:	0e 94 04 41 	call	0x8208	; 0x8208 <__cmpsf2>
    346e:	88 23       	and	r24, r24
    3470:	44 f4       	brge	.+16     	; 0x3482 <greenSide+0xd8c>
    3472:	fe 01       	movw	r30, r28
    3474:	e5 54       	subi	r30, 0x45	; 69
    3476:	ff 4f       	sbci	r31, 0xFF	; 255
    3478:	81 e0       	ldi	r24, 0x01	; 1
    347a:	90 e0       	ldi	r25, 0x00	; 0
    347c:	91 83       	std	Z+1, r25	; 0x01
    347e:	80 83       	st	Z, r24
    3480:	64 c0       	rjmp	.+200    	; 0x354a <greenSide+0xe54>
    3482:	fe 01       	movw	r30, r28
    3484:	e3 54       	subi	r30, 0x43	; 67
    3486:	ff 4f       	sbci	r31, 0xFF	; 255
    3488:	60 81       	ld	r22, Z
    348a:	71 81       	ldd	r23, Z+1	; 0x01
    348c:	82 81       	ldd	r24, Z+2	; 0x02
    348e:	93 81       	ldd	r25, Z+3	; 0x03
    3490:	20 e0       	ldi	r18, 0x00	; 0
    3492:	3f ef       	ldi	r19, 0xFF	; 255
    3494:	4f e7       	ldi	r20, 0x7F	; 127
    3496:	57 e4       	ldi	r21, 0x47	; 71
    3498:	0e 94 8c 42 	call	0x8518	; 0x8518 <__gesf2>
    349c:	18 16       	cp	r1, r24
    349e:	0c f0       	brlt	.+2      	; 0x34a2 <greenSide+0xdac>
    34a0:	43 c0       	rjmp	.+134    	; 0x3528 <greenSide+0xe32>
    34a2:	fe 01       	movw	r30, r28
    34a4:	ef 53       	subi	r30, 0x3F	; 63
    34a6:	ff 4f       	sbci	r31, 0xFF	; 255
    34a8:	60 81       	ld	r22, Z
    34aa:	71 81       	ldd	r23, Z+1	; 0x01
    34ac:	82 81       	ldd	r24, Z+2	; 0x02
    34ae:	93 81       	ldd	r25, Z+3	; 0x03
    34b0:	20 e0       	ldi	r18, 0x00	; 0
    34b2:	30 e0       	ldi	r19, 0x00	; 0
    34b4:	40 e2       	ldi	r20, 0x20	; 32
    34b6:	51 e4       	ldi	r21, 0x41	; 65
    34b8:	0e 94 90 42 	call	0x8520	; 0x8520 <__mulsf3>
    34bc:	dc 01       	movw	r26, r24
    34be:	cb 01       	movw	r24, r22
    34c0:	8e 01       	movw	r16, r28
    34c2:	05 54       	subi	r16, 0x45	; 69
    34c4:	1f 4f       	sbci	r17, 0xFF	; 255
    34c6:	bc 01       	movw	r22, r24
    34c8:	cd 01       	movw	r24, r26
    34ca:	0e 94 70 41 	call	0x82e0	; 0x82e0 <__fixunssfsi>
    34ce:	dc 01       	movw	r26, r24
    34d0:	cb 01       	movw	r24, r22
    34d2:	f8 01       	movw	r30, r16
    34d4:	91 83       	std	Z+1, r25	; 0x01
    34d6:	80 83       	st	Z, r24
    34d8:	1f c0       	rjmp	.+62     	; 0x3518 <greenSide+0xe22>
    34da:	fe 01       	movw	r30, r28
    34dc:	e7 54       	subi	r30, 0x47	; 71
    34de:	ff 4f       	sbci	r31, 0xFF	; 255
    34e0:	8a ef       	ldi	r24, 0xFA	; 250
    34e2:	90 e0       	ldi	r25, 0x00	; 0
    34e4:	91 83       	std	Z+1, r25	; 0x01
    34e6:	80 83       	st	Z, r24
    34e8:	fe 01       	movw	r30, r28
    34ea:	e7 54       	subi	r30, 0x47	; 71
    34ec:	ff 4f       	sbci	r31, 0xFF	; 255
    34ee:	80 81       	ld	r24, Z
    34f0:	91 81       	ldd	r25, Z+1	; 0x01
    34f2:	01 97       	sbiw	r24, 0x01	; 1
    34f4:	f1 f7       	brne	.-4      	; 0x34f2 <greenSide+0xdfc>
    34f6:	fe 01       	movw	r30, r28
    34f8:	e7 54       	subi	r30, 0x47	; 71
    34fa:	ff 4f       	sbci	r31, 0xFF	; 255
    34fc:	91 83       	std	Z+1, r25	; 0x01
    34fe:	80 83       	st	Z, r24
    3500:	de 01       	movw	r26, r28
    3502:	a5 54       	subi	r26, 0x45	; 69
    3504:	bf 4f       	sbci	r27, 0xFF	; 255
    3506:	fe 01       	movw	r30, r28
    3508:	e5 54       	subi	r30, 0x45	; 69
    350a:	ff 4f       	sbci	r31, 0xFF	; 255
    350c:	80 81       	ld	r24, Z
    350e:	91 81       	ldd	r25, Z+1	; 0x01
    3510:	01 97       	sbiw	r24, 0x01	; 1
    3512:	11 96       	adiw	r26, 0x01	; 1
    3514:	9c 93       	st	X, r25
    3516:	8e 93       	st	-X, r24
    3518:	fe 01       	movw	r30, r28
    351a:	e5 54       	subi	r30, 0x45	; 69
    351c:	ff 4f       	sbci	r31, 0xFF	; 255
    351e:	80 81       	ld	r24, Z
    3520:	91 81       	ldd	r25, Z+1	; 0x01
    3522:	00 97       	sbiw	r24, 0x00	; 0
    3524:	d1 f6       	brne	.-76     	; 0x34da <greenSide+0xde4>
    3526:	27 c0       	rjmp	.+78     	; 0x3576 <greenSide+0xe80>
    3528:	8e 01       	movw	r16, r28
    352a:	05 54       	subi	r16, 0x45	; 69
    352c:	1f 4f       	sbci	r17, 0xFF	; 255
    352e:	fe 01       	movw	r30, r28
    3530:	e3 54       	subi	r30, 0x43	; 67
    3532:	ff 4f       	sbci	r31, 0xFF	; 255
    3534:	60 81       	ld	r22, Z
    3536:	71 81       	ldd	r23, Z+1	; 0x01
    3538:	82 81       	ldd	r24, Z+2	; 0x02
    353a:	93 81       	ldd	r25, Z+3	; 0x03
    353c:	0e 94 70 41 	call	0x82e0	; 0x82e0 <__fixunssfsi>
    3540:	dc 01       	movw	r26, r24
    3542:	cb 01       	movw	r24, r22
    3544:	f8 01       	movw	r30, r16
    3546:	91 83       	std	Z+1, r25	; 0x01
    3548:	80 83       	st	Z, r24
    354a:	de 01       	movw	r26, r28
    354c:	a9 54       	subi	r26, 0x49	; 73
    354e:	bf 4f       	sbci	r27, 0xFF	; 255
    3550:	fe 01       	movw	r30, r28
    3552:	e5 54       	subi	r30, 0x45	; 69
    3554:	ff 4f       	sbci	r31, 0xFF	; 255
    3556:	80 81       	ld	r24, Z
    3558:	91 81       	ldd	r25, Z+1	; 0x01
    355a:	8d 93       	st	X+, r24
    355c:	9c 93       	st	X, r25
    355e:	fe 01       	movw	r30, r28
    3560:	e9 54       	subi	r30, 0x49	; 73
    3562:	ff 4f       	sbci	r31, 0xFF	; 255
    3564:	80 81       	ld	r24, Z
    3566:	91 81       	ldd	r25, Z+1	; 0x01
    3568:	01 97       	sbiw	r24, 0x01	; 1
    356a:	f1 f7       	brne	.-4      	; 0x3568 <greenSide+0xe72>
    356c:	fe 01       	movw	r30, r28
    356e:	e9 54       	subi	r30, 0x49	; 73
    3570:	ff 4f       	sbci	r31, 0xFF	; 255
    3572:	91 83       	std	Z+1, r25	; 0x01
    3574:	80 83       	st	Z, r24
    3576:	8d e7       	ldi	r24, 0x7D	; 125
    3578:	90 e0       	ldi	r25, 0x00	; 0
    357a:	6e e1       	ldi	r22, 0x1E	; 30
    357c:	40 e0       	ldi	r20, 0x00	; 0
    357e:	50 e0       	ldi	r21, 0x00	; 0
    3580:	0e 94 cd 24 	call	0x499a	; 0x499a <moveOnDirection>
    3584:	86 ef       	ldi	r24, 0xF6	; 246
    3586:	9f ef       	ldi	r25, 0xFF	; 255
    3588:	62 e3       	ldi	r22, 0x32	; 50
    358a:	40 e0       	ldi	r20, 0x00	; 0
    358c:	50 e0       	ldi	r21, 0x00	; 0
    358e:	0e 94 9a 2b 	call	0x5734	; 0x5734 <rotate>
    3592:	88 e2       	ldi	r24, 0x28	; 40
    3594:	90 e0       	ldi	r25, 0x00	; 0
    3596:	6e e1       	ldi	r22, 0x1E	; 30
    3598:	40 e0       	ldi	r20, 0x00	; 0
    359a:	50 e0       	ldi	r21, 0x00	; 0
    359c:	0e 94 cd 24 	call	0x499a	; 0x499a <moveOnDirection>
    35a0:	8f ef       	ldi	r24, 0xFF	; 255
    35a2:	61 e0       	ldi	r22, 0x01	; 1
    35a4:	0e 94 14 0e 	call	0x1c28	; 0x1c28 <liftMove>
    35a8:	fe 01       	movw	r30, r28
    35aa:	ed 54       	subi	r30, 0x4D	; 77
    35ac:	ff 4f       	sbci	r31, 0xFF	; 255
    35ae:	80 e0       	ldi	r24, 0x00	; 0
    35b0:	90 e0       	ldi	r25, 0x00	; 0
    35b2:	aa ef       	ldi	r26, 0xFA	; 250
    35b4:	b3 e4       	ldi	r27, 0x43	; 67
    35b6:	80 83       	st	Z, r24
    35b8:	91 83       	std	Z+1, r25	; 0x01
    35ba:	a2 83       	std	Z+2, r26	; 0x02
    35bc:	b3 83       	std	Z+3, r27	; 0x03
    35be:	8e 01       	movw	r16, r28
    35c0:	01 55       	subi	r16, 0x51	; 81
    35c2:	1f 4f       	sbci	r17, 0xFF	; 255
    35c4:	fe 01       	movw	r30, r28
    35c6:	ed 54       	subi	r30, 0x4D	; 77
    35c8:	ff 4f       	sbci	r31, 0xFF	; 255
    35ca:	60 81       	ld	r22, Z
    35cc:	71 81       	ldd	r23, Z+1	; 0x01
    35ce:	82 81       	ldd	r24, Z+2	; 0x02
    35d0:	93 81       	ldd	r25, Z+3	; 0x03
    35d2:	20 e0       	ldi	r18, 0x00	; 0
    35d4:	30 e4       	ldi	r19, 0x40	; 64
    35d6:	4c e1       	ldi	r20, 0x1C	; 28
    35d8:	55 e4       	ldi	r21, 0x45	; 69
    35da:	0e 94 90 42 	call	0x8520	; 0x8520 <__mulsf3>
    35de:	dc 01       	movw	r26, r24
    35e0:	cb 01       	movw	r24, r22
    35e2:	f8 01       	movw	r30, r16
    35e4:	80 83       	st	Z, r24
    35e6:	91 83       	std	Z+1, r25	; 0x01
    35e8:	a2 83       	std	Z+2, r26	; 0x02
    35ea:	b3 83       	std	Z+3, r27	; 0x03
    35ec:	fe 01       	movw	r30, r28
    35ee:	e1 55       	subi	r30, 0x51	; 81
    35f0:	ff 4f       	sbci	r31, 0xFF	; 255
    35f2:	60 81       	ld	r22, Z
    35f4:	71 81       	ldd	r23, Z+1	; 0x01
    35f6:	82 81       	ldd	r24, Z+2	; 0x02
    35f8:	93 81       	ldd	r25, Z+3	; 0x03
    35fa:	20 e0       	ldi	r18, 0x00	; 0
    35fc:	30 e0       	ldi	r19, 0x00	; 0
    35fe:	40 e8       	ldi	r20, 0x80	; 128
    3600:	5f e3       	ldi	r21, 0x3F	; 63
    3602:	0e 94 04 41 	call	0x8208	; 0x8208 <__cmpsf2>
    3606:	88 23       	and	r24, r24
    3608:	44 f4       	brge	.+16     	; 0x361a <greenSide+0xf24>
    360a:	fe 01       	movw	r30, r28
    360c:	e3 55       	subi	r30, 0x53	; 83
    360e:	ff 4f       	sbci	r31, 0xFF	; 255
    3610:	81 e0       	ldi	r24, 0x01	; 1
    3612:	90 e0       	ldi	r25, 0x00	; 0
    3614:	91 83       	std	Z+1, r25	; 0x01
    3616:	80 83       	st	Z, r24
    3618:	64 c0       	rjmp	.+200    	; 0x36e2 <greenSide+0xfec>
    361a:	fe 01       	movw	r30, r28
    361c:	e1 55       	subi	r30, 0x51	; 81
    361e:	ff 4f       	sbci	r31, 0xFF	; 255
    3620:	60 81       	ld	r22, Z
    3622:	71 81       	ldd	r23, Z+1	; 0x01
    3624:	82 81       	ldd	r24, Z+2	; 0x02
    3626:	93 81       	ldd	r25, Z+3	; 0x03
    3628:	20 e0       	ldi	r18, 0x00	; 0
    362a:	3f ef       	ldi	r19, 0xFF	; 255
    362c:	4f e7       	ldi	r20, 0x7F	; 127
    362e:	57 e4       	ldi	r21, 0x47	; 71
    3630:	0e 94 8c 42 	call	0x8518	; 0x8518 <__gesf2>
    3634:	18 16       	cp	r1, r24
    3636:	0c f0       	brlt	.+2      	; 0x363a <greenSide+0xf44>
    3638:	43 c0       	rjmp	.+134    	; 0x36c0 <greenSide+0xfca>
    363a:	fe 01       	movw	r30, r28
    363c:	ed 54       	subi	r30, 0x4D	; 77
    363e:	ff 4f       	sbci	r31, 0xFF	; 255
    3640:	60 81       	ld	r22, Z
    3642:	71 81       	ldd	r23, Z+1	; 0x01
    3644:	82 81       	ldd	r24, Z+2	; 0x02
    3646:	93 81       	ldd	r25, Z+3	; 0x03
    3648:	20 e0       	ldi	r18, 0x00	; 0
    364a:	30 e0       	ldi	r19, 0x00	; 0
    364c:	40 e2       	ldi	r20, 0x20	; 32
    364e:	51 e4       	ldi	r21, 0x41	; 65
    3650:	0e 94 90 42 	call	0x8520	; 0x8520 <__mulsf3>
    3654:	dc 01       	movw	r26, r24
    3656:	cb 01       	movw	r24, r22
    3658:	8e 01       	movw	r16, r28
    365a:	03 55       	subi	r16, 0x53	; 83
    365c:	1f 4f       	sbci	r17, 0xFF	; 255
    365e:	bc 01       	movw	r22, r24
    3660:	cd 01       	movw	r24, r26
    3662:	0e 94 70 41 	call	0x82e0	; 0x82e0 <__fixunssfsi>
    3666:	dc 01       	movw	r26, r24
    3668:	cb 01       	movw	r24, r22
    366a:	f8 01       	movw	r30, r16
    366c:	91 83       	std	Z+1, r25	; 0x01
    366e:	80 83       	st	Z, r24
    3670:	1f c0       	rjmp	.+62     	; 0x36b0 <greenSide+0xfba>
    3672:	fe 01       	movw	r30, r28
    3674:	e5 55       	subi	r30, 0x55	; 85
    3676:	ff 4f       	sbci	r31, 0xFF	; 255
    3678:	8a ef       	ldi	r24, 0xFA	; 250
    367a:	90 e0       	ldi	r25, 0x00	; 0
    367c:	91 83       	std	Z+1, r25	; 0x01
    367e:	80 83       	st	Z, r24
    3680:	fe 01       	movw	r30, r28
    3682:	e5 55       	subi	r30, 0x55	; 85
    3684:	ff 4f       	sbci	r31, 0xFF	; 255
    3686:	80 81       	ld	r24, Z
    3688:	91 81       	ldd	r25, Z+1	; 0x01
    368a:	01 97       	sbiw	r24, 0x01	; 1
    368c:	f1 f7       	brne	.-4      	; 0x368a <greenSide+0xf94>
    368e:	fe 01       	movw	r30, r28
    3690:	e5 55       	subi	r30, 0x55	; 85
    3692:	ff 4f       	sbci	r31, 0xFF	; 255
    3694:	91 83       	std	Z+1, r25	; 0x01
    3696:	80 83       	st	Z, r24
    3698:	de 01       	movw	r26, r28
    369a:	a3 55       	subi	r26, 0x53	; 83
    369c:	bf 4f       	sbci	r27, 0xFF	; 255
    369e:	fe 01       	movw	r30, r28
    36a0:	e3 55       	subi	r30, 0x53	; 83
    36a2:	ff 4f       	sbci	r31, 0xFF	; 255
    36a4:	80 81       	ld	r24, Z
    36a6:	91 81       	ldd	r25, Z+1	; 0x01
    36a8:	01 97       	sbiw	r24, 0x01	; 1
    36aa:	11 96       	adiw	r26, 0x01	; 1
    36ac:	9c 93       	st	X, r25
    36ae:	8e 93       	st	-X, r24
    36b0:	fe 01       	movw	r30, r28
    36b2:	e3 55       	subi	r30, 0x53	; 83
    36b4:	ff 4f       	sbci	r31, 0xFF	; 255
    36b6:	80 81       	ld	r24, Z
    36b8:	91 81       	ldd	r25, Z+1	; 0x01
    36ba:	00 97       	sbiw	r24, 0x00	; 0
    36bc:	d1 f6       	brne	.-76     	; 0x3672 <greenSide+0xf7c>
    36be:	27 c0       	rjmp	.+78     	; 0x370e <greenSide+0x1018>
    36c0:	8e 01       	movw	r16, r28
    36c2:	03 55       	subi	r16, 0x53	; 83
    36c4:	1f 4f       	sbci	r17, 0xFF	; 255
    36c6:	fe 01       	movw	r30, r28
    36c8:	e1 55       	subi	r30, 0x51	; 81
    36ca:	ff 4f       	sbci	r31, 0xFF	; 255
    36cc:	60 81       	ld	r22, Z
    36ce:	71 81       	ldd	r23, Z+1	; 0x01
    36d0:	82 81       	ldd	r24, Z+2	; 0x02
    36d2:	93 81       	ldd	r25, Z+3	; 0x03
    36d4:	0e 94 70 41 	call	0x82e0	; 0x82e0 <__fixunssfsi>
    36d8:	dc 01       	movw	r26, r24
    36da:	cb 01       	movw	r24, r22
    36dc:	f8 01       	movw	r30, r16
    36de:	91 83       	std	Z+1, r25	; 0x01
    36e0:	80 83       	st	Z, r24
    36e2:	de 01       	movw	r26, r28
    36e4:	a7 55       	subi	r26, 0x57	; 87
    36e6:	bf 4f       	sbci	r27, 0xFF	; 255
    36e8:	fe 01       	movw	r30, r28
    36ea:	e3 55       	subi	r30, 0x53	; 83
    36ec:	ff 4f       	sbci	r31, 0xFF	; 255
    36ee:	80 81       	ld	r24, Z
    36f0:	91 81       	ldd	r25, Z+1	; 0x01
    36f2:	8d 93       	st	X+, r24
    36f4:	9c 93       	st	X, r25
    36f6:	fe 01       	movw	r30, r28
    36f8:	e7 55       	subi	r30, 0x57	; 87
    36fa:	ff 4f       	sbci	r31, 0xFF	; 255
    36fc:	80 81       	ld	r24, Z
    36fe:	91 81       	ldd	r25, Z+1	; 0x01
    3700:	01 97       	sbiw	r24, 0x01	; 1
    3702:	f1 f7       	brne	.-4      	; 0x3700 <greenSide+0x100a>
    3704:	fe 01       	movw	r30, r28
    3706:	e7 55       	subi	r30, 0x57	; 87
    3708:	ff 4f       	sbci	r31, 0xFF	; 255
    370a:	91 83       	std	Z+1, r25	; 0x01
    370c:	80 83       	st	Z, r24
    370e:	81 e0       	ldi	r24, 0x01	; 1
    3710:	0e 94 db 0a 	call	0x15b6	; 0x15b6 <leftDiafram>
    3714:	81 e0       	ldi	r24, 0x01	; 1
    3716:	0e 94 ee 0b 	call	0x17dc	; 0x17dc <rightDiafram>
    371a:	fe 01       	movw	r30, r28
    371c:	eb 55       	subi	r30, 0x5B	; 91
    371e:	ff 4f       	sbci	r31, 0xFF	; 255
    3720:	80 e0       	ldi	r24, 0x00	; 0
    3722:	90 e0       	ldi	r25, 0x00	; 0
    3724:	a8 e4       	ldi	r26, 0x48	; 72
    3726:	b2 e4       	ldi	r27, 0x42	; 66
    3728:	80 83       	st	Z, r24
    372a:	91 83       	std	Z+1, r25	; 0x01
    372c:	a2 83       	std	Z+2, r26	; 0x02
    372e:	b3 83       	std	Z+3, r27	; 0x03
    3730:	8e 01       	movw	r16, r28
    3732:	0f 55       	subi	r16, 0x5F	; 95
    3734:	1f 4f       	sbci	r17, 0xFF	; 255
    3736:	fe 01       	movw	r30, r28
    3738:	eb 55       	subi	r30, 0x5B	; 91
    373a:	ff 4f       	sbci	r31, 0xFF	; 255
    373c:	60 81       	ld	r22, Z
    373e:	71 81       	ldd	r23, Z+1	; 0x01
    3740:	82 81       	ldd	r24, Z+2	; 0x02
    3742:	93 81       	ldd	r25, Z+3	; 0x03
    3744:	20 e0       	ldi	r18, 0x00	; 0
    3746:	30 e4       	ldi	r19, 0x40	; 64
    3748:	4c e1       	ldi	r20, 0x1C	; 28
    374a:	55 e4       	ldi	r21, 0x45	; 69
    374c:	0e 94 90 42 	call	0x8520	; 0x8520 <__mulsf3>
    3750:	dc 01       	movw	r26, r24
    3752:	cb 01       	movw	r24, r22
    3754:	f8 01       	movw	r30, r16
    3756:	80 83       	st	Z, r24
    3758:	91 83       	std	Z+1, r25	; 0x01
    375a:	a2 83       	std	Z+2, r26	; 0x02
    375c:	b3 83       	std	Z+3, r27	; 0x03
    375e:	fe 01       	movw	r30, r28
    3760:	ef 55       	subi	r30, 0x5F	; 95
    3762:	ff 4f       	sbci	r31, 0xFF	; 255
    3764:	60 81       	ld	r22, Z
    3766:	71 81       	ldd	r23, Z+1	; 0x01
    3768:	82 81       	ldd	r24, Z+2	; 0x02
    376a:	93 81       	ldd	r25, Z+3	; 0x03
    376c:	20 e0       	ldi	r18, 0x00	; 0
    376e:	30 e0       	ldi	r19, 0x00	; 0
    3770:	40 e8       	ldi	r20, 0x80	; 128
    3772:	5f e3       	ldi	r21, 0x3F	; 63
    3774:	0e 94 04 41 	call	0x8208	; 0x8208 <__cmpsf2>
    3778:	88 23       	and	r24, r24
    377a:	44 f4       	brge	.+16     	; 0x378c <greenSide+0x1096>
    377c:	fe 01       	movw	r30, r28
    377e:	e1 56       	subi	r30, 0x61	; 97
    3780:	ff 4f       	sbci	r31, 0xFF	; 255
    3782:	81 e0       	ldi	r24, 0x01	; 1
    3784:	90 e0       	ldi	r25, 0x00	; 0
    3786:	91 83       	std	Z+1, r25	; 0x01
    3788:	80 83       	st	Z, r24
    378a:	64 c0       	rjmp	.+200    	; 0x3854 <greenSide+0x115e>
    378c:	fe 01       	movw	r30, r28
    378e:	ef 55       	subi	r30, 0x5F	; 95
    3790:	ff 4f       	sbci	r31, 0xFF	; 255
    3792:	60 81       	ld	r22, Z
    3794:	71 81       	ldd	r23, Z+1	; 0x01
    3796:	82 81       	ldd	r24, Z+2	; 0x02
    3798:	93 81       	ldd	r25, Z+3	; 0x03
    379a:	20 e0       	ldi	r18, 0x00	; 0
    379c:	3f ef       	ldi	r19, 0xFF	; 255
    379e:	4f e7       	ldi	r20, 0x7F	; 127
    37a0:	57 e4       	ldi	r21, 0x47	; 71
    37a2:	0e 94 8c 42 	call	0x8518	; 0x8518 <__gesf2>
    37a6:	18 16       	cp	r1, r24
    37a8:	0c f0       	brlt	.+2      	; 0x37ac <greenSide+0x10b6>
    37aa:	43 c0       	rjmp	.+134    	; 0x3832 <greenSide+0x113c>
    37ac:	fe 01       	movw	r30, r28
    37ae:	eb 55       	subi	r30, 0x5B	; 91
    37b0:	ff 4f       	sbci	r31, 0xFF	; 255
    37b2:	60 81       	ld	r22, Z
    37b4:	71 81       	ldd	r23, Z+1	; 0x01
    37b6:	82 81       	ldd	r24, Z+2	; 0x02
    37b8:	93 81       	ldd	r25, Z+3	; 0x03
    37ba:	20 e0       	ldi	r18, 0x00	; 0
    37bc:	30 e0       	ldi	r19, 0x00	; 0
    37be:	40 e2       	ldi	r20, 0x20	; 32
    37c0:	51 e4       	ldi	r21, 0x41	; 65
    37c2:	0e 94 90 42 	call	0x8520	; 0x8520 <__mulsf3>
    37c6:	dc 01       	movw	r26, r24
    37c8:	cb 01       	movw	r24, r22
    37ca:	8e 01       	movw	r16, r28
    37cc:	01 56       	subi	r16, 0x61	; 97
    37ce:	1f 4f       	sbci	r17, 0xFF	; 255
    37d0:	bc 01       	movw	r22, r24
    37d2:	cd 01       	movw	r24, r26
    37d4:	0e 94 70 41 	call	0x82e0	; 0x82e0 <__fixunssfsi>
    37d8:	dc 01       	movw	r26, r24
    37da:	cb 01       	movw	r24, r22
    37dc:	f8 01       	movw	r30, r16
    37de:	91 83       	std	Z+1, r25	; 0x01
    37e0:	80 83       	st	Z, r24
    37e2:	1f c0       	rjmp	.+62     	; 0x3822 <greenSide+0x112c>
    37e4:	fe 01       	movw	r30, r28
    37e6:	e3 56       	subi	r30, 0x63	; 99
    37e8:	ff 4f       	sbci	r31, 0xFF	; 255
    37ea:	8a ef       	ldi	r24, 0xFA	; 250
    37ec:	90 e0       	ldi	r25, 0x00	; 0
    37ee:	91 83       	std	Z+1, r25	; 0x01
    37f0:	80 83       	st	Z, r24
    37f2:	fe 01       	movw	r30, r28
    37f4:	e3 56       	subi	r30, 0x63	; 99
    37f6:	ff 4f       	sbci	r31, 0xFF	; 255
    37f8:	80 81       	ld	r24, Z
    37fa:	91 81       	ldd	r25, Z+1	; 0x01
    37fc:	01 97       	sbiw	r24, 0x01	; 1
    37fe:	f1 f7       	brne	.-4      	; 0x37fc <greenSide+0x1106>
    3800:	fe 01       	movw	r30, r28
    3802:	e3 56       	subi	r30, 0x63	; 99
    3804:	ff 4f       	sbci	r31, 0xFF	; 255
    3806:	91 83       	std	Z+1, r25	; 0x01
    3808:	80 83       	st	Z, r24
    380a:	de 01       	movw	r26, r28
    380c:	a1 56       	subi	r26, 0x61	; 97
    380e:	bf 4f       	sbci	r27, 0xFF	; 255
    3810:	fe 01       	movw	r30, r28
    3812:	e1 56       	subi	r30, 0x61	; 97
    3814:	ff 4f       	sbci	r31, 0xFF	; 255
    3816:	80 81       	ld	r24, Z
    3818:	91 81       	ldd	r25, Z+1	; 0x01
    381a:	01 97       	sbiw	r24, 0x01	; 1
    381c:	11 96       	adiw	r26, 0x01	; 1
    381e:	9c 93       	st	X, r25
    3820:	8e 93       	st	-X, r24
    3822:	fe 01       	movw	r30, r28
    3824:	e1 56       	subi	r30, 0x61	; 97
    3826:	ff 4f       	sbci	r31, 0xFF	; 255
    3828:	80 81       	ld	r24, Z
    382a:	91 81       	ldd	r25, Z+1	; 0x01
    382c:	00 97       	sbiw	r24, 0x00	; 0
    382e:	d1 f6       	brne	.-76     	; 0x37e4 <greenSide+0x10ee>
    3830:	27 c0       	rjmp	.+78     	; 0x3880 <greenSide+0x118a>
    3832:	8e 01       	movw	r16, r28
    3834:	01 56       	subi	r16, 0x61	; 97
    3836:	1f 4f       	sbci	r17, 0xFF	; 255
    3838:	fe 01       	movw	r30, r28
    383a:	ef 55       	subi	r30, 0x5F	; 95
    383c:	ff 4f       	sbci	r31, 0xFF	; 255
    383e:	60 81       	ld	r22, Z
    3840:	71 81       	ldd	r23, Z+1	; 0x01
    3842:	82 81       	ldd	r24, Z+2	; 0x02
    3844:	93 81       	ldd	r25, Z+3	; 0x03
    3846:	0e 94 70 41 	call	0x82e0	; 0x82e0 <__fixunssfsi>
    384a:	dc 01       	movw	r26, r24
    384c:	cb 01       	movw	r24, r22
    384e:	f8 01       	movw	r30, r16
    3850:	91 83       	std	Z+1, r25	; 0x01
    3852:	80 83       	st	Z, r24
    3854:	de 01       	movw	r26, r28
    3856:	a5 56       	subi	r26, 0x65	; 101
    3858:	bf 4f       	sbci	r27, 0xFF	; 255
    385a:	fe 01       	movw	r30, r28
    385c:	e1 56       	subi	r30, 0x61	; 97
    385e:	ff 4f       	sbci	r31, 0xFF	; 255
    3860:	80 81       	ld	r24, Z
    3862:	91 81       	ldd	r25, Z+1	; 0x01
    3864:	8d 93       	st	X+, r24
    3866:	9c 93       	st	X, r25
    3868:	fe 01       	movw	r30, r28
    386a:	e5 56       	subi	r30, 0x65	; 101
    386c:	ff 4f       	sbci	r31, 0xFF	; 255
    386e:	80 81       	ld	r24, Z
    3870:	91 81       	ldd	r25, Z+1	; 0x01
    3872:	01 97       	sbiw	r24, 0x01	; 1
    3874:	f1 f7       	brne	.-4      	; 0x3872 <greenSide+0x117c>
    3876:	fe 01       	movw	r30, r28
    3878:	e5 56       	subi	r30, 0x65	; 101
    387a:	ff 4f       	sbci	r31, 0xFF	; 255
    387c:	91 83       	std	Z+1, r25	; 0x01
    387e:	80 83       	st	Z, r24
    3880:	8a e0       	ldi	r24, 0x0A	; 10
    3882:	90 e0       	ldi	r25, 0x00	; 0
    3884:	62 e3       	ldi	r22, 0x32	; 50
    3886:	40 e0       	ldi	r20, 0x00	; 0
    3888:	50 e0       	ldi	r21, 0x00	; 0
    388a:	0e 94 9a 2b 	call	0x5734	; 0x5734 <rotate>
    388e:	fe 01       	movw	r30, r28
    3890:	e9 56       	subi	r30, 0x69	; 105
    3892:	ff 4f       	sbci	r31, 0xFF	; 255
    3894:	80 e0       	ldi	r24, 0x00	; 0
    3896:	90 e0       	ldi	r25, 0x00	; 0
    3898:	a8 e4       	ldi	r26, 0x48	; 72
    389a:	b2 e4       	ldi	r27, 0x42	; 66
    389c:	80 83       	st	Z, r24
    389e:	91 83       	std	Z+1, r25	; 0x01
    38a0:	a2 83       	std	Z+2, r26	; 0x02
    38a2:	b3 83       	std	Z+3, r27	; 0x03
    38a4:	8e 01       	movw	r16, r28
    38a6:	0d 56       	subi	r16, 0x6D	; 109
    38a8:	1f 4f       	sbci	r17, 0xFF	; 255
    38aa:	fe 01       	movw	r30, r28
    38ac:	e9 56       	subi	r30, 0x69	; 105
    38ae:	ff 4f       	sbci	r31, 0xFF	; 255
    38b0:	60 81       	ld	r22, Z
    38b2:	71 81       	ldd	r23, Z+1	; 0x01
    38b4:	82 81       	ldd	r24, Z+2	; 0x02
    38b6:	93 81       	ldd	r25, Z+3	; 0x03
    38b8:	20 e0       	ldi	r18, 0x00	; 0
    38ba:	30 e4       	ldi	r19, 0x40	; 64
    38bc:	4c e1       	ldi	r20, 0x1C	; 28
    38be:	55 e4       	ldi	r21, 0x45	; 69
    38c0:	0e 94 90 42 	call	0x8520	; 0x8520 <__mulsf3>
    38c4:	dc 01       	movw	r26, r24
    38c6:	cb 01       	movw	r24, r22
    38c8:	f8 01       	movw	r30, r16
    38ca:	80 83       	st	Z, r24
    38cc:	91 83       	std	Z+1, r25	; 0x01
    38ce:	a2 83       	std	Z+2, r26	; 0x02
    38d0:	b3 83       	std	Z+3, r27	; 0x03
    38d2:	fe 01       	movw	r30, r28
    38d4:	ed 56       	subi	r30, 0x6D	; 109
    38d6:	ff 4f       	sbci	r31, 0xFF	; 255
    38d8:	60 81       	ld	r22, Z
    38da:	71 81       	ldd	r23, Z+1	; 0x01
    38dc:	82 81       	ldd	r24, Z+2	; 0x02
    38de:	93 81       	ldd	r25, Z+3	; 0x03
    38e0:	20 e0       	ldi	r18, 0x00	; 0
    38e2:	30 e0       	ldi	r19, 0x00	; 0
    38e4:	40 e8       	ldi	r20, 0x80	; 128
    38e6:	5f e3       	ldi	r21, 0x3F	; 63
    38e8:	0e 94 04 41 	call	0x8208	; 0x8208 <__cmpsf2>
    38ec:	88 23       	and	r24, r24
    38ee:	44 f4       	brge	.+16     	; 0x3900 <greenSide+0x120a>
    38f0:	fe 01       	movw	r30, r28
    38f2:	ef 56       	subi	r30, 0x6F	; 111
    38f4:	ff 4f       	sbci	r31, 0xFF	; 255
    38f6:	81 e0       	ldi	r24, 0x01	; 1
    38f8:	90 e0       	ldi	r25, 0x00	; 0
    38fa:	91 83       	std	Z+1, r25	; 0x01
    38fc:	80 83       	st	Z, r24
    38fe:	64 c0       	rjmp	.+200    	; 0x39c8 <greenSide+0x12d2>
    3900:	fe 01       	movw	r30, r28
    3902:	ed 56       	subi	r30, 0x6D	; 109
    3904:	ff 4f       	sbci	r31, 0xFF	; 255
    3906:	60 81       	ld	r22, Z
    3908:	71 81       	ldd	r23, Z+1	; 0x01
    390a:	82 81       	ldd	r24, Z+2	; 0x02
    390c:	93 81       	ldd	r25, Z+3	; 0x03
    390e:	20 e0       	ldi	r18, 0x00	; 0
    3910:	3f ef       	ldi	r19, 0xFF	; 255
    3912:	4f e7       	ldi	r20, 0x7F	; 127
    3914:	57 e4       	ldi	r21, 0x47	; 71
    3916:	0e 94 8c 42 	call	0x8518	; 0x8518 <__gesf2>
    391a:	18 16       	cp	r1, r24
    391c:	0c f0       	brlt	.+2      	; 0x3920 <greenSide+0x122a>
    391e:	43 c0       	rjmp	.+134    	; 0x39a6 <greenSide+0x12b0>
    3920:	fe 01       	movw	r30, r28
    3922:	e9 56       	subi	r30, 0x69	; 105
    3924:	ff 4f       	sbci	r31, 0xFF	; 255
    3926:	60 81       	ld	r22, Z
    3928:	71 81       	ldd	r23, Z+1	; 0x01
    392a:	82 81       	ldd	r24, Z+2	; 0x02
    392c:	93 81       	ldd	r25, Z+3	; 0x03
    392e:	20 e0       	ldi	r18, 0x00	; 0
    3930:	30 e0       	ldi	r19, 0x00	; 0
    3932:	40 e2       	ldi	r20, 0x20	; 32
    3934:	51 e4       	ldi	r21, 0x41	; 65
    3936:	0e 94 90 42 	call	0x8520	; 0x8520 <__mulsf3>
    393a:	dc 01       	movw	r26, r24
    393c:	cb 01       	movw	r24, r22
    393e:	8e 01       	movw	r16, r28
    3940:	0f 56       	subi	r16, 0x6F	; 111
    3942:	1f 4f       	sbci	r17, 0xFF	; 255
    3944:	bc 01       	movw	r22, r24
    3946:	cd 01       	movw	r24, r26
    3948:	0e 94 70 41 	call	0x82e0	; 0x82e0 <__fixunssfsi>
    394c:	dc 01       	movw	r26, r24
    394e:	cb 01       	movw	r24, r22
    3950:	f8 01       	movw	r30, r16
    3952:	91 83       	std	Z+1, r25	; 0x01
    3954:	80 83       	st	Z, r24
    3956:	1f c0       	rjmp	.+62     	; 0x3996 <greenSide+0x12a0>
    3958:	fe 01       	movw	r30, r28
    395a:	e1 57       	subi	r30, 0x71	; 113
    395c:	ff 4f       	sbci	r31, 0xFF	; 255
    395e:	8a ef       	ldi	r24, 0xFA	; 250
    3960:	90 e0       	ldi	r25, 0x00	; 0
    3962:	91 83       	std	Z+1, r25	; 0x01
    3964:	80 83       	st	Z, r24
    3966:	fe 01       	movw	r30, r28
    3968:	e1 57       	subi	r30, 0x71	; 113
    396a:	ff 4f       	sbci	r31, 0xFF	; 255
    396c:	80 81       	ld	r24, Z
    396e:	91 81       	ldd	r25, Z+1	; 0x01
    3970:	01 97       	sbiw	r24, 0x01	; 1
    3972:	f1 f7       	brne	.-4      	; 0x3970 <greenSide+0x127a>
    3974:	fe 01       	movw	r30, r28
    3976:	e1 57       	subi	r30, 0x71	; 113
    3978:	ff 4f       	sbci	r31, 0xFF	; 255
    397a:	91 83       	std	Z+1, r25	; 0x01
    397c:	80 83       	st	Z, r24
    397e:	de 01       	movw	r26, r28
    3980:	af 56       	subi	r26, 0x6F	; 111
    3982:	bf 4f       	sbci	r27, 0xFF	; 255
    3984:	fe 01       	movw	r30, r28
    3986:	ef 56       	subi	r30, 0x6F	; 111
    3988:	ff 4f       	sbci	r31, 0xFF	; 255
    398a:	80 81       	ld	r24, Z
    398c:	91 81       	ldd	r25, Z+1	; 0x01
    398e:	01 97       	sbiw	r24, 0x01	; 1
    3990:	11 96       	adiw	r26, 0x01	; 1
    3992:	9c 93       	st	X, r25
    3994:	8e 93       	st	-X, r24
    3996:	fe 01       	movw	r30, r28
    3998:	ef 56       	subi	r30, 0x6F	; 111
    399a:	ff 4f       	sbci	r31, 0xFF	; 255
    399c:	80 81       	ld	r24, Z
    399e:	91 81       	ldd	r25, Z+1	; 0x01
    39a0:	00 97       	sbiw	r24, 0x00	; 0
    39a2:	d1 f6       	brne	.-76     	; 0x3958 <greenSide+0x1262>
    39a4:	27 c0       	rjmp	.+78     	; 0x39f4 <greenSide+0x12fe>
    39a6:	8e 01       	movw	r16, r28
    39a8:	0f 56       	subi	r16, 0x6F	; 111
    39aa:	1f 4f       	sbci	r17, 0xFF	; 255
    39ac:	fe 01       	movw	r30, r28
    39ae:	ed 56       	subi	r30, 0x6D	; 109
    39b0:	ff 4f       	sbci	r31, 0xFF	; 255
    39b2:	60 81       	ld	r22, Z
    39b4:	71 81       	ldd	r23, Z+1	; 0x01
    39b6:	82 81       	ldd	r24, Z+2	; 0x02
    39b8:	93 81       	ldd	r25, Z+3	; 0x03
    39ba:	0e 94 70 41 	call	0x82e0	; 0x82e0 <__fixunssfsi>
    39be:	dc 01       	movw	r26, r24
    39c0:	cb 01       	movw	r24, r22
    39c2:	f8 01       	movw	r30, r16
    39c4:	91 83       	std	Z+1, r25	; 0x01
    39c6:	80 83       	st	Z, r24
    39c8:	de 01       	movw	r26, r28
    39ca:	a3 57       	subi	r26, 0x73	; 115
    39cc:	bf 4f       	sbci	r27, 0xFF	; 255
    39ce:	fe 01       	movw	r30, r28
    39d0:	ef 56       	subi	r30, 0x6F	; 111
    39d2:	ff 4f       	sbci	r31, 0xFF	; 255
    39d4:	80 81       	ld	r24, Z
    39d6:	91 81       	ldd	r25, Z+1	; 0x01
    39d8:	8d 93       	st	X+, r24
    39da:	9c 93       	st	X, r25
    39dc:	fe 01       	movw	r30, r28
    39de:	e3 57       	subi	r30, 0x73	; 115
    39e0:	ff 4f       	sbci	r31, 0xFF	; 255
    39e2:	80 81       	ld	r24, Z
    39e4:	91 81       	ldd	r25, Z+1	; 0x01
    39e6:	01 97       	sbiw	r24, 0x01	; 1
    39e8:	f1 f7       	brne	.-4      	; 0x39e6 <greenSide+0x12f0>
    39ea:	fe 01       	movw	r30, r28
    39ec:	e3 57       	subi	r30, 0x73	; 115
    39ee:	ff 4f       	sbci	r31, 0xFF	; 255
    39f0:	91 83       	std	Z+1, r25	; 0x01
    39f2:	80 83       	st	Z, r24
    39f4:	8e ec       	ldi	r24, 0xCE	; 206
    39f6:	9f ef       	ldi	r25, 0xFF	; 255
    39f8:	62 e3       	ldi	r22, 0x32	; 50
    39fa:	40 e0       	ldi	r20, 0x00	; 0
    39fc:	50 e0       	ldi	r21, 0x00	; 0
    39fe:	cd d7       	rcall	.+3994   	; 0x499a <moveOnDirection>
    3a00:	8d ed       	ldi	r24, 0xDD	; 221
    3a02:	9f ef       	ldi	r25, 0xFF	; 255
    3a04:	62 e3       	ldi	r22, 0x32	; 50
    3a06:	40 e0       	ldi	r20, 0x00	; 0
    3a08:	50 e0       	ldi	r21, 0x00	; 0
    3a0a:	0e 94 9a 2b 	call	0x5734	; 0x5734 <rotate>
    3a0e:	81 e0       	ldi	r24, 0x01	; 1
    3a10:	61 e0       	ldi	r22, 0x01	; 1
    3a12:	0e 94 df 06 	call	0xdbe	; 0xdbe <knockDownTheClapperboards>
    3a16:	83 e2       	ldi	r24, 0x23	; 35
    3a18:	90 e0       	ldi	r25, 0x00	; 0
    3a1a:	62 e3       	ldi	r22, 0x32	; 50
    3a1c:	40 e0       	ldi	r20, 0x00	; 0
    3a1e:	50 e0       	ldi	r21, 0x00	; 0
    3a20:	0e 94 9a 2b 	call	0x5734	; 0x5734 <rotate>
    3a24:	7b c6       	rjmp	.+3318   	; 0x471c <greenSide+0x2026>
    3a26:	fe 01       	movw	r30, r28
    3a28:	e6 5d       	subi	r30, 0xD6	; 214
    3a2a:	fe 4f       	sbci	r31, 0xFE	; 254
    3a2c:	80 81       	ld	r24, Z
    3a2e:	85 30       	cpi	r24, 0x05	; 5
    3a30:	29 f4       	brne	.+10     	; 0x3a3c <greenSide+0x1346>
    3a32:	81 e0       	ldi	r24, 0x01	; 1
    3a34:	6f ef       	ldi	r22, 0xFF	; 255
    3a36:	0e 94 df 06 	call	0xdbe	; 0xdbe <knockDownTheClapperboards>
    3a3a:	70 c6       	rjmp	.+3296   	; 0x471c <greenSide+0x2026>
    3a3c:	fe 01       	movw	r30, r28
    3a3e:	e6 5d       	subi	r30, 0xD6	; 214
    3a40:	fe 4f       	sbci	r31, 0xFE	; 254
    3a42:	80 81       	ld	r24, Z
    3a44:	86 30       	cpi	r24, 0x06	; 6
    3a46:	09 f4       	brne	.+2      	; 0x3a4a <greenSide+0x1354>
    3a48:	69 c6       	rjmp	.+3282   	; 0x471c <greenSide+0x2026>
    3a4a:	fe 01       	movw	r30, r28
    3a4c:	e6 5d       	subi	r30, 0xD6	; 214
    3a4e:	fe 4f       	sbci	r31, 0xFE	; 254
    3a50:	80 81       	ld	r24, Z
    3a52:	87 30       	cpi	r24, 0x07	; 7
    3a54:	09 f0       	breq	.+2      	; 0x3a58 <greenSide+0x1362>
    3a56:	01 c3       	rjmp	.+1538   	; 0x405a <greenSide+0x1964>
    3a58:	8f ef       	ldi	r24, 0xFF	; 255
    3a5a:	0e 94 ee 0b 	call	0x17dc	; 0x17dc <rightDiafram>
    3a5e:	fe 01       	movw	r30, r28
    3a60:	e7 57       	subi	r30, 0x77	; 119
    3a62:	ff 4f       	sbci	r31, 0xFF	; 255
    3a64:	80 e0       	ldi	r24, 0x00	; 0
    3a66:	90 e4       	ldi	r25, 0x40	; 64
    3a68:	ac e9       	ldi	r26, 0x9C	; 156
    3a6a:	b5 e4       	ldi	r27, 0x45	; 69
    3a6c:	80 83       	st	Z, r24
    3a6e:	91 83       	std	Z+1, r25	; 0x01
    3a70:	a2 83       	std	Z+2, r26	; 0x02
    3a72:	b3 83       	std	Z+3, r27	; 0x03
    3a74:	8e 01       	movw	r16, r28
    3a76:	0b 57       	subi	r16, 0x7B	; 123
    3a78:	1f 4f       	sbci	r17, 0xFF	; 255
    3a7a:	fe 01       	movw	r30, r28
    3a7c:	e7 57       	subi	r30, 0x77	; 119
    3a7e:	ff 4f       	sbci	r31, 0xFF	; 255
    3a80:	60 81       	ld	r22, Z
    3a82:	71 81       	ldd	r23, Z+1	; 0x01
    3a84:	82 81       	ldd	r24, Z+2	; 0x02
    3a86:	93 81       	ldd	r25, Z+3	; 0x03
    3a88:	20 e0       	ldi	r18, 0x00	; 0
    3a8a:	30 e4       	ldi	r19, 0x40	; 64
    3a8c:	4c e1       	ldi	r20, 0x1C	; 28
    3a8e:	55 e4       	ldi	r21, 0x45	; 69
    3a90:	0e 94 90 42 	call	0x8520	; 0x8520 <__mulsf3>
    3a94:	dc 01       	movw	r26, r24
    3a96:	cb 01       	movw	r24, r22
    3a98:	f8 01       	movw	r30, r16
    3a9a:	80 83       	st	Z, r24
    3a9c:	91 83       	std	Z+1, r25	; 0x01
    3a9e:	a2 83       	std	Z+2, r26	; 0x02
    3aa0:	b3 83       	std	Z+3, r27	; 0x03
    3aa2:	fe 01       	movw	r30, r28
    3aa4:	eb 57       	subi	r30, 0x7B	; 123
    3aa6:	ff 4f       	sbci	r31, 0xFF	; 255
    3aa8:	60 81       	ld	r22, Z
    3aaa:	71 81       	ldd	r23, Z+1	; 0x01
    3aac:	82 81       	ldd	r24, Z+2	; 0x02
    3aae:	93 81       	ldd	r25, Z+3	; 0x03
    3ab0:	20 e0       	ldi	r18, 0x00	; 0
    3ab2:	30 e0       	ldi	r19, 0x00	; 0
    3ab4:	40 e8       	ldi	r20, 0x80	; 128
    3ab6:	5f e3       	ldi	r21, 0x3F	; 63
    3ab8:	0e 94 04 41 	call	0x8208	; 0x8208 <__cmpsf2>
    3abc:	88 23       	and	r24, r24
    3abe:	44 f4       	brge	.+16     	; 0x3ad0 <greenSide+0x13da>
    3ac0:	fe 01       	movw	r30, r28
    3ac2:	ed 57       	subi	r30, 0x7D	; 125
    3ac4:	ff 4f       	sbci	r31, 0xFF	; 255
    3ac6:	81 e0       	ldi	r24, 0x01	; 1
    3ac8:	90 e0       	ldi	r25, 0x00	; 0
    3aca:	91 83       	std	Z+1, r25	; 0x01
    3acc:	80 83       	st	Z, r24
    3ace:	64 c0       	rjmp	.+200    	; 0x3b98 <greenSide+0x14a2>
    3ad0:	fe 01       	movw	r30, r28
    3ad2:	eb 57       	subi	r30, 0x7B	; 123
    3ad4:	ff 4f       	sbci	r31, 0xFF	; 255
    3ad6:	60 81       	ld	r22, Z
    3ad8:	71 81       	ldd	r23, Z+1	; 0x01
    3ada:	82 81       	ldd	r24, Z+2	; 0x02
    3adc:	93 81       	ldd	r25, Z+3	; 0x03
    3ade:	20 e0       	ldi	r18, 0x00	; 0
    3ae0:	3f ef       	ldi	r19, 0xFF	; 255
    3ae2:	4f e7       	ldi	r20, 0x7F	; 127
    3ae4:	57 e4       	ldi	r21, 0x47	; 71
    3ae6:	0e 94 8c 42 	call	0x8518	; 0x8518 <__gesf2>
    3aea:	18 16       	cp	r1, r24
    3aec:	0c f0       	brlt	.+2      	; 0x3af0 <greenSide+0x13fa>
    3aee:	43 c0       	rjmp	.+134    	; 0x3b76 <greenSide+0x1480>
    3af0:	fe 01       	movw	r30, r28
    3af2:	e7 57       	subi	r30, 0x77	; 119
    3af4:	ff 4f       	sbci	r31, 0xFF	; 255
    3af6:	60 81       	ld	r22, Z
    3af8:	71 81       	ldd	r23, Z+1	; 0x01
    3afa:	82 81       	ldd	r24, Z+2	; 0x02
    3afc:	93 81       	ldd	r25, Z+3	; 0x03
    3afe:	20 e0       	ldi	r18, 0x00	; 0
    3b00:	30 e0       	ldi	r19, 0x00	; 0
    3b02:	40 e2       	ldi	r20, 0x20	; 32
    3b04:	51 e4       	ldi	r21, 0x41	; 65
    3b06:	0e 94 90 42 	call	0x8520	; 0x8520 <__mulsf3>
    3b0a:	dc 01       	movw	r26, r24
    3b0c:	cb 01       	movw	r24, r22
    3b0e:	8e 01       	movw	r16, r28
    3b10:	0d 57       	subi	r16, 0x7D	; 125
    3b12:	1f 4f       	sbci	r17, 0xFF	; 255
    3b14:	bc 01       	movw	r22, r24
    3b16:	cd 01       	movw	r24, r26
    3b18:	0e 94 70 41 	call	0x82e0	; 0x82e0 <__fixunssfsi>
    3b1c:	dc 01       	movw	r26, r24
    3b1e:	cb 01       	movw	r24, r22
    3b20:	f8 01       	movw	r30, r16
    3b22:	91 83       	std	Z+1, r25	; 0x01
    3b24:	80 83       	st	Z, r24
    3b26:	1f c0       	rjmp	.+62     	; 0x3b66 <greenSide+0x1470>
    3b28:	fe 01       	movw	r30, r28
    3b2a:	ef 57       	subi	r30, 0x7F	; 127
    3b2c:	ff 4f       	sbci	r31, 0xFF	; 255
    3b2e:	8a ef       	ldi	r24, 0xFA	; 250
    3b30:	90 e0       	ldi	r25, 0x00	; 0
    3b32:	91 83       	std	Z+1, r25	; 0x01
    3b34:	80 83       	st	Z, r24
    3b36:	fe 01       	movw	r30, r28
    3b38:	ef 57       	subi	r30, 0x7F	; 127
    3b3a:	ff 4f       	sbci	r31, 0xFF	; 255
    3b3c:	80 81       	ld	r24, Z
    3b3e:	91 81       	ldd	r25, Z+1	; 0x01
    3b40:	01 97       	sbiw	r24, 0x01	; 1
    3b42:	f1 f7       	brne	.-4      	; 0x3b40 <greenSide+0x144a>
    3b44:	fe 01       	movw	r30, r28
    3b46:	ef 57       	subi	r30, 0x7F	; 127
    3b48:	ff 4f       	sbci	r31, 0xFF	; 255
    3b4a:	91 83       	std	Z+1, r25	; 0x01
    3b4c:	80 83       	st	Z, r24
    3b4e:	de 01       	movw	r26, r28
    3b50:	ad 57       	subi	r26, 0x7D	; 125
    3b52:	bf 4f       	sbci	r27, 0xFF	; 255
    3b54:	fe 01       	movw	r30, r28
    3b56:	ed 57       	subi	r30, 0x7D	; 125
    3b58:	ff 4f       	sbci	r31, 0xFF	; 255
    3b5a:	80 81       	ld	r24, Z
    3b5c:	91 81       	ldd	r25, Z+1	; 0x01
    3b5e:	01 97       	sbiw	r24, 0x01	; 1
    3b60:	11 96       	adiw	r26, 0x01	; 1
    3b62:	9c 93       	st	X, r25
    3b64:	8e 93       	st	-X, r24
    3b66:	fe 01       	movw	r30, r28
    3b68:	ed 57       	subi	r30, 0x7D	; 125
    3b6a:	ff 4f       	sbci	r31, 0xFF	; 255
    3b6c:	80 81       	ld	r24, Z
    3b6e:	91 81       	ldd	r25, Z+1	; 0x01
    3b70:	00 97       	sbiw	r24, 0x00	; 0
    3b72:	d1 f6       	brne	.-76     	; 0x3b28 <greenSide+0x1432>
    3b74:	27 c0       	rjmp	.+78     	; 0x3bc4 <greenSide+0x14ce>
    3b76:	8e 01       	movw	r16, r28
    3b78:	0d 57       	subi	r16, 0x7D	; 125
    3b7a:	1f 4f       	sbci	r17, 0xFF	; 255
    3b7c:	fe 01       	movw	r30, r28
    3b7e:	eb 57       	subi	r30, 0x7B	; 123
    3b80:	ff 4f       	sbci	r31, 0xFF	; 255
    3b82:	60 81       	ld	r22, Z
    3b84:	71 81       	ldd	r23, Z+1	; 0x01
    3b86:	82 81       	ldd	r24, Z+2	; 0x02
    3b88:	93 81       	ldd	r25, Z+3	; 0x03
    3b8a:	0e 94 70 41 	call	0x82e0	; 0x82e0 <__fixunssfsi>
    3b8e:	dc 01       	movw	r26, r24
    3b90:	cb 01       	movw	r24, r22
    3b92:	f8 01       	movw	r30, r16
    3b94:	91 83       	std	Z+1, r25	; 0x01
    3b96:	80 83       	st	Z, r24
    3b98:	de 01       	movw	r26, r28
    3b9a:	a1 58       	subi	r26, 0x81	; 129
    3b9c:	bf 4f       	sbci	r27, 0xFF	; 255
    3b9e:	fe 01       	movw	r30, r28
    3ba0:	ed 57       	subi	r30, 0x7D	; 125
    3ba2:	ff 4f       	sbci	r31, 0xFF	; 255
    3ba4:	80 81       	ld	r24, Z
    3ba6:	91 81       	ldd	r25, Z+1	; 0x01
    3ba8:	8d 93       	st	X+, r24
    3baa:	9c 93       	st	X, r25
    3bac:	fe 01       	movw	r30, r28
    3bae:	e1 58       	subi	r30, 0x81	; 129
    3bb0:	ff 4f       	sbci	r31, 0xFF	; 255
    3bb2:	80 81       	ld	r24, Z
    3bb4:	91 81       	ldd	r25, Z+1	; 0x01
    3bb6:	01 97       	sbiw	r24, 0x01	; 1
    3bb8:	f1 f7       	brne	.-4      	; 0x3bb6 <greenSide+0x14c0>
    3bba:	fe 01       	movw	r30, r28
    3bbc:	e1 58       	subi	r30, 0x81	; 129
    3bbe:	ff 4f       	sbci	r31, 0xFF	; 255
    3bc0:	91 83       	std	Z+1, r25	; 0x01
    3bc2:	80 83       	st	Z, r24
    3bc4:	88 e3       	ldi	r24, 0x38	; 56
    3bc6:	9f ef       	ldi	r25, 0xFF	; 255
    3bc8:	62 e3       	ldi	r22, 0x32	; 50
    3bca:	40 e0       	ldi	r20, 0x00	; 0
    3bcc:	50 e0       	ldi	r21, 0x00	; 0
    3bce:	e5 d6       	rcall	.+3530   	; 0x499a <moveOnDirection>
    3bd0:	81 e0       	ldi	r24, 0x01	; 1
    3bd2:	6f ef       	ldi	r22, 0xFF	; 255
    3bd4:	0e 94 14 0e 	call	0x1c28	; 0x1c28 <liftMove>
    3bd8:	2c e3       	ldi	r18, 0x3C	; 60
    3bda:	32 e1       	ldi	r19, 0x12	; 18
    3bdc:	8a e5       	ldi	r24, 0x5A	; 90
    3bde:	90 e0       	ldi	r25, 0x00	; 0
    3be0:	62 e3       	ldi	r22, 0x32	; 50
    3be2:	a9 01       	movw	r20, r18
    3be4:	0e 94 9a 2b 	call	0x5734	; 0x5734 <rotate>
    3be8:	fe 01       	movw	r30, r28
    3bea:	e5 58       	subi	r30, 0x85	; 133
    3bec:	ff 4f       	sbci	r31, 0xFF	; 255
    3bee:	80 e0       	ldi	r24, 0x00	; 0
    3bf0:	90 e0       	ldi	r25, 0x00	; 0
    3bf2:	a8 e4       	ldi	r26, 0x48	; 72
    3bf4:	b2 e4       	ldi	r27, 0x42	; 66
    3bf6:	80 83       	st	Z, r24
    3bf8:	91 83       	std	Z+1, r25	; 0x01
    3bfa:	a2 83       	std	Z+2, r26	; 0x02
    3bfc:	b3 83       	std	Z+3, r27	; 0x03
    3bfe:	8e 01       	movw	r16, r28
    3c00:	09 58       	subi	r16, 0x89	; 137
    3c02:	1f 4f       	sbci	r17, 0xFF	; 255
    3c04:	fe 01       	movw	r30, r28
    3c06:	e5 58       	subi	r30, 0x85	; 133
    3c08:	ff 4f       	sbci	r31, 0xFF	; 255
    3c0a:	60 81       	ld	r22, Z
    3c0c:	71 81       	ldd	r23, Z+1	; 0x01
    3c0e:	82 81       	ldd	r24, Z+2	; 0x02
    3c10:	93 81       	ldd	r25, Z+3	; 0x03
    3c12:	20 e0       	ldi	r18, 0x00	; 0
    3c14:	30 e4       	ldi	r19, 0x40	; 64
    3c16:	4c e1       	ldi	r20, 0x1C	; 28
    3c18:	55 e4       	ldi	r21, 0x45	; 69
    3c1a:	0e 94 90 42 	call	0x8520	; 0x8520 <__mulsf3>
    3c1e:	dc 01       	movw	r26, r24
    3c20:	cb 01       	movw	r24, r22
    3c22:	f8 01       	movw	r30, r16
    3c24:	80 83       	st	Z, r24
    3c26:	91 83       	std	Z+1, r25	; 0x01
    3c28:	a2 83       	std	Z+2, r26	; 0x02
    3c2a:	b3 83       	std	Z+3, r27	; 0x03
    3c2c:	fe 01       	movw	r30, r28
    3c2e:	e9 58       	subi	r30, 0x89	; 137
    3c30:	ff 4f       	sbci	r31, 0xFF	; 255
    3c32:	60 81       	ld	r22, Z
    3c34:	71 81       	ldd	r23, Z+1	; 0x01
    3c36:	82 81       	ldd	r24, Z+2	; 0x02
    3c38:	93 81       	ldd	r25, Z+3	; 0x03
    3c3a:	20 e0       	ldi	r18, 0x00	; 0
    3c3c:	30 e0       	ldi	r19, 0x00	; 0
    3c3e:	40 e8       	ldi	r20, 0x80	; 128
    3c40:	5f e3       	ldi	r21, 0x3F	; 63
    3c42:	0e 94 04 41 	call	0x8208	; 0x8208 <__cmpsf2>
    3c46:	88 23       	and	r24, r24
    3c48:	44 f4       	brge	.+16     	; 0x3c5a <greenSide+0x1564>
    3c4a:	fe 01       	movw	r30, r28
    3c4c:	eb 58       	subi	r30, 0x8B	; 139
    3c4e:	ff 4f       	sbci	r31, 0xFF	; 255
    3c50:	81 e0       	ldi	r24, 0x01	; 1
    3c52:	90 e0       	ldi	r25, 0x00	; 0
    3c54:	91 83       	std	Z+1, r25	; 0x01
    3c56:	80 83       	st	Z, r24
    3c58:	64 c0       	rjmp	.+200    	; 0x3d22 <greenSide+0x162c>
    3c5a:	fe 01       	movw	r30, r28
    3c5c:	e9 58       	subi	r30, 0x89	; 137
    3c5e:	ff 4f       	sbci	r31, 0xFF	; 255
    3c60:	60 81       	ld	r22, Z
    3c62:	71 81       	ldd	r23, Z+1	; 0x01
    3c64:	82 81       	ldd	r24, Z+2	; 0x02
    3c66:	93 81       	ldd	r25, Z+3	; 0x03
    3c68:	20 e0       	ldi	r18, 0x00	; 0
    3c6a:	3f ef       	ldi	r19, 0xFF	; 255
    3c6c:	4f e7       	ldi	r20, 0x7F	; 127
    3c6e:	57 e4       	ldi	r21, 0x47	; 71
    3c70:	0e 94 8c 42 	call	0x8518	; 0x8518 <__gesf2>
    3c74:	18 16       	cp	r1, r24
    3c76:	0c f0       	brlt	.+2      	; 0x3c7a <greenSide+0x1584>
    3c78:	43 c0       	rjmp	.+134    	; 0x3d00 <greenSide+0x160a>
    3c7a:	fe 01       	movw	r30, r28
    3c7c:	e5 58       	subi	r30, 0x85	; 133
    3c7e:	ff 4f       	sbci	r31, 0xFF	; 255
    3c80:	60 81       	ld	r22, Z
    3c82:	71 81       	ldd	r23, Z+1	; 0x01
    3c84:	82 81       	ldd	r24, Z+2	; 0x02
    3c86:	93 81       	ldd	r25, Z+3	; 0x03
    3c88:	20 e0       	ldi	r18, 0x00	; 0
    3c8a:	30 e0       	ldi	r19, 0x00	; 0
    3c8c:	40 e2       	ldi	r20, 0x20	; 32
    3c8e:	51 e4       	ldi	r21, 0x41	; 65
    3c90:	0e 94 90 42 	call	0x8520	; 0x8520 <__mulsf3>
    3c94:	dc 01       	movw	r26, r24
    3c96:	cb 01       	movw	r24, r22
    3c98:	8e 01       	movw	r16, r28
    3c9a:	0b 58       	subi	r16, 0x8B	; 139
    3c9c:	1f 4f       	sbci	r17, 0xFF	; 255
    3c9e:	bc 01       	movw	r22, r24
    3ca0:	cd 01       	movw	r24, r26
    3ca2:	0e 94 70 41 	call	0x82e0	; 0x82e0 <__fixunssfsi>
    3ca6:	dc 01       	movw	r26, r24
    3ca8:	cb 01       	movw	r24, r22
    3caa:	f8 01       	movw	r30, r16
    3cac:	91 83       	std	Z+1, r25	; 0x01
    3cae:	80 83       	st	Z, r24
    3cb0:	1f c0       	rjmp	.+62     	; 0x3cf0 <greenSide+0x15fa>
    3cb2:	fe 01       	movw	r30, r28
    3cb4:	ed 58       	subi	r30, 0x8D	; 141
    3cb6:	ff 4f       	sbci	r31, 0xFF	; 255
    3cb8:	8a ef       	ldi	r24, 0xFA	; 250
    3cba:	90 e0       	ldi	r25, 0x00	; 0
    3cbc:	91 83       	std	Z+1, r25	; 0x01
    3cbe:	80 83       	st	Z, r24
    3cc0:	fe 01       	movw	r30, r28
    3cc2:	ed 58       	subi	r30, 0x8D	; 141
    3cc4:	ff 4f       	sbci	r31, 0xFF	; 255
    3cc6:	80 81       	ld	r24, Z
    3cc8:	91 81       	ldd	r25, Z+1	; 0x01
    3cca:	01 97       	sbiw	r24, 0x01	; 1
    3ccc:	f1 f7       	brne	.-4      	; 0x3cca <greenSide+0x15d4>
    3cce:	fe 01       	movw	r30, r28
    3cd0:	ed 58       	subi	r30, 0x8D	; 141
    3cd2:	ff 4f       	sbci	r31, 0xFF	; 255
    3cd4:	91 83       	std	Z+1, r25	; 0x01
    3cd6:	80 83       	st	Z, r24
    3cd8:	de 01       	movw	r26, r28
    3cda:	ab 58       	subi	r26, 0x8B	; 139
    3cdc:	bf 4f       	sbci	r27, 0xFF	; 255
    3cde:	fe 01       	movw	r30, r28
    3ce0:	eb 58       	subi	r30, 0x8B	; 139
    3ce2:	ff 4f       	sbci	r31, 0xFF	; 255
    3ce4:	80 81       	ld	r24, Z
    3ce6:	91 81       	ldd	r25, Z+1	; 0x01
    3ce8:	01 97       	sbiw	r24, 0x01	; 1
    3cea:	11 96       	adiw	r26, 0x01	; 1
    3cec:	9c 93       	st	X, r25
    3cee:	8e 93       	st	-X, r24
    3cf0:	fe 01       	movw	r30, r28
    3cf2:	eb 58       	subi	r30, 0x8B	; 139
    3cf4:	ff 4f       	sbci	r31, 0xFF	; 255
    3cf6:	80 81       	ld	r24, Z
    3cf8:	91 81       	ldd	r25, Z+1	; 0x01
    3cfa:	00 97       	sbiw	r24, 0x00	; 0
    3cfc:	d1 f6       	brne	.-76     	; 0x3cb2 <greenSide+0x15bc>
    3cfe:	27 c0       	rjmp	.+78     	; 0x3d4e <greenSide+0x1658>
    3d00:	8e 01       	movw	r16, r28
    3d02:	0b 58       	subi	r16, 0x8B	; 139
    3d04:	1f 4f       	sbci	r17, 0xFF	; 255
    3d06:	fe 01       	movw	r30, r28
    3d08:	e9 58       	subi	r30, 0x89	; 137
    3d0a:	ff 4f       	sbci	r31, 0xFF	; 255
    3d0c:	60 81       	ld	r22, Z
    3d0e:	71 81       	ldd	r23, Z+1	; 0x01
    3d10:	82 81       	ldd	r24, Z+2	; 0x02
    3d12:	93 81       	ldd	r25, Z+3	; 0x03
    3d14:	0e 94 70 41 	call	0x82e0	; 0x82e0 <__fixunssfsi>
    3d18:	dc 01       	movw	r26, r24
    3d1a:	cb 01       	movw	r24, r22
    3d1c:	f8 01       	movw	r30, r16
    3d1e:	91 83       	std	Z+1, r25	; 0x01
    3d20:	80 83       	st	Z, r24
    3d22:	de 01       	movw	r26, r28
    3d24:	af 58       	subi	r26, 0x8F	; 143
    3d26:	bf 4f       	sbci	r27, 0xFF	; 255
    3d28:	fe 01       	movw	r30, r28
    3d2a:	eb 58       	subi	r30, 0x8B	; 139
    3d2c:	ff 4f       	sbci	r31, 0xFF	; 255
    3d2e:	80 81       	ld	r24, Z
    3d30:	91 81       	ldd	r25, Z+1	; 0x01
    3d32:	8d 93       	st	X+, r24
    3d34:	9c 93       	st	X, r25
    3d36:	fe 01       	movw	r30, r28
    3d38:	ef 58       	subi	r30, 0x8F	; 143
    3d3a:	ff 4f       	sbci	r31, 0xFF	; 255
    3d3c:	80 81       	ld	r24, Z
    3d3e:	91 81       	ldd	r25, Z+1	; 0x01
    3d40:	01 97       	sbiw	r24, 0x01	; 1
    3d42:	f1 f7       	brne	.-4      	; 0x3d40 <greenSide+0x164a>
    3d44:	fe 01       	movw	r30, r28
    3d46:	ef 58       	subi	r30, 0x8F	; 143
    3d48:	ff 4f       	sbci	r31, 0xFF	; 255
    3d4a:	91 83       	std	Z+1, r25	; 0x01
    3d4c:	80 83       	st	Z, r24
    3d4e:	84 e6       	ldi	r24, 0x64	; 100
    3d50:	90 e0       	ldi	r25, 0x00	; 0
    3d52:	62 e3       	ldi	r22, 0x32	; 50
    3d54:	40 e0       	ldi	r20, 0x00	; 0
    3d56:	50 e0       	ldi	r21, 0x00	; 0
    3d58:	20 d6       	rcall	.+3136   	; 0x499a <moveOnDirection>
    3d5a:	fe 01       	movw	r30, r28
    3d5c:	e3 59       	subi	r30, 0x93	; 147
    3d5e:	ff 4f       	sbci	r31, 0xFF	; 255
    3d60:	80 e0       	ldi	r24, 0x00	; 0
    3d62:	90 e0       	ldi	r25, 0x00	; 0
    3d64:	a8 ec       	ldi	r26, 0xC8	; 200
    3d66:	b2 e4       	ldi	r27, 0x42	; 66
    3d68:	80 83       	st	Z, r24
    3d6a:	91 83       	std	Z+1, r25	; 0x01
    3d6c:	a2 83       	std	Z+2, r26	; 0x02
    3d6e:	b3 83       	std	Z+3, r27	; 0x03
    3d70:	8e 01       	movw	r16, r28
    3d72:	07 59       	subi	r16, 0x97	; 151
    3d74:	1f 4f       	sbci	r17, 0xFF	; 255
    3d76:	fe 01       	movw	r30, r28
    3d78:	e3 59       	subi	r30, 0x93	; 147
    3d7a:	ff 4f       	sbci	r31, 0xFF	; 255
    3d7c:	60 81       	ld	r22, Z
    3d7e:	71 81       	ldd	r23, Z+1	; 0x01
    3d80:	82 81       	ldd	r24, Z+2	; 0x02
    3d82:	93 81       	ldd	r25, Z+3	; 0x03
    3d84:	20 e0       	ldi	r18, 0x00	; 0
    3d86:	30 e4       	ldi	r19, 0x40	; 64
    3d88:	4c e1       	ldi	r20, 0x1C	; 28
    3d8a:	55 e4       	ldi	r21, 0x45	; 69
    3d8c:	0e 94 90 42 	call	0x8520	; 0x8520 <__mulsf3>
    3d90:	dc 01       	movw	r26, r24
    3d92:	cb 01       	movw	r24, r22
    3d94:	f8 01       	movw	r30, r16
    3d96:	80 83       	st	Z, r24
    3d98:	91 83       	std	Z+1, r25	; 0x01
    3d9a:	a2 83       	std	Z+2, r26	; 0x02
    3d9c:	b3 83       	std	Z+3, r27	; 0x03
    3d9e:	fe 01       	movw	r30, r28
    3da0:	e7 59       	subi	r30, 0x97	; 151
    3da2:	ff 4f       	sbci	r31, 0xFF	; 255
    3da4:	60 81       	ld	r22, Z
    3da6:	71 81       	ldd	r23, Z+1	; 0x01
    3da8:	82 81       	ldd	r24, Z+2	; 0x02
    3daa:	93 81       	ldd	r25, Z+3	; 0x03
    3dac:	20 e0       	ldi	r18, 0x00	; 0
    3dae:	30 e0       	ldi	r19, 0x00	; 0
    3db0:	40 e8       	ldi	r20, 0x80	; 128
    3db2:	5f e3       	ldi	r21, 0x3F	; 63
    3db4:	0e 94 04 41 	call	0x8208	; 0x8208 <__cmpsf2>
    3db8:	88 23       	and	r24, r24
    3dba:	44 f4       	brge	.+16     	; 0x3dcc <greenSide+0x16d6>
    3dbc:	fe 01       	movw	r30, r28
    3dbe:	e9 59       	subi	r30, 0x99	; 153
    3dc0:	ff 4f       	sbci	r31, 0xFF	; 255
    3dc2:	81 e0       	ldi	r24, 0x01	; 1
    3dc4:	90 e0       	ldi	r25, 0x00	; 0
    3dc6:	91 83       	std	Z+1, r25	; 0x01
    3dc8:	80 83       	st	Z, r24
    3dca:	64 c0       	rjmp	.+200    	; 0x3e94 <greenSide+0x179e>
    3dcc:	fe 01       	movw	r30, r28
    3dce:	e7 59       	subi	r30, 0x97	; 151
    3dd0:	ff 4f       	sbci	r31, 0xFF	; 255
    3dd2:	60 81       	ld	r22, Z
    3dd4:	71 81       	ldd	r23, Z+1	; 0x01
    3dd6:	82 81       	ldd	r24, Z+2	; 0x02
    3dd8:	93 81       	ldd	r25, Z+3	; 0x03
    3dda:	20 e0       	ldi	r18, 0x00	; 0
    3ddc:	3f ef       	ldi	r19, 0xFF	; 255
    3dde:	4f e7       	ldi	r20, 0x7F	; 127
    3de0:	57 e4       	ldi	r21, 0x47	; 71
    3de2:	0e 94 8c 42 	call	0x8518	; 0x8518 <__gesf2>
    3de6:	18 16       	cp	r1, r24
    3de8:	0c f0       	brlt	.+2      	; 0x3dec <greenSide+0x16f6>
    3dea:	43 c0       	rjmp	.+134    	; 0x3e72 <greenSide+0x177c>
    3dec:	fe 01       	movw	r30, r28
    3dee:	e3 59       	subi	r30, 0x93	; 147
    3df0:	ff 4f       	sbci	r31, 0xFF	; 255
    3df2:	60 81       	ld	r22, Z
    3df4:	71 81       	ldd	r23, Z+1	; 0x01
    3df6:	82 81       	ldd	r24, Z+2	; 0x02
    3df8:	93 81       	ldd	r25, Z+3	; 0x03
    3dfa:	20 e0       	ldi	r18, 0x00	; 0
    3dfc:	30 e0       	ldi	r19, 0x00	; 0
    3dfe:	40 e2       	ldi	r20, 0x20	; 32
    3e00:	51 e4       	ldi	r21, 0x41	; 65
    3e02:	0e 94 90 42 	call	0x8520	; 0x8520 <__mulsf3>
    3e06:	dc 01       	movw	r26, r24
    3e08:	cb 01       	movw	r24, r22
    3e0a:	8e 01       	movw	r16, r28
    3e0c:	09 59       	subi	r16, 0x99	; 153
    3e0e:	1f 4f       	sbci	r17, 0xFF	; 255
    3e10:	bc 01       	movw	r22, r24
    3e12:	cd 01       	movw	r24, r26
    3e14:	0e 94 70 41 	call	0x82e0	; 0x82e0 <__fixunssfsi>
    3e18:	dc 01       	movw	r26, r24
    3e1a:	cb 01       	movw	r24, r22
    3e1c:	f8 01       	movw	r30, r16
    3e1e:	91 83       	std	Z+1, r25	; 0x01
    3e20:	80 83       	st	Z, r24
    3e22:	1f c0       	rjmp	.+62     	; 0x3e62 <greenSide+0x176c>
    3e24:	fe 01       	movw	r30, r28
    3e26:	eb 59       	subi	r30, 0x9B	; 155
    3e28:	ff 4f       	sbci	r31, 0xFF	; 255
    3e2a:	8a ef       	ldi	r24, 0xFA	; 250
    3e2c:	90 e0       	ldi	r25, 0x00	; 0
    3e2e:	91 83       	std	Z+1, r25	; 0x01
    3e30:	80 83       	st	Z, r24
    3e32:	fe 01       	movw	r30, r28
    3e34:	eb 59       	subi	r30, 0x9B	; 155
    3e36:	ff 4f       	sbci	r31, 0xFF	; 255
    3e38:	80 81       	ld	r24, Z
    3e3a:	91 81       	ldd	r25, Z+1	; 0x01
    3e3c:	01 97       	sbiw	r24, 0x01	; 1
    3e3e:	f1 f7       	brne	.-4      	; 0x3e3c <greenSide+0x1746>
    3e40:	fe 01       	movw	r30, r28
    3e42:	eb 59       	subi	r30, 0x9B	; 155
    3e44:	ff 4f       	sbci	r31, 0xFF	; 255
    3e46:	91 83       	std	Z+1, r25	; 0x01
    3e48:	80 83       	st	Z, r24
    3e4a:	de 01       	movw	r26, r28
    3e4c:	a9 59       	subi	r26, 0x99	; 153
    3e4e:	bf 4f       	sbci	r27, 0xFF	; 255
    3e50:	fe 01       	movw	r30, r28
    3e52:	e9 59       	subi	r30, 0x99	; 153
    3e54:	ff 4f       	sbci	r31, 0xFF	; 255
    3e56:	80 81       	ld	r24, Z
    3e58:	91 81       	ldd	r25, Z+1	; 0x01
    3e5a:	01 97       	sbiw	r24, 0x01	; 1
    3e5c:	11 96       	adiw	r26, 0x01	; 1
    3e5e:	9c 93       	st	X, r25
    3e60:	8e 93       	st	-X, r24
    3e62:	fe 01       	movw	r30, r28
    3e64:	e9 59       	subi	r30, 0x99	; 153
    3e66:	ff 4f       	sbci	r31, 0xFF	; 255
    3e68:	80 81       	ld	r24, Z
    3e6a:	91 81       	ldd	r25, Z+1	; 0x01
    3e6c:	00 97       	sbiw	r24, 0x00	; 0
    3e6e:	d1 f6       	brne	.-76     	; 0x3e24 <greenSide+0x172e>
    3e70:	27 c0       	rjmp	.+78     	; 0x3ec0 <greenSide+0x17ca>
    3e72:	8e 01       	movw	r16, r28
    3e74:	09 59       	subi	r16, 0x99	; 153
    3e76:	1f 4f       	sbci	r17, 0xFF	; 255
    3e78:	fe 01       	movw	r30, r28
    3e7a:	e7 59       	subi	r30, 0x97	; 151
    3e7c:	ff 4f       	sbci	r31, 0xFF	; 255
    3e7e:	60 81       	ld	r22, Z
    3e80:	71 81       	ldd	r23, Z+1	; 0x01
    3e82:	82 81       	ldd	r24, Z+2	; 0x02
    3e84:	93 81       	ldd	r25, Z+3	; 0x03
    3e86:	0e 94 70 41 	call	0x82e0	; 0x82e0 <__fixunssfsi>
    3e8a:	dc 01       	movw	r26, r24
    3e8c:	cb 01       	movw	r24, r22
    3e8e:	f8 01       	movw	r30, r16
    3e90:	91 83       	std	Z+1, r25	; 0x01
    3e92:	80 83       	st	Z, r24
    3e94:	de 01       	movw	r26, r28
    3e96:	ad 59       	subi	r26, 0x9D	; 157
    3e98:	bf 4f       	sbci	r27, 0xFF	; 255
    3e9a:	fe 01       	movw	r30, r28
    3e9c:	e9 59       	subi	r30, 0x99	; 153
    3e9e:	ff 4f       	sbci	r31, 0xFF	; 255
    3ea0:	80 81       	ld	r24, Z
    3ea2:	91 81       	ldd	r25, Z+1	; 0x01
    3ea4:	8d 93       	st	X+, r24
    3ea6:	9c 93       	st	X, r25
    3ea8:	fe 01       	movw	r30, r28
    3eaa:	ed 59       	subi	r30, 0x9D	; 157
    3eac:	ff 4f       	sbci	r31, 0xFF	; 255
    3eae:	80 81       	ld	r24, Z
    3eb0:	91 81       	ldd	r25, Z+1	; 0x01
    3eb2:	01 97       	sbiw	r24, 0x01	; 1
    3eb4:	f1 f7       	brne	.-4      	; 0x3eb2 <greenSide+0x17bc>
    3eb6:	fe 01       	movw	r30, r28
    3eb8:	ed 59       	subi	r30, 0x9D	; 157
    3eba:	ff 4f       	sbci	r31, 0xFF	; 255
    3ebc:	91 83       	std	Z+1, r25	; 0x01
    3ebe:	80 83       	st	Z, r24
    3ec0:	8f ef       	ldi	r24, 0xFF	; 255
    3ec2:	61 e0       	ldi	r22, 0x01	; 1
    3ec4:	0e 94 01 08 	call	0x1002	; 0x1002 <colectThePopcorn>
    3ec8:	fe 01       	movw	r30, r28
    3eca:	e1 5a       	subi	r30, 0xA1	; 161
    3ecc:	ff 4f       	sbci	r31, 0xFF	; 255
    3ece:	80 e0       	ldi	r24, 0x00	; 0
    3ed0:	90 e0       	ldi	r25, 0x00	; 0
    3ed2:	a8 ec       	ldi	r26, 0xC8	; 200
    3ed4:	b2 e4       	ldi	r27, 0x42	; 66
    3ed6:	80 83       	st	Z, r24
    3ed8:	91 83       	std	Z+1, r25	; 0x01
    3eda:	a2 83       	std	Z+2, r26	; 0x02
    3edc:	b3 83       	std	Z+3, r27	; 0x03
    3ede:	8e 01       	movw	r16, r28
    3ee0:	05 5a       	subi	r16, 0xA5	; 165
    3ee2:	1f 4f       	sbci	r17, 0xFF	; 255
    3ee4:	fe 01       	movw	r30, r28
    3ee6:	e1 5a       	subi	r30, 0xA1	; 161
    3ee8:	ff 4f       	sbci	r31, 0xFF	; 255
    3eea:	60 81       	ld	r22, Z
    3eec:	71 81       	ldd	r23, Z+1	; 0x01
    3eee:	82 81       	ldd	r24, Z+2	; 0x02
    3ef0:	93 81       	ldd	r25, Z+3	; 0x03
    3ef2:	20 e0       	ldi	r18, 0x00	; 0
    3ef4:	30 e4       	ldi	r19, 0x40	; 64
    3ef6:	4c e1       	ldi	r20, 0x1C	; 28
    3ef8:	55 e4       	ldi	r21, 0x45	; 69
    3efa:	0e 94 90 42 	call	0x8520	; 0x8520 <__mulsf3>
    3efe:	dc 01       	movw	r26, r24
    3f00:	cb 01       	movw	r24, r22
    3f02:	f8 01       	movw	r30, r16
    3f04:	80 83       	st	Z, r24
    3f06:	91 83       	std	Z+1, r25	; 0x01
    3f08:	a2 83       	std	Z+2, r26	; 0x02
    3f0a:	b3 83       	std	Z+3, r27	; 0x03
    3f0c:	fe 01       	movw	r30, r28
    3f0e:	e5 5a       	subi	r30, 0xA5	; 165
    3f10:	ff 4f       	sbci	r31, 0xFF	; 255
    3f12:	60 81       	ld	r22, Z
    3f14:	71 81       	ldd	r23, Z+1	; 0x01
    3f16:	82 81       	ldd	r24, Z+2	; 0x02
    3f18:	93 81       	ldd	r25, Z+3	; 0x03
    3f1a:	20 e0       	ldi	r18, 0x00	; 0
    3f1c:	30 e0       	ldi	r19, 0x00	; 0
    3f1e:	40 e8       	ldi	r20, 0x80	; 128
    3f20:	5f e3       	ldi	r21, 0x3F	; 63
    3f22:	0e 94 04 41 	call	0x8208	; 0x8208 <__cmpsf2>
    3f26:	88 23       	and	r24, r24
    3f28:	44 f4       	brge	.+16     	; 0x3f3a <greenSide+0x1844>
    3f2a:	fe 01       	movw	r30, r28
    3f2c:	e7 5a       	subi	r30, 0xA7	; 167
    3f2e:	ff 4f       	sbci	r31, 0xFF	; 255
    3f30:	81 e0       	ldi	r24, 0x01	; 1
    3f32:	90 e0       	ldi	r25, 0x00	; 0
    3f34:	91 83       	std	Z+1, r25	; 0x01
    3f36:	80 83       	st	Z, r24
    3f38:	64 c0       	rjmp	.+200    	; 0x4002 <greenSide+0x190c>
    3f3a:	fe 01       	movw	r30, r28
    3f3c:	e5 5a       	subi	r30, 0xA5	; 165
    3f3e:	ff 4f       	sbci	r31, 0xFF	; 255
    3f40:	60 81       	ld	r22, Z
    3f42:	71 81       	ldd	r23, Z+1	; 0x01
    3f44:	82 81       	ldd	r24, Z+2	; 0x02
    3f46:	93 81       	ldd	r25, Z+3	; 0x03
    3f48:	20 e0       	ldi	r18, 0x00	; 0
    3f4a:	3f ef       	ldi	r19, 0xFF	; 255
    3f4c:	4f e7       	ldi	r20, 0x7F	; 127
    3f4e:	57 e4       	ldi	r21, 0x47	; 71
    3f50:	0e 94 8c 42 	call	0x8518	; 0x8518 <__gesf2>
    3f54:	18 16       	cp	r1, r24
    3f56:	0c f0       	brlt	.+2      	; 0x3f5a <greenSide+0x1864>
    3f58:	43 c0       	rjmp	.+134    	; 0x3fe0 <greenSide+0x18ea>
    3f5a:	fe 01       	movw	r30, r28
    3f5c:	e1 5a       	subi	r30, 0xA1	; 161
    3f5e:	ff 4f       	sbci	r31, 0xFF	; 255
    3f60:	60 81       	ld	r22, Z
    3f62:	71 81       	ldd	r23, Z+1	; 0x01
    3f64:	82 81       	ldd	r24, Z+2	; 0x02
    3f66:	93 81       	ldd	r25, Z+3	; 0x03
    3f68:	20 e0       	ldi	r18, 0x00	; 0
    3f6a:	30 e0       	ldi	r19, 0x00	; 0
    3f6c:	40 e2       	ldi	r20, 0x20	; 32
    3f6e:	51 e4       	ldi	r21, 0x41	; 65
    3f70:	0e 94 90 42 	call	0x8520	; 0x8520 <__mulsf3>
    3f74:	dc 01       	movw	r26, r24
    3f76:	cb 01       	movw	r24, r22
    3f78:	8e 01       	movw	r16, r28
    3f7a:	07 5a       	subi	r16, 0xA7	; 167
    3f7c:	1f 4f       	sbci	r17, 0xFF	; 255
    3f7e:	bc 01       	movw	r22, r24
    3f80:	cd 01       	movw	r24, r26
    3f82:	0e 94 70 41 	call	0x82e0	; 0x82e0 <__fixunssfsi>
    3f86:	dc 01       	movw	r26, r24
    3f88:	cb 01       	movw	r24, r22
    3f8a:	f8 01       	movw	r30, r16
    3f8c:	91 83       	std	Z+1, r25	; 0x01
    3f8e:	80 83       	st	Z, r24
    3f90:	1f c0       	rjmp	.+62     	; 0x3fd0 <greenSide+0x18da>
    3f92:	fe 01       	movw	r30, r28
    3f94:	e9 5a       	subi	r30, 0xA9	; 169
    3f96:	ff 4f       	sbci	r31, 0xFF	; 255
    3f98:	8a ef       	ldi	r24, 0xFA	; 250
    3f9a:	90 e0       	ldi	r25, 0x00	; 0
    3f9c:	91 83       	std	Z+1, r25	; 0x01
    3f9e:	80 83       	st	Z, r24
    3fa0:	fe 01       	movw	r30, r28
    3fa2:	e9 5a       	subi	r30, 0xA9	; 169
    3fa4:	ff 4f       	sbci	r31, 0xFF	; 255
    3fa6:	80 81       	ld	r24, Z
    3fa8:	91 81       	ldd	r25, Z+1	; 0x01
    3faa:	01 97       	sbiw	r24, 0x01	; 1
    3fac:	f1 f7       	brne	.-4      	; 0x3faa <greenSide+0x18b4>
    3fae:	fe 01       	movw	r30, r28
    3fb0:	e9 5a       	subi	r30, 0xA9	; 169
    3fb2:	ff 4f       	sbci	r31, 0xFF	; 255
    3fb4:	91 83       	std	Z+1, r25	; 0x01
    3fb6:	80 83       	st	Z, r24
    3fb8:	de 01       	movw	r26, r28
    3fba:	a7 5a       	subi	r26, 0xA7	; 167
    3fbc:	bf 4f       	sbci	r27, 0xFF	; 255
    3fbe:	fe 01       	movw	r30, r28
    3fc0:	e7 5a       	subi	r30, 0xA7	; 167
    3fc2:	ff 4f       	sbci	r31, 0xFF	; 255
    3fc4:	80 81       	ld	r24, Z
    3fc6:	91 81       	ldd	r25, Z+1	; 0x01
    3fc8:	01 97       	sbiw	r24, 0x01	; 1
    3fca:	11 96       	adiw	r26, 0x01	; 1
    3fcc:	9c 93       	st	X, r25
    3fce:	8e 93       	st	-X, r24
    3fd0:	fe 01       	movw	r30, r28
    3fd2:	e7 5a       	subi	r30, 0xA7	; 167
    3fd4:	ff 4f       	sbci	r31, 0xFF	; 255
    3fd6:	80 81       	ld	r24, Z
    3fd8:	91 81       	ldd	r25, Z+1	; 0x01
    3fda:	00 97       	sbiw	r24, 0x00	; 0
    3fdc:	d1 f6       	brne	.-76     	; 0x3f92 <greenSide+0x189c>
    3fde:	27 c0       	rjmp	.+78     	; 0x402e <greenSide+0x1938>
    3fe0:	8e 01       	movw	r16, r28
    3fe2:	07 5a       	subi	r16, 0xA7	; 167
    3fe4:	1f 4f       	sbci	r17, 0xFF	; 255
    3fe6:	fe 01       	movw	r30, r28
    3fe8:	e5 5a       	subi	r30, 0xA5	; 165
    3fea:	ff 4f       	sbci	r31, 0xFF	; 255
    3fec:	60 81       	ld	r22, Z
    3fee:	71 81       	ldd	r23, Z+1	; 0x01
    3ff0:	82 81       	ldd	r24, Z+2	; 0x02
    3ff2:	93 81       	ldd	r25, Z+3	; 0x03
    3ff4:	0e 94 70 41 	call	0x82e0	; 0x82e0 <__fixunssfsi>
    3ff8:	dc 01       	movw	r26, r24
    3ffa:	cb 01       	movw	r24, r22
    3ffc:	f8 01       	movw	r30, r16
    3ffe:	91 83       	std	Z+1, r25	; 0x01
    4000:	80 83       	st	Z, r24
    4002:	de 01       	movw	r26, r28
    4004:	ab 5a       	subi	r26, 0xAB	; 171
    4006:	bf 4f       	sbci	r27, 0xFF	; 255
    4008:	fe 01       	movw	r30, r28
    400a:	e7 5a       	subi	r30, 0xA7	; 167
    400c:	ff 4f       	sbci	r31, 0xFF	; 255
    400e:	80 81       	ld	r24, Z
    4010:	91 81       	ldd	r25, Z+1	; 0x01
    4012:	8d 93       	st	X+, r24
    4014:	9c 93       	st	X, r25
    4016:	fe 01       	movw	r30, r28
    4018:	eb 5a       	subi	r30, 0xAB	; 171
    401a:	ff 4f       	sbci	r31, 0xFF	; 255
    401c:	80 81       	ld	r24, Z
    401e:	91 81       	ldd	r25, Z+1	; 0x01
    4020:	01 97       	sbiw	r24, 0x01	; 1
    4022:	f1 f7       	brne	.-4      	; 0x4020 <greenSide+0x192a>
    4024:	fe 01       	movw	r30, r28
    4026:	eb 5a       	subi	r30, 0xAB	; 171
    4028:	ff 4f       	sbci	r31, 0xFF	; 255
    402a:	91 83       	std	Z+1, r25	; 0x01
    402c:	80 83       	st	Z, r24
    402e:	8a e1       	ldi	r24, 0x1A	; 26
    4030:	9f ef       	ldi	r25, 0xFF	; 255
    4032:	66 e9       	ldi	r22, 0x96	; 150
    4034:	40 e0       	ldi	r20, 0x00	; 0
    4036:	50 e0       	ldi	r21, 0x00	; 0
    4038:	b0 d4       	rcall	.+2400   	; 0x499a <moveOnDirection>
    403a:	8f ef       	ldi	r24, 0xFF	; 255
    403c:	62 e0       	ldi	r22, 0x02	; 2
    403e:	0e 94 01 08 	call	0x1002	; 0x1002 <colectThePopcorn>
    4042:	81 e0       	ldi	r24, 0x01	; 1
    4044:	6f ef       	ldi	r22, 0xFF	; 255
    4046:	0e 94 14 0e 	call	0x1c28	; 0x1c28 <liftMove>
    404a:	8c e4       	ldi	r24, 0x4C	; 76
    404c:	9f ef       	ldi	r25, 0xFF	; 255
    404e:	66 e9       	ldi	r22, 0x96	; 150
    4050:	40 e0       	ldi	r20, 0x00	; 0
    4052:	50 e0       	ldi	r21, 0x00	; 0
    4054:	0e 94 9a 2b 	call	0x5734	; 0x5734 <rotate>
    4058:	61 c3       	rjmp	.+1730   	; 0x471c <greenSide+0x2026>
    405a:	fe 01       	movw	r30, r28
    405c:	e6 5d       	subi	r30, 0xD6	; 214
    405e:	fe 4f       	sbci	r31, 0xFE	; 254
    4060:	80 81       	ld	r24, Z
    4062:	88 30       	cpi	r24, 0x08	; 8
    4064:	09 f0       	breq	.+2      	; 0x4068 <greenSide+0x1972>
    4066:	38 c2       	rjmp	.+1136   	; 0x44d8 <greenSide+0x1de2>
    4068:	8f ef       	ldi	r24, 0xFF	; 255
    406a:	6f ef       	ldi	r22, 0xFF	; 255
    406c:	0e 94 14 0e 	call	0x1c28	; 0x1c28 <liftMove>
    4070:	fe 01       	movw	r30, r28
    4072:	ef 5a       	subi	r30, 0xAF	; 175
    4074:	ff 4f       	sbci	r31, 0xFF	; 255
    4076:	80 e0       	ldi	r24, 0x00	; 0
    4078:	90 e0       	ldi	r25, 0x00	; 0
    407a:	aa ef       	ldi	r26, 0xFA	; 250
    407c:	b3 e4       	ldi	r27, 0x43	; 67
    407e:	80 83       	st	Z, r24
    4080:	91 83       	std	Z+1, r25	; 0x01
    4082:	a2 83       	std	Z+2, r26	; 0x02
    4084:	b3 83       	std	Z+3, r27	; 0x03
    4086:	8e 01       	movw	r16, r28
    4088:	03 5b       	subi	r16, 0xB3	; 179
    408a:	1f 4f       	sbci	r17, 0xFF	; 255
    408c:	fe 01       	movw	r30, r28
    408e:	ef 5a       	subi	r30, 0xAF	; 175
    4090:	ff 4f       	sbci	r31, 0xFF	; 255
    4092:	60 81       	ld	r22, Z
    4094:	71 81       	ldd	r23, Z+1	; 0x01
    4096:	82 81       	ldd	r24, Z+2	; 0x02
    4098:	93 81       	ldd	r25, Z+3	; 0x03
    409a:	20 e0       	ldi	r18, 0x00	; 0
    409c:	30 e4       	ldi	r19, 0x40	; 64
    409e:	4c e1       	ldi	r20, 0x1C	; 28
    40a0:	55 e4       	ldi	r21, 0x45	; 69
    40a2:	0e 94 90 42 	call	0x8520	; 0x8520 <__mulsf3>
    40a6:	dc 01       	movw	r26, r24
    40a8:	cb 01       	movw	r24, r22
    40aa:	f8 01       	movw	r30, r16
    40ac:	80 83       	st	Z, r24
    40ae:	91 83       	std	Z+1, r25	; 0x01
    40b0:	a2 83       	std	Z+2, r26	; 0x02
    40b2:	b3 83       	std	Z+3, r27	; 0x03
    40b4:	fe 01       	movw	r30, r28
    40b6:	e3 5b       	subi	r30, 0xB3	; 179
    40b8:	ff 4f       	sbci	r31, 0xFF	; 255
    40ba:	60 81       	ld	r22, Z
    40bc:	71 81       	ldd	r23, Z+1	; 0x01
    40be:	82 81       	ldd	r24, Z+2	; 0x02
    40c0:	93 81       	ldd	r25, Z+3	; 0x03
    40c2:	20 e0       	ldi	r18, 0x00	; 0
    40c4:	30 e0       	ldi	r19, 0x00	; 0
    40c6:	40 e8       	ldi	r20, 0x80	; 128
    40c8:	5f e3       	ldi	r21, 0x3F	; 63
    40ca:	0e 94 04 41 	call	0x8208	; 0x8208 <__cmpsf2>
    40ce:	88 23       	and	r24, r24
    40d0:	44 f4       	brge	.+16     	; 0x40e2 <greenSide+0x19ec>
    40d2:	fe 01       	movw	r30, r28
    40d4:	e5 5b       	subi	r30, 0xB5	; 181
    40d6:	ff 4f       	sbci	r31, 0xFF	; 255
    40d8:	81 e0       	ldi	r24, 0x01	; 1
    40da:	90 e0       	ldi	r25, 0x00	; 0
    40dc:	91 83       	std	Z+1, r25	; 0x01
    40de:	80 83       	st	Z, r24
    40e0:	64 c0       	rjmp	.+200    	; 0x41aa <greenSide+0x1ab4>
    40e2:	fe 01       	movw	r30, r28
    40e4:	e3 5b       	subi	r30, 0xB3	; 179
    40e6:	ff 4f       	sbci	r31, 0xFF	; 255
    40e8:	60 81       	ld	r22, Z
    40ea:	71 81       	ldd	r23, Z+1	; 0x01
    40ec:	82 81       	ldd	r24, Z+2	; 0x02
    40ee:	93 81       	ldd	r25, Z+3	; 0x03
    40f0:	20 e0       	ldi	r18, 0x00	; 0
    40f2:	3f ef       	ldi	r19, 0xFF	; 255
    40f4:	4f e7       	ldi	r20, 0x7F	; 127
    40f6:	57 e4       	ldi	r21, 0x47	; 71
    40f8:	0e 94 8c 42 	call	0x8518	; 0x8518 <__gesf2>
    40fc:	18 16       	cp	r1, r24
    40fe:	0c f0       	brlt	.+2      	; 0x4102 <greenSide+0x1a0c>
    4100:	43 c0       	rjmp	.+134    	; 0x4188 <greenSide+0x1a92>
    4102:	fe 01       	movw	r30, r28
    4104:	ef 5a       	subi	r30, 0xAF	; 175
    4106:	ff 4f       	sbci	r31, 0xFF	; 255
    4108:	60 81       	ld	r22, Z
    410a:	71 81       	ldd	r23, Z+1	; 0x01
    410c:	82 81       	ldd	r24, Z+2	; 0x02
    410e:	93 81       	ldd	r25, Z+3	; 0x03
    4110:	20 e0       	ldi	r18, 0x00	; 0
    4112:	30 e0       	ldi	r19, 0x00	; 0
    4114:	40 e2       	ldi	r20, 0x20	; 32
    4116:	51 e4       	ldi	r21, 0x41	; 65
    4118:	0e 94 90 42 	call	0x8520	; 0x8520 <__mulsf3>
    411c:	dc 01       	movw	r26, r24
    411e:	cb 01       	movw	r24, r22
    4120:	8e 01       	movw	r16, r28
    4122:	05 5b       	subi	r16, 0xB5	; 181
    4124:	1f 4f       	sbci	r17, 0xFF	; 255
    4126:	bc 01       	movw	r22, r24
    4128:	cd 01       	movw	r24, r26
    412a:	0e 94 70 41 	call	0x82e0	; 0x82e0 <__fixunssfsi>
    412e:	dc 01       	movw	r26, r24
    4130:	cb 01       	movw	r24, r22
    4132:	f8 01       	movw	r30, r16
    4134:	91 83       	std	Z+1, r25	; 0x01
    4136:	80 83       	st	Z, r24
    4138:	1f c0       	rjmp	.+62     	; 0x4178 <greenSide+0x1a82>
    413a:	fe 01       	movw	r30, r28
    413c:	e7 5b       	subi	r30, 0xB7	; 183
    413e:	ff 4f       	sbci	r31, 0xFF	; 255
    4140:	8a ef       	ldi	r24, 0xFA	; 250
    4142:	90 e0       	ldi	r25, 0x00	; 0
    4144:	91 83       	std	Z+1, r25	; 0x01
    4146:	80 83       	st	Z, r24
    4148:	fe 01       	movw	r30, r28
    414a:	e7 5b       	subi	r30, 0xB7	; 183
    414c:	ff 4f       	sbci	r31, 0xFF	; 255
    414e:	80 81       	ld	r24, Z
    4150:	91 81       	ldd	r25, Z+1	; 0x01
    4152:	01 97       	sbiw	r24, 0x01	; 1
    4154:	f1 f7       	brne	.-4      	; 0x4152 <greenSide+0x1a5c>
    4156:	fe 01       	movw	r30, r28
    4158:	e7 5b       	subi	r30, 0xB7	; 183
    415a:	ff 4f       	sbci	r31, 0xFF	; 255
    415c:	91 83       	std	Z+1, r25	; 0x01
    415e:	80 83       	st	Z, r24
    4160:	de 01       	movw	r26, r28
    4162:	a5 5b       	subi	r26, 0xB5	; 181
    4164:	bf 4f       	sbci	r27, 0xFF	; 255
    4166:	fe 01       	movw	r30, r28
    4168:	e5 5b       	subi	r30, 0xB5	; 181
    416a:	ff 4f       	sbci	r31, 0xFF	; 255
    416c:	80 81       	ld	r24, Z
    416e:	91 81       	ldd	r25, Z+1	; 0x01
    4170:	01 97       	sbiw	r24, 0x01	; 1
    4172:	11 96       	adiw	r26, 0x01	; 1
    4174:	9c 93       	st	X, r25
    4176:	8e 93       	st	-X, r24
    4178:	fe 01       	movw	r30, r28
    417a:	e5 5b       	subi	r30, 0xB5	; 181
    417c:	ff 4f       	sbci	r31, 0xFF	; 255
    417e:	80 81       	ld	r24, Z
    4180:	91 81       	ldd	r25, Z+1	; 0x01
    4182:	00 97       	sbiw	r24, 0x00	; 0
    4184:	d1 f6       	brne	.-76     	; 0x413a <greenSide+0x1a44>
    4186:	27 c0       	rjmp	.+78     	; 0x41d6 <greenSide+0x1ae0>
    4188:	8e 01       	movw	r16, r28
    418a:	05 5b       	subi	r16, 0xB5	; 181
    418c:	1f 4f       	sbci	r17, 0xFF	; 255
    418e:	fe 01       	movw	r30, r28
    4190:	e3 5b       	subi	r30, 0xB3	; 179
    4192:	ff 4f       	sbci	r31, 0xFF	; 255
    4194:	60 81       	ld	r22, Z
    4196:	71 81       	ldd	r23, Z+1	; 0x01
    4198:	82 81       	ldd	r24, Z+2	; 0x02
    419a:	93 81       	ldd	r25, Z+3	; 0x03
    419c:	0e 94 70 41 	call	0x82e0	; 0x82e0 <__fixunssfsi>
    41a0:	dc 01       	movw	r26, r24
    41a2:	cb 01       	movw	r24, r22
    41a4:	f8 01       	movw	r30, r16
    41a6:	91 83       	std	Z+1, r25	; 0x01
    41a8:	80 83       	st	Z, r24
    41aa:	de 01       	movw	r26, r28
    41ac:	a9 5b       	subi	r26, 0xB9	; 185
    41ae:	bf 4f       	sbci	r27, 0xFF	; 255
    41b0:	fe 01       	movw	r30, r28
    41b2:	e5 5b       	subi	r30, 0xB5	; 181
    41b4:	ff 4f       	sbci	r31, 0xFF	; 255
    41b6:	80 81       	ld	r24, Z
    41b8:	91 81       	ldd	r25, Z+1	; 0x01
    41ba:	8d 93       	st	X+, r24
    41bc:	9c 93       	st	X, r25
    41be:	fe 01       	movw	r30, r28
    41c0:	e9 5b       	subi	r30, 0xB9	; 185
    41c2:	ff 4f       	sbci	r31, 0xFF	; 255
    41c4:	80 81       	ld	r24, Z
    41c6:	91 81       	ldd	r25, Z+1	; 0x01
    41c8:	01 97       	sbiw	r24, 0x01	; 1
    41ca:	f1 f7       	brne	.-4      	; 0x41c8 <greenSide+0x1ad2>
    41cc:	fe 01       	movw	r30, r28
    41ce:	e9 5b       	subi	r30, 0xB9	; 185
    41d0:	ff 4f       	sbci	r31, 0xFF	; 255
    41d2:	91 83       	std	Z+1, r25	; 0x01
    41d4:	80 83       	st	Z, r24
    41d6:	81 e0       	ldi	r24, 0x01	; 1
    41d8:	6f ef       	ldi	r22, 0xFF	; 255
    41da:	0e 94 14 0e 	call	0x1c28	; 0x1c28 <liftMove>
    41de:	fe 01       	movw	r30, r28
    41e0:	ed 5b       	subi	r30, 0xBD	; 189
    41e2:	ff 4f       	sbci	r31, 0xFF	; 255
    41e4:	80 e0       	ldi	r24, 0x00	; 0
    41e6:	90 e0       	ldi	r25, 0x00	; 0
    41e8:	aa ef       	ldi	r26, 0xFA	; 250
    41ea:	b3 e4       	ldi	r27, 0x43	; 67
    41ec:	80 83       	st	Z, r24
    41ee:	91 83       	std	Z+1, r25	; 0x01
    41f0:	a2 83       	std	Z+2, r26	; 0x02
    41f2:	b3 83       	std	Z+3, r27	; 0x03
    41f4:	8e 01       	movw	r16, r28
    41f6:	01 5c       	subi	r16, 0xC1	; 193
    41f8:	1f 4f       	sbci	r17, 0xFF	; 255
    41fa:	fe 01       	movw	r30, r28
    41fc:	ed 5b       	subi	r30, 0xBD	; 189
    41fe:	ff 4f       	sbci	r31, 0xFF	; 255
    4200:	60 81       	ld	r22, Z
    4202:	71 81       	ldd	r23, Z+1	; 0x01
    4204:	82 81       	ldd	r24, Z+2	; 0x02
    4206:	93 81       	ldd	r25, Z+3	; 0x03
    4208:	20 e0       	ldi	r18, 0x00	; 0
    420a:	30 e4       	ldi	r19, 0x40	; 64
    420c:	4c e1       	ldi	r20, 0x1C	; 28
    420e:	55 e4       	ldi	r21, 0x45	; 69
    4210:	0e 94 90 42 	call	0x8520	; 0x8520 <__mulsf3>
    4214:	dc 01       	movw	r26, r24
    4216:	cb 01       	movw	r24, r22
    4218:	f8 01       	movw	r30, r16
    421a:	80 83       	st	Z, r24
    421c:	91 83       	std	Z+1, r25	; 0x01
    421e:	a2 83       	std	Z+2, r26	; 0x02
    4220:	b3 83       	std	Z+3, r27	; 0x03
    4222:	fe 01       	movw	r30, r28
    4224:	ff 96       	adiw	r30, 0x3f	; 63
    4226:	60 81       	ld	r22, Z
    4228:	71 81       	ldd	r23, Z+1	; 0x01
    422a:	82 81       	ldd	r24, Z+2	; 0x02
    422c:	93 81       	ldd	r25, Z+3	; 0x03
    422e:	20 e0       	ldi	r18, 0x00	; 0
    4230:	30 e0       	ldi	r19, 0x00	; 0
    4232:	40 e8       	ldi	r20, 0x80	; 128
    4234:	5f e3       	ldi	r21, 0x3F	; 63
    4236:	0e 94 04 41 	call	0x8208	; 0x8208 <__cmpsf2>
    423a:	88 23       	and	r24, r24
    423c:	2c f4       	brge	.+10     	; 0x4248 <greenSide+0x1b52>
    423e:	81 e0       	ldi	r24, 0x01	; 1
    4240:	90 e0       	ldi	r25, 0x00	; 0
    4242:	9e af       	std	Y+62, r25	; 0x3e
    4244:	8d af       	std	Y+61, r24	; 0x3d
    4246:	46 c0       	rjmp	.+140    	; 0x42d4 <greenSide+0x1bde>
    4248:	fe 01       	movw	r30, r28
    424a:	ff 96       	adiw	r30, 0x3f	; 63
    424c:	60 81       	ld	r22, Z
    424e:	71 81       	ldd	r23, Z+1	; 0x01
    4250:	82 81       	ldd	r24, Z+2	; 0x02
    4252:	93 81       	ldd	r25, Z+3	; 0x03
    4254:	20 e0       	ldi	r18, 0x00	; 0
    4256:	3f ef       	ldi	r19, 0xFF	; 255
    4258:	4f e7       	ldi	r20, 0x7F	; 127
    425a:	57 e4       	ldi	r21, 0x47	; 71
    425c:	0e 94 8c 42 	call	0x8518	; 0x8518 <__gesf2>
    4260:	18 16       	cp	r1, r24
    4262:	64 f5       	brge	.+88     	; 0x42bc <greenSide+0x1bc6>
    4264:	fe 01       	movw	r30, r28
    4266:	ed 5b       	subi	r30, 0xBD	; 189
    4268:	ff 4f       	sbci	r31, 0xFF	; 255
    426a:	60 81       	ld	r22, Z
    426c:	71 81       	ldd	r23, Z+1	; 0x01
    426e:	82 81       	ldd	r24, Z+2	; 0x02
    4270:	93 81       	ldd	r25, Z+3	; 0x03
    4272:	20 e0       	ldi	r18, 0x00	; 0
    4274:	30 e0       	ldi	r19, 0x00	; 0
    4276:	40 e2       	ldi	r20, 0x20	; 32
    4278:	51 e4       	ldi	r21, 0x41	; 65
    427a:	0e 94 90 42 	call	0x8520	; 0x8520 <__mulsf3>
    427e:	dc 01       	movw	r26, r24
    4280:	cb 01       	movw	r24, r22
    4282:	bc 01       	movw	r22, r24
    4284:	cd 01       	movw	r24, r26
    4286:	0e 94 70 41 	call	0x82e0	; 0x82e0 <__fixunssfsi>
    428a:	dc 01       	movw	r26, r24
    428c:	cb 01       	movw	r24, r22
    428e:	9e af       	std	Y+62, r25	; 0x3e
    4290:	8d af       	std	Y+61, r24	; 0x3d
    4292:	0f c0       	rjmp	.+30     	; 0x42b2 <greenSide+0x1bbc>
    4294:	8a ef       	ldi	r24, 0xFA	; 250
    4296:	90 e0       	ldi	r25, 0x00	; 0
    4298:	9c af       	std	Y+60, r25	; 0x3c
    429a:	8b af       	std	Y+59, r24	; 0x3b
    429c:	8b ad       	ldd	r24, Y+59	; 0x3b
    429e:	9c ad       	ldd	r25, Y+60	; 0x3c
    42a0:	01 97       	sbiw	r24, 0x01	; 1
    42a2:	f1 f7       	brne	.-4      	; 0x42a0 <greenSide+0x1baa>
    42a4:	9c af       	std	Y+60, r25	; 0x3c
    42a6:	8b af       	std	Y+59, r24	; 0x3b
    42a8:	8d ad       	ldd	r24, Y+61	; 0x3d
    42aa:	9e ad       	ldd	r25, Y+62	; 0x3e
    42ac:	01 97       	sbiw	r24, 0x01	; 1
    42ae:	9e af       	std	Y+62, r25	; 0x3e
    42b0:	8d af       	std	Y+61, r24	; 0x3d
    42b2:	8d ad       	ldd	r24, Y+61	; 0x3d
    42b4:	9e ad       	ldd	r25, Y+62	; 0x3e
    42b6:	00 97       	sbiw	r24, 0x00	; 0
    42b8:	69 f7       	brne	.-38     	; 0x4294 <greenSide+0x1b9e>
    42ba:	16 c0       	rjmp	.+44     	; 0x42e8 <greenSide+0x1bf2>
    42bc:	fe 01       	movw	r30, r28
    42be:	ff 96       	adiw	r30, 0x3f	; 63
    42c0:	60 81       	ld	r22, Z
    42c2:	71 81       	ldd	r23, Z+1	; 0x01
    42c4:	82 81       	ldd	r24, Z+2	; 0x02
    42c6:	93 81       	ldd	r25, Z+3	; 0x03
    42c8:	0e 94 70 41 	call	0x82e0	; 0x82e0 <__fixunssfsi>
    42cc:	dc 01       	movw	r26, r24
    42ce:	cb 01       	movw	r24, r22
    42d0:	9e af       	std	Y+62, r25	; 0x3e
    42d2:	8d af       	std	Y+61, r24	; 0x3d
    42d4:	8d ad       	ldd	r24, Y+61	; 0x3d
    42d6:	9e ad       	ldd	r25, Y+62	; 0x3e
    42d8:	9a af       	std	Y+58, r25	; 0x3a
    42da:	89 af       	std	Y+57, r24	; 0x39
    42dc:	89 ad       	ldd	r24, Y+57	; 0x39
    42de:	9a ad       	ldd	r25, Y+58	; 0x3a
    42e0:	01 97       	sbiw	r24, 0x01	; 1
    42e2:	f1 f7       	brne	.-4      	; 0x42e0 <greenSide+0x1bea>
    42e4:	9a af       	std	Y+58, r25	; 0x3a
    42e6:	89 af       	std	Y+57, r24	; 0x39
    42e8:	86 e4       	ldi	r24, 0x46	; 70
    42ea:	90 e0       	ldi	r25, 0x00	; 0
    42ec:	62 e3       	ldi	r22, 0x32	; 50
    42ee:	40 e0       	ldi	r20, 0x00	; 0
    42f0:	50 e0       	ldi	r21, 0x00	; 0
    42f2:	53 d3       	rcall	.+1702   	; 0x499a <moveOnDirection>
    42f4:	8f ef       	ldi	r24, 0xFF	; 255
    42f6:	6f ef       	ldi	r22, 0xFF	; 255
    42f8:	0e 94 14 0e 	call	0x1c28	; 0x1c28 <liftMove>
    42fc:	80 e0       	ldi	r24, 0x00	; 0
    42fe:	90 e0       	ldi	r25, 0x00	; 0
    4300:	aa ef       	ldi	r26, 0xFA	; 250
    4302:	b3 e4       	ldi	r27, 0x43	; 67
    4304:	8d ab       	std	Y+53, r24	; 0x35
    4306:	9e ab       	std	Y+54, r25	; 0x36
    4308:	af ab       	std	Y+55, r26	; 0x37
    430a:	b8 af       	std	Y+56, r27	; 0x38
    430c:	6d a9       	ldd	r22, Y+53	; 0x35
    430e:	7e a9       	ldd	r23, Y+54	; 0x36
    4310:	8f a9       	ldd	r24, Y+55	; 0x37
    4312:	98 ad       	ldd	r25, Y+56	; 0x38
    4314:	20 e0       	ldi	r18, 0x00	; 0
    4316:	30 e4       	ldi	r19, 0x40	; 64
    4318:	4c e1       	ldi	r20, 0x1C	; 28
    431a:	55 e4       	ldi	r21, 0x45	; 69
    431c:	0e 94 90 42 	call	0x8520	; 0x8520 <__mulsf3>
    4320:	dc 01       	movw	r26, r24
    4322:	cb 01       	movw	r24, r22
    4324:	89 ab       	std	Y+49, r24	; 0x31
    4326:	9a ab       	std	Y+50, r25	; 0x32
    4328:	ab ab       	std	Y+51, r26	; 0x33
    432a:	bc ab       	std	Y+52, r27	; 0x34
    432c:	69 a9       	ldd	r22, Y+49	; 0x31
    432e:	7a a9       	ldd	r23, Y+50	; 0x32
    4330:	8b a9       	ldd	r24, Y+51	; 0x33
    4332:	9c a9       	ldd	r25, Y+52	; 0x34
    4334:	20 e0       	ldi	r18, 0x00	; 0
    4336:	30 e0       	ldi	r19, 0x00	; 0
    4338:	40 e8       	ldi	r20, 0x80	; 128
    433a:	5f e3       	ldi	r21, 0x3F	; 63
    433c:	0e 94 04 41 	call	0x8208	; 0x8208 <__cmpsf2>
    4340:	88 23       	and	r24, r24
    4342:	2c f4       	brge	.+10     	; 0x434e <greenSide+0x1c58>
    4344:	81 e0       	ldi	r24, 0x01	; 1
    4346:	90 e0       	ldi	r25, 0x00	; 0
    4348:	98 ab       	std	Y+48, r25	; 0x30
    434a:	8f a7       	std	Y+47, r24	; 0x2f
    434c:	3f c0       	rjmp	.+126    	; 0x43cc <greenSide+0x1cd6>
    434e:	69 a9       	ldd	r22, Y+49	; 0x31
    4350:	7a a9       	ldd	r23, Y+50	; 0x32
    4352:	8b a9       	ldd	r24, Y+51	; 0x33
    4354:	9c a9       	ldd	r25, Y+52	; 0x34
    4356:	20 e0       	ldi	r18, 0x00	; 0
    4358:	3f ef       	ldi	r19, 0xFF	; 255
    435a:	4f e7       	ldi	r20, 0x7F	; 127
    435c:	57 e4       	ldi	r21, 0x47	; 71
    435e:	0e 94 8c 42 	call	0x8518	; 0x8518 <__gesf2>
    4362:	18 16       	cp	r1, r24
    4364:	4c f5       	brge	.+82     	; 0x43b8 <greenSide+0x1cc2>
    4366:	6d a9       	ldd	r22, Y+53	; 0x35
    4368:	7e a9       	ldd	r23, Y+54	; 0x36
    436a:	8f a9       	ldd	r24, Y+55	; 0x37
    436c:	98 ad       	ldd	r25, Y+56	; 0x38
    436e:	20 e0       	ldi	r18, 0x00	; 0
    4370:	30 e0       	ldi	r19, 0x00	; 0
    4372:	40 e2       	ldi	r20, 0x20	; 32
    4374:	51 e4       	ldi	r21, 0x41	; 65
    4376:	0e 94 90 42 	call	0x8520	; 0x8520 <__mulsf3>
    437a:	dc 01       	movw	r26, r24
    437c:	cb 01       	movw	r24, r22
    437e:	bc 01       	movw	r22, r24
    4380:	cd 01       	movw	r24, r26
    4382:	0e 94 70 41 	call	0x82e0	; 0x82e0 <__fixunssfsi>
    4386:	dc 01       	movw	r26, r24
    4388:	cb 01       	movw	r24, r22
    438a:	98 ab       	std	Y+48, r25	; 0x30
    438c:	8f a7       	std	Y+47, r24	; 0x2f
    438e:	0f c0       	rjmp	.+30     	; 0x43ae <greenSide+0x1cb8>
    4390:	8a ef       	ldi	r24, 0xFA	; 250
    4392:	90 e0       	ldi	r25, 0x00	; 0
    4394:	9e a7       	std	Y+46, r25	; 0x2e
    4396:	8d a7       	std	Y+45, r24	; 0x2d
    4398:	8d a5       	ldd	r24, Y+45	; 0x2d
    439a:	9e a5       	ldd	r25, Y+46	; 0x2e
    439c:	01 97       	sbiw	r24, 0x01	; 1
    439e:	f1 f7       	brne	.-4      	; 0x439c <greenSide+0x1ca6>
    43a0:	9e a7       	std	Y+46, r25	; 0x2e
    43a2:	8d a7       	std	Y+45, r24	; 0x2d
    43a4:	8f a5       	ldd	r24, Y+47	; 0x2f
    43a6:	98 a9       	ldd	r25, Y+48	; 0x30
    43a8:	01 97       	sbiw	r24, 0x01	; 1
    43aa:	98 ab       	std	Y+48, r25	; 0x30
    43ac:	8f a7       	std	Y+47, r24	; 0x2f
    43ae:	8f a5       	ldd	r24, Y+47	; 0x2f
    43b0:	98 a9       	ldd	r25, Y+48	; 0x30
    43b2:	00 97       	sbiw	r24, 0x00	; 0
    43b4:	69 f7       	brne	.-38     	; 0x4390 <greenSide+0x1c9a>
    43b6:	14 c0       	rjmp	.+40     	; 0x43e0 <greenSide+0x1cea>
    43b8:	69 a9       	ldd	r22, Y+49	; 0x31
    43ba:	7a a9       	ldd	r23, Y+50	; 0x32
    43bc:	8b a9       	ldd	r24, Y+51	; 0x33
    43be:	9c a9       	ldd	r25, Y+52	; 0x34
    43c0:	0e 94 70 41 	call	0x82e0	; 0x82e0 <__fixunssfsi>
    43c4:	dc 01       	movw	r26, r24
    43c6:	cb 01       	movw	r24, r22
    43c8:	98 ab       	std	Y+48, r25	; 0x30
    43ca:	8f a7       	std	Y+47, r24	; 0x2f
    43cc:	8f a5       	ldd	r24, Y+47	; 0x2f
    43ce:	98 a9       	ldd	r25, Y+48	; 0x30
    43d0:	9c a7       	std	Y+44, r25	; 0x2c
    43d2:	8b a7       	std	Y+43, r24	; 0x2b
    43d4:	8b a5       	ldd	r24, Y+43	; 0x2b
    43d6:	9c a5       	ldd	r25, Y+44	; 0x2c
    43d8:	01 97       	sbiw	r24, 0x01	; 1
    43da:	f1 f7       	brne	.-4      	; 0x43d8 <greenSide+0x1ce2>
    43dc:	9c a7       	std	Y+44, r25	; 0x2c
    43de:	8b a7       	std	Y+43, r24	; 0x2b
    43e0:	81 e0       	ldi	r24, 0x01	; 1
    43e2:	0e 94 db 0a 	call	0x15b6	; 0x15b6 <leftDiafram>
    43e6:	80 e0       	ldi	r24, 0x00	; 0
    43e8:	90 e0       	ldi	r25, 0x00	; 0
    43ea:	aa ef       	ldi	r26, 0xFA	; 250
    43ec:	b3 e4       	ldi	r27, 0x43	; 67
    43ee:	8f a3       	std	Y+39, r24	; 0x27
    43f0:	98 a7       	std	Y+40, r25	; 0x28
    43f2:	a9 a7       	std	Y+41, r26	; 0x29
    43f4:	ba a7       	std	Y+42, r27	; 0x2a
    43f6:	6f a1       	ldd	r22, Y+39	; 0x27
    43f8:	78 a5       	ldd	r23, Y+40	; 0x28
    43fa:	89 a5       	ldd	r24, Y+41	; 0x29
    43fc:	9a a5       	ldd	r25, Y+42	; 0x2a
    43fe:	20 e0       	ldi	r18, 0x00	; 0
    4400:	30 e4       	ldi	r19, 0x40	; 64
    4402:	4c e1       	ldi	r20, 0x1C	; 28
    4404:	55 e4       	ldi	r21, 0x45	; 69
    4406:	0e 94 90 42 	call	0x8520	; 0x8520 <__mulsf3>
    440a:	dc 01       	movw	r26, r24
    440c:	cb 01       	movw	r24, r22
    440e:	8b a3       	std	Y+35, r24	; 0x23
    4410:	9c a3       	std	Y+36, r25	; 0x24
    4412:	ad a3       	std	Y+37, r26	; 0x25
    4414:	be a3       	std	Y+38, r27	; 0x26
    4416:	6b a1       	ldd	r22, Y+35	; 0x23
    4418:	7c a1       	ldd	r23, Y+36	; 0x24
    441a:	8d a1       	ldd	r24, Y+37	; 0x25
    441c:	9e a1       	ldd	r25, Y+38	; 0x26
    441e:	20 e0       	ldi	r18, 0x00	; 0
    4420:	30 e0       	ldi	r19, 0x00	; 0
    4422:	40 e8       	ldi	r20, 0x80	; 128
    4424:	5f e3       	ldi	r21, 0x3F	; 63
    4426:	0e 94 04 41 	call	0x8208	; 0x8208 <__cmpsf2>
    442a:	88 23       	and	r24, r24
    442c:	2c f4       	brge	.+10     	; 0x4438 <greenSide+0x1d42>
    442e:	81 e0       	ldi	r24, 0x01	; 1
    4430:	90 e0       	ldi	r25, 0x00	; 0
    4432:	9a a3       	std	Y+34, r25	; 0x22
    4434:	89 a3       	std	Y+33, r24	; 0x21
    4436:	3f c0       	rjmp	.+126    	; 0x44b6 <greenSide+0x1dc0>
    4438:	6b a1       	ldd	r22, Y+35	; 0x23
    443a:	7c a1       	ldd	r23, Y+36	; 0x24
    443c:	8d a1       	ldd	r24, Y+37	; 0x25
    443e:	9e a1       	ldd	r25, Y+38	; 0x26
    4440:	20 e0       	ldi	r18, 0x00	; 0
    4442:	3f ef       	ldi	r19, 0xFF	; 255
    4444:	4f e7       	ldi	r20, 0x7F	; 127
    4446:	57 e4       	ldi	r21, 0x47	; 71
    4448:	0e 94 8c 42 	call	0x8518	; 0x8518 <__gesf2>
    444c:	18 16       	cp	r1, r24
    444e:	4c f5       	brge	.+82     	; 0x44a2 <greenSide+0x1dac>
    4450:	6f a1       	ldd	r22, Y+39	; 0x27
    4452:	78 a5       	ldd	r23, Y+40	; 0x28
    4454:	89 a5       	ldd	r24, Y+41	; 0x29
    4456:	9a a5       	ldd	r25, Y+42	; 0x2a
    4458:	20 e0       	ldi	r18, 0x00	; 0
    445a:	30 e0       	ldi	r19, 0x00	; 0
    445c:	40 e2       	ldi	r20, 0x20	; 32
    445e:	51 e4       	ldi	r21, 0x41	; 65
    4460:	0e 94 90 42 	call	0x8520	; 0x8520 <__mulsf3>
    4464:	dc 01       	movw	r26, r24
    4466:	cb 01       	movw	r24, r22
    4468:	bc 01       	movw	r22, r24
    446a:	cd 01       	movw	r24, r26
    446c:	0e 94 70 41 	call	0x82e0	; 0x82e0 <__fixunssfsi>
    4470:	dc 01       	movw	r26, r24
    4472:	cb 01       	movw	r24, r22
    4474:	9a a3       	std	Y+34, r25	; 0x22
    4476:	89 a3       	std	Y+33, r24	; 0x21
    4478:	0f c0       	rjmp	.+30     	; 0x4498 <greenSide+0x1da2>
    447a:	8a ef       	ldi	r24, 0xFA	; 250
    447c:	90 e0       	ldi	r25, 0x00	; 0
    447e:	98 a3       	std	Y+32, r25	; 0x20
    4480:	8f 8f       	std	Y+31, r24	; 0x1f
    4482:	8f 8d       	ldd	r24, Y+31	; 0x1f
    4484:	98 a1       	ldd	r25, Y+32	; 0x20
    4486:	01 97       	sbiw	r24, 0x01	; 1
    4488:	f1 f7       	brne	.-4      	; 0x4486 <greenSide+0x1d90>
    448a:	98 a3       	std	Y+32, r25	; 0x20
    448c:	8f 8f       	std	Y+31, r24	; 0x1f
    448e:	89 a1       	ldd	r24, Y+33	; 0x21
    4490:	9a a1       	ldd	r25, Y+34	; 0x22
    4492:	01 97       	sbiw	r24, 0x01	; 1
    4494:	9a a3       	std	Y+34, r25	; 0x22
    4496:	89 a3       	std	Y+33, r24	; 0x21
    4498:	89 a1       	ldd	r24, Y+33	; 0x21
    449a:	9a a1       	ldd	r25, Y+34	; 0x22
    449c:	00 97       	sbiw	r24, 0x00	; 0
    449e:	69 f7       	brne	.-38     	; 0x447a <greenSide+0x1d84>
    44a0:	14 c0       	rjmp	.+40     	; 0x44ca <greenSide+0x1dd4>
    44a2:	6b a1       	ldd	r22, Y+35	; 0x23
    44a4:	7c a1       	ldd	r23, Y+36	; 0x24
    44a6:	8d a1       	ldd	r24, Y+37	; 0x25
    44a8:	9e a1       	ldd	r25, Y+38	; 0x26
    44aa:	0e 94 70 41 	call	0x82e0	; 0x82e0 <__fixunssfsi>
    44ae:	dc 01       	movw	r26, r24
    44b0:	cb 01       	movw	r24, r22
    44b2:	9a a3       	std	Y+34, r25	; 0x22
    44b4:	89 a3       	std	Y+33, r24	; 0x21
    44b6:	89 a1       	ldd	r24, Y+33	; 0x21
    44b8:	9a a1       	ldd	r25, Y+34	; 0x22
    44ba:	9e 8f       	std	Y+30, r25	; 0x1e
    44bc:	8d 8f       	std	Y+29, r24	; 0x1d
    44be:	8d 8d       	ldd	r24, Y+29	; 0x1d
    44c0:	9e 8d       	ldd	r25, Y+30	; 0x1e
    44c2:	01 97       	sbiw	r24, 0x01	; 1
    44c4:	f1 f7       	brne	.-4      	; 0x44c2 <greenSide+0x1dcc>
    44c6:	9e 8f       	std	Y+30, r25	; 0x1e
    44c8:	8d 8f       	std	Y+29, r24	; 0x1d
    44ca:	8e ed       	ldi	r24, 0xDE	; 222
    44cc:	9e ef       	ldi	r25, 0xFE	; 254
    44ce:	66 e9       	ldi	r22, 0x96	; 150
    44d0:	40 e0       	ldi	r20, 0x00	; 0
    44d2:	50 e0       	ldi	r21, 0x00	; 0
    44d4:	62 d2       	rcall	.+1220   	; 0x499a <moveOnDirection>
    44d6:	22 c1       	rjmp	.+580    	; 0x471c <greenSide+0x2026>
    44d8:	fe 01       	movw	r30, r28
    44da:	e6 5d       	subi	r30, 0xD6	; 214
    44dc:	fe 4f       	sbci	r31, 0xFE	; 254
    44de:	80 81       	ld	r24, Z
    44e0:	89 30       	cpi	r24, 0x09	; 9
    44e2:	09 f0       	breq	.+2      	; 0x44e6 <greenSide+0x1df0>
    44e4:	8b c0       	rjmp	.+278    	; 0x45fc <greenSide+0x1f06>
    44e6:	81 e0       	ldi	r24, 0x01	; 1
    44e8:	6f ef       	ldi	r22, 0xFF	; 255
    44ea:	0e 94 14 0e 	call	0x1c28	; 0x1c28 <liftMove>
    44ee:	81 ef       	ldi	r24, 0xF1	; 241
    44f0:	9f ef       	ldi	r25, 0xFF	; 255
    44f2:	62 e3       	ldi	r22, 0x32	; 50
    44f4:	40 e0       	ldi	r20, 0x00	; 0
    44f6:	50 e0       	ldi	r21, 0x00	; 0
    44f8:	0e 94 9a 2b 	call	0x5734	; 0x5734 <rotate>
    44fc:	8a ea       	ldi	r24, 0xAA	; 170
    44fe:	90 e0       	ldi	r25, 0x00	; 0
    4500:	62 e3       	ldi	r22, 0x32	; 50
    4502:	40 e0       	ldi	r20, 0x00	; 0
    4504:	50 e0       	ldi	r21, 0x00	; 0
    4506:	49 d2       	rcall	.+1170   	; 0x499a <moveOnDirection>
    4508:	8f ef       	ldi	r24, 0xFF	; 255
    450a:	6f ef       	ldi	r22, 0xFF	; 255
    450c:	0e 94 14 0e 	call	0x1c28	; 0x1c28 <liftMove>
    4510:	80 e0       	ldi	r24, 0x00	; 0
    4512:	90 e0       	ldi	r25, 0x00	; 0
    4514:	aa ef       	ldi	r26, 0xFA	; 250
    4516:	b3 e4       	ldi	r27, 0x43	; 67
    4518:	89 8f       	std	Y+25, r24	; 0x19
    451a:	9a 8f       	std	Y+26, r25	; 0x1a
    451c:	ab 8f       	std	Y+27, r26	; 0x1b
    451e:	bc 8f       	std	Y+28, r27	; 0x1c
    4520:	69 8d       	ldd	r22, Y+25	; 0x19
    4522:	7a 8d       	ldd	r23, Y+26	; 0x1a
    4524:	8b 8d       	ldd	r24, Y+27	; 0x1b
    4526:	9c 8d       	ldd	r25, Y+28	; 0x1c
    4528:	20 e0       	ldi	r18, 0x00	; 0
    452a:	30 e4       	ldi	r19, 0x40	; 64
    452c:	4c e1       	ldi	r20, 0x1C	; 28
    452e:	55 e4       	ldi	r21, 0x45	; 69
    4530:	0e 94 90 42 	call	0x8520	; 0x8520 <__mulsf3>
    4534:	dc 01       	movw	r26, r24
    4536:	cb 01       	movw	r24, r22
    4538:	8d 8b       	std	Y+21, r24	; 0x15
    453a:	9e 8b       	std	Y+22, r25	; 0x16
    453c:	af 8b       	std	Y+23, r26	; 0x17
    453e:	b8 8f       	std	Y+24, r27	; 0x18
    4540:	6d 89       	ldd	r22, Y+21	; 0x15
    4542:	7e 89       	ldd	r23, Y+22	; 0x16
    4544:	8f 89       	ldd	r24, Y+23	; 0x17
    4546:	98 8d       	ldd	r25, Y+24	; 0x18
    4548:	20 e0       	ldi	r18, 0x00	; 0
    454a:	30 e0       	ldi	r19, 0x00	; 0
    454c:	40 e8       	ldi	r20, 0x80	; 128
    454e:	5f e3       	ldi	r21, 0x3F	; 63
    4550:	0e 94 04 41 	call	0x8208	; 0x8208 <__cmpsf2>
    4554:	88 23       	and	r24, r24
    4556:	2c f4       	brge	.+10     	; 0x4562 <greenSide+0x1e6c>
    4558:	81 e0       	ldi	r24, 0x01	; 1
    455a:	90 e0       	ldi	r25, 0x00	; 0
    455c:	9c 8b       	std	Y+20, r25	; 0x14
    455e:	8b 8b       	std	Y+19, r24	; 0x13
    4560:	3f c0       	rjmp	.+126    	; 0x45e0 <greenSide+0x1eea>
    4562:	6d 89       	ldd	r22, Y+21	; 0x15
    4564:	7e 89       	ldd	r23, Y+22	; 0x16
    4566:	8f 89       	ldd	r24, Y+23	; 0x17
    4568:	98 8d       	ldd	r25, Y+24	; 0x18
    456a:	20 e0       	ldi	r18, 0x00	; 0
    456c:	3f ef       	ldi	r19, 0xFF	; 255
    456e:	4f e7       	ldi	r20, 0x7F	; 127
    4570:	57 e4       	ldi	r21, 0x47	; 71
    4572:	0e 94 8c 42 	call	0x8518	; 0x8518 <__gesf2>
    4576:	18 16       	cp	r1, r24
    4578:	4c f5       	brge	.+82     	; 0x45cc <greenSide+0x1ed6>
    457a:	69 8d       	ldd	r22, Y+25	; 0x19
    457c:	7a 8d       	ldd	r23, Y+26	; 0x1a
    457e:	8b 8d       	ldd	r24, Y+27	; 0x1b
    4580:	9c 8d       	ldd	r25, Y+28	; 0x1c
    4582:	20 e0       	ldi	r18, 0x00	; 0
    4584:	30 e0       	ldi	r19, 0x00	; 0
    4586:	40 e2       	ldi	r20, 0x20	; 32
    4588:	51 e4       	ldi	r21, 0x41	; 65
    458a:	0e 94 90 42 	call	0x8520	; 0x8520 <__mulsf3>
    458e:	dc 01       	movw	r26, r24
    4590:	cb 01       	movw	r24, r22
    4592:	bc 01       	movw	r22, r24
    4594:	cd 01       	movw	r24, r26
    4596:	0e 94 70 41 	call	0x82e0	; 0x82e0 <__fixunssfsi>
    459a:	dc 01       	movw	r26, r24
    459c:	cb 01       	movw	r24, r22
    459e:	9c 8b       	std	Y+20, r25	; 0x14
    45a0:	8b 8b       	std	Y+19, r24	; 0x13
    45a2:	0f c0       	rjmp	.+30     	; 0x45c2 <greenSide+0x1ecc>
    45a4:	8a ef       	ldi	r24, 0xFA	; 250
    45a6:	90 e0       	ldi	r25, 0x00	; 0
    45a8:	9a 8b       	std	Y+18, r25	; 0x12
    45aa:	89 8b       	std	Y+17, r24	; 0x11
    45ac:	89 89       	ldd	r24, Y+17	; 0x11
    45ae:	9a 89       	ldd	r25, Y+18	; 0x12
    45b0:	01 97       	sbiw	r24, 0x01	; 1
    45b2:	f1 f7       	brne	.-4      	; 0x45b0 <greenSide+0x1eba>
    45b4:	9a 8b       	std	Y+18, r25	; 0x12
    45b6:	89 8b       	std	Y+17, r24	; 0x11
    45b8:	8b 89       	ldd	r24, Y+19	; 0x13
    45ba:	9c 89       	ldd	r25, Y+20	; 0x14
    45bc:	01 97       	sbiw	r24, 0x01	; 1
    45be:	9c 8b       	std	Y+20, r25	; 0x14
    45c0:	8b 8b       	std	Y+19, r24	; 0x13
    45c2:	8b 89       	ldd	r24, Y+19	; 0x13
    45c4:	9c 89       	ldd	r25, Y+20	; 0x14
    45c6:	00 97       	sbiw	r24, 0x00	; 0
    45c8:	69 f7       	brne	.-38     	; 0x45a4 <greenSide+0x1eae>
    45ca:	14 c0       	rjmp	.+40     	; 0x45f4 <greenSide+0x1efe>
    45cc:	6d 89       	ldd	r22, Y+21	; 0x15
    45ce:	7e 89       	ldd	r23, Y+22	; 0x16
    45d0:	8f 89       	ldd	r24, Y+23	; 0x17
    45d2:	98 8d       	ldd	r25, Y+24	; 0x18
    45d4:	0e 94 70 41 	call	0x82e0	; 0x82e0 <__fixunssfsi>
    45d8:	dc 01       	movw	r26, r24
    45da:	cb 01       	movw	r24, r22
    45dc:	9c 8b       	std	Y+20, r25	; 0x14
    45de:	8b 8b       	std	Y+19, r24	; 0x13
    45e0:	8b 89       	ldd	r24, Y+19	; 0x13
    45e2:	9c 89       	ldd	r25, Y+20	; 0x14
    45e4:	98 8b       	std	Y+16, r25	; 0x10
    45e6:	8f 87       	std	Y+15, r24	; 0x0f
    45e8:	8f 85       	ldd	r24, Y+15	; 0x0f
    45ea:	98 89       	ldd	r25, Y+16	; 0x10
    45ec:	01 97       	sbiw	r24, 0x01	; 1
    45ee:	f1 f7       	brne	.-4      	; 0x45ec <greenSide+0x1ef6>
    45f0:	98 8b       	std	Y+16, r25	; 0x10
    45f2:	8f 87       	std	Y+15, r24	; 0x0f
    45f4:	81 e0       	ldi	r24, 0x01	; 1
    45f6:	0e 94 db 0a 	call	0x15b6	; 0x15b6 <leftDiafram>
    45fa:	90 c0       	rjmp	.+288    	; 0x471c <greenSide+0x2026>
    45fc:	fe 01       	movw	r30, r28
    45fe:	e6 5d       	subi	r30, 0xD6	; 214
    4600:	fe 4f       	sbci	r31, 0xFE	; 254
    4602:	80 81       	ld	r24, Z
    4604:	8a 30       	cpi	r24, 0x0A	; 10
    4606:	09 f0       	breq	.+2      	; 0x460a <greenSide+0x1f14>
    4608:	89 c0       	rjmp	.+274    	; 0x471c <greenSide+0x2026>
    460a:	84 e6       	ldi	r24, 0x64	; 100
    460c:	90 e0       	ldi	r25, 0x00	; 0
    460e:	62 e3       	ldi	r22, 0x32	; 50
    4610:	40 e0       	ldi	r20, 0x00	; 0
    4612:	50 e0       	ldi	r21, 0x00	; 0
    4614:	0e 94 9a 2b 	call	0x5734	; 0x5734 <rotate>
    4618:	8c e7       	ldi	r24, 0x7C	; 124
    461a:	91 e0       	ldi	r25, 0x01	; 1
    461c:	62 e3       	ldi	r22, 0x32	; 50
    461e:	40 e0       	ldi	r20, 0x00	; 0
    4620:	50 e0       	ldi	r21, 0x00	; 0
    4622:	bb d1       	rcall	.+886    	; 0x499a <moveOnDirection>
    4624:	8f ef       	ldi	r24, 0xFF	; 255
    4626:	0e 94 db 0a 	call	0x15b6	; 0x15b6 <leftDiafram>
    462a:	80 e0       	ldi	r24, 0x00	; 0
    462c:	90 e4       	ldi	r25, 0x40	; 64
    462e:	ac e9       	ldi	r26, 0x9C	; 156
    4630:	b5 e4       	ldi	r27, 0x45	; 69
    4632:	8b 87       	std	Y+11, r24	; 0x0b
    4634:	9c 87       	std	Y+12, r25	; 0x0c
    4636:	ad 87       	std	Y+13, r26	; 0x0d
    4638:	be 87       	std	Y+14, r27	; 0x0e
    463a:	6b 85       	ldd	r22, Y+11	; 0x0b
    463c:	7c 85       	ldd	r23, Y+12	; 0x0c
    463e:	8d 85       	ldd	r24, Y+13	; 0x0d
    4640:	9e 85       	ldd	r25, Y+14	; 0x0e
    4642:	20 e0       	ldi	r18, 0x00	; 0
    4644:	30 e4       	ldi	r19, 0x40	; 64
    4646:	4c e1       	ldi	r20, 0x1C	; 28
    4648:	55 e4       	ldi	r21, 0x45	; 69
    464a:	0e 94 90 42 	call	0x8520	; 0x8520 <__mulsf3>
    464e:	dc 01       	movw	r26, r24
    4650:	cb 01       	movw	r24, r22
    4652:	8f 83       	std	Y+7, r24	; 0x07
    4654:	98 87       	std	Y+8, r25	; 0x08
    4656:	a9 87       	std	Y+9, r26	; 0x09
    4658:	ba 87       	std	Y+10, r27	; 0x0a
    465a:	6f 81       	ldd	r22, Y+7	; 0x07
    465c:	78 85       	ldd	r23, Y+8	; 0x08
    465e:	89 85       	ldd	r24, Y+9	; 0x09
    4660:	9a 85       	ldd	r25, Y+10	; 0x0a
    4662:	20 e0       	ldi	r18, 0x00	; 0
    4664:	30 e0       	ldi	r19, 0x00	; 0
    4666:	40 e8       	ldi	r20, 0x80	; 128
    4668:	5f e3       	ldi	r21, 0x3F	; 63
    466a:	0e 94 04 41 	call	0x8208	; 0x8208 <__cmpsf2>
    466e:	88 23       	and	r24, r24
    4670:	2c f4       	brge	.+10     	; 0x467c <greenSide+0x1f86>
    4672:	81 e0       	ldi	r24, 0x01	; 1
    4674:	90 e0       	ldi	r25, 0x00	; 0
    4676:	9e 83       	std	Y+6, r25	; 0x06
    4678:	8d 83       	std	Y+5, r24	; 0x05
    467a:	3f c0       	rjmp	.+126    	; 0x46fa <greenSide+0x2004>
    467c:	6f 81       	ldd	r22, Y+7	; 0x07
    467e:	78 85       	ldd	r23, Y+8	; 0x08
    4680:	89 85       	ldd	r24, Y+9	; 0x09
    4682:	9a 85       	ldd	r25, Y+10	; 0x0a
    4684:	20 e0       	ldi	r18, 0x00	; 0
    4686:	3f ef       	ldi	r19, 0xFF	; 255
    4688:	4f e7       	ldi	r20, 0x7F	; 127
    468a:	57 e4       	ldi	r21, 0x47	; 71
    468c:	0e 94 8c 42 	call	0x8518	; 0x8518 <__gesf2>
    4690:	18 16       	cp	r1, r24
    4692:	4c f5       	brge	.+82     	; 0x46e6 <greenSide+0x1ff0>
    4694:	6b 85       	ldd	r22, Y+11	; 0x0b
    4696:	7c 85       	ldd	r23, Y+12	; 0x0c
    4698:	8d 85       	ldd	r24, Y+13	; 0x0d
    469a:	9e 85       	ldd	r25, Y+14	; 0x0e
    469c:	20 e0       	ldi	r18, 0x00	; 0
    469e:	30 e0       	ldi	r19, 0x00	; 0
    46a0:	40 e2       	ldi	r20, 0x20	; 32
    46a2:	51 e4       	ldi	r21, 0x41	; 65
    46a4:	0e 94 90 42 	call	0x8520	; 0x8520 <__mulsf3>
    46a8:	dc 01       	movw	r26, r24
    46aa:	cb 01       	movw	r24, r22
    46ac:	bc 01       	movw	r22, r24
    46ae:	cd 01       	movw	r24, r26
    46b0:	0e 94 70 41 	call	0x82e0	; 0x82e0 <__fixunssfsi>
    46b4:	dc 01       	movw	r26, r24
    46b6:	cb 01       	movw	r24, r22
    46b8:	9e 83       	std	Y+6, r25	; 0x06
    46ba:	8d 83       	std	Y+5, r24	; 0x05
    46bc:	0f c0       	rjmp	.+30     	; 0x46dc <greenSide+0x1fe6>
    46be:	8a ef       	ldi	r24, 0xFA	; 250
    46c0:	90 e0       	ldi	r25, 0x00	; 0
    46c2:	9c 83       	std	Y+4, r25	; 0x04
    46c4:	8b 83       	std	Y+3, r24	; 0x03
    46c6:	8b 81       	ldd	r24, Y+3	; 0x03
    46c8:	9c 81       	ldd	r25, Y+4	; 0x04
    46ca:	01 97       	sbiw	r24, 0x01	; 1
    46cc:	f1 f7       	brne	.-4      	; 0x46ca <greenSide+0x1fd4>
    46ce:	9c 83       	std	Y+4, r25	; 0x04
    46d0:	8b 83       	std	Y+3, r24	; 0x03
    46d2:	8d 81       	ldd	r24, Y+5	; 0x05
    46d4:	9e 81       	ldd	r25, Y+6	; 0x06
    46d6:	01 97       	sbiw	r24, 0x01	; 1
    46d8:	9e 83       	std	Y+6, r25	; 0x06
    46da:	8d 83       	std	Y+5, r24	; 0x05
    46dc:	8d 81       	ldd	r24, Y+5	; 0x05
    46de:	9e 81       	ldd	r25, Y+6	; 0x06
    46e0:	00 97       	sbiw	r24, 0x00	; 0
    46e2:	69 f7       	brne	.-38     	; 0x46be <greenSide+0x1fc8>
    46e4:	14 c0       	rjmp	.+40     	; 0x470e <greenSide+0x2018>
    46e6:	6f 81       	ldd	r22, Y+7	; 0x07
    46e8:	78 85       	ldd	r23, Y+8	; 0x08
    46ea:	89 85       	ldd	r24, Y+9	; 0x09
    46ec:	9a 85       	ldd	r25, Y+10	; 0x0a
    46ee:	0e 94 70 41 	call	0x82e0	; 0x82e0 <__fixunssfsi>
    46f2:	dc 01       	movw	r26, r24
    46f4:	cb 01       	movw	r24, r22
    46f6:	9e 83       	std	Y+6, r25	; 0x06
    46f8:	8d 83       	std	Y+5, r24	; 0x05
    46fa:	8d 81       	ldd	r24, Y+5	; 0x05
    46fc:	9e 81       	ldd	r25, Y+6	; 0x06
    46fe:	9a 83       	std	Y+2, r25	; 0x02
    4700:	89 83       	std	Y+1, r24	; 0x01
    4702:	89 81       	ldd	r24, Y+1	; 0x01
    4704:	9a 81       	ldd	r25, Y+2	; 0x02
    4706:	01 97       	sbiw	r24, 0x01	; 1
    4708:	f1 f7       	brne	.-4      	; 0x4706 <greenSide+0x2010>
    470a:	9a 83       	std	Y+2, r25	; 0x02
    470c:	89 83       	std	Y+1, r24	; 0x01
    470e:	84 ed       	ldi	r24, 0xD4	; 212
    4710:	9e ef       	ldi	r25, 0xFE	; 254
    4712:	62 e3       	ldi	r22, 0x32	; 50
    4714:	40 e0       	ldi	r20, 0x00	; 0
    4716:	50 e0       	ldi	r21, 0x00	; 0
    4718:	40 d1       	rcall	.+640    	; 0x499a <moveOnDirection>
    471a:	ff cf       	rjmp	.-2      	; 0x471a <greenSide+0x2024>
    471c:	de 01       	movw	r26, r28
    471e:	a6 5d       	subi	r26, 0xD6	; 214
    4720:	be 4f       	sbci	r27, 0xFE	; 254
    4722:	fe 01       	movw	r30, r28
    4724:	e6 5d       	subi	r30, 0xD6	; 214
    4726:	fe 4f       	sbci	r31, 0xFE	; 254
    4728:	80 81       	ld	r24, Z
    472a:	8f 5f       	subi	r24, 0xFF	; 255
    472c:	8c 93       	st	X, r24
    472e:	fe 01       	movw	r30, r28
    4730:	e6 5d       	subi	r30, 0xD6	; 214
    4732:	fe 4f       	sbci	r31, 0xFE	; 254
    4734:	80 81       	ld	r24, Z
    4736:	8b 30       	cpi	r24, 0x0B	; 11
    4738:	10 f4       	brcc	.+4      	; 0x473e <greenSide+0x2048>
    473a:	0c 94 c8 13 	jmp	0x2790	; 0x2790 <greenSide+0x9a>
    473e:	0c 94 b5 13 	jmp	0x276a	; 0x276a <greenSide+0x74>

00004742 <main>:
    4742:	df 93       	push	r29
    4744:	cf 93       	push	r28
    4746:	cd b7       	in	r28, 0x3d	; 61
    4748:	de b7       	in	r29, 0x3e	; 62
    474a:	0e 94 0f 31 	call	0x621e	; 0x621e <systemInit>
    474e:	0e 94 c4 31 	call	0x6388	; 0x6388 <sidesSwitchCheck>
    4752:	81 30       	cpi	r24, 0x01	; 1
    4754:	19 f4       	brne	.+6      	; 0x475c <main+0x1a>
    4756:	0e 94 63 33 	call	0x66c6	; 0x66c6 <yellowSide>
    475a:	f9 cf       	rjmp	.-14     	; 0x474e <main+0xc>
    475c:	0e 94 7b 13 	call	0x26f6	; 0x26f6 <greenSide>
    4760:	f6 cf       	rjmp	.-20     	; 0x474e <main+0xc>

00004762 <stop>:
    4762:	cf 93       	push	r28
    4764:	df 93       	push	r29
    4766:	cd b7       	in	r28, 0x3d	; 61
    4768:	de b7       	in	r29, 0x3e	; 62
    476a:	a5 97       	sbiw	r28, 0x25	; 37
    476c:	0f b6       	in	r0, 0x3f	; 63
    476e:	f8 94       	cli
    4770:	de bf       	out	0x3e, r29	; 62
    4772:	0f be       	out	0x3f, r0	; 63
    4774:	cd bf       	out	0x3d, r28	; 61
    4776:	8d a3       	std	Y+37, r24	; 0x25
    4778:	8d a1       	ldd	r24, Y+37	; 0x25
    477a:	8d 8f       	std	Y+29, r24	; 0x1d
    477c:	72 c0       	rjmp	.+228    	; 0x4862 <stop+0x100>
    477e:	80 e0       	ldi	r24, 0x00	; 0
    4780:	90 e0       	ldi	r25, 0x00	; 0
    4782:	a8 e4       	ldi	r26, 0x48	; 72
    4784:	b2 e4       	ldi	r27, 0x42	; 66
    4786:	89 83       	std	Y+1, r24	; 0x01
    4788:	9a 83       	std	Y+2, r25	; 0x02
    478a:	ab 83       	std	Y+3, r26	; 0x03
    478c:	bc 83       	std	Y+4, r27	; 0x04
    478e:	20 e0       	ldi	r18, 0x00	; 0
    4790:	30 e4       	ldi	r19, 0x40	; 64
    4792:	4c e1       	ldi	r20, 0x1C	; 28
    4794:	55 e4       	ldi	r21, 0x45	; 69
    4796:	69 81       	ldd	r22, Y+1	; 0x01
    4798:	7a 81       	ldd	r23, Y+2	; 0x02
    479a:	8b 81       	ldd	r24, Y+3	; 0x03
    479c:	9c 81       	ldd	r25, Y+4	; 0x04
    479e:	0e 94 90 42 	call	0x8520	; 0x8520 <__mulsf3>
    47a2:	dc 01       	movw	r26, r24
    47a4:	cb 01       	movw	r24, r22
    47a6:	8d 83       	std	Y+5, r24	; 0x05
    47a8:	9e 83       	std	Y+6, r25	; 0x06
    47aa:	af 83       	std	Y+7, r26	; 0x07
    47ac:	b8 87       	std	Y+8, r27	; 0x08
    47ae:	20 e0       	ldi	r18, 0x00	; 0
    47b0:	30 e0       	ldi	r19, 0x00	; 0
    47b2:	40 e8       	ldi	r20, 0x80	; 128
    47b4:	5f e3       	ldi	r21, 0x3F	; 63
    47b6:	6d 81       	ldd	r22, Y+5	; 0x05
    47b8:	7e 81       	ldd	r23, Y+6	; 0x06
    47ba:	8f 81       	ldd	r24, Y+7	; 0x07
    47bc:	98 85       	ldd	r25, Y+8	; 0x08
    47be:	0e 94 04 41 	call	0x8208	; 0x8208 <__cmpsf2>
    47c2:	88 23       	and	r24, r24
    47c4:	2c f4       	brge	.+10     	; 0x47d0 <stop+0x6e>
    47c6:	81 e0       	ldi	r24, 0x01	; 1
    47c8:	90 e0       	ldi	r25, 0x00	; 0
    47ca:	9a 87       	std	Y+10, r25	; 0x0a
    47cc:	89 87       	std	Y+9, r24	; 0x09
    47ce:	3f c0       	rjmp	.+126    	; 0x484e <stop+0xec>
    47d0:	20 e0       	ldi	r18, 0x00	; 0
    47d2:	3f ef       	ldi	r19, 0xFF	; 255
    47d4:	4f e7       	ldi	r20, 0x7F	; 127
    47d6:	57 e4       	ldi	r21, 0x47	; 71
    47d8:	6d 81       	ldd	r22, Y+5	; 0x05
    47da:	7e 81       	ldd	r23, Y+6	; 0x06
    47dc:	8f 81       	ldd	r24, Y+7	; 0x07
    47de:	98 85       	ldd	r25, Y+8	; 0x08
    47e0:	0e 94 8c 42 	call	0x8518	; 0x8518 <__gesf2>
    47e4:	18 16       	cp	r1, r24
    47e6:	4c f5       	brge	.+82     	; 0x483a <stop+0xd8>
    47e8:	20 e0       	ldi	r18, 0x00	; 0
    47ea:	30 e0       	ldi	r19, 0x00	; 0
    47ec:	40 e2       	ldi	r20, 0x20	; 32
    47ee:	51 e4       	ldi	r21, 0x41	; 65
    47f0:	69 81       	ldd	r22, Y+1	; 0x01
    47f2:	7a 81       	ldd	r23, Y+2	; 0x02
    47f4:	8b 81       	ldd	r24, Y+3	; 0x03
    47f6:	9c 81       	ldd	r25, Y+4	; 0x04
    47f8:	0e 94 90 42 	call	0x8520	; 0x8520 <__mulsf3>
    47fc:	dc 01       	movw	r26, r24
    47fe:	cb 01       	movw	r24, r22
    4800:	bc 01       	movw	r22, r24
    4802:	cd 01       	movw	r24, r26
    4804:	0e 94 70 41 	call	0x82e0	; 0x82e0 <__fixunssfsi>
    4808:	dc 01       	movw	r26, r24
    480a:	cb 01       	movw	r24, r22
    480c:	9a 87       	std	Y+10, r25	; 0x0a
    480e:	89 87       	std	Y+9, r24	; 0x09
    4810:	0f c0       	rjmp	.+30     	; 0x4830 <stop+0xce>
    4812:	8a ef       	ldi	r24, 0xFA	; 250
    4814:	90 e0       	ldi	r25, 0x00	; 0
    4816:	9c 87       	std	Y+12, r25	; 0x0c
    4818:	8b 87       	std	Y+11, r24	; 0x0b
    481a:	8b 85       	ldd	r24, Y+11	; 0x0b
    481c:	9c 85       	ldd	r25, Y+12	; 0x0c
    481e:	01 97       	sbiw	r24, 0x01	; 1
    4820:	f1 f7       	brne	.-4      	; 0x481e <stop+0xbc>
    4822:	9c 87       	std	Y+12, r25	; 0x0c
    4824:	8b 87       	std	Y+11, r24	; 0x0b
    4826:	89 85       	ldd	r24, Y+9	; 0x09
    4828:	9a 85       	ldd	r25, Y+10	; 0x0a
    482a:	01 97       	sbiw	r24, 0x01	; 1
    482c:	9a 87       	std	Y+10, r25	; 0x0a
    482e:	89 87       	std	Y+9, r24	; 0x09
    4830:	89 85       	ldd	r24, Y+9	; 0x09
    4832:	9a 85       	ldd	r25, Y+10	; 0x0a
    4834:	00 97       	sbiw	r24, 0x00	; 0
    4836:	69 f7       	brne	.-38     	; 0x4812 <stop+0xb0>
    4838:	14 c0       	rjmp	.+40     	; 0x4862 <stop+0x100>
    483a:	6d 81       	ldd	r22, Y+5	; 0x05
    483c:	7e 81       	ldd	r23, Y+6	; 0x06
    483e:	8f 81       	ldd	r24, Y+7	; 0x07
    4840:	98 85       	ldd	r25, Y+8	; 0x08
    4842:	0e 94 70 41 	call	0x82e0	; 0x82e0 <__fixunssfsi>
    4846:	dc 01       	movw	r26, r24
    4848:	cb 01       	movw	r24, r22
    484a:	9a 87       	std	Y+10, r25	; 0x0a
    484c:	89 87       	std	Y+9, r24	; 0x09
    484e:	89 85       	ldd	r24, Y+9	; 0x09
    4850:	9a 85       	ldd	r25, Y+10	; 0x0a
    4852:	9e 87       	std	Y+14, r25	; 0x0e
    4854:	8d 87       	std	Y+13, r24	; 0x0d
    4856:	8d 85       	ldd	r24, Y+13	; 0x0d
    4858:	9e 85       	ldd	r25, Y+14	; 0x0e
    485a:	01 97       	sbiw	r24, 0x01	; 1
    485c:	f1 f7       	brne	.-4      	; 0x485a <stop+0xf8>
    485e:	9e 87       	std	Y+14, r25	; 0x0e
    4860:	8d 87       	std	Y+13, r24	; 0x0d
    4862:	ce 01       	movw	r24, r28
    4864:	4d 96       	adiw	r24, 0x1d	; 29
    4866:	63 ec       	ldi	r22, 0xC3	; 195
    4868:	0e 94 95 11 	call	0x232a	; 0x232a <CAN_Write>
    486c:	88 23       	and	r24, r24
    486e:	09 f0       	breq	.+2      	; 0x4872 <stop+0x110>
    4870:	86 cf       	rjmp	.-244    	; 0x477e <stop+0x1c>
    4872:	80 e5       	ldi	r24, 0x50	; 80
    4874:	8d 8f       	std	Y+29, r24	; 0x1d
    4876:	72 c0       	rjmp	.+228    	; 0x495c <stop+0x1fa>
    4878:	80 e0       	ldi	r24, 0x00	; 0
    487a:	90 e0       	ldi	r25, 0x00	; 0
    487c:	a8 e4       	ldi	r26, 0x48	; 72
    487e:	b2 e4       	ldi	r27, 0x42	; 66
    4880:	8f 87       	std	Y+15, r24	; 0x0f
    4882:	98 8b       	std	Y+16, r25	; 0x10
    4884:	a9 8b       	std	Y+17, r26	; 0x11
    4886:	ba 8b       	std	Y+18, r27	; 0x12
    4888:	20 e0       	ldi	r18, 0x00	; 0
    488a:	30 e4       	ldi	r19, 0x40	; 64
    488c:	4c e1       	ldi	r20, 0x1C	; 28
    488e:	55 e4       	ldi	r21, 0x45	; 69
    4890:	6f 85       	ldd	r22, Y+15	; 0x0f
    4892:	78 89       	ldd	r23, Y+16	; 0x10
    4894:	89 89       	ldd	r24, Y+17	; 0x11
    4896:	9a 89       	ldd	r25, Y+18	; 0x12
    4898:	0e 94 90 42 	call	0x8520	; 0x8520 <__mulsf3>
    489c:	dc 01       	movw	r26, r24
    489e:	cb 01       	movw	r24, r22
    48a0:	8b 8b       	std	Y+19, r24	; 0x13
    48a2:	9c 8b       	std	Y+20, r25	; 0x14
    48a4:	ad 8b       	std	Y+21, r26	; 0x15
    48a6:	be 8b       	std	Y+22, r27	; 0x16
    48a8:	20 e0       	ldi	r18, 0x00	; 0
    48aa:	30 e0       	ldi	r19, 0x00	; 0
    48ac:	40 e8       	ldi	r20, 0x80	; 128
    48ae:	5f e3       	ldi	r21, 0x3F	; 63
    48b0:	6b 89       	ldd	r22, Y+19	; 0x13
    48b2:	7c 89       	ldd	r23, Y+20	; 0x14
    48b4:	8d 89       	ldd	r24, Y+21	; 0x15
    48b6:	9e 89       	ldd	r25, Y+22	; 0x16
    48b8:	0e 94 04 41 	call	0x8208	; 0x8208 <__cmpsf2>
    48bc:	88 23       	and	r24, r24
    48be:	2c f4       	brge	.+10     	; 0x48ca <stop+0x168>
    48c0:	81 e0       	ldi	r24, 0x01	; 1
    48c2:	90 e0       	ldi	r25, 0x00	; 0
    48c4:	98 8f       	std	Y+24, r25	; 0x18
    48c6:	8f 8b       	std	Y+23, r24	; 0x17
    48c8:	3f c0       	rjmp	.+126    	; 0x4948 <stop+0x1e6>
    48ca:	20 e0       	ldi	r18, 0x00	; 0
    48cc:	3f ef       	ldi	r19, 0xFF	; 255
    48ce:	4f e7       	ldi	r20, 0x7F	; 127
    48d0:	57 e4       	ldi	r21, 0x47	; 71
    48d2:	6b 89       	ldd	r22, Y+19	; 0x13
    48d4:	7c 89       	ldd	r23, Y+20	; 0x14
    48d6:	8d 89       	ldd	r24, Y+21	; 0x15
    48d8:	9e 89       	ldd	r25, Y+22	; 0x16
    48da:	0e 94 8c 42 	call	0x8518	; 0x8518 <__gesf2>
    48de:	18 16       	cp	r1, r24
    48e0:	4c f5       	brge	.+82     	; 0x4934 <stop+0x1d2>
    48e2:	20 e0       	ldi	r18, 0x00	; 0
    48e4:	30 e0       	ldi	r19, 0x00	; 0
    48e6:	40 e2       	ldi	r20, 0x20	; 32
    48e8:	51 e4       	ldi	r21, 0x41	; 65
    48ea:	6f 85       	ldd	r22, Y+15	; 0x0f
    48ec:	78 89       	ldd	r23, Y+16	; 0x10
    48ee:	89 89       	ldd	r24, Y+17	; 0x11
    48f0:	9a 89       	ldd	r25, Y+18	; 0x12
    48f2:	0e 94 90 42 	call	0x8520	; 0x8520 <__mulsf3>
    48f6:	dc 01       	movw	r26, r24
    48f8:	cb 01       	movw	r24, r22
    48fa:	bc 01       	movw	r22, r24
    48fc:	cd 01       	movw	r24, r26
    48fe:	0e 94 70 41 	call	0x82e0	; 0x82e0 <__fixunssfsi>
    4902:	dc 01       	movw	r26, r24
    4904:	cb 01       	movw	r24, r22
    4906:	98 8f       	std	Y+24, r25	; 0x18
    4908:	8f 8b       	std	Y+23, r24	; 0x17
    490a:	0f c0       	rjmp	.+30     	; 0x492a <stop+0x1c8>
    490c:	8a ef       	ldi	r24, 0xFA	; 250
    490e:	90 e0       	ldi	r25, 0x00	; 0
    4910:	9a 8f       	std	Y+26, r25	; 0x1a
    4912:	89 8f       	std	Y+25, r24	; 0x19
    4914:	89 8d       	ldd	r24, Y+25	; 0x19
    4916:	9a 8d       	ldd	r25, Y+26	; 0x1a
    4918:	01 97       	sbiw	r24, 0x01	; 1
    491a:	f1 f7       	brne	.-4      	; 0x4918 <stop+0x1b6>
    491c:	9a 8f       	std	Y+26, r25	; 0x1a
    491e:	89 8f       	std	Y+25, r24	; 0x19
    4920:	8f 89       	ldd	r24, Y+23	; 0x17
    4922:	98 8d       	ldd	r25, Y+24	; 0x18
    4924:	01 97       	sbiw	r24, 0x01	; 1
    4926:	98 8f       	std	Y+24, r25	; 0x18
    4928:	8f 8b       	std	Y+23, r24	; 0x17
    492a:	8f 89       	ldd	r24, Y+23	; 0x17
    492c:	98 8d       	ldd	r25, Y+24	; 0x18
    492e:	00 97       	sbiw	r24, 0x00	; 0
    4930:	69 f7       	brne	.-38     	; 0x490c <stop+0x1aa>
    4932:	14 c0       	rjmp	.+40     	; 0x495c <stop+0x1fa>
    4934:	6b 89       	ldd	r22, Y+19	; 0x13
    4936:	7c 89       	ldd	r23, Y+20	; 0x14
    4938:	8d 89       	ldd	r24, Y+21	; 0x15
    493a:	9e 89       	ldd	r25, Y+22	; 0x16
    493c:	0e 94 70 41 	call	0x82e0	; 0x82e0 <__fixunssfsi>
    4940:	dc 01       	movw	r26, r24
    4942:	cb 01       	movw	r24, r22
    4944:	98 8f       	std	Y+24, r25	; 0x18
    4946:	8f 8b       	std	Y+23, r24	; 0x17
    4948:	8f 89       	ldd	r24, Y+23	; 0x17
    494a:	98 8d       	ldd	r25, Y+24	; 0x18
    494c:	9c 8f       	std	Y+28, r25	; 0x1c
    494e:	8b 8f       	std	Y+27, r24	; 0x1b
    4950:	8b 8d       	ldd	r24, Y+27	; 0x1b
    4952:	9c 8d       	ldd	r25, Y+28	; 0x1c
    4954:	01 97       	sbiw	r24, 0x01	; 1
    4956:	f1 f7       	brne	.-4      	; 0x4954 <stop+0x1f2>
    4958:	9c 8f       	std	Y+28, r25	; 0x1c
    495a:	8b 8f       	std	Y+27, r24	; 0x1b
    495c:	ce 01       	movw	r24, r28
    495e:	4d 96       	adiw	r24, 0x1d	; 29
    4960:	63 ec       	ldi	r22, 0xC3	; 195
    4962:	0e 94 95 11 	call	0x232a	; 0x232a <CAN_Write>
    4966:	88 23       	and	r24, r24
    4968:	09 f0       	breq	.+2      	; 0x496c <stop+0x20a>
    496a:	86 cf       	rjmp	.-244    	; 0x4878 <stop+0x116>
    496c:	ce 01       	movw	r24, r28
    496e:	4d 96       	adiw	r24, 0x1d	; 29
    4970:	61 e0       	ldi	r22, 0x01	; 1
    4972:	0e 94 25 11 	call	0x224a	; 0x224a <CAN_Read>
    4976:	8d 8d       	ldd	r24, Y+29	; 0x1d
    4978:	8d 34       	cpi	r24, 0x4D	; 77
    497a:	29 f0       	breq	.+10     	; 0x4986 <stop+0x224>
    497c:	8d 8d       	ldd	r24, Y+29	; 0x1d
    497e:	82 35       	cpi	r24, 0x52	; 82
    4980:	11 f0       	breq	.+4      	; 0x4986 <stop+0x224>
    4982:	80 e0       	ldi	r24, 0x00	; 0
    4984:	01 c0       	rjmp	.+2      	; 0x4988 <stop+0x226>
    4986:	f8 ce       	rjmp	.-528    	; 0x4778 <stop+0x16>
    4988:	a5 96       	adiw	r28, 0x25	; 37
    498a:	0f b6       	in	r0, 0x3f	; 63
    498c:	f8 94       	cli
    498e:	de bf       	out	0x3e, r29	; 62
    4990:	0f be       	out	0x3f, r0	; 63
    4992:	cd bf       	out	0x3d, r28	; 61
    4994:	df 91       	pop	r29
    4996:	cf 91       	pop	r28
    4998:	08 95       	ret

0000499a <moveOnDirection>:
    499a:	cf 93       	push	r28
    499c:	df 93       	push	r29
    499e:	cd b7       	in	r28, 0x3d	; 61
    49a0:	de b7       	in	r29, 0x3e	; 62
    49a2:	ca 54       	subi	r28, 0x4A	; 74
    49a4:	d1 09       	sbc	r29, r1
    49a6:	0f b6       	in	r0, 0x3f	; 63
    49a8:	f8 94       	cli
    49aa:	de bf       	out	0x3e, r29	; 62
    49ac:	0f be       	out	0x3f, r0	; 63
    49ae:	cd bf       	out	0x3d, r28	; 61
    49b0:	9e 01       	movw	r18, r28
    49b2:	2a 5b       	subi	r18, 0xBA	; 186
    49b4:	3f 4f       	sbci	r19, 0xFF	; 255
    49b6:	f9 01       	movw	r30, r18
    49b8:	91 83       	std	Z+1, r25	; 0x01
    49ba:	80 83       	st	Z, r24
    49bc:	ce 01       	movw	r24, r28
    49be:	88 5b       	subi	r24, 0xB8	; 184
    49c0:	9f 4f       	sbci	r25, 0xFF	; 255
    49c2:	fc 01       	movw	r30, r24
    49c4:	60 83       	st	Z, r22
    49c6:	ce 01       	movw	r24, r28
    49c8:	87 5b       	subi	r24, 0xB7	; 183
    49ca:	9f 4f       	sbci	r25, 0xFF	; 255
    49cc:	fc 01       	movw	r30, r24
    49ce:	51 83       	std	Z+1, r21	; 0x01
    49d0:	40 83       	st	Z, r20
    49d2:	86 e5       	ldi	r24, 0x56	; 86
    49d4:	8e af       	std	Y+62, r24	; 0x3e
    49d6:	ce 01       	movw	r24, r28
    49d8:	88 5b       	subi	r24, 0xB8	; 184
    49da:	9f 4f       	sbci	r25, 0xFF	; 255
    49dc:	fc 01       	movw	r30, r24
    49de:	80 81       	ld	r24, Z
    49e0:	8f af       	std	Y+63, r24	; 0x3f
    49e2:	72 c0       	rjmp	.+228    	; 0x4ac8 <moveOnDirection+0x12e>
    49e4:	80 e0       	ldi	r24, 0x00	; 0
    49e6:	90 e0       	ldi	r25, 0x00	; 0
    49e8:	a8 e4       	ldi	r26, 0x48	; 72
    49ea:	b2 e4       	ldi	r27, 0x42	; 66
    49ec:	8e 83       	std	Y+6, r24	; 0x06
    49ee:	9f 83       	std	Y+7, r25	; 0x07
    49f0:	a8 87       	std	Y+8, r26	; 0x08
    49f2:	b9 87       	std	Y+9, r27	; 0x09
    49f4:	20 e0       	ldi	r18, 0x00	; 0
    49f6:	30 e4       	ldi	r19, 0x40	; 64
    49f8:	4c e1       	ldi	r20, 0x1C	; 28
    49fa:	55 e4       	ldi	r21, 0x45	; 69
    49fc:	6e 81       	ldd	r22, Y+6	; 0x06
    49fe:	7f 81       	ldd	r23, Y+7	; 0x07
    4a00:	88 85       	ldd	r24, Y+8	; 0x08
    4a02:	99 85       	ldd	r25, Y+9	; 0x09
    4a04:	0e 94 90 42 	call	0x8520	; 0x8520 <__mulsf3>
    4a08:	dc 01       	movw	r26, r24
    4a0a:	cb 01       	movw	r24, r22
    4a0c:	8a 87       	std	Y+10, r24	; 0x0a
    4a0e:	9b 87       	std	Y+11, r25	; 0x0b
    4a10:	ac 87       	std	Y+12, r26	; 0x0c
    4a12:	bd 87       	std	Y+13, r27	; 0x0d
    4a14:	20 e0       	ldi	r18, 0x00	; 0
    4a16:	30 e0       	ldi	r19, 0x00	; 0
    4a18:	40 e8       	ldi	r20, 0x80	; 128
    4a1a:	5f e3       	ldi	r21, 0x3F	; 63
    4a1c:	6a 85       	ldd	r22, Y+10	; 0x0a
    4a1e:	7b 85       	ldd	r23, Y+11	; 0x0b
    4a20:	8c 85       	ldd	r24, Y+12	; 0x0c
    4a22:	9d 85       	ldd	r25, Y+13	; 0x0d
    4a24:	0e 94 04 41 	call	0x8208	; 0x8208 <__cmpsf2>
    4a28:	88 23       	and	r24, r24
    4a2a:	2c f4       	brge	.+10     	; 0x4a36 <moveOnDirection+0x9c>
    4a2c:	81 e0       	ldi	r24, 0x01	; 1
    4a2e:	90 e0       	ldi	r25, 0x00	; 0
    4a30:	9f 87       	std	Y+15, r25	; 0x0f
    4a32:	8e 87       	std	Y+14, r24	; 0x0e
    4a34:	3f c0       	rjmp	.+126    	; 0x4ab4 <moveOnDirection+0x11a>
    4a36:	20 e0       	ldi	r18, 0x00	; 0
    4a38:	3f ef       	ldi	r19, 0xFF	; 255
    4a3a:	4f e7       	ldi	r20, 0x7F	; 127
    4a3c:	57 e4       	ldi	r21, 0x47	; 71
    4a3e:	6a 85       	ldd	r22, Y+10	; 0x0a
    4a40:	7b 85       	ldd	r23, Y+11	; 0x0b
    4a42:	8c 85       	ldd	r24, Y+12	; 0x0c
    4a44:	9d 85       	ldd	r25, Y+13	; 0x0d
    4a46:	0e 94 8c 42 	call	0x8518	; 0x8518 <__gesf2>
    4a4a:	18 16       	cp	r1, r24
    4a4c:	4c f5       	brge	.+82     	; 0x4aa0 <moveOnDirection+0x106>
    4a4e:	20 e0       	ldi	r18, 0x00	; 0
    4a50:	30 e0       	ldi	r19, 0x00	; 0
    4a52:	40 e2       	ldi	r20, 0x20	; 32
    4a54:	51 e4       	ldi	r21, 0x41	; 65
    4a56:	6e 81       	ldd	r22, Y+6	; 0x06
    4a58:	7f 81       	ldd	r23, Y+7	; 0x07
    4a5a:	88 85       	ldd	r24, Y+8	; 0x08
    4a5c:	99 85       	ldd	r25, Y+9	; 0x09
    4a5e:	0e 94 90 42 	call	0x8520	; 0x8520 <__mulsf3>
    4a62:	dc 01       	movw	r26, r24
    4a64:	cb 01       	movw	r24, r22
    4a66:	bc 01       	movw	r22, r24
    4a68:	cd 01       	movw	r24, r26
    4a6a:	0e 94 70 41 	call	0x82e0	; 0x82e0 <__fixunssfsi>
    4a6e:	dc 01       	movw	r26, r24
    4a70:	cb 01       	movw	r24, r22
    4a72:	9f 87       	std	Y+15, r25	; 0x0f
    4a74:	8e 87       	std	Y+14, r24	; 0x0e
    4a76:	0f c0       	rjmp	.+30     	; 0x4a96 <moveOnDirection+0xfc>
    4a78:	8a ef       	ldi	r24, 0xFA	; 250
    4a7a:	90 e0       	ldi	r25, 0x00	; 0
    4a7c:	99 8b       	std	Y+17, r25	; 0x11
    4a7e:	88 8b       	std	Y+16, r24	; 0x10
    4a80:	88 89       	ldd	r24, Y+16	; 0x10
    4a82:	99 89       	ldd	r25, Y+17	; 0x11
    4a84:	01 97       	sbiw	r24, 0x01	; 1
    4a86:	f1 f7       	brne	.-4      	; 0x4a84 <moveOnDirection+0xea>
    4a88:	99 8b       	std	Y+17, r25	; 0x11
    4a8a:	88 8b       	std	Y+16, r24	; 0x10
    4a8c:	8e 85       	ldd	r24, Y+14	; 0x0e
    4a8e:	9f 85       	ldd	r25, Y+15	; 0x0f
    4a90:	01 97       	sbiw	r24, 0x01	; 1
    4a92:	9f 87       	std	Y+15, r25	; 0x0f
    4a94:	8e 87       	std	Y+14, r24	; 0x0e
    4a96:	8e 85       	ldd	r24, Y+14	; 0x0e
    4a98:	9f 85       	ldd	r25, Y+15	; 0x0f
    4a9a:	00 97       	sbiw	r24, 0x00	; 0
    4a9c:	69 f7       	brne	.-38     	; 0x4a78 <moveOnDirection+0xde>
    4a9e:	14 c0       	rjmp	.+40     	; 0x4ac8 <moveOnDirection+0x12e>
    4aa0:	6a 85       	ldd	r22, Y+10	; 0x0a
    4aa2:	7b 85       	ldd	r23, Y+11	; 0x0b
    4aa4:	8c 85       	ldd	r24, Y+12	; 0x0c
    4aa6:	9d 85       	ldd	r25, Y+13	; 0x0d
    4aa8:	0e 94 70 41 	call	0x82e0	; 0x82e0 <__fixunssfsi>
    4aac:	dc 01       	movw	r26, r24
    4aae:	cb 01       	movw	r24, r22
    4ab0:	9f 87       	std	Y+15, r25	; 0x0f
    4ab2:	8e 87       	std	Y+14, r24	; 0x0e
    4ab4:	8e 85       	ldd	r24, Y+14	; 0x0e
    4ab6:	9f 85       	ldd	r25, Y+15	; 0x0f
    4ab8:	9b 8b       	std	Y+19, r25	; 0x13
    4aba:	8a 8b       	std	Y+18, r24	; 0x12
    4abc:	8a 89       	ldd	r24, Y+18	; 0x12
    4abe:	9b 89       	ldd	r25, Y+19	; 0x13
    4ac0:	01 97       	sbiw	r24, 0x01	; 1
    4ac2:	f1 f7       	brne	.-4      	; 0x4ac0 <moveOnDirection+0x126>
    4ac4:	9b 8b       	std	Y+19, r25	; 0x13
    4ac6:	8a 8b       	std	Y+18, r24	; 0x12
    4ac8:	ce 01       	movw	r24, r28
    4aca:	ce 96       	adiw	r24, 0x3e	; 62
    4acc:	63 ec       	ldi	r22, 0xC3	; 195
    4ace:	0e 94 95 11 	call	0x232a	; 0x232a <CAN_Write>
    4ad2:	88 23       	and	r24, r24
    4ad4:	09 f0       	breq	.+2      	; 0x4ad8 <moveOnDirection+0x13e>
    4ad6:	86 cf       	rjmp	.-244    	; 0x49e4 <moveOnDirection+0x4a>
    4ad8:	84 e4       	ldi	r24, 0x44	; 68
    4ada:	8e af       	std	Y+62, r24	; 0x3e
    4adc:	ce 01       	movw	r24, r28
    4ade:	8a 5b       	subi	r24, 0xBA	; 186
    4ae0:	9f 4f       	sbci	r25, 0xFF	; 255
    4ae2:	fc 01       	movw	r30, r24
    4ae4:	80 81       	ld	r24, Z
    4ae6:	91 81       	ldd	r25, Z+1	; 0x01
    4ae8:	89 2f       	mov	r24, r25
    4aea:	99 0f       	add	r25, r25
    4aec:	99 0b       	sbc	r25, r25
    4aee:	8f af       	std	Y+63, r24	; 0x3f
    4af0:	ce 01       	movw	r24, r28
    4af2:	8a 5b       	subi	r24, 0xBA	; 186
    4af4:	9f 4f       	sbci	r25, 0xFF	; 255
    4af6:	fc 01       	movw	r30, r24
    4af8:	20 81       	ld	r18, Z
    4afa:	ce 01       	movw	r24, r28
    4afc:	80 5c       	subi	r24, 0xC0	; 192
    4afe:	9f 4f       	sbci	r25, 0xFF	; 255
    4b00:	fc 01       	movw	r30, r24
    4b02:	20 83       	st	Z, r18
    4b04:	72 c0       	rjmp	.+228    	; 0x4bea <moveOnDirection+0x250>
    4b06:	80 e0       	ldi	r24, 0x00	; 0
    4b08:	90 e0       	ldi	r25, 0x00	; 0
    4b0a:	a8 e4       	ldi	r26, 0x48	; 72
    4b0c:	b2 e4       	ldi	r27, 0x42	; 66
    4b0e:	8c 8b       	std	Y+20, r24	; 0x14
    4b10:	9d 8b       	std	Y+21, r25	; 0x15
    4b12:	ae 8b       	std	Y+22, r26	; 0x16
    4b14:	bf 8b       	std	Y+23, r27	; 0x17
    4b16:	20 e0       	ldi	r18, 0x00	; 0
    4b18:	30 e4       	ldi	r19, 0x40	; 64
    4b1a:	4c e1       	ldi	r20, 0x1C	; 28
    4b1c:	55 e4       	ldi	r21, 0x45	; 69
    4b1e:	6c 89       	ldd	r22, Y+20	; 0x14
    4b20:	7d 89       	ldd	r23, Y+21	; 0x15
    4b22:	8e 89       	ldd	r24, Y+22	; 0x16
    4b24:	9f 89       	ldd	r25, Y+23	; 0x17
    4b26:	0e 94 90 42 	call	0x8520	; 0x8520 <__mulsf3>
    4b2a:	dc 01       	movw	r26, r24
    4b2c:	cb 01       	movw	r24, r22
    4b2e:	88 8f       	std	Y+24, r24	; 0x18
    4b30:	99 8f       	std	Y+25, r25	; 0x19
    4b32:	aa 8f       	std	Y+26, r26	; 0x1a
    4b34:	bb 8f       	std	Y+27, r27	; 0x1b
    4b36:	20 e0       	ldi	r18, 0x00	; 0
    4b38:	30 e0       	ldi	r19, 0x00	; 0
    4b3a:	40 e8       	ldi	r20, 0x80	; 128
    4b3c:	5f e3       	ldi	r21, 0x3F	; 63
    4b3e:	68 8d       	ldd	r22, Y+24	; 0x18
    4b40:	79 8d       	ldd	r23, Y+25	; 0x19
    4b42:	8a 8d       	ldd	r24, Y+26	; 0x1a
    4b44:	9b 8d       	ldd	r25, Y+27	; 0x1b
    4b46:	0e 94 04 41 	call	0x8208	; 0x8208 <__cmpsf2>
    4b4a:	88 23       	and	r24, r24
    4b4c:	2c f4       	brge	.+10     	; 0x4b58 <moveOnDirection+0x1be>
    4b4e:	81 e0       	ldi	r24, 0x01	; 1
    4b50:	90 e0       	ldi	r25, 0x00	; 0
    4b52:	9d 8f       	std	Y+29, r25	; 0x1d
    4b54:	8c 8f       	std	Y+28, r24	; 0x1c
    4b56:	3f c0       	rjmp	.+126    	; 0x4bd6 <moveOnDirection+0x23c>
    4b58:	20 e0       	ldi	r18, 0x00	; 0
    4b5a:	3f ef       	ldi	r19, 0xFF	; 255
    4b5c:	4f e7       	ldi	r20, 0x7F	; 127
    4b5e:	57 e4       	ldi	r21, 0x47	; 71
    4b60:	68 8d       	ldd	r22, Y+24	; 0x18
    4b62:	79 8d       	ldd	r23, Y+25	; 0x19
    4b64:	8a 8d       	ldd	r24, Y+26	; 0x1a
    4b66:	9b 8d       	ldd	r25, Y+27	; 0x1b
    4b68:	0e 94 8c 42 	call	0x8518	; 0x8518 <__gesf2>
    4b6c:	18 16       	cp	r1, r24
    4b6e:	4c f5       	brge	.+82     	; 0x4bc2 <moveOnDirection+0x228>
    4b70:	20 e0       	ldi	r18, 0x00	; 0
    4b72:	30 e0       	ldi	r19, 0x00	; 0
    4b74:	40 e2       	ldi	r20, 0x20	; 32
    4b76:	51 e4       	ldi	r21, 0x41	; 65
    4b78:	6c 89       	ldd	r22, Y+20	; 0x14
    4b7a:	7d 89       	ldd	r23, Y+21	; 0x15
    4b7c:	8e 89       	ldd	r24, Y+22	; 0x16
    4b7e:	9f 89       	ldd	r25, Y+23	; 0x17
    4b80:	0e 94 90 42 	call	0x8520	; 0x8520 <__mulsf3>
    4b84:	dc 01       	movw	r26, r24
    4b86:	cb 01       	movw	r24, r22
    4b88:	bc 01       	movw	r22, r24
    4b8a:	cd 01       	movw	r24, r26
    4b8c:	0e 94 70 41 	call	0x82e0	; 0x82e0 <__fixunssfsi>
    4b90:	dc 01       	movw	r26, r24
    4b92:	cb 01       	movw	r24, r22
    4b94:	9d 8f       	std	Y+29, r25	; 0x1d
    4b96:	8c 8f       	std	Y+28, r24	; 0x1c
    4b98:	0f c0       	rjmp	.+30     	; 0x4bb8 <moveOnDirection+0x21e>
    4b9a:	8a ef       	ldi	r24, 0xFA	; 250
    4b9c:	90 e0       	ldi	r25, 0x00	; 0
    4b9e:	9f 8f       	std	Y+31, r25	; 0x1f
    4ba0:	8e 8f       	std	Y+30, r24	; 0x1e
    4ba2:	8e 8d       	ldd	r24, Y+30	; 0x1e
    4ba4:	9f 8d       	ldd	r25, Y+31	; 0x1f
    4ba6:	01 97       	sbiw	r24, 0x01	; 1
    4ba8:	f1 f7       	brne	.-4      	; 0x4ba6 <moveOnDirection+0x20c>
    4baa:	9f 8f       	std	Y+31, r25	; 0x1f
    4bac:	8e 8f       	std	Y+30, r24	; 0x1e
    4bae:	8c 8d       	ldd	r24, Y+28	; 0x1c
    4bb0:	9d 8d       	ldd	r25, Y+29	; 0x1d
    4bb2:	01 97       	sbiw	r24, 0x01	; 1
    4bb4:	9d 8f       	std	Y+29, r25	; 0x1d
    4bb6:	8c 8f       	std	Y+28, r24	; 0x1c
    4bb8:	8c 8d       	ldd	r24, Y+28	; 0x1c
    4bba:	9d 8d       	ldd	r25, Y+29	; 0x1d
    4bbc:	00 97       	sbiw	r24, 0x00	; 0
    4bbe:	69 f7       	brne	.-38     	; 0x4b9a <moveOnDirection+0x200>
    4bc0:	14 c0       	rjmp	.+40     	; 0x4bea <moveOnDirection+0x250>
    4bc2:	68 8d       	ldd	r22, Y+24	; 0x18
    4bc4:	79 8d       	ldd	r23, Y+25	; 0x19
    4bc6:	8a 8d       	ldd	r24, Y+26	; 0x1a
    4bc8:	9b 8d       	ldd	r25, Y+27	; 0x1b
    4bca:	0e 94 70 41 	call	0x82e0	; 0x82e0 <__fixunssfsi>
    4bce:	dc 01       	movw	r26, r24
    4bd0:	cb 01       	movw	r24, r22
    4bd2:	9d 8f       	std	Y+29, r25	; 0x1d
    4bd4:	8c 8f       	std	Y+28, r24	; 0x1c
    4bd6:	8c 8d       	ldd	r24, Y+28	; 0x1c
    4bd8:	9d 8d       	ldd	r25, Y+29	; 0x1d
    4bda:	99 a3       	std	Y+33, r25	; 0x21
    4bdc:	88 a3       	std	Y+32, r24	; 0x20
    4bde:	88 a1       	ldd	r24, Y+32	; 0x20
    4be0:	99 a1       	ldd	r25, Y+33	; 0x21
    4be2:	01 97       	sbiw	r24, 0x01	; 1
    4be4:	f1 f7       	brne	.-4      	; 0x4be2 <moveOnDirection+0x248>
    4be6:	99 a3       	std	Y+33, r25	; 0x21
    4be8:	88 a3       	std	Y+32, r24	; 0x20
    4bea:	ce 01       	movw	r24, r28
    4bec:	ce 96       	adiw	r24, 0x3e	; 62
    4bee:	63 ec       	ldi	r22, 0xC3	; 195
    4bf0:	0e 94 95 11 	call	0x232a	; 0x232a <CAN_Write>
    4bf4:	88 23       	and	r24, r24
    4bf6:	09 f0       	breq	.+2      	; 0x4bfa <moveOnDirection+0x260>
    4bf8:	86 cf       	rjmp	.-244    	; 0x4b06 <moveOnDirection+0x16c>
    4bfa:	0e 94 7e 31 	call	0x62fc	; 0x62fc <getSystemTime>
    4bfe:	aa 27       	eor	r26, r26
    4c00:	97 fd       	sbrc	r25, 7
    4c02:	a0 95       	com	r26
    4c04:	ba 2f       	mov	r27, r26
    4c06:	89 83       	std	Y+1, r24	; 0x01
    4c08:	9a 83       	std	Y+2, r25	; 0x02
    4c0a:	ab 83       	std	Y+3, r26	; 0x03
    4c0c:	bc 83       	std	Y+4, r27	; 0x04
    4c0e:	80 e5       	ldi	r24, 0x50	; 80
    4c10:	8e af       	std	Y+62, r24	; 0x3e
    4c12:	72 c0       	rjmp	.+228    	; 0x4cf8 <moveOnDirection+0x35e>
    4c14:	80 e0       	ldi	r24, 0x00	; 0
    4c16:	90 e0       	ldi	r25, 0x00	; 0
    4c18:	a8 e4       	ldi	r26, 0x48	; 72
    4c1a:	b2 e4       	ldi	r27, 0x42	; 66
    4c1c:	8a a3       	std	Y+34, r24	; 0x22
    4c1e:	9b a3       	std	Y+35, r25	; 0x23
    4c20:	ac a3       	std	Y+36, r26	; 0x24
    4c22:	bd a3       	std	Y+37, r27	; 0x25
    4c24:	20 e0       	ldi	r18, 0x00	; 0
    4c26:	30 e4       	ldi	r19, 0x40	; 64
    4c28:	4c e1       	ldi	r20, 0x1C	; 28
    4c2a:	55 e4       	ldi	r21, 0x45	; 69
    4c2c:	6a a1       	ldd	r22, Y+34	; 0x22
    4c2e:	7b a1       	ldd	r23, Y+35	; 0x23
    4c30:	8c a1       	ldd	r24, Y+36	; 0x24
    4c32:	9d a1       	ldd	r25, Y+37	; 0x25
    4c34:	0e 94 90 42 	call	0x8520	; 0x8520 <__mulsf3>
    4c38:	dc 01       	movw	r26, r24
    4c3a:	cb 01       	movw	r24, r22
    4c3c:	8e a3       	std	Y+38, r24	; 0x26
    4c3e:	9f a3       	std	Y+39, r25	; 0x27
    4c40:	a8 a7       	std	Y+40, r26	; 0x28
    4c42:	b9 a7       	std	Y+41, r27	; 0x29
    4c44:	20 e0       	ldi	r18, 0x00	; 0
    4c46:	30 e0       	ldi	r19, 0x00	; 0
    4c48:	40 e8       	ldi	r20, 0x80	; 128
    4c4a:	5f e3       	ldi	r21, 0x3F	; 63
    4c4c:	6e a1       	ldd	r22, Y+38	; 0x26
    4c4e:	7f a1       	ldd	r23, Y+39	; 0x27
    4c50:	88 a5       	ldd	r24, Y+40	; 0x28
    4c52:	99 a5       	ldd	r25, Y+41	; 0x29
    4c54:	0e 94 04 41 	call	0x8208	; 0x8208 <__cmpsf2>
    4c58:	88 23       	and	r24, r24
    4c5a:	2c f4       	brge	.+10     	; 0x4c66 <moveOnDirection+0x2cc>
    4c5c:	81 e0       	ldi	r24, 0x01	; 1
    4c5e:	90 e0       	ldi	r25, 0x00	; 0
    4c60:	9b a7       	std	Y+43, r25	; 0x2b
    4c62:	8a a7       	std	Y+42, r24	; 0x2a
    4c64:	3f c0       	rjmp	.+126    	; 0x4ce4 <moveOnDirection+0x34a>
    4c66:	20 e0       	ldi	r18, 0x00	; 0
    4c68:	3f ef       	ldi	r19, 0xFF	; 255
    4c6a:	4f e7       	ldi	r20, 0x7F	; 127
    4c6c:	57 e4       	ldi	r21, 0x47	; 71
    4c6e:	6e a1       	ldd	r22, Y+38	; 0x26
    4c70:	7f a1       	ldd	r23, Y+39	; 0x27
    4c72:	88 a5       	ldd	r24, Y+40	; 0x28
    4c74:	99 a5       	ldd	r25, Y+41	; 0x29
    4c76:	0e 94 8c 42 	call	0x8518	; 0x8518 <__gesf2>
    4c7a:	18 16       	cp	r1, r24
    4c7c:	4c f5       	brge	.+82     	; 0x4cd0 <moveOnDirection+0x336>
    4c7e:	20 e0       	ldi	r18, 0x00	; 0
    4c80:	30 e0       	ldi	r19, 0x00	; 0
    4c82:	40 e2       	ldi	r20, 0x20	; 32
    4c84:	51 e4       	ldi	r21, 0x41	; 65
    4c86:	6a a1       	ldd	r22, Y+34	; 0x22
    4c88:	7b a1       	ldd	r23, Y+35	; 0x23
    4c8a:	8c a1       	ldd	r24, Y+36	; 0x24
    4c8c:	9d a1       	ldd	r25, Y+37	; 0x25
    4c8e:	0e 94 90 42 	call	0x8520	; 0x8520 <__mulsf3>
    4c92:	dc 01       	movw	r26, r24
    4c94:	cb 01       	movw	r24, r22
    4c96:	bc 01       	movw	r22, r24
    4c98:	cd 01       	movw	r24, r26
    4c9a:	0e 94 70 41 	call	0x82e0	; 0x82e0 <__fixunssfsi>
    4c9e:	dc 01       	movw	r26, r24
    4ca0:	cb 01       	movw	r24, r22
    4ca2:	9b a7       	std	Y+43, r25	; 0x2b
    4ca4:	8a a7       	std	Y+42, r24	; 0x2a
    4ca6:	0f c0       	rjmp	.+30     	; 0x4cc6 <moveOnDirection+0x32c>
    4ca8:	8a ef       	ldi	r24, 0xFA	; 250
    4caa:	90 e0       	ldi	r25, 0x00	; 0
    4cac:	9d a7       	std	Y+45, r25	; 0x2d
    4cae:	8c a7       	std	Y+44, r24	; 0x2c
    4cb0:	8c a5       	ldd	r24, Y+44	; 0x2c
    4cb2:	9d a5       	ldd	r25, Y+45	; 0x2d
    4cb4:	01 97       	sbiw	r24, 0x01	; 1
    4cb6:	f1 f7       	brne	.-4      	; 0x4cb4 <moveOnDirection+0x31a>
    4cb8:	9d a7       	std	Y+45, r25	; 0x2d
    4cba:	8c a7       	std	Y+44, r24	; 0x2c
    4cbc:	8a a5       	ldd	r24, Y+42	; 0x2a
    4cbe:	9b a5       	ldd	r25, Y+43	; 0x2b
    4cc0:	01 97       	sbiw	r24, 0x01	; 1
    4cc2:	9b a7       	std	Y+43, r25	; 0x2b
    4cc4:	8a a7       	std	Y+42, r24	; 0x2a
    4cc6:	8a a5       	ldd	r24, Y+42	; 0x2a
    4cc8:	9b a5       	ldd	r25, Y+43	; 0x2b
    4cca:	00 97       	sbiw	r24, 0x00	; 0
    4ccc:	69 f7       	brne	.-38     	; 0x4ca8 <moveOnDirection+0x30e>
    4cce:	14 c0       	rjmp	.+40     	; 0x4cf8 <moveOnDirection+0x35e>
    4cd0:	6e a1       	ldd	r22, Y+38	; 0x26
    4cd2:	7f a1       	ldd	r23, Y+39	; 0x27
    4cd4:	88 a5       	ldd	r24, Y+40	; 0x28
    4cd6:	99 a5       	ldd	r25, Y+41	; 0x29
    4cd8:	0e 94 70 41 	call	0x82e0	; 0x82e0 <__fixunssfsi>
    4cdc:	dc 01       	movw	r26, r24
    4cde:	cb 01       	movw	r24, r22
    4ce0:	9b a7       	std	Y+43, r25	; 0x2b
    4ce2:	8a a7       	std	Y+42, r24	; 0x2a
    4ce4:	8a a5       	ldd	r24, Y+42	; 0x2a
    4ce6:	9b a5       	ldd	r25, Y+43	; 0x2b
    4ce8:	9f a7       	std	Y+47, r25	; 0x2f
    4cea:	8e a7       	std	Y+46, r24	; 0x2e
    4cec:	8e a5       	ldd	r24, Y+46	; 0x2e
    4cee:	9f a5       	ldd	r25, Y+47	; 0x2f
    4cf0:	01 97       	sbiw	r24, 0x01	; 1
    4cf2:	f1 f7       	brne	.-4      	; 0x4cf0 <moveOnDirection+0x356>
    4cf4:	9f a7       	std	Y+47, r25	; 0x2f
    4cf6:	8e a7       	std	Y+46, r24	; 0x2e
    4cf8:	ce 01       	movw	r24, r28
    4cfa:	ce 96       	adiw	r24, 0x3e	; 62
    4cfc:	63 ec       	ldi	r22, 0xC3	; 195
    4cfe:	0e 94 95 11 	call	0x232a	; 0x232a <CAN_Write>
    4d02:	88 23       	and	r24, r24
    4d04:	09 f0       	breq	.+2      	; 0x4d08 <moveOnDirection+0x36e>
    4d06:	86 cf       	rjmp	.-244    	; 0x4c14 <moveOnDirection+0x27a>
    4d08:	ce 01       	movw	r24, r28
    4d0a:	ce 96       	adiw	r24, 0x3e	; 62
    4d0c:	61 e0       	ldi	r22, 0x01	; 1
    4d0e:	0e 94 25 11 	call	0x224a	; 0x224a <CAN_Read>
    4d12:	8e ad       	ldd	r24, Y+62	; 0x3e
    4d14:	89 34       	cpi	r24, 0x49	; 73
    4d16:	11 f4       	brne	.+4      	; 0x4d1c <moveOnDirection+0x382>
    4d18:	80 e0       	ldi	r24, 0x00	; 0
    4d1a:	9e c0       	rjmp	.+316    	; 0x4e58 <moveOnDirection+0x4be>
    4d1c:	8e ad       	ldd	r24, Y+62	; 0x3e
    4d1e:	83 35       	cpi	r24, 0x53	; 83
    4d20:	11 f4       	brne	.+4      	; 0x4d26 <moveOnDirection+0x38c>
    4d22:	82 e0       	ldi	r24, 0x02	; 2
    4d24:	99 c0       	rjmp	.+306    	; 0x4e58 <moveOnDirection+0x4be>
    4d26:	8e ad       	ldd	r24, Y+62	; 0x3e
    4d28:	85 34       	cpi	r24, 0x45	; 69
    4d2a:	11 f4       	brne	.+4      	; 0x4d30 <moveOnDirection+0x396>
    4d2c:	81 e0       	ldi	r24, 0x01	; 1
    4d2e:	94 c0       	rjmp	.+296    	; 0x4e58 <moveOnDirection+0x4be>
    4d30:	80 e0       	ldi	r24, 0x00	; 0
    4d32:	90 e0       	ldi	r25, 0x00	; 0
    4d34:	a8 e4       	ldi	r26, 0x48	; 72
    4d36:	b2 e4       	ldi	r27, 0x42	; 66
    4d38:	88 ab       	std	Y+48, r24	; 0x30
    4d3a:	99 ab       	std	Y+49, r25	; 0x31
    4d3c:	aa ab       	std	Y+50, r26	; 0x32
    4d3e:	bb ab       	std	Y+51, r27	; 0x33
    4d40:	20 e0       	ldi	r18, 0x00	; 0
    4d42:	30 e4       	ldi	r19, 0x40	; 64
    4d44:	4c e1       	ldi	r20, 0x1C	; 28
    4d46:	55 e4       	ldi	r21, 0x45	; 69
    4d48:	68 a9       	ldd	r22, Y+48	; 0x30
    4d4a:	79 a9       	ldd	r23, Y+49	; 0x31
    4d4c:	8a a9       	ldd	r24, Y+50	; 0x32
    4d4e:	9b a9       	ldd	r25, Y+51	; 0x33
    4d50:	0e 94 90 42 	call	0x8520	; 0x8520 <__mulsf3>
    4d54:	dc 01       	movw	r26, r24
    4d56:	cb 01       	movw	r24, r22
    4d58:	8c ab       	std	Y+52, r24	; 0x34
    4d5a:	9d ab       	std	Y+53, r25	; 0x35
    4d5c:	ae ab       	std	Y+54, r26	; 0x36
    4d5e:	bf ab       	std	Y+55, r27	; 0x37
    4d60:	20 e0       	ldi	r18, 0x00	; 0
    4d62:	30 e0       	ldi	r19, 0x00	; 0
    4d64:	40 e8       	ldi	r20, 0x80	; 128
    4d66:	5f e3       	ldi	r21, 0x3F	; 63
    4d68:	6c a9       	ldd	r22, Y+52	; 0x34
    4d6a:	7d a9       	ldd	r23, Y+53	; 0x35
    4d6c:	8e a9       	ldd	r24, Y+54	; 0x36
    4d6e:	9f a9       	ldd	r25, Y+55	; 0x37
    4d70:	0e 94 04 41 	call	0x8208	; 0x8208 <__cmpsf2>
    4d74:	88 23       	and	r24, r24
    4d76:	2c f4       	brge	.+10     	; 0x4d82 <moveOnDirection+0x3e8>
    4d78:	81 e0       	ldi	r24, 0x01	; 1
    4d7a:	90 e0       	ldi	r25, 0x00	; 0
    4d7c:	99 af       	std	Y+57, r25	; 0x39
    4d7e:	88 af       	std	Y+56, r24	; 0x38
    4d80:	3f c0       	rjmp	.+126    	; 0x4e00 <moveOnDirection+0x466>
    4d82:	20 e0       	ldi	r18, 0x00	; 0
    4d84:	3f ef       	ldi	r19, 0xFF	; 255
    4d86:	4f e7       	ldi	r20, 0x7F	; 127
    4d88:	57 e4       	ldi	r21, 0x47	; 71
    4d8a:	6c a9       	ldd	r22, Y+52	; 0x34
    4d8c:	7d a9       	ldd	r23, Y+53	; 0x35
    4d8e:	8e a9       	ldd	r24, Y+54	; 0x36
    4d90:	9f a9       	ldd	r25, Y+55	; 0x37
    4d92:	0e 94 8c 42 	call	0x8518	; 0x8518 <__gesf2>
    4d96:	18 16       	cp	r1, r24
    4d98:	4c f5       	brge	.+82     	; 0x4dec <moveOnDirection+0x452>
    4d9a:	20 e0       	ldi	r18, 0x00	; 0
    4d9c:	30 e0       	ldi	r19, 0x00	; 0
    4d9e:	40 e2       	ldi	r20, 0x20	; 32
    4da0:	51 e4       	ldi	r21, 0x41	; 65
    4da2:	68 a9       	ldd	r22, Y+48	; 0x30
    4da4:	79 a9       	ldd	r23, Y+49	; 0x31
    4da6:	8a a9       	ldd	r24, Y+50	; 0x32
    4da8:	9b a9       	ldd	r25, Y+51	; 0x33
    4daa:	0e 94 90 42 	call	0x8520	; 0x8520 <__mulsf3>
    4dae:	dc 01       	movw	r26, r24
    4db0:	cb 01       	movw	r24, r22
    4db2:	bc 01       	movw	r22, r24
    4db4:	cd 01       	movw	r24, r26
    4db6:	0e 94 70 41 	call	0x82e0	; 0x82e0 <__fixunssfsi>
    4dba:	dc 01       	movw	r26, r24
    4dbc:	cb 01       	movw	r24, r22
    4dbe:	99 af       	std	Y+57, r25	; 0x39
    4dc0:	88 af       	std	Y+56, r24	; 0x38
    4dc2:	0f c0       	rjmp	.+30     	; 0x4de2 <moveOnDirection+0x448>
    4dc4:	8a ef       	ldi	r24, 0xFA	; 250
    4dc6:	90 e0       	ldi	r25, 0x00	; 0
    4dc8:	9b af       	std	Y+59, r25	; 0x3b
    4dca:	8a af       	std	Y+58, r24	; 0x3a
    4dcc:	8a ad       	ldd	r24, Y+58	; 0x3a
    4dce:	9b ad       	ldd	r25, Y+59	; 0x3b
    4dd0:	01 97       	sbiw	r24, 0x01	; 1
    4dd2:	f1 f7       	brne	.-4      	; 0x4dd0 <moveOnDirection+0x436>
    4dd4:	9b af       	std	Y+59, r25	; 0x3b
    4dd6:	8a af       	std	Y+58, r24	; 0x3a
    4dd8:	88 ad       	ldd	r24, Y+56	; 0x38
    4dda:	99 ad       	ldd	r25, Y+57	; 0x39
    4ddc:	01 97       	sbiw	r24, 0x01	; 1
    4dde:	99 af       	std	Y+57, r25	; 0x39
    4de0:	88 af       	std	Y+56, r24	; 0x38
    4de2:	88 ad       	ldd	r24, Y+56	; 0x38
    4de4:	99 ad       	ldd	r25, Y+57	; 0x39
    4de6:	00 97       	sbiw	r24, 0x00	; 0
    4de8:	69 f7       	brne	.-38     	; 0x4dc4 <moveOnDirection+0x42a>
    4dea:	14 c0       	rjmp	.+40     	; 0x4e14 <moveOnDirection+0x47a>
    4dec:	6c a9       	ldd	r22, Y+52	; 0x34
    4dee:	7d a9       	ldd	r23, Y+53	; 0x35
    4df0:	8e a9       	ldd	r24, Y+54	; 0x36
    4df2:	9f a9       	ldd	r25, Y+55	; 0x37
    4df4:	0e 94 70 41 	call	0x82e0	; 0x82e0 <__fixunssfsi>
    4df8:	dc 01       	movw	r26, r24
    4dfa:	cb 01       	movw	r24, r22
    4dfc:	99 af       	std	Y+57, r25	; 0x39
    4dfe:	88 af       	std	Y+56, r24	; 0x38
    4e00:	88 ad       	ldd	r24, Y+56	; 0x38
    4e02:	99 ad       	ldd	r25, Y+57	; 0x39
    4e04:	9d af       	std	Y+61, r25	; 0x3d
    4e06:	8c af       	std	Y+60, r24	; 0x3c
    4e08:	8c ad       	ldd	r24, Y+60	; 0x3c
    4e0a:	9d ad       	ldd	r25, Y+61	; 0x3d
    4e0c:	01 97       	sbiw	r24, 0x01	; 1
    4e0e:	f1 f7       	brne	.-4      	; 0x4e0c <moveOnDirection+0x472>
    4e10:	9d af       	std	Y+61, r25	; 0x3d
    4e12:	8c af       	std	Y+60, r24	; 0x3c
    4e14:	ce 01       	movw	r24, r28
    4e16:	87 5b       	subi	r24, 0xB7	; 183
    4e18:	9f 4f       	sbci	r25, 0xFF	; 255
    4e1a:	fc 01       	movw	r30, r24
    4e1c:	80 81       	ld	r24, Z
    4e1e:	91 81       	ldd	r25, Z+1	; 0x01
    4e20:	00 97       	sbiw	r24, 0x00	; 0
    4e22:	c9 f0       	breq	.+50     	; 0x4e56 <moveOnDirection+0x4bc>
    4e24:	9e 01       	movw	r18, r28
    4e26:	27 5b       	subi	r18, 0xB7	; 183
    4e28:	3f 4f       	sbci	r19, 0xFF	; 255
    4e2a:	89 81       	ldd	r24, Y+1	; 0x01
    4e2c:	9a 81       	ldd	r25, Y+2	; 0x02
    4e2e:	ab 81       	ldd	r26, Y+3	; 0x03
    4e30:	bc 81       	ldd	r27, Y+4	; 0x04
    4e32:	f9 01       	movw	r30, r18
    4e34:	20 81       	ld	r18, Z
    4e36:	31 81       	ldd	r19, Z+1	; 0x01
    4e38:	bc 01       	movw	r22, r24
    4e3a:	cd 01       	movw	r24, r26
    4e3c:	f9 01       	movw	r30, r18
    4e3e:	09 95       	icall
    4e40:	8d 83       	std	Y+5, r24	; 0x05
    4e42:	8d 81       	ldd	r24, Y+5	; 0x05
    4e44:	81 30       	cpi	r24, 0x01	; 1
    4e46:	11 f4       	brne	.+4      	; 0x4e4c <moveOnDirection+0x4b2>
    4e48:	81 e0       	ldi	r24, 0x01	; 1
    4e4a:	06 c0       	rjmp	.+12     	; 0x4e58 <moveOnDirection+0x4be>
    4e4c:	8d 81       	ldd	r24, Y+5	; 0x05
    4e4e:	82 30       	cpi	r24, 0x02	; 2
    4e50:	11 f4       	brne	.+4      	; 0x4e56 <moveOnDirection+0x4bc>
    4e52:	83 e0       	ldi	r24, 0x03	; 3
    4e54:	01 c0       	rjmp	.+2      	; 0x4e58 <moveOnDirection+0x4be>
    4e56:	db ce       	rjmp	.-586    	; 0x4c0e <moveOnDirection+0x274>
    4e58:	c6 5b       	subi	r28, 0xB6	; 182
    4e5a:	df 4f       	sbci	r29, 0xFF	; 255
    4e5c:	0f b6       	in	r0, 0x3f	; 63
    4e5e:	f8 94       	cli
    4e60:	de bf       	out	0x3e, r29	; 62
    4e62:	0f be       	out	0x3f, r0	; 63
    4e64:	cd bf       	out	0x3d, r28	; 61
    4e66:	df 91       	pop	r29
    4e68:	cf 91       	pop	r28
    4e6a:	08 95       	ret

00004e6c <gotoXY>:
    4e6c:	ef 92       	push	r14
    4e6e:	ff 92       	push	r15
    4e70:	0f 93       	push	r16
    4e72:	cf 93       	push	r28
    4e74:	df 93       	push	r29
    4e76:	cd b7       	in	r28, 0x3d	; 61
    4e78:	de b7       	in	r29, 0x3e	; 62
    4e7a:	cf 54       	subi	r28, 0x4F	; 79
    4e7c:	d1 09       	sbc	r29, r1
    4e7e:	0f b6       	in	r0, 0x3f	; 63
    4e80:	f8 94       	cli
    4e82:	de bf       	out	0x3e, r29	; 62
    4e84:	0f be       	out	0x3f, r0	; 63
    4e86:	cd bf       	out	0x3d, r28	; 61
    4e88:	fe 01       	movw	r30, r28
    4e8a:	ea 5b       	subi	r30, 0xBA	; 186
    4e8c:	ff 4f       	sbci	r31, 0xFF	; 255
    4e8e:	40 83       	st	Z, r20
    4e90:	51 83       	std	Z+1, r21	; 0x01
    4e92:	62 83       	std	Z+2, r22	; 0x02
    4e94:	73 83       	std	Z+3, r23	; 0x03
    4e96:	84 83       	std	Z+4, r24	; 0x04
    4e98:	95 83       	std	Z+5, r25	; 0x05
    4e9a:	ce 01       	movw	r24, r28
    4e9c:	84 5b       	subi	r24, 0xB4	; 180
    4e9e:	9f 4f       	sbci	r25, 0xFF	; 255
    4ea0:	fc 01       	movw	r30, r24
    4ea2:	20 83       	st	Z, r18
    4ea4:	ce 01       	movw	r24, r28
    4ea6:	83 5b       	subi	r24, 0xB3	; 179
    4ea8:	9f 4f       	sbci	r25, 0xFF	; 255
    4eaa:	fc 01       	movw	r30, r24
    4eac:	00 83       	st	Z, r16
    4eae:	ce 01       	movw	r24, r28
    4eb0:	82 5b       	subi	r24, 0xB2	; 178
    4eb2:	9f 4f       	sbci	r25, 0xFF	; 255
    4eb4:	fc 01       	movw	r30, r24
    4eb6:	f1 82       	std	Z+1, r15	; 0x01
    4eb8:	e0 82       	st	Z, r14
    4eba:	86 e5       	ldi	r24, 0x56	; 86
    4ebc:	8e af       	std	Y+62, r24	; 0x3e
    4ebe:	ce 01       	movw	r24, r28
    4ec0:	84 5b       	subi	r24, 0xB4	; 180
    4ec2:	9f 4f       	sbci	r25, 0xFF	; 255
    4ec4:	fc 01       	movw	r30, r24
    4ec6:	80 81       	ld	r24, Z
    4ec8:	8f af       	std	Y+63, r24	; 0x3f
    4eca:	72 c0       	rjmp	.+228    	; 0x4fb0 <gotoXY+0x144>
    4ecc:	80 e0       	ldi	r24, 0x00	; 0
    4ece:	90 e0       	ldi	r25, 0x00	; 0
    4ed0:	a8 e4       	ldi	r26, 0x48	; 72
    4ed2:	b2 e4       	ldi	r27, 0x42	; 66
    4ed4:	8e 83       	std	Y+6, r24	; 0x06
    4ed6:	9f 83       	std	Y+7, r25	; 0x07
    4ed8:	a8 87       	std	Y+8, r26	; 0x08
    4eda:	b9 87       	std	Y+9, r27	; 0x09
    4edc:	20 e0       	ldi	r18, 0x00	; 0
    4ede:	30 e4       	ldi	r19, 0x40	; 64
    4ee0:	4c e1       	ldi	r20, 0x1C	; 28
    4ee2:	55 e4       	ldi	r21, 0x45	; 69
    4ee4:	6e 81       	ldd	r22, Y+6	; 0x06
    4ee6:	7f 81       	ldd	r23, Y+7	; 0x07
    4ee8:	88 85       	ldd	r24, Y+8	; 0x08
    4eea:	99 85       	ldd	r25, Y+9	; 0x09
    4eec:	0e 94 90 42 	call	0x8520	; 0x8520 <__mulsf3>
    4ef0:	dc 01       	movw	r26, r24
    4ef2:	cb 01       	movw	r24, r22
    4ef4:	8a 87       	std	Y+10, r24	; 0x0a
    4ef6:	9b 87       	std	Y+11, r25	; 0x0b
    4ef8:	ac 87       	std	Y+12, r26	; 0x0c
    4efa:	bd 87       	std	Y+13, r27	; 0x0d
    4efc:	20 e0       	ldi	r18, 0x00	; 0
    4efe:	30 e0       	ldi	r19, 0x00	; 0
    4f00:	40 e8       	ldi	r20, 0x80	; 128
    4f02:	5f e3       	ldi	r21, 0x3F	; 63
    4f04:	6a 85       	ldd	r22, Y+10	; 0x0a
    4f06:	7b 85       	ldd	r23, Y+11	; 0x0b
    4f08:	8c 85       	ldd	r24, Y+12	; 0x0c
    4f0a:	9d 85       	ldd	r25, Y+13	; 0x0d
    4f0c:	0e 94 04 41 	call	0x8208	; 0x8208 <__cmpsf2>
    4f10:	88 23       	and	r24, r24
    4f12:	2c f4       	brge	.+10     	; 0x4f1e <gotoXY+0xb2>
    4f14:	81 e0       	ldi	r24, 0x01	; 1
    4f16:	90 e0       	ldi	r25, 0x00	; 0
    4f18:	9f 87       	std	Y+15, r25	; 0x0f
    4f1a:	8e 87       	std	Y+14, r24	; 0x0e
    4f1c:	3f c0       	rjmp	.+126    	; 0x4f9c <gotoXY+0x130>
    4f1e:	20 e0       	ldi	r18, 0x00	; 0
    4f20:	3f ef       	ldi	r19, 0xFF	; 255
    4f22:	4f e7       	ldi	r20, 0x7F	; 127
    4f24:	57 e4       	ldi	r21, 0x47	; 71
    4f26:	6a 85       	ldd	r22, Y+10	; 0x0a
    4f28:	7b 85       	ldd	r23, Y+11	; 0x0b
    4f2a:	8c 85       	ldd	r24, Y+12	; 0x0c
    4f2c:	9d 85       	ldd	r25, Y+13	; 0x0d
    4f2e:	0e 94 8c 42 	call	0x8518	; 0x8518 <__gesf2>
    4f32:	18 16       	cp	r1, r24
    4f34:	4c f5       	brge	.+82     	; 0x4f88 <gotoXY+0x11c>
    4f36:	20 e0       	ldi	r18, 0x00	; 0
    4f38:	30 e0       	ldi	r19, 0x00	; 0
    4f3a:	40 e2       	ldi	r20, 0x20	; 32
    4f3c:	51 e4       	ldi	r21, 0x41	; 65
    4f3e:	6e 81       	ldd	r22, Y+6	; 0x06
    4f40:	7f 81       	ldd	r23, Y+7	; 0x07
    4f42:	88 85       	ldd	r24, Y+8	; 0x08
    4f44:	99 85       	ldd	r25, Y+9	; 0x09
    4f46:	0e 94 90 42 	call	0x8520	; 0x8520 <__mulsf3>
    4f4a:	dc 01       	movw	r26, r24
    4f4c:	cb 01       	movw	r24, r22
    4f4e:	bc 01       	movw	r22, r24
    4f50:	cd 01       	movw	r24, r26
    4f52:	0e 94 70 41 	call	0x82e0	; 0x82e0 <__fixunssfsi>
    4f56:	dc 01       	movw	r26, r24
    4f58:	cb 01       	movw	r24, r22
    4f5a:	9f 87       	std	Y+15, r25	; 0x0f
    4f5c:	8e 87       	std	Y+14, r24	; 0x0e
    4f5e:	0f c0       	rjmp	.+30     	; 0x4f7e <gotoXY+0x112>
    4f60:	8a ef       	ldi	r24, 0xFA	; 250
    4f62:	90 e0       	ldi	r25, 0x00	; 0
    4f64:	99 8b       	std	Y+17, r25	; 0x11
    4f66:	88 8b       	std	Y+16, r24	; 0x10
    4f68:	88 89       	ldd	r24, Y+16	; 0x10
    4f6a:	99 89       	ldd	r25, Y+17	; 0x11
    4f6c:	01 97       	sbiw	r24, 0x01	; 1
    4f6e:	f1 f7       	brne	.-4      	; 0x4f6c <gotoXY+0x100>
    4f70:	99 8b       	std	Y+17, r25	; 0x11
    4f72:	88 8b       	std	Y+16, r24	; 0x10
    4f74:	8e 85       	ldd	r24, Y+14	; 0x0e
    4f76:	9f 85       	ldd	r25, Y+15	; 0x0f
    4f78:	01 97       	sbiw	r24, 0x01	; 1
    4f7a:	9f 87       	std	Y+15, r25	; 0x0f
    4f7c:	8e 87       	std	Y+14, r24	; 0x0e
    4f7e:	8e 85       	ldd	r24, Y+14	; 0x0e
    4f80:	9f 85       	ldd	r25, Y+15	; 0x0f
    4f82:	00 97       	sbiw	r24, 0x00	; 0
    4f84:	69 f7       	brne	.-38     	; 0x4f60 <gotoXY+0xf4>
    4f86:	14 c0       	rjmp	.+40     	; 0x4fb0 <gotoXY+0x144>
    4f88:	6a 85       	ldd	r22, Y+10	; 0x0a
    4f8a:	7b 85       	ldd	r23, Y+11	; 0x0b
    4f8c:	8c 85       	ldd	r24, Y+12	; 0x0c
    4f8e:	9d 85       	ldd	r25, Y+13	; 0x0d
    4f90:	0e 94 70 41 	call	0x82e0	; 0x82e0 <__fixunssfsi>
    4f94:	dc 01       	movw	r26, r24
    4f96:	cb 01       	movw	r24, r22
    4f98:	9f 87       	std	Y+15, r25	; 0x0f
    4f9a:	8e 87       	std	Y+14, r24	; 0x0e
    4f9c:	8e 85       	ldd	r24, Y+14	; 0x0e
    4f9e:	9f 85       	ldd	r25, Y+15	; 0x0f
    4fa0:	9b 8b       	std	Y+19, r25	; 0x13
    4fa2:	8a 8b       	std	Y+18, r24	; 0x12
    4fa4:	8a 89       	ldd	r24, Y+18	; 0x12
    4fa6:	9b 89       	ldd	r25, Y+19	; 0x13
    4fa8:	01 97       	sbiw	r24, 0x01	; 1
    4faa:	f1 f7       	brne	.-4      	; 0x4fa8 <gotoXY+0x13c>
    4fac:	9b 8b       	std	Y+19, r25	; 0x13
    4fae:	8a 8b       	std	Y+18, r24	; 0x12
    4fb0:	ce 01       	movw	r24, r28
    4fb2:	ce 96       	adiw	r24, 0x3e	; 62
    4fb4:	63 ec       	ldi	r22, 0xC3	; 195
    4fb6:	0e 94 95 11 	call	0x232a	; 0x232a <CAN_Write>
    4fba:	88 23       	and	r24, r24
    4fbc:	09 f0       	breq	.+2      	; 0x4fc0 <gotoXY+0x154>
    4fbe:	86 cf       	rjmp	.-244    	; 0x4ecc <gotoXY+0x60>
    4fc0:	87 e4       	ldi	r24, 0x47	; 71
    4fc2:	8e af       	std	Y+62, r24	; 0x3e
    4fc4:	ce 01       	movw	r24, r28
    4fc6:	8a 5b       	subi	r24, 0xBA	; 186
    4fc8:	9f 4f       	sbci	r25, 0xFF	; 255
    4fca:	fc 01       	movw	r30, r24
    4fcc:	80 81       	ld	r24, Z
    4fce:	91 81       	ldd	r25, Z+1	; 0x01
    4fd0:	89 2f       	mov	r24, r25
    4fd2:	99 0f       	add	r25, r25
    4fd4:	99 0b       	sbc	r25, r25
    4fd6:	8f af       	std	Y+63, r24	; 0x3f
    4fd8:	ce 01       	movw	r24, r28
    4fda:	8a 5b       	subi	r24, 0xBA	; 186
    4fdc:	9f 4f       	sbci	r25, 0xFF	; 255
    4fde:	fc 01       	movw	r30, r24
    4fe0:	80 81       	ld	r24, Z
    4fe2:	91 81       	ldd	r25, Z+1	; 0x01
    4fe4:	28 2f       	mov	r18, r24
    4fe6:	ce 01       	movw	r24, r28
    4fe8:	80 5c       	subi	r24, 0xC0	; 192
    4fea:	9f 4f       	sbci	r25, 0xFF	; 255
    4fec:	fc 01       	movw	r30, r24
    4fee:	20 83       	st	Z, r18
    4ff0:	ce 01       	movw	r24, r28
    4ff2:	8a 5b       	subi	r24, 0xBA	; 186
    4ff4:	9f 4f       	sbci	r25, 0xFF	; 255
    4ff6:	fc 01       	movw	r30, r24
    4ff8:	82 81       	ldd	r24, Z+2	; 0x02
    4ffa:	93 81       	ldd	r25, Z+3	; 0x03
    4ffc:	89 2f       	mov	r24, r25
    4ffe:	99 0f       	add	r25, r25
    5000:	99 0b       	sbc	r25, r25
    5002:	28 2f       	mov	r18, r24
    5004:	ce 01       	movw	r24, r28
    5006:	8f 5b       	subi	r24, 0xBF	; 191
    5008:	9f 4f       	sbci	r25, 0xFF	; 255
    500a:	fc 01       	movw	r30, r24
    500c:	20 83       	st	Z, r18
    500e:	ce 01       	movw	r24, r28
    5010:	8a 5b       	subi	r24, 0xBA	; 186
    5012:	9f 4f       	sbci	r25, 0xFF	; 255
    5014:	fc 01       	movw	r30, r24
    5016:	82 81       	ldd	r24, Z+2	; 0x02
    5018:	93 81       	ldd	r25, Z+3	; 0x03
    501a:	28 2f       	mov	r18, r24
    501c:	ce 01       	movw	r24, r28
    501e:	8e 5b       	subi	r24, 0xBE	; 190
    5020:	9f 4f       	sbci	r25, 0xFF	; 255
    5022:	fc 01       	movw	r30, r24
    5024:	20 83       	st	Z, r18
    5026:	ce 01       	movw	r24, r28
    5028:	8d 5b       	subi	r24, 0xBD	; 189
    502a:	9f 4f       	sbci	r25, 0xFF	; 255
    502c:	fc 01       	movw	r30, r24
    502e:	10 82       	st	Z, r1
    5030:	ce 01       	movw	r24, r28
    5032:	83 5b       	subi	r24, 0xB3	; 179
    5034:	9f 4f       	sbci	r25, 0xFF	; 255
    5036:	fc 01       	movw	r30, r24
    5038:	20 81       	ld	r18, Z
    503a:	ce 01       	movw	r24, r28
    503c:	8c 5b       	subi	r24, 0xBC	; 188
    503e:	9f 4f       	sbci	r25, 0xFF	; 255
    5040:	fc 01       	movw	r30, r24
    5042:	20 83       	st	Z, r18
    5044:	72 c0       	rjmp	.+228    	; 0x512a <gotoXY+0x2be>
    5046:	80 e0       	ldi	r24, 0x00	; 0
    5048:	90 e0       	ldi	r25, 0x00	; 0
    504a:	a8 e4       	ldi	r26, 0x48	; 72
    504c:	b2 e4       	ldi	r27, 0x42	; 66
    504e:	8c 8b       	std	Y+20, r24	; 0x14
    5050:	9d 8b       	std	Y+21, r25	; 0x15
    5052:	ae 8b       	std	Y+22, r26	; 0x16
    5054:	bf 8b       	std	Y+23, r27	; 0x17
    5056:	20 e0       	ldi	r18, 0x00	; 0
    5058:	30 e4       	ldi	r19, 0x40	; 64
    505a:	4c e1       	ldi	r20, 0x1C	; 28
    505c:	55 e4       	ldi	r21, 0x45	; 69
    505e:	6c 89       	ldd	r22, Y+20	; 0x14
    5060:	7d 89       	ldd	r23, Y+21	; 0x15
    5062:	8e 89       	ldd	r24, Y+22	; 0x16
    5064:	9f 89       	ldd	r25, Y+23	; 0x17
    5066:	0e 94 90 42 	call	0x8520	; 0x8520 <__mulsf3>
    506a:	dc 01       	movw	r26, r24
    506c:	cb 01       	movw	r24, r22
    506e:	88 8f       	std	Y+24, r24	; 0x18
    5070:	99 8f       	std	Y+25, r25	; 0x19
    5072:	aa 8f       	std	Y+26, r26	; 0x1a
    5074:	bb 8f       	std	Y+27, r27	; 0x1b
    5076:	20 e0       	ldi	r18, 0x00	; 0
    5078:	30 e0       	ldi	r19, 0x00	; 0
    507a:	40 e8       	ldi	r20, 0x80	; 128
    507c:	5f e3       	ldi	r21, 0x3F	; 63
    507e:	68 8d       	ldd	r22, Y+24	; 0x18
    5080:	79 8d       	ldd	r23, Y+25	; 0x19
    5082:	8a 8d       	ldd	r24, Y+26	; 0x1a
    5084:	9b 8d       	ldd	r25, Y+27	; 0x1b
    5086:	0e 94 04 41 	call	0x8208	; 0x8208 <__cmpsf2>
    508a:	88 23       	and	r24, r24
    508c:	2c f4       	brge	.+10     	; 0x5098 <gotoXY+0x22c>
    508e:	81 e0       	ldi	r24, 0x01	; 1
    5090:	90 e0       	ldi	r25, 0x00	; 0
    5092:	9d 8f       	std	Y+29, r25	; 0x1d
    5094:	8c 8f       	std	Y+28, r24	; 0x1c
    5096:	3f c0       	rjmp	.+126    	; 0x5116 <gotoXY+0x2aa>
    5098:	20 e0       	ldi	r18, 0x00	; 0
    509a:	3f ef       	ldi	r19, 0xFF	; 255
    509c:	4f e7       	ldi	r20, 0x7F	; 127
    509e:	57 e4       	ldi	r21, 0x47	; 71
    50a0:	68 8d       	ldd	r22, Y+24	; 0x18
    50a2:	79 8d       	ldd	r23, Y+25	; 0x19
    50a4:	8a 8d       	ldd	r24, Y+26	; 0x1a
    50a6:	9b 8d       	ldd	r25, Y+27	; 0x1b
    50a8:	0e 94 8c 42 	call	0x8518	; 0x8518 <__gesf2>
    50ac:	18 16       	cp	r1, r24
    50ae:	4c f5       	brge	.+82     	; 0x5102 <gotoXY+0x296>
    50b0:	20 e0       	ldi	r18, 0x00	; 0
    50b2:	30 e0       	ldi	r19, 0x00	; 0
    50b4:	40 e2       	ldi	r20, 0x20	; 32
    50b6:	51 e4       	ldi	r21, 0x41	; 65
    50b8:	6c 89       	ldd	r22, Y+20	; 0x14
    50ba:	7d 89       	ldd	r23, Y+21	; 0x15
    50bc:	8e 89       	ldd	r24, Y+22	; 0x16
    50be:	9f 89       	ldd	r25, Y+23	; 0x17
    50c0:	0e 94 90 42 	call	0x8520	; 0x8520 <__mulsf3>
    50c4:	dc 01       	movw	r26, r24
    50c6:	cb 01       	movw	r24, r22
    50c8:	bc 01       	movw	r22, r24
    50ca:	cd 01       	movw	r24, r26
    50cc:	0e 94 70 41 	call	0x82e0	; 0x82e0 <__fixunssfsi>
    50d0:	dc 01       	movw	r26, r24
    50d2:	cb 01       	movw	r24, r22
    50d4:	9d 8f       	std	Y+29, r25	; 0x1d
    50d6:	8c 8f       	std	Y+28, r24	; 0x1c
    50d8:	0f c0       	rjmp	.+30     	; 0x50f8 <gotoXY+0x28c>
    50da:	8a ef       	ldi	r24, 0xFA	; 250
    50dc:	90 e0       	ldi	r25, 0x00	; 0
    50de:	9f 8f       	std	Y+31, r25	; 0x1f
    50e0:	8e 8f       	std	Y+30, r24	; 0x1e
    50e2:	8e 8d       	ldd	r24, Y+30	; 0x1e
    50e4:	9f 8d       	ldd	r25, Y+31	; 0x1f
    50e6:	01 97       	sbiw	r24, 0x01	; 1
    50e8:	f1 f7       	brne	.-4      	; 0x50e6 <gotoXY+0x27a>
    50ea:	9f 8f       	std	Y+31, r25	; 0x1f
    50ec:	8e 8f       	std	Y+30, r24	; 0x1e
    50ee:	8c 8d       	ldd	r24, Y+28	; 0x1c
    50f0:	9d 8d       	ldd	r25, Y+29	; 0x1d
    50f2:	01 97       	sbiw	r24, 0x01	; 1
    50f4:	9d 8f       	std	Y+29, r25	; 0x1d
    50f6:	8c 8f       	std	Y+28, r24	; 0x1c
    50f8:	8c 8d       	ldd	r24, Y+28	; 0x1c
    50fa:	9d 8d       	ldd	r25, Y+29	; 0x1d
    50fc:	00 97       	sbiw	r24, 0x00	; 0
    50fe:	69 f7       	brne	.-38     	; 0x50da <gotoXY+0x26e>
    5100:	14 c0       	rjmp	.+40     	; 0x512a <gotoXY+0x2be>
    5102:	68 8d       	ldd	r22, Y+24	; 0x18
    5104:	79 8d       	ldd	r23, Y+25	; 0x19
    5106:	8a 8d       	ldd	r24, Y+26	; 0x1a
    5108:	9b 8d       	ldd	r25, Y+27	; 0x1b
    510a:	0e 94 70 41 	call	0x82e0	; 0x82e0 <__fixunssfsi>
    510e:	dc 01       	movw	r26, r24
    5110:	cb 01       	movw	r24, r22
    5112:	9d 8f       	std	Y+29, r25	; 0x1d
    5114:	8c 8f       	std	Y+28, r24	; 0x1c
    5116:	8c 8d       	ldd	r24, Y+28	; 0x1c
    5118:	9d 8d       	ldd	r25, Y+29	; 0x1d
    511a:	99 a3       	std	Y+33, r25	; 0x21
    511c:	88 a3       	std	Y+32, r24	; 0x20
    511e:	88 a1       	ldd	r24, Y+32	; 0x20
    5120:	99 a1       	ldd	r25, Y+33	; 0x21
    5122:	01 97       	sbiw	r24, 0x01	; 1
    5124:	f1 f7       	brne	.-4      	; 0x5122 <gotoXY+0x2b6>
    5126:	99 a3       	std	Y+33, r25	; 0x21
    5128:	88 a3       	std	Y+32, r24	; 0x20
    512a:	ce 01       	movw	r24, r28
    512c:	ce 96       	adiw	r24, 0x3e	; 62
    512e:	63 ec       	ldi	r22, 0xC3	; 195
    5130:	0e 94 95 11 	call	0x232a	; 0x232a <CAN_Write>
    5134:	88 23       	and	r24, r24
    5136:	09 f0       	breq	.+2      	; 0x513a <gotoXY+0x2ce>
    5138:	86 cf       	rjmp	.-244    	; 0x5046 <gotoXY+0x1da>
    513a:	0e 94 7e 31 	call	0x62fc	; 0x62fc <getSystemTime>
    513e:	aa 27       	eor	r26, r26
    5140:	97 fd       	sbrc	r25, 7
    5142:	a0 95       	com	r26
    5144:	ba 2f       	mov	r27, r26
    5146:	89 83       	std	Y+1, r24	; 0x01
    5148:	9a 83       	std	Y+2, r25	; 0x02
    514a:	ab 83       	std	Y+3, r26	; 0x03
    514c:	bc 83       	std	Y+4, r27	; 0x04
    514e:	80 e5       	ldi	r24, 0x50	; 80
    5150:	8e af       	std	Y+62, r24	; 0x3e
    5152:	72 c0       	rjmp	.+228    	; 0x5238 <gotoXY+0x3cc>
    5154:	80 e0       	ldi	r24, 0x00	; 0
    5156:	90 e0       	ldi	r25, 0x00	; 0
    5158:	a8 e4       	ldi	r26, 0x48	; 72
    515a:	b2 e4       	ldi	r27, 0x42	; 66
    515c:	8a a3       	std	Y+34, r24	; 0x22
    515e:	9b a3       	std	Y+35, r25	; 0x23
    5160:	ac a3       	std	Y+36, r26	; 0x24
    5162:	bd a3       	std	Y+37, r27	; 0x25
    5164:	20 e0       	ldi	r18, 0x00	; 0
    5166:	30 e4       	ldi	r19, 0x40	; 64
    5168:	4c e1       	ldi	r20, 0x1C	; 28
    516a:	55 e4       	ldi	r21, 0x45	; 69
    516c:	6a a1       	ldd	r22, Y+34	; 0x22
    516e:	7b a1       	ldd	r23, Y+35	; 0x23
    5170:	8c a1       	ldd	r24, Y+36	; 0x24
    5172:	9d a1       	ldd	r25, Y+37	; 0x25
    5174:	0e 94 90 42 	call	0x8520	; 0x8520 <__mulsf3>
    5178:	dc 01       	movw	r26, r24
    517a:	cb 01       	movw	r24, r22
    517c:	8e a3       	std	Y+38, r24	; 0x26
    517e:	9f a3       	std	Y+39, r25	; 0x27
    5180:	a8 a7       	std	Y+40, r26	; 0x28
    5182:	b9 a7       	std	Y+41, r27	; 0x29
    5184:	20 e0       	ldi	r18, 0x00	; 0
    5186:	30 e0       	ldi	r19, 0x00	; 0
    5188:	40 e8       	ldi	r20, 0x80	; 128
    518a:	5f e3       	ldi	r21, 0x3F	; 63
    518c:	6e a1       	ldd	r22, Y+38	; 0x26
    518e:	7f a1       	ldd	r23, Y+39	; 0x27
    5190:	88 a5       	ldd	r24, Y+40	; 0x28
    5192:	99 a5       	ldd	r25, Y+41	; 0x29
    5194:	0e 94 04 41 	call	0x8208	; 0x8208 <__cmpsf2>
    5198:	88 23       	and	r24, r24
    519a:	2c f4       	brge	.+10     	; 0x51a6 <gotoXY+0x33a>
    519c:	81 e0       	ldi	r24, 0x01	; 1
    519e:	90 e0       	ldi	r25, 0x00	; 0
    51a0:	9b a7       	std	Y+43, r25	; 0x2b
    51a2:	8a a7       	std	Y+42, r24	; 0x2a
    51a4:	3f c0       	rjmp	.+126    	; 0x5224 <gotoXY+0x3b8>
    51a6:	20 e0       	ldi	r18, 0x00	; 0
    51a8:	3f ef       	ldi	r19, 0xFF	; 255
    51aa:	4f e7       	ldi	r20, 0x7F	; 127
    51ac:	57 e4       	ldi	r21, 0x47	; 71
    51ae:	6e a1       	ldd	r22, Y+38	; 0x26
    51b0:	7f a1       	ldd	r23, Y+39	; 0x27
    51b2:	88 a5       	ldd	r24, Y+40	; 0x28
    51b4:	99 a5       	ldd	r25, Y+41	; 0x29
    51b6:	0e 94 8c 42 	call	0x8518	; 0x8518 <__gesf2>
    51ba:	18 16       	cp	r1, r24
    51bc:	4c f5       	brge	.+82     	; 0x5210 <gotoXY+0x3a4>
    51be:	20 e0       	ldi	r18, 0x00	; 0
    51c0:	30 e0       	ldi	r19, 0x00	; 0
    51c2:	40 e2       	ldi	r20, 0x20	; 32
    51c4:	51 e4       	ldi	r21, 0x41	; 65
    51c6:	6a a1       	ldd	r22, Y+34	; 0x22
    51c8:	7b a1       	ldd	r23, Y+35	; 0x23
    51ca:	8c a1       	ldd	r24, Y+36	; 0x24
    51cc:	9d a1       	ldd	r25, Y+37	; 0x25
    51ce:	0e 94 90 42 	call	0x8520	; 0x8520 <__mulsf3>
    51d2:	dc 01       	movw	r26, r24
    51d4:	cb 01       	movw	r24, r22
    51d6:	bc 01       	movw	r22, r24
    51d8:	cd 01       	movw	r24, r26
    51da:	0e 94 70 41 	call	0x82e0	; 0x82e0 <__fixunssfsi>
    51de:	dc 01       	movw	r26, r24
    51e0:	cb 01       	movw	r24, r22
    51e2:	9b a7       	std	Y+43, r25	; 0x2b
    51e4:	8a a7       	std	Y+42, r24	; 0x2a
    51e6:	0f c0       	rjmp	.+30     	; 0x5206 <gotoXY+0x39a>
    51e8:	8a ef       	ldi	r24, 0xFA	; 250
    51ea:	90 e0       	ldi	r25, 0x00	; 0
    51ec:	9d a7       	std	Y+45, r25	; 0x2d
    51ee:	8c a7       	std	Y+44, r24	; 0x2c
    51f0:	8c a5       	ldd	r24, Y+44	; 0x2c
    51f2:	9d a5       	ldd	r25, Y+45	; 0x2d
    51f4:	01 97       	sbiw	r24, 0x01	; 1
    51f6:	f1 f7       	brne	.-4      	; 0x51f4 <gotoXY+0x388>
    51f8:	9d a7       	std	Y+45, r25	; 0x2d
    51fa:	8c a7       	std	Y+44, r24	; 0x2c
    51fc:	8a a5       	ldd	r24, Y+42	; 0x2a
    51fe:	9b a5       	ldd	r25, Y+43	; 0x2b
    5200:	01 97       	sbiw	r24, 0x01	; 1
    5202:	9b a7       	std	Y+43, r25	; 0x2b
    5204:	8a a7       	std	Y+42, r24	; 0x2a
    5206:	8a a5       	ldd	r24, Y+42	; 0x2a
    5208:	9b a5       	ldd	r25, Y+43	; 0x2b
    520a:	00 97       	sbiw	r24, 0x00	; 0
    520c:	69 f7       	brne	.-38     	; 0x51e8 <gotoXY+0x37c>
    520e:	14 c0       	rjmp	.+40     	; 0x5238 <gotoXY+0x3cc>
    5210:	6e a1       	ldd	r22, Y+38	; 0x26
    5212:	7f a1       	ldd	r23, Y+39	; 0x27
    5214:	88 a5       	ldd	r24, Y+40	; 0x28
    5216:	99 a5       	ldd	r25, Y+41	; 0x29
    5218:	0e 94 70 41 	call	0x82e0	; 0x82e0 <__fixunssfsi>
    521c:	dc 01       	movw	r26, r24
    521e:	cb 01       	movw	r24, r22
    5220:	9b a7       	std	Y+43, r25	; 0x2b
    5222:	8a a7       	std	Y+42, r24	; 0x2a
    5224:	8a a5       	ldd	r24, Y+42	; 0x2a
    5226:	9b a5       	ldd	r25, Y+43	; 0x2b
    5228:	9f a7       	std	Y+47, r25	; 0x2f
    522a:	8e a7       	std	Y+46, r24	; 0x2e
    522c:	8e a5       	ldd	r24, Y+46	; 0x2e
    522e:	9f a5       	ldd	r25, Y+47	; 0x2f
    5230:	01 97       	sbiw	r24, 0x01	; 1
    5232:	f1 f7       	brne	.-4      	; 0x5230 <gotoXY+0x3c4>
    5234:	9f a7       	std	Y+47, r25	; 0x2f
    5236:	8e a7       	std	Y+46, r24	; 0x2e
    5238:	ce 01       	movw	r24, r28
    523a:	ce 96       	adiw	r24, 0x3e	; 62
    523c:	63 ec       	ldi	r22, 0xC3	; 195
    523e:	0e 94 95 11 	call	0x232a	; 0x232a <CAN_Write>
    5242:	88 23       	and	r24, r24
    5244:	09 f0       	breq	.+2      	; 0x5248 <gotoXY+0x3dc>
    5246:	86 cf       	rjmp	.-244    	; 0x5154 <gotoXY+0x2e8>
    5248:	ce 01       	movw	r24, r28
    524a:	ce 96       	adiw	r24, 0x3e	; 62
    524c:	61 e0       	ldi	r22, 0x01	; 1
    524e:	0e 94 25 11 	call	0x224a	; 0x224a <CAN_Read>
    5252:	8e ad       	ldd	r24, Y+62	; 0x3e
    5254:	89 34       	cpi	r24, 0x49	; 73
    5256:	11 f4       	brne	.+4      	; 0x525c <gotoXY+0x3f0>
    5258:	80 e0       	ldi	r24, 0x00	; 0
    525a:	9e c0       	rjmp	.+316    	; 0x5398 <gotoXY+0x52c>
    525c:	8e ad       	ldd	r24, Y+62	; 0x3e
    525e:	83 35       	cpi	r24, 0x53	; 83
    5260:	11 f4       	brne	.+4      	; 0x5266 <gotoXY+0x3fa>
    5262:	82 e0       	ldi	r24, 0x02	; 2
    5264:	99 c0       	rjmp	.+306    	; 0x5398 <gotoXY+0x52c>
    5266:	8e ad       	ldd	r24, Y+62	; 0x3e
    5268:	85 34       	cpi	r24, 0x45	; 69
    526a:	11 f4       	brne	.+4      	; 0x5270 <gotoXY+0x404>
    526c:	81 e0       	ldi	r24, 0x01	; 1
    526e:	94 c0       	rjmp	.+296    	; 0x5398 <gotoXY+0x52c>
    5270:	80 e0       	ldi	r24, 0x00	; 0
    5272:	90 e0       	ldi	r25, 0x00	; 0
    5274:	a8 e4       	ldi	r26, 0x48	; 72
    5276:	b2 e4       	ldi	r27, 0x42	; 66
    5278:	88 ab       	std	Y+48, r24	; 0x30
    527a:	99 ab       	std	Y+49, r25	; 0x31
    527c:	aa ab       	std	Y+50, r26	; 0x32
    527e:	bb ab       	std	Y+51, r27	; 0x33
    5280:	20 e0       	ldi	r18, 0x00	; 0
    5282:	30 e4       	ldi	r19, 0x40	; 64
    5284:	4c e1       	ldi	r20, 0x1C	; 28
    5286:	55 e4       	ldi	r21, 0x45	; 69
    5288:	68 a9       	ldd	r22, Y+48	; 0x30
    528a:	79 a9       	ldd	r23, Y+49	; 0x31
    528c:	8a a9       	ldd	r24, Y+50	; 0x32
    528e:	9b a9       	ldd	r25, Y+51	; 0x33
    5290:	0e 94 90 42 	call	0x8520	; 0x8520 <__mulsf3>
    5294:	dc 01       	movw	r26, r24
    5296:	cb 01       	movw	r24, r22
    5298:	8c ab       	std	Y+52, r24	; 0x34
    529a:	9d ab       	std	Y+53, r25	; 0x35
    529c:	ae ab       	std	Y+54, r26	; 0x36
    529e:	bf ab       	std	Y+55, r27	; 0x37
    52a0:	20 e0       	ldi	r18, 0x00	; 0
    52a2:	30 e0       	ldi	r19, 0x00	; 0
    52a4:	40 e8       	ldi	r20, 0x80	; 128
    52a6:	5f e3       	ldi	r21, 0x3F	; 63
    52a8:	6c a9       	ldd	r22, Y+52	; 0x34
    52aa:	7d a9       	ldd	r23, Y+53	; 0x35
    52ac:	8e a9       	ldd	r24, Y+54	; 0x36
    52ae:	9f a9       	ldd	r25, Y+55	; 0x37
    52b0:	0e 94 04 41 	call	0x8208	; 0x8208 <__cmpsf2>
    52b4:	88 23       	and	r24, r24
    52b6:	2c f4       	brge	.+10     	; 0x52c2 <gotoXY+0x456>
    52b8:	81 e0       	ldi	r24, 0x01	; 1
    52ba:	90 e0       	ldi	r25, 0x00	; 0
    52bc:	99 af       	std	Y+57, r25	; 0x39
    52be:	88 af       	std	Y+56, r24	; 0x38
    52c0:	3f c0       	rjmp	.+126    	; 0x5340 <gotoXY+0x4d4>
    52c2:	20 e0       	ldi	r18, 0x00	; 0
    52c4:	3f ef       	ldi	r19, 0xFF	; 255
    52c6:	4f e7       	ldi	r20, 0x7F	; 127
    52c8:	57 e4       	ldi	r21, 0x47	; 71
    52ca:	6c a9       	ldd	r22, Y+52	; 0x34
    52cc:	7d a9       	ldd	r23, Y+53	; 0x35
    52ce:	8e a9       	ldd	r24, Y+54	; 0x36
    52d0:	9f a9       	ldd	r25, Y+55	; 0x37
    52d2:	0e 94 8c 42 	call	0x8518	; 0x8518 <__gesf2>
    52d6:	18 16       	cp	r1, r24
    52d8:	4c f5       	brge	.+82     	; 0x532c <gotoXY+0x4c0>
    52da:	20 e0       	ldi	r18, 0x00	; 0
    52dc:	30 e0       	ldi	r19, 0x00	; 0
    52de:	40 e2       	ldi	r20, 0x20	; 32
    52e0:	51 e4       	ldi	r21, 0x41	; 65
    52e2:	68 a9       	ldd	r22, Y+48	; 0x30
    52e4:	79 a9       	ldd	r23, Y+49	; 0x31
    52e6:	8a a9       	ldd	r24, Y+50	; 0x32
    52e8:	9b a9       	ldd	r25, Y+51	; 0x33
    52ea:	0e 94 90 42 	call	0x8520	; 0x8520 <__mulsf3>
    52ee:	dc 01       	movw	r26, r24
    52f0:	cb 01       	movw	r24, r22
    52f2:	bc 01       	movw	r22, r24
    52f4:	cd 01       	movw	r24, r26
    52f6:	0e 94 70 41 	call	0x82e0	; 0x82e0 <__fixunssfsi>
    52fa:	dc 01       	movw	r26, r24
    52fc:	cb 01       	movw	r24, r22
    52fe:	99 af       	std	Y+57, r25	; 0x39
    5300:	88 af       	std	Y+56, r24	; 0x38
    5302:	0f c0       	rjmp	.+30     	; 0x5322 <gotoXY+0x4b6>
    5304:	8a ef       	ldi	r24, 0xFA	; 250
    5306:	90 e0       	ldi	r25, 0x00	; 0
    5308:	9b af       	std	Y+59, r25	; 0x3b
    530a:	8a af       	std	Y+58, r24	; 0x3a
    530c:	8a ad       	ldd	r24, Y+58	; 0x3a
    530e:	9b ad       	ldd	r25, Y+59	; 0x3b
    5310:	01 97       	sbiw	r24, 0x01	; 1
    5312:	f1 f7       	brne	.-4      	; 0x5310 <gotoXY+0x4a4>
    5314:	9b af       	std	Y+59, r25	; 0x3b
    5316:	8a af       	std	Y+58, r24	; 0x3a
    5318:	88 ad       	ldd	r24, Y+56	; 0x38
    531a:	99 ad       	ldd	r25, Y+57	; 0x39
    531c:	01 97       	sbiw	r24, 0x01	; 1
    531e:	99 af       	std	Y+57, r25	; 0x39
    5320:	88 af       	std	Y+56, r24	; 0x38
    5322:	88 ad       	ldd	r24, Y+56	; 0x38
    5324:	99 ad       	ldd	r25, Y+57	; 0x39
    5326:	00 97       	sbiw	r24, 0x00	; 0
    5328:	69 f7       	brne	.-38     	; 0x5304 <gotoXY+0x498>
    532a:	14 c0       	rjmp	.+40     	; 0x5354 <gotoXY+0x4e8>
    532c:	6c a9       	ldd	r22, Y+52	; 0x34
    532e:	7d a9       	ldd	r23, Y+53	; 0x35
    5330:	8e a9       	ldd	r24, Y+54	; 0x36
    5332:	9f a9       	ldd	r25, Y+55	; 0x37
    5334:	0e 94 70 41 	call	0x82e0	; 0x82e0 <__fixunssfsi>
    5338:	dc 01       	movw	r26, r24
    533a:	cb 01       	movw	r24, r22
    533c:	99 af       	std	Y+57, r25	; 0x39
    533e:	88 af       	std	Y+56, r24	; 0x38
    5340:	88 ad       	ldd	r24, Y+56	; 0x38
    5342:	99 ad       	ldd	r25, Y+57	; 0x39
    5344:	9d af       	std	Y+61, r25	; 0x3d
    5346:	8c af       	std	Y+60, r24	; 0x3c
    5348:	8c ad       	ldd	r24, Y+60	; 0x3c
    534a:	9d ad       	ldd	r25, Y+61	; 0x3d
    534c:	01 97       	sbiw	r24, 0x01	; 1
    534e:	f1 f7       	brne	.-4      	; 0x534c <gotoXY+0x4e0>
    5350:	9d af       	std	Y+61, r25	; 0x3d
    5352:	8c af       	std	Y+60, r24	; 0x3c
    5354:	ce 01       	movw	r24, r28
    5356:	82 5b       	subi	r24, 0xB2	; 178
    5358:	9f 4f       	sbci	r25, 0xFF	; 255
    535a:	fc 01       	movw	r30, r24
    535c:	80 81       	ld	r24, Z
    535e:	91 81       	ldd	r25, Z+1	; 0x01
    5360:	00 97       	sbiw	r24, 0x00	; 0
    5362:	c9 f0       	breq	.+50     	; 0x5396 <gotoXY+0x52a>
    5364:	9e 01       	movw	r18, r28
    5366:	22 5b       	subi	r18, 0xB2	; 178
    5368:	3f 4f       	sbci	r19, 0xFF	; 255
    536a:	89 81       	ldd	r24, Y+1	; 0x01
    536c:	9a 81       	ldd	r25, Y+2	; 0x02
    536e:	ab 81       	ldd	r26, Y+3	; 0x03
    5370:	bc 81       	ldd	r27, Y+4	; 0x04
    5372:	f9 01       	movw	r30, r18
    5374:	20 81       	ld	r18, Z
    5376:	31 81       	ldd	r19, Z+1	; 0x01
    5378:	bc 01       	movw	r22, r24
    537a:	cd 01       	movw	r24, r26
    537c:	f9 01       	movw	r30, r18
    537e:	09 95       	icall
    5380:	8d 83       	std	Y+5, r24	; 0x05
    5382:	8d 81       	ldd	r24, Y+5	; 0x05
    5384:	81 30       	cpi	r24, 0x01	; 1
    5386:	11 f4       	brne	.+4      	; 0x538c <gotoXY+0x520>
    5388:	81 e0       	ldi	r24, 0x01	; 1
    538a:	06 c0       	rjmp	.+12     	; 0x5398 <gotoXY+0x52c>
    538c:	8d 81       	ldd	r24, Y+5	; 0x05
    538e:	82 30       	cpi	r24, 0x02	; 2
    5390:	11 f4       	brne	.+4      	; 0x5396 <gotoXY+0x52a>
    5392:	83 e0       	ldi	r24, 0x03	; 3
    5394:	01 c0       	rjmp	.+2      	; 0x5398 <gotoXY+0x52c>
    5396:	db ce       	rjmp	.-586    	; 0x514e <gotoXY+0x2e2>
    5398:	c1 5b       	subi	r28, 0xB1	; 177
    539a:	df 4f       	sbci	r29, 0xFF	; 255
    539c:	0f b6       	in	r0, 0x3f	; 63
    539e:	f8 94       	cli
    53a0:	de bf       	out	0x3e, r29	; 62
    53a2:	0f be       	out	0x3f, r0	; 63
    53a4:	cd bf       	out	0x3d, r28	; 61
    53a6:	df 91       	pop	r29
    53a8:	cf 91       	pop	r28
    53aa:	0f 91       	pop	r16
    53ac:	ff 90       	pop	r15
    53ae:	ef 90       	pop	r14
    53b0:	08 95       	ret

000053b2 <setPosition>:
    53b2:	1f 93       	push	r17
    53b4:	cf 93       	push	r28
    53b6:	df 93       	push	r29
    53b8:	cd b7       	in	r28, 0x3d	; 61
    53ba:	de b7       	in	r29, 0x3e	; 62
    53bc:	e0 97       	sbiw	r28, 0x30	; 48
    53be:	0f b6       	in	r0, 0x3f	; 63
    53c0:	f8 94       	cli
    53c2:	de bf       	out	0x3e, r29	; 62
    53c4:	0f be       	out	0x3f, r0	; 63
    53c6:	cd bf       	out	0x3d, r28	; 61
    53c8:	4b a7       	std	Y+43, r20	; 0x2b
    53ca:	5c a7       	std	Y+44, r21	; 0x2c
    53cc:	6d a7       	std	Y+45, r22	; 0x2d
    53ce:	7e a7       	std	Y+46, r23	; 0x2e
    53d0:	8f a7       	std	Y+47, r24	; 0x2f
    53d2:	98 ab       	std	Y+48, r25	; 0x30
    53d4:	89 e4       	ldi	r24, 0x49	; 73
    53d6:	8d 8f       	std	Y+29, r24	; 0x1d
    53d8:	8b a5       	ldd	r24, Y+43	; 0x2b
    53da:	9c a5       	ldd	r25, Y+44	; 0x2c
    53dc:	89 2f       	mov	r24, r25
    53de:	99 0f       	add	r25, r25
    53e0:	99 0b       	sbc	r25, r25
    53e2:	8e 8f       	std	Y+30, r24	; 0x1e
    53e4:	8b a5       	ldd	r24, Y+43	; 0x2b
    53e6:	9c a5       	ldd	r25, Y+44	; 0x2c
    53e8:	8f 8f       	std	Y+31, r24	; 0x1f
    53ea:	8d a5       	ldd	r24, Y+45	; 0x2d
    53ec:	9e a5       	ldd	r25, Y+46	; 0x2e
    53ee:	89 2f       	mov	r24, r25
    53f0:	99 0f       	add	r25, r25
    53f2:	99 0b       	sbc	r25, r25
    53f4:	88 a3       	std	Y+32, r24	; 0x20
    53f6:	8d a5       	ldd	r24, Y+45	; 0x2d
    53f8:	9e a5       	ldd	r25, Y+46	; 0x2e
    53fa:	89 a3       	std	Y+33, r24	; 0x21
    53fc:	1a a2       	std	Y+34, r1	; 0x22
    53fe:	8f a5       	ldd	r24, Y+47	; 0x2f
    5400:	98 a9       	ldd	r25, Y+48	; 0x30
    5402:	8b a3       	std	Y+35, r24	; 0x23
    5404:	72 c0       	rjmp	.+228    	; 0x54ea <setPosition+0x138>
    5406:	80 e0       	ldi	r24, 0x00	; 0
    5408:	90 e0       	ldi	r25, 0x00	; 0
    540a:	a8 e4       	ldi	r26, 0x48	; 72
    540c:	b2 e4       	ldi	r27, 0x42	; 66
    540e:	89 83       	std	Y+1, r24	; 0x01
    5410:	9a 83       	std	Y+2, r25	; 0x02
    5412:	ab 83       	std	Y+3, r26	; 0x03
    5414:	bc 83       	std	Y+4, r27	; 0x04
    5416:	20 e0       	ldi	r18, 0x00	; 0
    5418:	30 e4       	ldi	r19, 0x40	; 64
    541a:	4c e1       	ldi	r20, 0x1C	; 28
    541c:	55 e4       	ldi	r21, 0x45	; 69
    541e:	69 81       	ldd	r22, Y+1	; 0x01
    5420:	7a 81       	ldd	r23, Y+2	; 0x02
    5422:	8b 81       	ldd	r24, Y+3	; 0x03
    5424:	9c 81       	ldd	r25, Y+4	; 0x04
    5426:	0e 94 90 42 	call	0x8520	; 0x8520 <__mulsf3>
    542a:	dc 01       	movw	r26, r24
    542c:	cb 01       	movw	r24, r22
    542e:	8d 83       	std	Y+5, r24	; 0x05
    5430:	9e 83       	std	Y+6, r25	; 0x06
    5432:	af 83       	std	Y+7, r26	; 0x07
    5434:	b8 87       	std	Y+8, r27	; 0x08
    5436:	20 e0       	ldi	r18, 0x00	; 0
    5438:	30 e0       	ldi	r19, 0x00	; 0
    543a:	40 e8       	ldi	r20, 0x80	; 128
    543c:	5f e3       	ldi	r21, 0x3F	; 63
    543e:	6d 81       	ldd	r22, Y+5	; 0x05
    5440:	7e 81       	ldd	r23, Y+6	; 0x06
    5442:	8f 81       	ldd	r24, Y+7	; 0x07
    5444:	98 85       	ldd	r25, Y+8	; 0x08
    5446:	0e 94 04 41 	call	0x8208	; 0x8208 <__cmpsf2>
    544a:	88 23       	and	r24, r24
    544c:	2c f4       	brge	.+10     	; 0x5458 <setPosition+0xa6>
    544e:	81 e0       	ldi	r24, 0x01	; 1
    5450:	90 e0       	ldi	r25, 0x00	; 0
    5452:	9a 87       	std	Y+10, r25	; 0x0a
    5454:	89 87       	std	Y+9, r24	; 0x09
    5456:	3f c0       	rjmp	.+126    	; 0x54d6 <setPosition+0x124>
    5458:	20 e0       	ldi	r18, 0x00	; 0
    545a:	3f ef       	ldi	r19, 0xFF	; 255
    545c:	4f e7       	ldi	r20, 0x7F	; 127
    545e:	57 e4       	ldi	r21, 0x47	; 71
    5460:	6d 81       	ldd	r22, Y+5	; 0x05
    5462:	7e 81       	ldd	r23, Y+6	; 0x06
    5464:	8f 81       	ldd	r24, Y+7	; 0x07
    5466:	98 85       	ldd	r25, Y+8	; 0x08
    5468:	0e 94 8c 42 	call	0x8518	; 0x8518 <__gesf2>
    546c:	18 16       	cp	r1, r24
    546e:	4c f5       	brge	.+82     	; 0x54c2 <setPosition+0x110>
    5470:	20 e0       	ldi	r18, 0x00	; 0
    5472:	30 e0       	ldi	r19, 0x00	; 0
    5474:	40 e2       	ldi	r20, 0x20	; 32
    5476:	51 e4       	ldi	r21, 0x41	; 65
    5478:	69 81       	ldd	r22, Y+1	; 0x01
    547a:	7a 81       	ldd	r23, Y+2	; 0x02
    547c:	8b 81       	ldd	r24, Y+3	; 0x03
    547e:	9c 81       	ldd	r25, Y+4	; 0x04
    5480:	0e 94 90 42 	call	0x8520	; 0x8520 <__mulsf3>
    5484:	dc 01       	movw	r26, r24
    5486:	cb 01       	movw	r24, r22
    5488:	bc 01       	movw	r22, r24
    548a:	cd 01       	movw	r24, r26
    548c:	0e 94 70 41 	call	0x82e0	; 0x82e0 <__fixunssfsi>
    5490:	dc 01       	movw	r26, r24
    5492:	cb 01       	movw	r24, r22
    5494:	9a 87       	std	Y+10, r25	; 0x0a
    5496:	89 87       	std	Y+9, r24	; 0x09
    5498:	0f c0       	rjmp	.+30     	; 0x54b8 <setPosition+0x106>
    549a:	8a ef       	ldi	r24, 0xFA	; 250
    549c:	90 e0       	ldi	r25, 0x00	; 0
    549e:	9c 87       	std	Y+12, r25	; 0x0c
    54a0:	8b 87       	std	Y+11, r24	; 0x0b
    54a2:	8b 85       	ldd	r24, Y+11	; 0x0b
    54a4:	9c 85       	ldd	r25, Y+12	; 0x0c
    54a6:	01 97       	sbiw	r24, 0x01	; 1
    54a8:	f1 f7       	brne	.-4      	; 0x54a6 <setPosition+0xf4>
    54aa:	9c 87       	std	Y+12, r25	; 0x0c
    54ac:	8b 87       	std	Y+11, r24	; 0x0b
    54ae:	89 85       	ldd	r24, Y+9	; 0x09
    54b0:	9a 85       	ldd	r25, Y+10	; 0x0a
    54b2:	01 97       	sbiw	r24, 0x01	; 1
    54b4:	9a 87       	std	Y+10, r25	; 0x0a
    54b6:	89 87       	std	Y+9, r24	; 0x09
    54b8:	89 85       	ldd	r24, Y+9	; 0x09
    54ba:	9a 85       	ldd	r25, Y+10	; 0x0a
    54bc:	00 97       	sbiw	r24, 0x00	; 0
    54be:	69 f7       	brne	.-38     	; 0x549a <setPosition+0xe8>
    54c0:	14 c0       	rjmp	.+40     	; 0x54ea <setPosition+0x138>
    54c2:	6d 81       	ldd	r22, Y+5	; 0x05
    54c4:	7e 81       	ldd	r23, Y+6	; 0x06
    54c6:	8f 81       	ldd	r24, Y+7	; 0x07
    54c8:	98 85       	ldd	r25, Y+8	; 0x08
    54ca:	0e 94 70 41 	call	0x82e0	; 0x82e0 <__fixunssfsi>
    54ce:	dc 01       	movw	r26, r24
    54d0:	cb 01       	movw	r24, r22
    54d2:	9a 87       	std	Y+10, r25	; 0x0a
    54d4:	89 87       	std	Y+9, r24	; 0x09
    54d6:	89 85       	ldd	r24, Y+9	; 0x09
    54d8:	9a 85       	ldd	r25, Y+10	; 0x0a
    54da:	9e 87       	std	Y+14, r25	; 0x0e
    54dc:	8d 87       	std	Y+13, r24	; 0x0d
    54de:	8d 85       	ldd	r24, Y+13	; 0x0d
    54e0:	9e 85       	ldd	r25, Y+14	; 0x0e
    54e2:	01 97       	sbiw	r24, 0x01	; 1
    54e4:	f1 f7       	brne	.-4      	; 0x54e2 <setPosition+0x130>
    54e6:	9e 87       	std	Y+14, r25	; 0x0e
    54e8:	8d 87       	std	Y+13, r24	; 0x0d
    54ea:	ce 01       	movw	r24, r28
    54ec:	4d 96       	adiw	r24, 0x1d	; 29
    54ee:	63 ec       	ldi	r22, 0xC3	; 195
    54f0:	0e 94 95 11 	call	0x232a	; 0x232a <CAN_Write>
    54f4:	88 23       	and	r24, r24
    54f6:	09 f0       	breq	.+2      	; 0x54fa <setPosition+0x148>
    54f8:	86 cf       	rjmp	.-244    	; 0x5406 <setPosition+0x54>
    54fa:	80 e5       	ldi	r24, 0x50	; 80
    54fc:	8d 8f       	std	Y+29, r24	; 0x1d
    54fe:	72 c0       	rjmp	.+228    	; 0x55e4 <setPosition+0x232>
    5500:	80 e0       	ldi	r24, 0x00	; 0
    5502:	90 e0       	ldi	r25, 0x00	; 0
    5504:	a8 e4       	ldi	r26, 0x48	; 72
    5506:	b2 e4       	ldi	r27, 0x42	; 66
    5508:	8f 87       	std	Y+15, r24	; 0x0f
    550a:	98 8b       	std	Y+16, r25	; 0x10
    550c:	a9 8b       	std	Y+17, r26	; 0x11
    550e:	ba 8b       	std	Y+18, r27	; 0x12
    5510:	20 e0       	ldi	r18, 0x00	; 0
    5512:	30 e4       	ldi	r19, 0x40	; 64
    5514:	4c e1       	ldi	r20, 0x1C	; 28
    5516:	55 e4       	ldi	r21, 0x45	; 69
    5518:	6f 85       	ldd	r22, Y+15	; 0x0f
    551a:	78 89       	ldd	r23, Y+16	; 0x10
    551c:	89 89       	ldd	r24, Y+17	; 0x11
    551e:	9a 89       	ldd	r25, Y+18	; 0x12
    5520:	0e 94 90 42 	call	0x8520	; 0x8520 <__mulsf3>
    5524:	dc 01       	movw	r26, r24
    5526:	cb 01       	movw	r24, r22
    5528:	8b 8b       	std	Y+19, r24	; 0x13
    552a:	9c 8b       	std	Y+20, r25	; 0x14
    552c:	ad 8b       	std	Y+21, r26	; 0x15
    552e:	be 8b       	std	Y+22, r27	; 0x16
    5530:	20 e0       	ldi	r18, 0x00	; 0
    5532:	30 e0       	ldi	r19, 0x00	; 0
    5534:	40 e8       	ldi	r20, 0x80	; 128
    5536:	5f e3       	ldi	r21, 0x3F	; 63
    5538:	6b 89       	ldd	r22, Y+19	; 0x13
    553a:	7c 89       	ldd	r23, Y+20	; 0x14
    553c:	8d 89       	ldd	r24, Y+21	; 0x15
    553e:	9e 89       	ldd	r25, Y+22	; 0x16
    5540:	0e 94 04 41 	call	0x8208	; 0x8208 <__cmpsf2>
    5544:	88 23       	and	r24, r24
    5546:	2c f4       	brge	.+10     	; 0x5552 <setPosition+0x1a0>
    5548:	81 e0       	ldi	r24, 0x01	; 1
    554a:	90 e0       	ldi	r25, 0x00	; 0
    554c:	98 8f       	std	Y+24, r25	; 0x18
    554e:	8f 8b       	std	Y+23, r24	; 0x17
    5550:	3f c0       	rjmp	.+126    	; 0x55d0 <setPosition+0x21e>
    5552:	20 e0       	ldi	r18, 0x00	; 0
    5554:	3f ef       	ldi	r19, 0xFF	; 255
    5556:	4f e7       	ldi	r20, 0x7F	; 127
    5558:	57 e4       	ldi	r21, 0x47	; 71
    555a:	6b 89       	ldd	r22, Y+19	; 0x13
    555c:	7c 89       	ldd	r23, Y+20	; 0x14
    555e:	8d 89       	ldd	r24, Y+21	; 0x15
    5560:	9e 89       	ldd	r25, Y+22	; 0x16
    5562:	0e 94 8c 42 	call	0x8518	; 0x8518 <__gesf2>
    5566:	18 16       	cp	r1, r24
    5568:	4c f5       	brge	.+82     	; 0x55bc <setPosition+0x20a>
    556a:	20 e0       	ldi	r18, 0x00	; 0
    556c:	30 e0       	ldi	r19, 0x00	; 0
    556e:	40 e2       	ldi	r20, 0x20	; 32
    5570:	51 e4       	ldi	r21, 0x41	; 65
    5572:	6f 85       	ldd	r22, Y+15	; 0x0f
    5574:	78 89       	ldd	r23, Y+16	; 0x10
    5576:	89 89       	ldd	r24, Y+17	; 0x11
    5578:	9a 89       	ldd	r25, Y+18	; 0x12
    557a:	0e 94 90 42 	call	0x8520	; 0x8520 <__mulsf3>
    557e:	dc 01       	movw	r26, r24
    5580:	cb 01       	movw	r24, r22
    5582:	bc 01       	movw	r22, r24
    5584:	cd 01       	movw	r24, r26
    5586:	0e 94 70 41 	call	0x82e0	; 0x82e0 <__fixunssfsi>
    558a:	dc 01       	movw	r26, r24
    558c:	cb 01       	movw	r24, r22
    558e:	98 8f       	std	Y+24, r25	; 0x18
    5590:	8f 8b       	std	Y+23, r24	; 0x17
    5592:	0f c0       	rjmp	.+30     	; 0x55b2 <setPosition+0x200>
    5594:	8a ef       	ldi	r24, 0xFA	; 250
    5596:	90 e0       	ldi	r25, 0x00	; 0
    5598:	9a 8f       	std	Y+26, r25	; 0x1a
    559a:	89 8f       	std	Y+25, r24	; 0x19
    559c:	89 8d       	ldd	r24, Y+25	; 0x19
    559e:	9a 8d       	ldd	r25, Y+26	; 0x1a
    55a0:	01 97       	sbiw	r24, 0x01	; 1
    55a2:	f1 f7       	brne	.-4      	; 0x55a0 <setPosition+0x1ee>
    55a4:	9a 8f       	std	Y+26, r25	; 0x1a
    55a6:	89 8f       	std	Y+25, r24	; 0x19
    55a8:	8f 89       	ldd	r24, Y+23	; 0x17
    55aa:	98 8d       	ldd	r25, Y+24	; 0x18
    55ac:	01 97       	sbiw	r24, 0x01	; 1
    55ae:	98 8f       	std	Y+24, r25	; 0x18
    55b0:	8f 8b       	std	Y+23, r24	; 0x17
    55b2:	8f 89       	ldd	r24, Y+23	; 0x17
    55b4:	98 8d       	ldd	r25, Y+24	; 0x18
    55b6:	00 97       	sbiw	r24, 0x00	; 0
    55b8:	69 f7       	brne	.-38     	; 0x5594 <setPosition+0x1e2>
    55ba:	14 c0       	rjmp	.+40     	; 0x55e4 <setPosition+0x232>
    55bc:	6b 89       	ldd	r22, Y+19	; 0x13
    55be:	7c 89       	ldd	r23, Y+20	; 0x14
    55c0:	8d 89       	ldd	r24, Y+21	; 0x15
    55c2:	9e 89       	ldd	r25, Y+22	; 0x16
    55c4:	0e 94 70 41 	call	0x82e0	; 0x82e0 <__fixunssfsi>
    55c8:	dc 01       	movw	r26, r24
    55ca:	cb 01       	movw	r24, r22
    55cc:	98 8f       	std	Y+24, r25	; 0x18
    55ce:	8f 8b       	std	Y+23, r24	; 0x17
    55d0:	8f 89       	ldd	r24, Y+23	; 0x17
    55d2:	98 8d       	ldd	r25, Y+24	; 0x18
    55d4:	9c 8f       	std	Y+28, r25	; 0x1c
    55d6:	8b 8f       	std	Y+27, r24	; 0x1b
    55d8:	8b 8d       	ldd	r24, Y+27	; 0x1b
    55da:	9c 8d       	ldd	r25, Y+28	; 0x1c
    55dc:	01 97       	sbiw	r24, 0x01	; 1
    55de:	f1 f7       	brne	.-4      	; 0x55dc <setPosition+0x22a>
    55e0:	9c 8f       	std	Y+28, r25	; 0x1c
    55e2:	8b 8f       	std	Y+27, r24	; 0x1b
    55e4:	ce 01       	movw	r24, r28
    55e6:	4d 96       	adiw	r24, 0x1d	; 29
    55e8:	63 ec       	ldi	r22, 0xC3	; 195
    55ea:	0e 94 95 11 	call	0x232a	; 0x232a <CAN_Write>
    55ee:	88 23       	and	r24, r24
    55f0:	09 f0       	breq	.+2      	; 0x55f4 <setPosition+0x242>
    55f2:	86 cf       	rjmp	.-244    	; 0x5500 <setPosition+0x14e>
    55f4:	ce 01       	movw	r24, r28
    55f6:	4d 96       	adiw	r24, 0x1d	; 29
    55f8:	61 e0       	ldi	r22, 0x01	; 1
    55fa:	0e 94 25 11 	call	0x224a	; 0x224a <CAN_Read>
    55fe:	8e 8d       	ldd	r24, Y+30	; 0x1e
    5600:	88 2f       	mov	r24, r24
    5602:	90 e0       	ldi	r25, 0x00	; 0
    5604:	38 2f       	mov	r19, r24
    5606:	22 27       	eor	r18, r18
    5608:	8f 8d       	ldd	r24, Y+31	; 0x1f
    560a:	88 2f       	mov	r24, r24
    560c:	90 e0       	ldi	r25, 0x00	; 0
    560e:	82 2b       	or	r24, r18
    5610:	93 2b       	or	r25, r19
    5612:	9e a3       	std	Y+38, r25	; 0x26
    5614:	8d a3       	std	Y+37, r24	; 0x25
    5616:	88 a1       	ldd	r24, Y+32	; 0x20
    5618:	88 2f       	mov	r24, r24
    561a:	90 e0       	ldi	r25, 0x00	; 0
    561c:	38 2f       	mov	r19, r24
    561e:	22 27       	eor	r18, r18
    5620:	89 a1       	ldd	r24, Y+33	; 0x21
    5622:	88 2f       	mov	r24, r24
    5624:	90 e0       	ldi	r25, 0x00	; 0
    5626:	82 2b       	or	r24, r18
    5628:	93 2b       	or	r25, r19
    562a:	98 a7       	std	Y+40, r25	; 0x28
    562c:	8f a3       	std	Y+39, r24	; 0x27
    562e:	8a a1       	ldd	r24, Y+34	; 0x22
    5630:	88 2f       	mov	r24, r24
    5632:	90 e0       	ldi	r25, 0x00	; 0
    5634:	38 2f       	mov	r19, r24
    5636:	22 27       	eor	r18, r18
    5638:	8b a1       	ldd	r24, Y+35	; 0x23
    563a:	88 2f       	mov	r24, r24
    563c:	90 e0       	ldi	r25, 0x00	; 0
    563e:	82 2b       	or	r24, r18
    5640:	93 2b       	or	r25, r19
    5642:	9a a7       	std	Y+42, r25	; 0x2a
    5644:	89 a7       	std	Y+41, r24	; 0x29
    5646:	2d a1       	ldd	r18, Y+37	; 0x25
    5648:	3e a1       	ldd	r19, Y+38	; 0x26
    564a:	8b a5       	ldd	r24, Y+43	; 0x2b
    564c:	9c a5       	ldd	r25, Y+44	; 0x2c
    564e:	a9 01       	movw	r20, r18
    5650:	48 1b       	sub	r20, r24
    5652:	59 0b       	sbc	r21, r25
    5654:	ca 01       	movw	r24, r20
    5656:	aa 27       	eor	r26, r26
    5658:	97 fd       	sbrc	r25, 7
    565a:	a0 95       	com	r26
    565c:	ba 2f       	mov	r27, r26
    565e:	bc 01       	movw	r22, r24
    5660:	cd 01       	movw	r24, r26
    5662:	0e 94 9e 41 	call	0x833c	; 0x833c <__floatsisf>
    5666:	dc 01       	movw	r26, r24
    5668:	cb 01       	movw	r24, r22
    566a:	bf 77       	andi	r27, 0x7F	; 127
    566c:	11 e0       	ldi	r17, 0x01	; 1
    566e:	20 e0       	ldi	r18, 0x00	; 0
    5670:	30 e0       	ldi	r19, 0x00	; 0
    5672:	40 ea       	ldi	r20, 0xA0	; 160
    5674:	50 e4       	ldi	r21, 0x40	; 64
    5676:	bc 01       	movw	r22, r24
    5678:	cd 01       	movw	r24, r26
    567a:	0e 94 8c 42 	call	0x8518	; 0x8518 <__gesf2>
    567e:	18 16       	cp	r1, r24
    5680:	0c f0       	brlt	.+2      	; 0x5684 <setPosition+0x2d2>
    5682:	10 e0       	ldi	r17, 0x00	; 0
    5684:	81 e0       	ldi	r24, 0x01	; 1
    5686:	81 27       	eor	r24, r17
    5688:	88 23       	and	r24, r24
    568a:	09 f4       	brne	.+2      	; 0x568e <setPosition+0x2dc>
    568c:	48 c0       	rjmp	.+144    	; 0x571e <setPosition+0x36c>
    568e:	2f a1       	ldd	r18, Y+39	; 0x27
    5690:	38 a5       	ldd	r19, Y+40	; 0x28
    5692:	8d a5       	ldd	r24, Y+45	; 0x2d
    5694:	9e a5       	ldd	r25, Y+46	; 0x2e
    5696:	a9 01       	movw	r20, r18
    5698:	48 1b       	sub	r20, r24
    569a:	59 0b       	sbc	r21, r25
    569c:	ca 01       	movw	r24, r20
    569e:	aa 27       	eor	r26, r26
    56a0:	97 fd       	sbrc	r25, 7
    56a2:	a0 95       	com	r26
    56a4:	ba 2f       	mov	r27, r26
    56a6:	bc 01       	movw	r22, r24
    56a8:	cd 01       	movw	r24, r26
    56aa:	0e 94 9e 41 	call	0x833c	; 0x833c <__floatsisf>
    56ae:	dc 01       	movw	r26, r24
    56b0:	cb 01       	movw	r24, r22
    56b2:	bf 77       	andi	r27, 0x7F	; 127
    56b4:	11 e0       	ldi	r17, 0x01	; 1
    56b6:	20 e0       	ldi	r18, 0x00	; 0
    56b8:	30 e0       	ldi	r19, 0x00	; 0
    56ba:	40 ea       	ldi	r20, 0xA0	; 160
    56bc:	50 e4       	ldi	r21, 0x40	; 64
    56be:	bc 01       	movw	r22, r24
    56c0:	cd 01       	movw	r24, r26
    56c2:	0e 94 8c 42 	call	0x8518	; 0x8518 <__gesf2>
    56c6:	18 16       	cp	r1, r24
    56c8:	0c f0       	brlt	.+2      	; 0x56cc <setPosition+0x31a>
    56ca:	10 e0       	ldi	r17, 0x00	; 0
    56cc:	81 e0       	ldi	r24, 0x01	; 1
    56ce:	81 27       	eor	r24, r17
    56d0:	88 23       	and	r24, r24
    56d2:	29 f1       	breq	.+74     	; 0x571e <setPosition+0x36c>
    56d4:	29 a5       	ldd	r18, Y+41	; 0x29
    56d6:	3a a5       	ldd	r19, Y+42	; 0x2a
    56d8:	8f a5       	ldd	r24, Y+47	; 0x2f
    56da:	98 a9       	ldd	r25, Y+48	; 0x30
    56dc:	a9 01       	movw	r20, r18
    56de:	48 1b       	sub	r20, r24
    56e0:	59 0b       	sbc	r21, r25
    56e2:	ca 01       	movw	r24, r20
    56e4:	aa 27       	eor	r26, r26
    56e6:	97 fd       	sbrc	r25, 7
    56e8:	a0 95       	com	r26
    56ea:	ba 2f       	mov	r27, r26
    56ec:	bc 01       	movw	r22, r24
    56ee:	cd 01       	movw	r24, r26
    56f0:	0e 94 9e 41 	call	0x833c	; 0x833c <__floatsisf>
    56f4:	dc 01       	movw	r26, r24
    56f6:	cb 01       	movw	r24, r22
    56f8:	bf 77       	andi	r27, 0x7F	; 127
    56fa:	11 e0       	ldi	r17, 0x01	; 1
    56fc:	20 e0       	ldi	r18, 0x00	; 0
    56fe:	30 e0       	ldi	r19, 0x00	; 0
    5700:	40 ea       	ldi	r20, 0xA0	; 160
    5702:	50 e4       	ldi	r21, 0x40	; 64
    5704:	bc 01       	movw	r22, r24
    5706:	cd 01       	movw	r24, r26
    5708:	0e 94 8c 42 	call	0x8518	; 0x8518 <__gesf2>
    570c:	18 16       	cp	r1, r24
    570e:	0c f0       	brlt	.+2      	; 0x5712 <setPosition+0x360>
    5710:	10 e0       	ldi	r17, 0x00	; 0
    5712:	81 e0       	ldi	r24, 0x01	; 1
    5714:	81 27       	eor	r24, r17
    5716:	88 23       	and	r24, r24
    5718:	11 f0       	breq	.+4      	; 0x571e <setPosition+0x36c>
    571a:	80 e0       	ldi	r24, 0x00	; 0
    571c:	01 c0       	rjmp	.+2      	; 0x5720 <setPosition+0x36e>
    571e:	5a ce       	rjmp	.-844    	; 0x53d4 <setPosition+0x22>
    5720:	e0 96       	adiw	r28, 0x30	; 48
    5722:	0f b6       	in	r0, 0x3f	; 63
    5724:	f8 94       	cli
    5726:	de bf       	out	0x3e, r29	; 62
    5728:	0f be       	out	0x3f, r0	; 63
    572a:	cd bf       	out	0x3d, r28	; 61
    572c:	df 91       	pop	r29
    572e:	cf 91       	pop	r28
    5730:	1f 91       	pop	r17
    5732:	08 95       	ret

00005734 <rotate>:
    5734:	cf 93       	push	r28
    5736:	df 93       	push	r29
    5738:	cd b7       	in	r28, 0x3d	; 61
    573a:	de b7       	in	r29, 0x3e	; 62
    573c:	ca 54       	subi	r28, 0x4A	; 74
    573e:	d1 09       	sbc	r29, r1
    5740:	0f b6       	in	r0, 0x3f	; 63
    5742:	f8 94       	cli
    5744:	de bf       	out	0x3e, r29	; 62
    5746:	0f be       	out	0x3f, r0	; 63
    5748:	cd bf       	out	0x3d, r28	; 61
    574a:	9e 01       	movw	r18, r28
    574c:	2a 5b       	subi	r18, 0xBA	; 186
    574e:	3f 4f       	sbci	r19, 0xFF	; 255
    5750:	f9 01       	movw	r30, r18
    5752:	91 83       	std	Z+1, r25	; 0x01
    5754:	80 83       	st	Z, r24
    5756:	ce 01       	movw	r24, r28
    5758:	88 5b       	subi	r24, 0xB8	; 184
    575a:	9f 4f       	sbci	r25, 0xFF	; 255
    575c:	fc 01       	movw	r30, r24
    575e:	60 83       	st	Z, r22
    5760:	ce 01       	movw	r24, r28
    5762:	87 5b       	subi	r24, 0xB7	; 183
    5764:	9f 4f       	sbci	r25, 0xFF	; 255
    5766:	fc 01       	movw	r30, r24
    5768:	51 83       	std	Z+1, r21	; 0x01
    576a:	40 83       	st	Z, r20
    576c:	86 e5       	ldi	r24, 0x56	; 86
    576e:	8e af       	std	Y+62, r24	; 0x3e
    5770:	ce 01       	movw	r24, r28
    5772:	88 5b       	subi	r24, 0xB8	; 184
    5774:	9f 4f       	sbci	r25, 0xFF	; 255
    5776:	fc 01       	movw	r30, r24
    5778:	80 81       	ld	r24, Z
    577a:	8f af       	std	Y+63, r24	; 0x3f
    577c:	72 c0       	rjmp	.+228    	; 0x5862 <rotate+0x12e>
    577e:	80 e0       	ldi	r24, 0x00	; 0
    5780:	90 e0       	ldi	r25, 0x00	; 0
    5782:	a8 e4       	ldi	r26, 0x48	; 72
    5784:	b2 e4       	ldi	r27, 0x42	; 66
    5786:	8e 83       	std	Y+6, r24	; 0x06
    5788:	9f 83       	std	Y+7, r25	; 0x07
    578a:	a8 87       	std	Y+8, r26	; 0x08
    578c:	b9 87       	std	Y+9, r27	; 0x09
    578e:	20 e0       	ldi	r18, 0x00	; 0
    5790:	30 e4       	ldi	r19, 0x40	; 64
    5792:	4c e1       	ldi	r20, 0x1C	; 28
    5794:	55 e4       	ldi	r21, 0x45	; 69
    5796:	6e 81       	ldd	r22, Y+6	; 0x06
    5798:	7f 81       	ldd	r23, Y+7	; 0x07
    579a:	88 85       	ldd	r24, Y+8	; 0x08
    579c:	99 85       	ldd	r25, Y+9	; 0x09
    579e:	0e 94 90 42 	call	0x8520	; 0x8520 <__mulsf3>
    57a2:	dc 01       	movw	r26, r24
    57a4:	cb 01       	movw	r24, r22
    57a6:	8a 87       	std	Y+10, r24	; 0x0a
    57a8:	9b 87       	std	Y+11, r25	; 0x0b
    57aa:	ac 87       	std	Y+12, r26	; 0x0c
    57ac:	bd 87       	std	Y+13, r27	; 0x0d
    57ae:	20 e0       	ldi	r18, 0x00	; 0
    57b0:	30 e0       	ldi	r19, 0x00	; 0
    57b2:	40 e8       	ldi	r20, 0x80	; 128
    57b4:	5f e3       	ldi	r21, 0x3F	; 63
    57b6:	6a 85       	ldd	r22, Y+10	; 0x0a
    57b8:	7b 85       	ldd	r23, Y+11	; 0x0b
    57ba:	8c 85       	ldd	r24, Y+12	; 0x0c
    57bc:	9d 85       	ldd	r25, Y+13	; 0x0d
    57be:	0e 94 04 41 	call	0x8208	; 0x8208 <__cmpsf2>
    57c2:	88 23       	and	r24, r24
    57c4:	2c f4       	brge	.+10     	; 0x57d0 <rotate+0x9c>
    57c6:	81 e0       	ldi	r24, 0x01	; 1
    57c8:	90 e0       	ldi	r25, 0x00	; 0
    57ca:	9f 87       	std	Y+15, r25	; 0x0f
    57cc:	8e 87       	std	Y+14, r24	; 0x0e
    57ce:	3f c0       	rjmp	.+126    	; 0x584e <rotate+0x11a>
    57d0:	20 e0       	ldi	r18, 0x00	; 0
    57d2:	3f ef       	ldi	r19, 0xFF	; 255
    57d4:	4f e7       	ldi	r20, 0x7F	; 127
    57d6:	57 e4       	ldi	r21, 0x47	; 71
    57d8:	6a 85       	ldd	r22, Y+10	; 0x0a
    57da:	7b 85       	ldd	r23, Y+11	; 0x0b
    57dc:	8c 85       	ldd	r24, Y+12	; 0x0c
    57de:	9d 85       	ldd	r25, Y+13	; 0x0d
    57e0:	0e 94 8c 42 	call	0x8518	; 0x8518 <__gesf2>
    57e4:	18 16       	cp	r1, r24
    57e6:	4c f5       	brge	.+82     	; 0x583a <rotate+0x106>
    57e8:	20 e0       	ldi	r18, 0x00	; 0
    57ea:	30 e0       	ldi	r19, 0x00	; 0
    57ec:	40 e2       	ldi	r20, 0x20	; 32
    57ee:	51 e4       	ldi	r21, 0x41	; 65
    57f0:	6e 81       	ldd	r22, Y+6	; 0x06
    57f2:	7f 81       	ldd	r23, Y+7	; 0x07
    57f4:	88 85       	ldd	r24, Y+8	; 0x08
    57f6:	99 85       	ldd	r25, Y+9	; 0x09
    57f8:	0e 94 90 42 	call	0x8520	; 0x8520 <__mulsf3>
    57fc:	dc 01       	movw	r26, r24
    57fe:	cb 01       	movw	r24, r22
    5800:	bc 01       	movw	r22, r24
    5802:	cd 01       	movw	r24, r26
    5804:	0e 94 70 41 	call	0x82e0	; 0x82e0 <__fixunssfsi>
    5808:	dc 01       	movw	r26, r24
    580a:	cb 01       	movw	r24, r22
    580c:	9f 87       	std	Y+15, r25	; 0x0f
    580e:	8e 87       	std	Y+14, r24	; 0x0e
    5810:	0f c0       	rjmp	.+30     	; 0x5830 <rotate+0xfc>
    5812:	8a ef       	ldi	r24, 0xFA	; 250
    5814:	90 e0       	ldi	r25, 0x00	; 0
    5816:	99 8b       	std	Y+17, r25	; 0x11
    5818:	88 8b       	std	Y+16, r24	; 0x10
    581a:	88 89       	ldd	r24, Y+16	; 0x10
    581c:	99 89       	ldd	r25, Y+17	; 0x11
    581e:	01 97       	sbiw	r24, 0x01	; 1
    5820:	f1 f7       	brne	.-4      	; 0x581e <rotate+0xea>
    5822:	99 8b       	std	Y+17, r25	; 0x11
    5824:	88 8b       	std	Y+16, r24	; 0x10
    5826:	8e 85       	ldd	r24, Y+14	; 0x0e
    5828:	9f 85       	ldd	r25, Y+15	; 0x0f
    582a:	01 97       	sbiw	r24, 0x01	; 1
    582c:	9f 87       	std	Y+15, r25	; 0x0f
    582e:	8e 87       	std	Y+14, r24	; 0x0e
    5830:	8e 85       	ldd	r24, Y+14	; 0x0e
    5832:	9f 85       	ldd	r25, Y+15	; 0x0f
    5834:	00 97       	sbiw	r24, 0x00	; 0
    5836:	69 f7       	brne	.-38     	; 0x5812 <rotate+0xde>
    5838:	14 c0       	rjmp	.+40     	; 0x5862 <rotate+0x12e>
    583a:	6a 85       	ldd	r22, Y+10	; 0x0a
    583c:	7b 85       	ldd	r23, Y+11	; 0x0b
    583e:	8c 85       	ldd	r24, Y+12	; 0x0c
    5840:	9d 85       	ldd	r25, Y+13	; 0x0d
    5842:	0e 94 70 41 	call	0x82e0	; 0x82e0 <__fixunssfsi>
    5846:	dc 01       	movw	r26, r24
    5848:	cb 01       	movw	r24, r22
    584a:	9f 87       	std	Y+15, r25	; 0x0f
    584c:	8e 87       	std	Y+14, r24	; 0x0e
    584e:	8e 85       	ldd	r24, Y+14	; 0x0e
    5850:	9f 85       	ldd	r25, Y+15	; 0x0f
    5852:	9b 8b       	std	Y+19, r25	; 0x13
    5854:	8a 8b       	std	Y+18, r24	; 0x12
    5856:	8a 89       	ldd	r24, Y+18	; 0x12
    5858:	9b 89       	ldd	r25, Y+19	; 0x13
    585a:	01 97       	sbiw	r24, 0x01	; 1
    585c:	f1 f7       	brne	.-4      	; 0x585a <rotate+0x126>
    585e:	9b 8b       	std	Y+19, r25	; 0x13
    5860:	8a 8b       	std	Y+18, r24	; 0x12
    5862:	ce 01       	movw	r24, r28
    5864:	ce 96       	adiw	r24, 0x3e	; 62
    5866:	63 ec       	ldi	r22, 0xC3	; 195
    5868:	0e 94 95 11 	call	0x232a	; 0x232a <CAN_Write>
    586c:	88 23       	and	r24, r24
    586e:	09 f0       	breq	.+2      	; 0x5872 <rotate+0x13e>
    5870:	86 cf       	rjmp	.-244    	; 0x577e <rotate+0x4a>
    5872:	84 e5       	ldi	r24, 0x54	; 84
    5874:	8e af       	std	Y+62, r24	; 0x3e
    5876:	ce 01       	movw	r24, r28
    5878:	8a 5b       	subi	r24, 0xBA	; 186
    587a:	9f 4f       	sbci	r25, 0xFF	; 255
    587c:	fc 01       	movw	r30, r24
    587e:	80 81       	ld	r24, Z
    5880:	91 81       	ldd	r25, Z+1	; 0x01
    5882:	89 2f       	mov	r24, r25
    5884:	99 0f       	add	r25, r25
    5886:	99 0b       	sbc	r25, r25
    5888:	8f af       	std	Y+63, r24	; 0x3f
    588a:	ce 01       	movw	r24, r28
    588c:	8a 5b       	subi	r24, 0xBA	; 186
    588e:	9f 4f       	sbci	r25, 0xFF	; 255
    5890:	fc 01       	movw	r30, r24
    5892:	20 81       	ld	r18, Z
    5894:	ce 01       	movw	r24, r28
    5896:	80 5c       	subi	r24, 0xC0	; 192
    5898:	9f 4f       	sbci	r25, 0xFF	; 255
    589a:	fc 01       	movw	r30, r24
    589c:	20 83       	st	Z, r18
    589e:	72 c0       	rjmp	.+228    	; 0x5984 <rotate+0x250>
    58a0:	80 e0       	ldi	r24, 0x00	; 0
    58a2:	90 e0       	ldi	r25, 0x00	; 0
    58a4:	a8 e4       	ldi	r26, 0x48	; 72
    58a6:	b2 e4       	ldi	r27, 0x42	; 66
    58a8:	8c 8b       	std	Y+20, r24	; 0x14
    58aa:	9d 8b       	std	Y+21, r25	; 0x15
    58ac:	ae 8b       	std	Y+22, r26	; 0x16
    58ae:	bf 8b       	std	Y+23, r27	; 0x17
    58b0:	20 e0       	ldi	r18, 0x00	; 0
    58b2:	30 e4       	ldi	r19, 0x40	; 64
    58b4:	4c e1       	ldi	r20, 0x1C	; 28
    58b6:	55 e4       	ldi	r21, 0x45	; 69
    58b8:	6c 89       	ldd	r22, Y+20	; 0x14
    58ba:	7d 89       	ldd	r23, Y+21	; 0x15
    58bc:	8e 89       	ldd	r24, Y+22	; 0x16
    58be:	9f 89       	ldd	r25, Y+23	; 0x17
    58c0:	0e 94 90 42 	call	0x8520	; 0x8520 <__mulsf3>
    58c4:	dc 01       	movw	r26, r24
    58c6:	cb 01       	movw	r24, r22
    58c8:	88 8f       	std	Y+24, r24	; 0x18
    58ca:	99 8f       	std	Y+25, r25	; 0x19
    58cc:	aa 8f       	std	Y+26, r26	; 0x1a
    58ce:	bb 8f       	std	Y+27, r27	; 0x1b
    58d0:	20 e0       	ldi	r18, 0x00	; 0
    58d2:	30 e0       	ldi	r19, 0x00	; 0
    58d4:	40 e8       	ldi	r20, 0x80	; 128
    58d6:	5f e3       	ldi	r21, 0x3F	; 63
    58d8:	68 8d       	ldd	r22, Y+24	; 0x18
    58da:	79 8d       	ldd	r23, Y+25	; 0x19
    58dc:	8a 8d       	ldd	r24, Y+26	; 0x1a
    58de:	9b 8d       	ldd	r25, Y+27	; 0x1b
    58e0:	0e 94 04 41 	call	0x8208	; 0x8208 <__cmpsf2>
    58e4:	88 23       	and	r24, r24
    58e6:	2c f4       	brge	.+10     	; 0x58f2 <rotate+0x1be>
    58e8:	81 e0       	ldi	r24, 0x01	; 1
    58ea:	90 e0       	ldi	r25, 0x00	; 0
    58ec:	9d 8f       	std	Y+29, r25	; 0x1d
    58ee:	8c 8f       	std	Y+28, r24	; 0x1c
    58f0:	3f c0       	rjmp	.+126    	; 0x5970 <rotate+0x23c>
    58f2:	20 e0       	ldi	r18, 0x00	; 0
    58f4:	3f ef       	ldi	r19, 0xFF	; 255
    58f6:	4f e7       	ldi	r20, 0x7F	; 127
    58f8:	57 e4       	ldi	r21, 0x47	; 71
    58fa:	68 8d       	ldd	r22, Y+24	; 0x18
    58fc:	79 8d       	ldd	r23, Y+25	; 0x19
    58fe:	8a 8d       	ldd	r24, Y+26	; 0x1a
    5900:	9b 8d       	ldd	r25, Y+27	; 0x1b
    5902:	0e 94 8c 42 	call	0x8518	; 0x8518 <__gesf2>
    5906:	18 16       	cp	r1, r24
    5908:	4c f5       	brge	.+82     	; 0x595c <rotate+0x228>
    590a:	20 e0       	ldi	r18, 0x00	; 0
    590c:	30 e0       	ldi	r19, 0x00	; 0
    590e:	40 e2       	ldi	r20, 0x20	; 32
    5910:	51 e4       	ldi	r21, 0x41	; 65
    5912:	6c 89       	ldd	r22, Y+20	; 0x14
    5914:	7d 89       	ldd	r23, Y+21	; 0x15
    5916:	8e 89       	ldd	r24, Y+22	; 0x16
    5918:	9f 89       	ldd	r25, Y+23	; 0x17
    591a:	0e 94 90 42 	call	0x8520	; 0x8520 <__mulsf3>
    591e:	dc 01       	movw	r26, r24
    5920:	cb 01       	movw	r24, r22
    5922:	bc 01       	movw	r22, r24
    5924:	cd 01       	movw	r24, r26
    5926:	0e 94 70 41 	call	0x82e0	; 0x82e0 <__fixunssfsi>
    592a:	dc 01       	movw	r26, r24
    592c:	cb 01       	movw	r24, r22
    592e:	9d 8f       	std	Y+29, r25	; 0x1d
    5930:	8c 8f       	std	Y+28, r24	; 0x1c
    5932:	0f c0       	rjmp	.+30     	; 0x5952 <rotate+0x21e>
    5934:	8a ef       	ldi	r24, 0xFA	; 250
    5936:	90 e0       	ldi	r25, 0x00	; 0
    5938:	9f 8f       	std	Y+31, r25	; 0x1f
    593a:	8e 8f       	std	Y+30, r24	; 0x1e
    593c:	8e 8d       	ldd	r24, Y+30	; 0x1e
    593e:	9f 8d       	ldd	r25, Y+31	; 0x1f
    5940:	01 97       	sbiw	r24, 0x01	; 1
    5942:	f1 f7       	brne	.-4      	; 0x5940 <rotate+0x20c>
    5944:	9f 8f       	std	Y+31, r25	; 0x1f
    5946:	8e 8f       	std	Y+30, r24	; 0x1e
    5948:	8c 8d       	ldd	r24, Y+28	; 0x1c
    594a:	9d 8d       	ldd	r25, Y+29	; 0x1d
    594c:	01 97       	sbiw	r24, 0x01	; 1
    594e:	9d 8f       	std	Y+29, r25	; 0x1d
    5950:	8c 8f       	std	Y+28, r24	; 0x1c
    5952:	8c 8d       	ldd	r24, Y+28	; 0x1c
    5954:	9d 8d       	ldd	r25, Y+29	; 0x1d
    5956:	00 97       	sbiw	r24, 0x00	; 0
    5958:	69 f7       	brne	.-38     	; 0x5934 <rotate+0x200>
    595a:	14 c0       	rjmp	.+40     	; 0x5984 <rotate+0x250>
    595c:	68 8d       	ldd	r22, Y+24	; 0x18
    595e:	79 8d       	ldd	r23, Y+25	; 0x19
    5960:	8a 8d       	ldd	r24, Y+26	; 0x1a
    5962:	9b 8d       	ldd	r25, Y+27	; 0x1b
    5964:	0e 94 70 41 	call	0x82e0	; 0x82e0 <__fixunssfsi>
    5968:	dc 01       	movw	r26, r24
    596a:	cb 01       	movw	r24, r22
    596c:	9d 8f       	std	Y+29, r25	; 0x1d
    596e:	8c 8f       	std	Y+28, r24	; 0x1c
    5970:	8c 8d       	ldd	r24, Y+28	; 0x1c
    5972:	9d 8d       	ldd	r25, Y+29	; 0x1d
    5974:	99 a3       	std	Y+33, r25	; 0x21
    5976:	88 a3       	std	Y+32, r24	; 0x20
    5978:	88 a1       	ldd	r24, Y+32	; 0x20
    597a:	99 a1       	ldd	r25, Y+33	; 0x21
    597c:	01 97       	sbiw	r24, 0x01	; 1
    597e:	f1 f7       	brne	.-4      	; 0x597c <rotate+0x248>
    5980:	99 a3       	std	Y+33, r25	; 0x21
    5982:	88 a3       	std	Y+32, r24	; 0x20
    5984:	ce 01       	movw	r24, r28
    5986:	ce 96       	adiw	r24, 0x3e	; 62
    5988:	63 ec       	ldi	r22, 0xC3	; 195
    598a:	0e 94 95 11 	call	0x232a	; 0x232a <CAN_Write>
    598e:	88 23       	and	r24, r24
    5990:	09 f0       	breq	.+2      	; 0x5994 <rotate+0x260>
    5992:	86 cf       	rjmp	.-244    	; 0x58a0 <rotate+0x16c>
    5994:	b3 d4       	rcall	.+2406   	; 0x62fc <getSystemTime>
    5996:	aa 27       	eor	r26, r26
    5998:	97 fd       	sbrc	r25, 7
    599a:	a0 95       	com	r26
    599c:	ba 2f       	mov	r27, r26
    599e:	89 83       	std	Y+1, r24	; 0x01
    59a0:	9a 83       	std	Y+2, r25	; 0x02
    59a2:	ab 83       	std	Y+3, r26	; 0x03
    59a4:	bc 83       	std	Y+4, r27	; 0x04
    59a6:	80 e5       	ldi	r24, 0x50	; 80
    59a8:	8e af       	std	Y+62, r24	; 0x3e
    59aa:	72 c0       	rjmp	.+228    	; 0x5a90 <rotate+0x35c>
    59ac:	80 e0       	ldi	r24, 0x00	; 0
    59ae:	90 e0       	ldi	r25, 0x00	; 0
    59b0:	a8 e4       	ldi	r26, 0x48	; 72
    59b2:	b2 e4       	ldi	r27, 0x42	; 66
    59b4:	8a a3       	std	Y+34, r24	; 0x22
    59b6:	9b a3       	std	Y+35, r25	; 0x23
    59b8:	ac a3       	std	Y+36, r26	; 0x24
    59ba:	bd a3       	std	Y+37, r27	; 0x25
    59bc:	20 e0       	ldi	r18, 0x00	; 0
    59be:	30 e4       	ldi	r19, 0x40	; 64
    59c0:	4c e1       	ldi	r20, 0x1C	; 28
    59c2:	55 e4       	ldi	r21, 0x45	; 69
    59c4:	6a a1       	ldd	r22, Y+34	; 0x22
    59c6:	7b a1       	ldd	r23, Y+35	; 0x23
    59c8:	8c a1       	ldd	r24, Y+36	; 0x24
    59ca:	9d a1       	ldd	r25, Y+37	; 0x25
    59cc:	0e 94 90 42 	call	0x8520	; 0x8520 <__mulsf3>
    59d0:	dc 01       	movw	r26, r24
    59d2:	cb 01       	movw	r24, r22
    59d4:	8e a3       	std	Y+38, r24	; 0x26
    59d6:	9f a3       	std	Y+39, r25	; 0x27
    59d8:	a8 a7       	std	Y+40, r26	; 0x28
    59da:	b9 a7       	std	Y+41, r27	; 0x29
    59dc:	20 e0       	ldi	r18, 0x00	; 0
    59de:	30 e0       	ldi	r19, 0x00	; 0
    59e0:	40 e8       	ldi	r20, 0x80	; 128
    59e2:	5f e3       	ldi	r21, 0x3F	; 63
    59e4:	6e a1       	ldd	r22, Y+38	; 0x26
    59e6:	7f a1       	ldd	r23, Y+39	; 0x27
    59e8:	88 a5       	ldd	r24, Y+40	; 0x28
    59ea:	99 a5       	ldd	r25, Y+41	; 0x29
    59ec:	0e 94 04 41 	call	0x8208	; 0x8208 <__cmpsf2>
    59f0:	88 23       	and	r24, r24
    59f2:	2c f4       	brge	.+10     	; 0x59fe <rotate+0x2ca>
    59f4:	81 e0       	ldi	r24, 0x01	; 1
    59f6:	90 e0       	ldi	r25, 0x00	; 0
    59f8:	9b a7       	std	Y+43, r25	; 0x2b
    59fa:	8a a7       	std	Y+42, r24	; 0x2a
    59fc:	3f c0       	rjmp	.+126    	; 0x5a7c <rotate+0x348>
    59fe:	20 e0       	ldi	r18, 0x00	; 0
    5a00:	3f ef       	ldi	r19, 0xFF	; 255
    5a02:	4f e7       	ldi	r20, 0x7F	; 127
    5a04:	57 e4       	ldi	r21, 0x47	; 71
    5a06:	6e a1       	ldd	r22, Y+38	; 0x26
    5a08:	7f a1       	ldd	r23, Y+39	; 0x27
    5a0a:	88 a5       	ldd	r24, Y+40	; 0x28
    5a0c:	99 a5       	ldd	r25, Y+41	; 0x29
    5a0e:	0e 94 8c 42 	call	0x8518	; 0x8518 <__gesf2>
    5a12:	18 16       	cp	r1, r24
    5a14:	4c f5       	brge	.+82     	; 0x5a68 <rotate+0x334>
    5a16:	20 e0       	ldi	r18, 0x00	; 0
    5a18:	30 e0       	ldi	r19, 0x00	; 0
    5a1a:	40 e2       	ldi	r20, 0x20	; 32
    5a1c:	51 e4       	ldi	r21, 0x41	; 65
    5a1e:	6a a1       	ldd	r22, Y+34	; 0x22
    5a20:	7b a1       	ldd	r23, Y+35	; 0x23
    5a22:	8c a1       	ldd	r24, Y+36	; 0x24
    5a24:	9d a1       	ldd	r25, Y+37	; 0x25
    5a26:	0e 94 90 42 	call	0x8520	; 0x8520 <__mulsf3>
    5a2a:	dc 01       	movw	r26, r24
    5a2c:	cb 01       	movw	r24, r22
    5a2e:	bc 01       	movw	r22, r24
    5a30:	cd 01       	movw	r24, r26
    5a32:	0e 94 70 41 	call	0x82e0	; 0x82e0 <__fixunssfsi>
    5a36:	dc 01       	movw	r26, r24
    5a38:	cb 01       	movw	r24, r22
    5a3a:	9b a7       	std	Y+43, r25	; 0x2b
    5a3c:	8a a7       	std	Y+42, r24	; 0x2a
    5a3e:	0f c0       	rjmp	.+30     	; 0x5a5e <rotate+0x32a>
    5a40:	8a ef       	ldi	r24, 0xFA	; 250
    5a42:	90 e0       	ldi	r25, 0x00	; 0
    5a44:	9d a7       	std	Y+45, r25	; 0x2d
    5a46:	8c a7       	std	Y+44, r24	; 0x2c
    5a48:	8c a5       	ldd	r24, Y+44	; 0x2c
    5a4a:	9d a5       	ldd	r25, Y+45	; 0x2d
    5a4c:	01 97       	sbiw	r24, 0x01	; 1
    5a4e:	f1 f7       	brne	.-4      	; 0x5a4c <rotate+0x318>
    5a50:	9d a7       	std	Y+45, r25	; 0x2d
    5a52:	8c a7       	std	Y+44, r24	; 0x2c
    5a54:	8a a5       	ldd	r24, Y+42	; 0x2a
    5a56:	9b a5       	ldd	r25, Y+43	; 0x2b
    5a58:	01 97       	sbiw	r24, 0x01	; 1
    5a5a:	9b a7       	std	Y+43, r25	; 0x2b
    5a5c:	8a a7       	std	Y+42, r24	; 0x2a
    5a5e:	8a a5       	ldd	r24, Y+42	; 0x2a
    5a60:	9b a5       	ldd	r25, Y+43	; 0x2b
    5a62:	00 97       	sbiw	r24, 0x00	; 0
    5a64:	69 f7       	brne	.-38     	; 0x5a40 <rotate+0x30c>
    5a66:	14 c0       	rjmp	.+40     	; 0x5a90 <rotate+0x35c>
    5a68:	6e a1       	ldd	r22, Y+38	; 0x26
    5a6a:	7f a1       	ldd	r23, Y+39	; 0x27
    5a6c:	88 a5       	ldd	r24, Y+40	; 0x28
    5a6e:	99 a5       	ldd	r25, Y+41	; 0x29
    5a70:	0e 94 70 41 	call	0x82e0	; 0x82e0 <__fixunssfsi>
    5a74:	dc 01       	movw	r26, r24
    5a76:	cb 01       	movw	r24, r22
    5a78:	9b a7       	std	Y+43, r25	; 0x2b
    5a7a:	8a a7       	std	Y+42, r24	; 0x2a
    5a7c:	8a a5       	ldd	r24, Y+42	; 0x2a
    5a7e:	9b a5       	ldd	r25, Y+43	; 0x2b
    5a80:	9f a7       	std	Y+47, r25	; 0x2f
    5a82:	8e a7       	std	Y+46, r24	; 0x2e
    5a84:	8e a5       	ldd	r24, Y+46	; 0x2e
    5a86:	9f a5       	ldd	r25, Y+47	; 0x2f
    5a88:	01 97       	sbiw	r24, 0x01	; 1
    5a8a:	f1 f7       	brne	.-4      	; 0x5a88 <rotate+0x354>
    5a8c:	9f a7       	std	Y+47, r25	; 0x2f
    5a8e:	8e a7       	std	Y+46, r24	; 0x2e
    5a90:	ce 01       	movw	r24, r28
    5a92:	ce 96       	adiw	r24, 0x3e	; 62
    5a94:	63 ec       	ldi	r22, 0xC3	; 195
    5a96:	0e 94 95 11 	call	0x232a	; 0x232a <CAN_Write>
    5a9a:	88 23       	and	r24, r24
    5a9c:	09 f0       	breq	.+2      	; 0x5aa0 <rotate+0x36c>
    5a9e:	86 cf       	rjmp	.-244    	; 0x59ac <rotate+0x278>
    5aa0:	ce 01       	movw	r24, r28
    5aa2:	ce 96       	adiw	r24, 0x3e	; 62
    5aa4:	61 e0       	ldi	r22, 0x01	; 1
    5aa6:	0e 94 25 11 	call	0x224a	; 0x224a <CAN_Read>
    5aaa:	8e ad       	ldd	r24, Y+62	; 0x3e
    5aac:	89 34       	cpi	r24, 0x49	; 73
    5aae:	11 f4       	brne	.+4      	; 0x5ab4 <rotate+0x380>
    5ab0:	80 e0       	ldi	r24, 0x00	; 0
    5ab2:	9e c0       	rjmp	.+316    	; 0x5bf0 <rotate+0x4bc>
    5ab4:	8e ad       	ldd	r24, Y+62	; 0x3e
    5ab6:	83 35       	cpi	r24, 0x53	; 83
    5ab8:	11 f4       	brne	.+4      	; 0x5abe <rotate+0x38a>
    5aba:	82 e0       	ldi	r24, 0x02	; 2
    5abc:	99 c0       	rjmp	.+306    	; 0x5bf0 <rotate+0x4bc>
    5abe:	8e ad       	ldd	r24, Y+62	; 0x3e
    5ac0:	85 34       	cpi	r24, 0x45	; 69
    5ac2:	11 f4       	brne	.+4      	; 0x5ac8 <rotate+0x394>
    5ac4:	81 e0       	ldi	r24, 0x01	; 1
    5ac6:	94 c0       	rjmp	.+296    	; 0x5bf0 <rotate+0x4bc>
    5ac8:	80 e0       	ldi	r24, 0x00	; 0
    5aca:	90 e0       	ldi	r25, 0x00	; 0
    5acc:	a8 e4       	ldi	r26, 0x48	; 72
    5ace:	b2 e4       	ldi	r27, 0x42	; 66
    5ad0:	88 ab       	std	Y+48, r24	; 0x30
    5ad2:	99 ab       	std	Y+49, r25	; 0x31
    5ad4:	aa ab       	std	Y+50, r26	; 0x32
    5ad6:	bb ab       	std	Y+51, r27	; 0x33
    5ad8:	20 e0       	ldi	r18, 0x00	; 0
    5ada:	30 e4       	ldi	r19, 0x40	; 64
    5adc:	4c e1       	ldi	r20, 0x1C	; 28
    5ade:	55 e4       	ldi	r21, 0x45	; 69
    5ae0:	68 a9       	ldd	r22, Y+48	; 0x30
    5ae2:	79 a9       	ldd	r23, Y+49	; 0x31
    5ae4:	8a a9       	ldd	r24, Y+50	; 0x32
    5ae6:	9b a9       	ldd	r25, Y+51	; 0x33
    5ae8:	0e 94 90 42 	call	0x8520	; 0x8520 <__mulsf3>
    5aec:	dc 01       	movw	r26, r24
    5aee:	cb 01       	movw	r24, r22
    5af0:	8c ab       	std	Y+52, r24	; 0x34
    5af2:	9d ab       	std	Y+53, r25	; 0x35
    5af4:	ae ab       	std	Y+54, r26	; 0x36
    5af6:	bf ab       	std	Y+55, r27	; 0x37
    5af8:	20 e0       	ldi	r18, 0x00	; 0
    5afa:	30 e0       	ldi	r19, 0x00	; 0
    5afc:	40 e8       	ldi	r20, 0x80	; 128
    5afe:	5f e3       	ldi	r21, 0x3F	; 63
    5b00:	6c a9       	ldd	r22, Y+52	; 0x34
    5b02:	7d a9       	ldd	r23, Y+53	; 0x35
    5b04:	8e a9       	ldd	r24, Y+54	; 0x36
    5b06:	9f a9       	ldd	r25, Y+55	; 0x37
    5b08:	0e 94 04 41 	call	0x8208	; 0x8208 <__cmpsf2>
    5b0c:	88 23       	and	r24, r24
    5b0e:	2c f4       	brge	.+10     	; 0x5b1a <rotate+0x3e6>
    5b10:	81 e0       	ldi	r24, 0x01	; 1
    5b12:	90 e0       	ldi	r25, 0x00	; 0
    5b14:	99 af       	std	Y+57, r25	; 0x39
    5b16:	88 af       	std	Y+56, r24	; 0x38
    5b18:	3f c0       	rjmp	.+126    	; 0x5b98 <rotate+0x464>
    5b1a:	20 e0       	ldi	r18, 0x00	; 0
    5b1c:	3f ef       	ldi	r19, 0xFF	; 255
    5b1e:	4f e7       	ldi	r20, 0x7F	; 127
    5b20:	57 e4       	ldi	r21, 0x47	; 71
    5b22:	6c a9       	ldd	r22, Y+52	; 0x34
    5b24:	7d a9       	ldd	r23, Y+53	; 0x35
    5b26:	8e a9       	ldd	r24, Y+54	; 0x36
    5b28:	9f a9       	ldd	r25, Y+55	; 0x37
    5b2a:	0e 94 8c 42 	call	0x8518	; 0x8518 <__gesf2>
    5b2e:	18 16       	cp	r1, r24
    5b30:	4c f5       	brge	.+82     	; 0x5b84 <rotate+0x450>
    5b32:	20 e0       	ldi	r18, 0x00	; 0
    5b34:	30 e0       	ldi	r19, 0x00	; 0
    5b36:	40 e2       	ldi	r20, 0x20	; 32
    5b38:	51 e4       	ldi	r21, 0x41	; 65
    5b3a:	68 a9       	ldd	r22, Y+48	; 0x30
    5b3c:	79 a9       	ldd	r23, Y+49	; 0x31
    5b3e:	8a a9       	ldd	r24, Y+50	; 0x32
    5b40:	9b a9       	ldd	r25, Y+51	; 0x33
    5b42:	0e 94 90 42 	call	0x8520	; 0x8520 <__mulsf3>
    5b46:	dc 01       	movw	r26, r24
    5b48:	cb 01       	movw	r24, r22
    5b4a:	bc 01       	movw	r22, r24
    5b4c:	cd 01       	movw	r24, r26
    5b4e:	0e 94 70 41 	call	0x82e0	; 0x82e0 <__fixunssfsi>
    5b52:	dc 01       	movw	r26, r24
    5b54:	cb 01       	movw	r24, r22
    5b56:	99 af       	std	Y+57, r25	; 0x39
    5b58:	88 af       	std	Y+56, r24	; 0x38
    5b5a:	0f c0       	rjmp	.+30     	; 0x5b7a <rotate+0x446>
    5b5c:	8a ef       	ldi	r24, 0xFA	; 250
    5b5e:	90 e0       	ldi	r25, 0x00	; 0
    5b60:	9b af       	std	Y+59, r25	; 0x3b
    5b62:	8a af       	std	Y+58, r24	; 0x3a
    5b64:	8a ad       	ldd	r24, Y+58	; 0x3a
    5b66:	9b ad       	ldd	r25, Y+59	; 0x3b
    5b68:	01 97       	sbiw	r24, 0x01	; 1
    5b6a:	f1 f7       	brne	.-4      	; 0x5b68 <rotate+0x434>
    5b6c:	9b af       	std	Y+59, r25	; 0x3b
    5b6e:	8a af       	std	Y+58, r24	; 0x3a
    5b70:	88 ad       	ldd	r24, Y+56	; 0x38
    5b72:	99 ad       	ldd	r25, Y+57	; 0x39
    5b74:	01 97       	sbiw	r24, 0x01	; 1
    5b76:	99 af       	std	Y+57, r25	; 0x39
    5b78:	88 af       	std	Y+56, r24	; 0x38
    5b7a:	88 ad       	ldd	r24, Y+56	; 0x38
    5b7c:	99 ad       	ldd	r25, Y+57	; 0x39
    5b7e:	00 97       	sbiw	r24, 0x00	; 0
    5b80:	69 f7       	brne	.-38     	; 0x5b5c <rotate+0x428>
    5b82:	14 c0       	rjmp	.+40     	; 0x5bac <rotate+0x478>
    5b84:	6c a9       	ldd	r22, Y+52	; 0x34
    5b86:	7d a9       	ldd	r23, Y+53	; 0x35
    5b88:	8e a9       	ldd	r24, Y+54	; 0x36
    5b8a:	9f a9       	ldd	r25, Y+55	; 0x37
    5b8c:	0e 94 70 41 	call	0x82e0	; 0x82e0 <__fixunssfsi>
    5b90:	dc 01       	movw	r26, r24
    5b92:	cb 01       	movw	r24, r22
    5b94:	99 af       	std	Y+57, r25	; 0x39
    5b96:	88 af       	std	Y+56, r24	; 0x38
    5b98:	88 ad       	ldd	r24, Y+56	; 0x38
    5b9a:	99 ad       	ldd	r25, Y+57	; 0x39
    5b9c:	9d af       	std	Y+61, r25	; 0x3d
    5b9e:	8c af       	std	Y+60, r24	; 0x3c
    5ba0:	8c ad       	ldd	r24, Y+60	; 0x3c
    5ba2:	9d ad       	ldd	r25, Y+61	; 0x3d
    5ba4:	01 97       	sbiw	r24, 0x01	; 1
    5ba6:	f1 f7       	brne	.-4      	; 0x5ba4 <rotate+0x470>
    5ba8:	9d af       	std	Y+61, r25	; 0x3d
    5baa:	8c af       	std	Y+60, r24	; 0x3c
    5bac:	ce 01       	movw	r24, r28
    5bae:	87 5b       	subi	r24, 0xB7	; 183
    5bb0:	9f 4f       	sbci	r25, 0xFF	; 255
    5bb2:	fc 01       	movw	r30, r24
    5bb4:	80 81       	ld	r24, Z
    5bb6:	91 81       	ldd	r25, Z+1	; 0x01
    5bb8:	00 97       	sbiw	r24, 0x00	; 0
    5bba:	c9 f0       	breq	.+50     	; 0x5bee <rotate+0x4ba>
    5bbc:	9e 01       	movw	r18, r28
    5bbe:	27 5b       	subi	r18, 0xB7	; 183
    5bc0:	3f 4f       	sbci	r19, 0xFF	; 255
    5bc2:	89 81       	ldd	r24, Y+1	; 0x01
    5bc4:	9a 81       	ldd	r25, Y+2	; 0x02
    5bc6:	ab 81       	ldd	r26, Y+3	; 0x03
    5bc8:	bc 81       	ldd	r27, Y+4	; 0x04
    5bca:	f9 01       	movw	r30, r18
    5bcc:	20 81       	ld	r18, Z
    5bce:	31 81       	ldd	r19, Z+1	; 0x01
    5bd0:	bc 01       	movw	r22, r24
    5bd2:	cd 01       	movw	r24, r26
    5bd4:	f9 01       	movw	r30, r18
    5bd6:	09 95       	icall
    5bd8:	8d 83       	std	Y+5, r24	; 0x05
    5bda:	8d 81       	ldd	r24, Y+5	; 0x05
    5bdc:	81 30       	cpi	r24, 0x01	; 1
    5bde:	11 f4       	brne	.+4      	; 0x5be4 <rotate+0x4b0>
    5be0:	81 e0       	ldi	r24, 0x01	; 1
    5be2:	06 c0       	rjmp	.+12     	; 0x5bf0 <rotate+0x4bc>
    5be4:	8d 81       	ldd	r24, Y+5	; 0x05
    5be6:	82 30       	cpi	r24, 0x02	; 2
    5be8:	11 f4       	brne	.+4      	; 0x5bee <rotate+0x4ba>
    5bea:	83 e0       	ldi	r24, 0x03	; 3
    5bec:	01 c0       	rjmp	.+2      	; 0x5bf0 <rotate+0x4bc>
    5bee:	db ce       	rjmp	.-586    	; 0x59a6 <rotate+0x272>
    5bf0:	c6 5b       	subi	r28, 0xB6	; 182
    5bf2:	df 4f       	sbci	r29, 0xFF	; 255
    5bf4:	0f b6       	in	r0, 0x3f	; 63
    5bf6:	f8 94       	cli
    5bf8:	de bf       	out	0x3e, r29	; 62
    5bfa:	0f be       	out	0x3f, r0	; 63
    5bfc:	cd bf       	out	0x3d, r28	; 61
    5bfe:	df 91       	pop	r29
    5c00:	cf 91       	pop	r28
    5c02:	08 95       	ret

00005c04 <getPosition>:
    5c04:	2f 92       	push	r2
    5c06:	3f 92       	push	r3
    5c08:	4f 92       	push	r4
    5c0a:	5f 92       	push	r5
    5c0c:	6f 92       	push	r6
    5c0e:	7f 92       	push	r7
    5c10:	8f 92       	push	r8
    5c12:	9f 92       	push	r9
    5c14:	af 92       	push	r10
    5c16:	bf 92       	push	r11
    5c18:	cf 92       	push	r12
    5c1a:	df 92       	push	r13
    5c1c:	ef 92       	push	r14
    5c1e:	ff 92       	push	r15
    5c20:	0f 93       	push	r16
    5c22:	1f 93       	push	r17
    5c24:	cf 93       	push	r28
    5c26:	df 93       	push	r29
    5c28:	cd b7       	in	r28, 0x3d	; 61
    5c2a:	de b7       	in	r29, 0x3e	; 62
    5c2c:	a2 97       	sbiw	r28, 0x22	; 34
    5c2e:	0f b6       	in	r0, 0x3f	; 63
    5c30:	f8 94       	cli
    5c32:	de bf       	out	0x3e, r29	; 62
    5c34:	0f be       	out	0x3f, r0	; 63
    5c36:	cd bf       	out	0x3d, r28	; 61
    5c38:	80 e5       	ldi	r24, 0x50	; 80
    5c3a:	8d 8b       	std	Y+21, r24	; 0x15
    5c3c:	72 c0       	rjmp	.+228    	; 0x5d22 <getPosition+0x11e>
    5c3e:	80 e0       	ldi	r24, 0x00	; 0
    5c40:	90 e0       	ldi	r25, 0x00	; 0
    5c42:	a8 e4       	ldi	r26, 0x48	; 72
    5c44:	b2 e4       	ldi	r27, 0x42	; 66
    5c46:	89 83       	std	Y+1, r24	; 0x01
    5c48:	9a 83       	std	Y+2, r25	; 0x02
    5c4a:	ab 83       	std	Y+3, r26	; 0x03
    5c4c:	bc 83       	std	Y+4, r27	; 0x04
    5c4e:	20 e0       	ldi	r18, 0x00	; 0
    5c50:	30 e4       	ldi	r19, 0x40	; 64
    5c52:	4c e1       	ldi	r20, 0x1C	; 28
    5c54:	55 e4       	ldi	r21, 0x45	; 69
    5c56:	69 81       	ldd	r22, Y+1	; 0x01
    5c58:	7a 81       	ldd	r23, Y+2	; 0x02
    5c5a:	8b 81       	ldd	r24, Y+3	; 0x03
    5c5c:	9c 81       	ldd	r25, Y+4	; 0x04
    5c5e:	0e 94 90 42 	call	0x8520	; 0x8520 <__mulsf3>
    5c62:	dc 01       	movw	r26, r24
    5c64:	cb 01       	movw	r24, r22
    5c66:	8d 83       	std	Y+5, r24	; 0x05
    5c68:	9e 83       	std	Y+6, r25	; 0x06
    5c6a:	af 83       	std	Y+7, r26	; 0x07
    5c6c:	b8 87       	std	Y+8, r27	; 0x08
    5c6e:	20 e0       	ldi	r18, 0x00	; 0
    5c70:	30 e0       	ldi	r19, 0x00	; 0
    5c72:	40 e8       	ldi	r20, 0x80	; 128
    5c74:	5f e3       	ldi	r21, 0x3F	; 63
    5c76:	6d 81       	ldd	r22, Y+5	; 0x05
    5c78:	7e 81       	ldd	r23, Y+6	; 0x06
    5c7a:	8f 81       	ldd	r24, Y+7	; 0x07
    5c7c:	98 85       	ldd	r25, Y+8	; 0x08
    5c7e:	0e 94 04 41 	call	0x8208	; 0x8208 <__cmpsf2>
    5c82:	88 23       	and	r24, r24
    5c84:	2c f4       	brge	.+10     	; 0x5c90 <getPosition+0x8c>
    5c86:	81 e0       	ldi	r24, 0x01	; 1
    5c88:	90 e0       	ldi	r25, 0x00	; 0
    5c8a:	9a 87       	std	Y+10, r25	; 0x0a
    5c8c:	89 87       	std	Y+9, r24	; 0x09
    5c8e:	3f c0       	rjmp	.+126    	; 0x5d0e <getPosition+0x10a>
    5c90:	20 e0       	ldi	r18, 0x00	; 0
    5c92:	3f ef       	ldi	r19, 0xFF	; 255
    5c94:	4f e7       	ldi	r20, 0x7F	; 127
    5c96:	57 e4       	ldi	r21, 0x47	; 71
    5c98:	6d 81       	ldd	r22, Y+5	; 0x05
    5c9a:	7e 81       	ldd	r23, Y+6	; 0x06
    5c9c:	8f 81       	ldd	r24, Y+7	; 0x07
    5c9e:	98 85       	ldd	r25, Y+8	; 0x08
    5ca0:	0e 94 8c 42 	call	0x8518	; 0x8518 <__gesf2>
    5ca4:	18 16       	cp	r1, r24
    5ca6:	4c f5       	brge	.+82     	; 0x5cfa <getPosition+0xf6>
    5ca8:	20 e0       	ldi	r18, 0x00	; 0
    5caa:	30 e0       	ldi	r19, 0x00	; 0
    5cac:	40 e2       	ldi	r20, 0x20	; 32
    5cae:	51 e4       	ldi	r21, 0x41	; 65
    5cb0:	69 81       	ldd	r22, Y+1	; 0x01
    5cb2:	7a 81       	ldd	r23, Y+2	; 0x02
    5cb4:	8b 81       	ldd	r24, Y+3	; 0x03
    5cb6:	9c 81       	ldd	r25, Y+4	; 0x04
    5cb8:	0e 94 90 42 	call	0x8520	; 0x8520 <__mulsf3>
    5cbc:	dc 01       	movw	r26, r24
    5cbe:	cb 01       	movw	r24, r22
    5cc0:	bc 01       	movw	r22, r24
    5cc2:	cd 01       	movw	r24, r26
    5cc4:	0e 94 70 41 	call	0x82e0	; 0x82e0 <__fixunssfsi>
    5cc8:	dc 01       	movw	r26, r24
    5cca:	cb 01       	movw	r24, r22
    5ccc:	9a 87       	std	Y+10, r25	; 0x0a
    5cce:	89 87       	std	Y+9, r24	; 0x09
    5cd0:	0f c0       	rjmp	.+30     	; 0x5cf0 <getPosition+0xec>
    5cd2:	8a ef       	ldi	r24, 0xFA	; 250
    5cd4:	90 e0       	ldi	r25, 0x00	; 0
    5cd6:	9c 87       	std	Y+12, r25	; 0x0c
    5cd8:	8b 87       	std	Y+11, r24	; 0x0b
    5cda:	8b 85       	ldd	r24, Y+11	; 0x0b
    5cdc:	9c 85       	ldd	r25, Y+12	; 0x0c
    5cde:	01 97       	sbiw	r24, 0x01	; 1
    5ce0:	f1 f7       	brne	.-4      	; 0x5cde <getPosition+0xda>
    5ce2:	9c 87       	std	Y+12, r25	; 0x0c
    5ce4:	8b 87       	std	Y+11, r24	; 0x0b
    5ce6:	89 85       	ldd	r24, Y+9	; 0x09
    5ce8:	9a 85       	ldd	r25, Y+10	; 0x0a
    5cea:	01 97       	sbiw	r24, 0x01	; 1
    5cec:	9a 87       	std	Y+10, r25	; 0x0a
    5cee:	89 87       	std	Y+9, r24	; 0x09
    5cf0:	89 85       	ldd	r24, Y+9	; 0x09
    5cf2:	9a 85       	ldd	r25, Y+10	; 0x0a
    5cf4:	00 97       	sbiw	r24, 0x00	; 0
    5cf6:	69 f7       	brne	.-38     	; 0x5cd2 <getPosition+0xce>
    5cf8:	14 c0       	rjmp	.+40     	; 0x5d22 <getPosition+0x11e>
    5cfa:	6d 81       	ldd	r22, Y+5	; 0x05
    5cfc:	7e 81       	ldd	r23, Y+6	; 0x06
    5cfe:	8f 81       	ldd	r24, Y+7	; 0x07
    5d00:	98 85       	ldd	r25, Y+8	; 0x08
    5d02:	0e 94 70 41 	call	0x82e0	; 0x82e0 <__fixunssfsi>
    5d06:	dc 01       	movw	r26, r24
    5d08:	cb 01       	movw	r24, r22
    5d0a:	9a 87       	std	Y+10, r25	; 0x0a
    5d0c:	89 87       	std	Y+9, r24	; 0x09
    5d0e:	89 85       	ldd	r24, Y+9	; 0x09
    5d10:	9a 85       	ldd	r25, Y+10	; 0x0a
    5d12:	9e 87       	std	Y+14, r25	; 0x0e
    5d14:	8d 87       	std	Y+13, r24	; 0x0d
    5d16:	8d 85       	ldd	r24, Y+13	; 0x0d
    5d18:	9e 85       	ldd	r25, Y+14	; 0x0e
    5d1a:	01 97       	sbiw	r24, 0x01	; 1
    5d1c:	f1 f7       	brne	.-4      	; 0x5d1a <getPosition+0x116>
    5d1e:	9e 87       	std	Y+14, r25	; 0x0e
    5d20:	8d 87       	std	Y+13, r24	; 0x0d
    5d22:	ce 01       	movw	r24, r28
    5d24:	45 96       	adiw	r24, 0x15	; 21
    5d26:	63 ec       	ldi	r22, 0xC3	; 195
    5d28:	0e 94 95 11 	call	0x232a	; 0x232a <CAN_Write>
    5d2c:	88 23       	and	r24, r24
    5d2e:	09 f0       	breq	.+2      	; 0x5d32 <getPosition+0x12e>
    5d30:	86 cf       	rjmp	.-244    	; 0x5c3e <getPosition+0x3a>
    5d32:	ce 01       	movw	r24, r28
    5d34:	45 96       	adiw	r24, 0x15	; 21
    5d36:	61 e0       	ldi	r22, 0x01	; 1
    5d38:	0e 94 25 11 	call	0x224a	; 0x224a <CAN_Read>
    5d3c:	8e 89       	ldd	r24, Y+22	; 0x16
    5d3e:	88 2f       	mov	r24, r24
    5d40:	90 e0       	ldi	r25, 0x00	; 0
    5d42:	38 2f       	mov	r19, r24
    5d44:	22 27       	eor	r18, r18
    5d46:	8f 89       	ldd	r24, Y+23	; 0x17
    5d48:	88 2f       	mov	r24, r24
    5d4a:	90 e0       	ldi	r25, 0x00	; 0
    5d4c:	82 2b       	or	r24, r18
    5d4e:	93 2b       	or	r25, r19
    5d50:	9e 8f       	std	Y+30, r25	; 0x1e
    5d52:	8d 8f       	std	Y+29, r24	; 0x1d
    5d54:	88 8d       	ldd	r24, Y+24	; 0x18
    5d56:	88 2f       	mov	r24, r24
    5d58:	90 e0       	ldi	r25, 0x00	; 0
    5d5a:	38 2f       	mov	r19, r24
    5d5c:	22 27       	eor	r18, r18
    5d5e:	89 8d       	ldd	r24, Y+25	; 0x19
    5d60:	88 2f       	mov	r24, r24
    5d62:	90 e0       	ldi	r25, 0x00	; 0
    5d64:	82 2b       	or	r24, r18
    5d66:	93 2b       	or	r25, r19
    5d68:	98 a3       	std	Y+32, r25	; 0x20
    5d6a:	8f 8f       	std	Y+31, r24	; 0x1f
    5d6c:	8a 8d       	ldd	r24, Y+26	; 0x1a
    5d6e:	88 2f       	mov	r24, r24
    5d70:	90 e0       	ldi	r25, 0x00	; 0
    5d72:	38 2f       	mov	r19, r24
    5d74:	22 27       	eor	r18, r18
    5d76:	8b 8d       	ldd	r24, Y+27	; 0x1b
    5d78:	88 2f       	mov	r24, r24
    5d7a:	90 e0       	ldi	r25, 0x00	; 0
    5d7c:	82 2b       	or	r24, r18
    5d7e:	93 2b       	or	r25, r19
    5d80:	9a a3       	std	Y+34, r25	; 0x22
    5d82:	89 a3       	std	Y+33, r24	; 0x21
    5d84:	86 e0       	ldi	r24, 0x06	; 6
    5d86:	fe 01       	movw	r30, r28
    5d88:	7d 96       	adiw	r30, 0x1d	; 29
    5d8a:	de 01       	movw	r26, r28
    5d8c:	1f 96       	adiw	r26, 0x0f	; 15
    5d8e:	01 90       	ld	r0, Z+
    5d90:	0d 92       	st	X+, r0
    5d92:	8a 95       	dec	r24
    5d94:	e1 f7       	brne	.-8      	; 0x5d8e <getPosition+0x18a>
    5d96:	50 e0       	ldi	r21, 0x00	; 0
    5d98:	5f 85       	ldd	r21, Y+15	; 0x0f
    5d9a:	40 e0       	ldi	r20, 0x00	; 0
    5d9c:	48 89       	ldd	r20, Y+16	; 0x10
    5d9e:	30 e0       	ldi	r19, 0x00	; 0
    5da0:	39 89       	ldd	r19, Y+17	; 0x11
    5da2:	20 e0       	ldi	r18, 0x00	; 0
    5da4:	2a 89       	ldd	r18, Y+18	; 0x12
    5da6:	90 e0       	ldi	r25, 0x00	; 0
    5da8:	9b 89       	ldd	r25, Y+19	; 0x13
    5daa:	80 e0       	ldi	r24, 0x00	; 0
    5dac:	8c 89       	ldd	r24, Y+20	; 0x14
    5dae:	25 2e       	mov	r2, r21
    5db0:	34 2e       	mov	r3, r20
    5db2:	43 2e       	mov	r4, r19
    5db4:	52 2e       	mov	r5, r18
    5db6:	69 2e       	mov	r6, r25
    5db8:	78 2e       	mov	r7, r24
    5dba:	a2 2c       	mov	r10, r2
    5dbc:	b3 2c       	mov	r11, r3
    5dbe:	c4 2c       	mov	r12, r4
    5dc0:	d5 2c       	mov	r13, r5
    5dc2:	e6 2c       	mov	r14, r6
    5dc4:	f7 2c       	mov	r15, r7
    5dc6:	08 2d       	mov	r16, r8
    5dc8:	19 2d       	mov	r17, r9
    5dca:	2a 2d       	mov	r18, r10
    5dcc:	3b 2d       	mov	r19, r11
    5dce:	4c 2d       	mov	r20, r12
    5dd0:	5d 2d       	mov	r21, r13
    5dd2:	6e 2d       	mov	r22, r14
    5dd4:	7f 2d       	mov	r23, r15
    5dd6:	80 2f       	mov	r24, r16
    5dd8:	91 2f       	mov	r25, r17
    5dda:	a2 96       	adiw	r28, 0x22	; 34
    5ddc:	0f b6       	in	r0, 0x3f	; 63
    5dde:	f8 94       	cli
    5de0:	de bf       	out	0x3e, r29	; 62
    5de2:	0f be       	out	0x3f, r0	; 63
    5de4:	cd bf       	out	0x3d, r28	; 61
    5de6:	df 91       	pop	r29
    5de8:	cf 91       	pop	r28
    5dea:	1f 91       	pop	r17
    5dec:	0f 91       	pop	r16
    5dee:	ff 90       	pop	r15
    5df0:	ef 90       	pop	r14
    5df2:	df 90       	pop	r13
    5df4:	cf 90       	pop	r12
    5df6:	bf 90       	pop	r11
    5df8:	af 90       	pop	r10
    5dfa:	9f 90       	pop	r9
    5dfc:	8f 90       	pop	r8
    5dfe:	7f 90       	pop	r7
    5e00:	6f 90       	pop	r6
    5e02:	5f 90       	pop	r5
    5e04:	4f 90       	pop	r4
    5e06:	3f 90       	pop	r3
    5e08:	2f 90       	pop	r2
    5e0a:	08 95       	ret

00005e0c <GPIO_PinRegister>:
    5e0c:	0f 93       	push	r16
    5e0e:	1f 93       	push	r17
    5e10:	df 93       	push	r29
    5e12:	cf 93       	push	r28
    5e14:	cd b7       	in	r28, 0x3d	; 61
    5e16:	de b7       	in	r29, 0x3e	; 62
    5e18:	27 97       	sbiw	r28, 0x07	; 7
    5e1a:	0f b6       	in	r0, 0x3f	; 63
    5e1c:	f8 94       	cli
    5e1e:	de bf       	out	0x3e, r29	; 62
    5e20:	0f be       	out	0x3f, r0	; 63
    5e22:	cd bf       	out	0x3d, r28	; 61
    5e24:	9b 83       	std	Y+3, r25	; 0x03
    5e26:	8a 83       	std	Y+2, r24	; 0x02
    5e28:	6c 83       	std	Y+4, r22	; 0x04
    5e2a:	80 91 14 03 	lds	r24, 0x0314
    5e2e:	84 31       	cpi	r24, 0x14	; 20
    5e30:	10 f0       	brcs	.+4      	; 0x5e36 <GPIO_PinRegister+0x2a>
    5e32:	1f 82       	std	Y+7, r1	; 0x07
    5e34:	74 c0       	rjmp	.+232    	; 0x5f1e <GPIO_PinRegister+0x112>
    5e36:	80 91 14 03 	lds	r24, 0x0314
    5e3a:	08 2f       	mov	r16, r24
    5e3c:	10 e0       	ldi	r17, 0x00	; 0
    5e3e:	86 e0       	ldi	r24, 0x06	; 6
    5e40:	90 e0       	ldi	r25, 0x00	; 0
    5e42:	0e 94 85 43 	call	0x870a	; 0x870a <malloc>
    5e46:	9c 01       	movw	r18, r24
    5e48:	c8 01       	movw	r24, r16
    5e4a:	88 0f       	add	r24, r24
    5e4c:	99 1f       	adc	r25, r25
    5e4e:	fc 01       	movw	r30, r24
    5e50:	ea 5e       	subi	r30, 0xEA	; 234
    5e52:	fc 4f       	sbci	r31, 0xFC	; 252
    5e54:	31 83       	std	Z+1, r19	; 0x01
    5e56:	20 83       	st	Z, r18
    5e58:	80 91 14 03 	lds	r24, 0x0314
    5e5c:	88 2f       	mov	r24, r24
    5e5e:	90 e0       	ldi	r25, 0x00	; 0
    5e60:	88 0f       	add	r24, r24
    5e62:	99 1f       	adc	r25, r25
    5e64:	fc 01       	movw	r30, r24
    5e66:	ea 5e       	subi	r30, 0xEA	; 234
    5e68:	fc 4f       	sbci	r31, 0xFC	; 252
    5e6a:	80 81       	ld	r24, Z
    5e6c:	91 81       	ldd	r25, Z+1	; 0x01
    5e6e:	00 97       	sbiw	r24, 0x00	; 0
    5e70:	19 f4       	brne	.+6      	; 0x5e78 <GPIO_PinRegister+0x6c>
    5e72:	8f ef       	ldi	r24, 0xFF	; 255
    5e74:	8f 83       	std	Y+7, r24	; 0x07
    5e76:	53 c0       	rjmp	.+166    	; 0x5f1e <GPIO_PinRegister+0x112>
    5e78:	80 91 14 03 	lds	r24, 0x0314
    5e7c:	88 2f       	mov	r24, r24
    5e7e:	90 e0       	ldi	r25, 0x00	; 0
    5e80:	88 0f       	add	r24, r24
    5e82:	99 1f       	adc	r25, r25
    5e84:	fc 01       	movw	r30, r24
    5e86:	ea 5e       	subi	r30, 0xEA	; 234
    5e88:	fc 4f       	sbci	r31, 0xFC	; 252
    5e8a:	01 90       	ld	r0, Z+
    5e8c:	f0 81       	ld	r31, Z
    5e8e:	e0 2d       	mov	r30, r0
    5e90:	8a 81       	ldd	r24, Y+2	; 0x02
    5e92:	9b 81       	ldd	r25, Y+3	; 0x03
    5e94:	91 83       	std	Z+1, r25	; 0x01
    5e96:	80 83       	st	Z, r24
    5e98:	80 91 14 03 	lds	r24, 0x0314
    5e9c:	88 2f       	mov	r24, r24
    5e9e:	90 e0       	ldi	r25, 0x00	; 0
    5ea0:	88 0f       	add	r24, r24
    5ea2:	99 1f       	adc	r25, r25
    5ea4:	fc 01       	movw	r30, r24
    5ea6:	ea 5e       	subi	r30, 0xEA	; 234
    5ea8:	fc 4f       	sbci	r31, 0xFC	; 252
    5eaa:	01 90       	ld	r0, Z+
    5eac:	f0 81       	ld	r31, Z
    5eae:	e0 2d       	mov	r30, r0
    5eb0:	8c 81       	ldd	r24, Y+4	; 0x04
    5eb2:	82 83       	std	Z+2, r24	; 0x02
    5eb4:	19 82       	std	Y+1, r1	; 0x01
    5eb6:	16 c0       	rjmp	.+44     	; 0x5ee4 <GPIO_PinRegister+0xd8>
    5eb8:	80 91 14 03 	lds	r24, 0x0314
    5ebc:	88 2f       	mov	r24, r24
    5ebe:	90 e0       	ldi	r25, 0x00	; 0
    5ec0:	88 0f       	add	r24, r24
    5ec2:	99 1f       	adc	r25, r25
    5ec4:	fc 01       	movw	r30, r24
    5ec6:	ea 5e       	subi	r30, 0xEA	; 234
    5ec8:	fc 4f       	sbci	r31, 0xFC	; 252
    5eca:	20 81       	ld	r18, Z
    5ecc:	31 81       	ldd	r19, Z+1	; 0x01
    5ece:	89 81       	ldd	r24, Y+1	; 0x01
    5ed0:	88 2f       	mov	r24, r24
    5ed2:	90 e0       	ldi	r25, 0x00	; 0
    5ed4:	82 0f       	add	r24, r18
    5ed6:	93 1f       	adc	r25, r19
    5ed8:	fc 01       	movw	r30, r24
    5eda:	33 96       	adiw	r30, 0x03	; 3
    5edc:	10 82       	st	Z, r1
    5ede:	89 81       	ldd	r24, Y+1	; 0x01
    5ee0:	8f 5f       	subi	r24, 0xFF	; 255
    5ee2:	89 83       	std	Y+1, r24	; 0x01
    5ee4:	89 81       	ldd	r24, Y+1	; 0x01
    5ee6:	83 30       	cpi	r24, 0x03	; 3
    5ee8:	38 f3       	brcs	.-50     	; 0x5eb8 <GPIO_PinRegister+0xac>
    5eea:	8a 81       	ldd	r24, Y+2	; 0x02
    5eec:	9b 81       	ldd	r25, Y+3	; 0x03
    5eee:	fc 01       	movw	r30, r24
    5ef0:	31 97       	sbiw	r30, 0x01	; 1
    5ef2:	80 81       	ld	r24, Z
    5ef4:	8a 81       	ldd	r24, Y+2	; 0x02
    5ef6:	9b 81       	ldd	r25, Y+3	; 0x03
    5ef8:	fc 01       	movw	r30, r24
    5efa:	31 97       	sbiw	r30, 0x01	; 1
    5efc:	10 82       	st	Z, r1
    5efe:	ea 81       	ldd	r30, Y+2	; 0x02
    5f00:	fb 81       	ldd	r31, Y+3	; 0x03
    5f02:	80 81       	ld	r24, Z
    5f04:	ea 81       	ldd	r30, Y+2	; 0x02
    5f06:	fb 81       	ldd	r31, Y+3	; 0x03
    5f08:	10 82       	st	Z, r1
    5f0a:	80 91 14 03 	lds	r24, 0x0314
    5f0e:	89 83       	std	Y+1, r24	; 0x01
    5f10:	80 91 14 03 	lds	r24, 0x0314
    5f14:	8f 5f       	subi	r24, 0xFF	; 255
    5f16:	80 93 14 03 	sts	0x0314, r24
    5f1a:	89 81       	ldd	r24, Y+1	; 0x01
    5f1c:	8f 83       	std	Y+7, r24	; 0x07
    5f1e:	8f 81       	ldd	r24, Y+7	; 0x07
    5f20:	27 96       	adiw	r28, 0x07	; 7
    5f22:	0f b6       	in	r0, 0x3f	; 63
    5f24:	f8 94       	cli
    5f26:	de bf       	out	0x3e, r29	; 62
    5f28:	0f be       	out	0x3f, r0	; 63
    5f2a:	cd bf       	out	0x3d, r28	; 61
    5f2c:	cf 91       	pop	r28
    5f2e:	df 91       	pop	r29
    5f30:	1f 91       	pop	r17
    5f32:	0f 91       	pop	r16
    5f34:	08 95       	ret

00005f36 <GPIO_PinRead>:
    5f36:	df 93       	push	r29
    5f38:	cf 93       	push	r28
    5f3a:	0f 92       	push	r0
    5f3c:	cd b7       	in	r28, 0x3d	; 61
    5f3e:	de b7       	in	r29, 0x3e	; 62
    5f40:	89 83       	std	Y+1, r24	; 0x01
    5f42:	89 81       	ldd	r24, Y+1	; 0x01
    5f44:	88 2f       	mov	r24, r24
    5f46:	90 e0       	ldi	r25, 0x00	; 0
    5f48:	88 0f       	add	r24, r24
    5f4a:	99 1f       	adc	r25, r25
    5f4c:	fc 01       	movw	r30, r24
    5f4e:	ea 5e       	subi	r30, 0xEA	; 234
    5f50:	fc 4f       	sbci	r31, 0xFC	; 252
    5f52:	01 90       	ld	r0, Z+
    5f54:	f0 81       	ld	r31, Z
    5f56:	e0 2d       	mov	r30, r0
    5f58:	23 81       	ldd	r18, Z+3	; 0x03
    5f5a:	89 81       	ldd	r24, Y+1	; 0x01
    5f5c:	88 2f       	mov	r24, r24
    5f5e:	90 e0       	ldi	r25, 0x00	; 0
    5f60:	88 0f       	add	r24, r24
    5f62:	99 1f       	adc	r25, r25
    5f64:	fc 01       	movw	r30, r24
    5f66:	ea 5e       	subi	r30, 0xEA	; 234
    5f68:	fc 4f       	sbci	r31, 0xFC	; 252
    5f6a:	01 90       	ld	r0, Z+
    5f6c:	f0 81       	ld	r31, Z
    5f6e:	e0 2d       	mov	r30, r0
    5f70:	84 81       	ldd	r24, Z+4	; 0x04
    5f72:	28 23       	and	r18, r24
    5f74:	89 81       	ldd	r24, Y+1	; 0x01
    5f76:	88 2f       	mov	r24, r24
    5f78:	90 e0       	ldi	r25, 0x00	; 0
    5f7a:	88 0f       	add	r24, r24
    5f7c:	99 1f       	adc	r25, r25
    5f7e:	fc 01       	movw	r30, r24
    5f80:	ea 5e       	subi	r30, 0xEA	; 234
    5f82:	fc 4f       	sbci	r31, 0xFC	; 252
    5f84:	01 90       	ld	r0, Z+
    5f86:	f0 81       	ld	r31, Z
    5f88:	e0 2d       	mov	r30, r0
    5f8a:	85 81       	ldd	r24, Z+5	; 0x05
    5f8c:	82 23       	and	r24, r18
    5f8e:	0f 90       	pop	r0
    5f90:	cf 91       	pop	r28
    5f92:	df 91       	pop	r29
    5f94:	08 95       	ret

00005f96 <GPIO_ReadFromRegister>:
    5f96:	df 93       	push	r29
    5f98:	cf 93       	push	r28
    5f9a:	00 d0       	rcall	.+0      	; 0x5f9c <GPIO_ReadFromRegister+0x6>
    5f9c:	cd b7       	in	r28, 0x3d	; 61
    5f9e:	de b7       	in	r29, 0x3e	; 62
    5fa0:	8a 83       	std	Y+2, r24	; 0x02
    5fa2:	19 82       	std	Y+1, r1	; 0x01
    5fa4:	8a 81       	ldd	r24, Y+2	; 0x02
    5fa6:	88 2f       	mov	r24, r24
    5fa8:	90 e0       	ldi	r25, 0x00	; 0
    5faa:	88 0f       	add	r24, r24
    5fac:	99 1f       	adc	r25, r25
    5fae:	fc 01       	movw	r30, r24
    5fb0:	ea 5e       	subi	r30, 0xEA	; 234
    5fb2:	fc 4f       	sbci	r31, 0xFC	; 252
    5fb4:	01 90       	ld	r0, Z+
    5fb6:	f0 81       	ld	r31, Z
    5fb8:	e0 2d       	mov	r30, r0
    5fba:	80 81       	ld	r24, Z
    5fbc:	91 81       	ldd	r25, Z+1	; 0x01
    5fbe:	fc 01       	movw	r30, r24
    5fc0:	32 97       	sbiw	r30, 0x02	; 2
    5fc2:	80 81       	ld	r24, Z
    5fc4:	28 2f       	mov	r18, r24
    5fc6:	30 e0       	ldi	r19, 0x00	; 0
    5fc8:	8a 81       	ldd	r24, Y+2	; 0x02
    5fca:	88 2f       	mov	r24, r24
    5fcc:	90 e0       	ldi	r25, 0x00	; 0
    5fce:	88 0f       	add	r24, r24
    5fd0:	99 1f       	adc	r25, r25
    5fd2:	fc 01       	movw	r30, r24
    5fd4:	ea 5e       	subi	r30, 0xEA	; 234
    5fd6:	fc 4f       	sbci	r31, 0xFC	; 252
    5fd8:	01 90       	ld	r0, Z+
    5fda:	f0 81       	ld	r31, Z
    5fdc:	e0 2d       	mov	r30, r0
    5fde:	82 81       	ldd	r24, Z+2	; 0x02
    5fe0:	88 2f       	mov	r24, r24
    5fe2:	90 e0       	ldi	r25, 0x00	; 0
    5fe4:	a9 01       	movw	r20, r18
    5fe6:	02 c0       	rjmp	.+4      	; 0x5fec <GPIO_ReadFromRegister+0x56>
    5fe8:	55 95       	asr	r21
    5fea:	47 95       	ror	r20
    5fec:	8a 95       	dec	r24
    5fee:	e2 f7       	brpl	.-8      	; 0x5fe8 <GPIO_ReadFromRegister+0x52>
    5ff0:	ca 01       	movw	r24, r20
    5ff2:	81 70       	andi	r24, 0x01	; 1
    5ff4:	89 83       	std	Y+1, r24	; 0x01
    5ff6:	89 81       	ldd	r24, Y+1	; 0x01
    5ff8:	0f 90       	pop	r0
    5ffa:	0f 90       	pop	r0
    5ffc:	cf 91       	pop	r28
    5ffe:	df 91       	pop	r29
    6000:	08 95       	ret

00006002 <fillDebaunsingData>:
    6002:	ef 92       	push	r14
    6004:	ff 92       	push	r15
    6006:	0f 93       	push	r16
    6008:	1f 93       	push	r17
    600a:	df 93       	push	r29
    600c:	cf 93       	push	r28
    600e:	0f 92       	push	r0
    6010:	cd b7       	in	r28, 0x3d	; 61
    6012:	de b7       	in	r29, 0x3e	; 62
    6014:	80 91 15 03 	lds	r24, 0x0315
    6018:	8f 5f       	subi	r24, 0xFF	; 255
    601a:	80 93 15 03 	sts	0x0315, r24
    601e:	80 91 15 03 	lds	r24, 0x0315
    6022:	83 30       	cpi	r24, 0x03	; 3
    6024:	14 f0       	brlt	.+4      	; 0x602a <fillDebaunsingData+0x28>
    6026:	10 92 15 03 	sts	0x0315, r1
    602a:	19 82       	std	Y+1, r1	; 0x01
    602c:	1c c0       	rjmp	.+56     	; 0x6066 <fillDebaunsingData+0x64>
    602e:	89 81       	ldd	r24, Y+1	; 0x01
    6030:	88 2f       	mov	r24, r24
    6032:	90 e0       	ldi	r25, 0x00	; 0
    6034:	88 0f       	add	r24, r24
    6036:	99 1f       	adc	r25, r25
    6038:	fc 01       	movw	r30, r24
    603a:	ea 5e       	subi	r30, 0xEA	; 234
    603c:	fc 4f       	sbci	r31, 0xFC	; 252
    603e:	e0 80       	ld	r14, Z
    6040:	f1 80       	ldd	r15, Z+1	; 0x01
    6042:	80 91 15 03 	lds	r24, 0x0315
    6046:	08 2f       	mov	r16, r24
    6048:	11 27       	eor	r17, r17
    604a:	07 fd       	sbrc	r16, 7
    604c:	10 95       	com	r17
    604e:	89 81       	ldd	r24, Y+1	; 0x01
    6050:	a2 df       	rcall	.-188    	; 0x5f96 <GPIO_ReadFromRegister>
    6052:	28 2f       	mov	r18, r24
    6054:	c7 01       	movw	r24, r14
    6056:	80 0f       	add	r24, r16
    6058:	91 1f       	adc	r25, r17
    605a:	fc 01       	movw	r30, r24
    605c:	33 96       	adiw	r30, 0x03	; 3
    605e:	20 83       	st	Z, r18
    6060:	89 81       	ldd	r24, Y+1	; 0x01
    6062:	8f 5f       	subi	r24, 0xFF	; 255
    6064:	89 83       	std	Y+1, r24	; 0x01
    6066:	90 91 14 03 	lds	r25, 0x0314
    606a:	89 81       	ldd	r24, Y+1	; 0x01
    606c:	89 17       	cp	r24, r25
    606e:	f8 f2       	brcs	.-66     	; 0x602e <fillDebaunsingData+0x2c>
    6070:	0f 90       	pop	r0
    6072:	cf 91       	pop	r28
    6074:	df 91       	pop	r29
    6076:	1f 91       	pop	r17
    6078:	0f 91       	pop	r16
    607a:	ff 90       	pop	r15
    607c:	ef 90       	pop	r14
    607e:	08 95       	ret

00006080 <Timer_Init>:
    6080:	0f 93       	push	r16
    6082:	1f 93       	push	r17
    6084:	df 93       	push	r29
    6086:	cf 93       	push	r28
    6088:	00 d0       	rcall	.+0      	; 0x608a <Timer_Init+0xa>
    608a:	cd b7       	in	r28, 0x3d	; 61
    608c:	de b7       	in	r29, 0x3e	; 62
    608e:	9a 83       	std	Y+2, r25	; 0x02
    6090:	89 83       	std	Y+1, r24	; 0x01
    6092:	e0 e8       	ldi	r30, 0x80	; 128
    6094:	f0 e0       	ldi	r31, 0x00	; 0
    6096:	10 82       	st	Z, r1
    6098:	e1 e8       	ldi	r30, 0x81	; 129
    609a:	f0 e0       	ldi	r31, 0x00	; 0
    609c:	89 e0       	ldi	r24, 0x09	; 9
    609e:	80 83       	st	Z, r24
    60a0:	08 e8       	ldi	r16, 0x88	; 136
    60a2:	10 e0       	ldi	r17, 0x00	; 0
    60a4:	89 81       	ldd	r24, Y+1	; 0x01
    60a6:	9a 81       	ldd	r25, Y+2	; 0x02
    60a8:	cc 01       	movw	r24, r24
    60aa:	a0 e0       	ldi	r26, 0x00	; 0
    60ac:	b0 e0       	ldi	r27, 0x00	; 0
    60ae:	bc 01       	movw	r22, r24
    60b0:	cd 01       	movw	r24, r26
    60b2:	0e 94 9c 41 	call	0x8338	; 0x8338 <__floatunsisf>
    60b6:	9b 01       	movw	r18, r22
    60b8:	ac 01       	movw	r20, r24
    60ba:	60 e8       	ldi	r22, 0x80	; 128
    60bc:	76 e9       	ldi	r23, 0x96	; 150
    60be:	88 e1       	ldi	r24, 0x18	; 24
    60c0:	9b e4       	ldi	r25, 0x4B	; 75
    60c2:	0e 94 08 41 	call	0x8210	; 0x8210 <__divsf3>
    60c6:	dc 01       	movw	r26, r24
    60c8:	cb 01       	movw	r24, r22
    60ca:	bc 01       	movw	r22, r24
    60cc:	cd 01       	movw	r24, r26
    60ce:	20 e0       	ldi	r18, 0x00	; 0
    60d0:	30 e0       	ldi	r19, 0x00	; 0
    60d2:	40 e0       	ldi	r20, 0x00	; 0
    60d4:	5f e3       	ldi	r21, 0x3F	; 63
    60d6:	0e 94 a0 40 	call	0x8140	; 0x8140 <__addsf3>
    60da:	dc 01       	movw	r26, r24
    60dc:	cb 01       	movw	r24, r22
    60de:	bc 01       	movw	r22, r24
    60e0:	cd 01       	movw	r24, r26
    60e2:	0e 94 70 41 	call	0x82e0	; 0x82e0 <__fixunssfsi>
    60e6:	dc 01       	movw	r26, r24
    60e8:	cb 01       	movw	r24, r22
    60ea:	f8 01       	movw	r30, r16
    60ec:	91 83       	std	Z+1, r25	; 0x01
    60ee:	80 83       	st	Z, r24
    60f0:	ef e6       	ldi	r30, 0x6F	; 111
    60f2:	f0 e0       	ldi	r31, 0x00	; 0
    60f4:	82 e0       	ldi	r24, 0x02	; 2
    60f6:	80 83       	st	Z, r24
    60f8:	af e5       	ldi	r26, 0x5F	; 95
    60fa:	b0 e0       	ldi	r27, 0x00	; 0
    60fc:	ef e5       	ldi	r30, 0x5F	; 95
    60fe:	f0 e0       	ldi	r31, 0x00	; 0
    6100:	80 81       	ld	r24, Z
    6102:	80 68       	ori	r24, 0x80	; 128
    6104:	8c 93       	st	X, r24
    6106:	0f 90       	pop	r0
    6108:	0f 90       	pop	r0
    610a:	cf 91       	pop	r28
    610c:	df 91       	pop	r29
    610e:	1f 91       	pop	r17
    6110:	0f 91       	pop	r16
    6112:	08 95       	ret

00006114 <Timer_0_Init>:
    6114:	df 93       	push	r29
    6116:	cf 93       	push	r28
    6118:	cd b7       	in	r28, 0x3d	; 61
    611a:	de b7       	in	r29, 0x3e	; 62
    611c:	a4 e4       	ldi	r26, 0x44	; 68
    611e:	b0 e0       	ldi	r27, 0x00	; 0
    6120:	e4 e4       	ldi	r30, 0x44	; 68
    6122:	f0 e0       	ldi	r31, 0x00	; 0
    6124:	80 81       	ld	r24, Z
    6126:	8d 68       	ori	r24, 0x8D	; 141
    6128:	8c 93       	st	X, r24
    612a:	e7 e4       	ldi	r30, 0x47	; 71
    612c:	f0 e0       	ldi	r31, 0x00	; 0
    612e:	8a e3       	ldi	r24, 0x3A	; 58
    6130:	80 83       	st	Z, r24
    6132:	ee e6       	ldi	r30, 0x6E	; 110
    6134:	f0 e0       	ldi	r31, 0x00	; 0
    6136:	82 e0       	ldi	r24, 0x02	; 2
    6138:	80 83       	st	Z, r24
    613a:	e6 e4       	ldi	r30, 0x46	; 70
    613c:	f0 e0       	ldi	r31, 0x00	; 0
    613e:	10 82       	st	Z, r1
    6140:	cf 91       	pop	r28
    6142:	df 91       	pop	r29
    6144:	08 95       	ret

00006146 <__vector_16>:
    6146:	1f 92       	push	r1
    6148:	0f 92       	push	r0
    614a:	0f b6       	in	r0, 0x3f	; 63
    614c:	0f 92       	push	r0
    614e:	00 90 5b 00 	lds	r0, 0x005B
    6152:	0f 92       	push	r0
    6154:	11 24       	eor	r1, r1
    6156:	8f 93       	push	r24
    6158:	9f 93       	push	r25
    615a:	ef 93       	push	r30
    615c:	ff 93       	push	r31
    615e:	df 93       	push	r29
    6160:	cf 93       	push	r28
    6162:	cd b7       	in	r28, 0x3d	; 61
    6164:	de b7       	in	r29, 0x3e	; 62
    6166:	e6 e4       	ldi	r30, 0x46	; 70
    6168:	f0 e0       	ldi	r31, 0x00	; 0
    616a:	90 81       	ld	r25, Z
    616c:	e7 e4       	ldi	r30, 0x47	; 71
    616e:	f0 e0       	ldi	r31, 0x00	; 0
    6170:	80 81       	ld	r24, Z
    6172:	98 17       	cp	r25, r24
    6174:	20 f0       	brcs	.+8      	; 0x617e <__vector_16+0x38>
    6176:	e4 e3       	ldi	r30, 0x34	; 52
    6178:	f0 e0       	ldi	r31, 0x00	; 0
    617a:	8f ef       	ldi	r24, 0xFF	; 255
    617c:	80 83       	st	Z, r24
    617e:	cf 91       	pop	r28
    6180:	df 91       	pop	r29
    6182:	ff 91       	pop	r31
    6184:	ef 91       	pop	r30
    6186:	9f 91       	pop	r25
    6188:	8f 91       	pop	r24
    618a:	0f 90       	pop	r0
    618c:	00 92 5b 00 	sts	0x005B, r0
    6190:	0f 90       	pop	r0
    6192:	0f be       	out	0x3f, r0	; 63
    6194:	0f 90       	pop	r0
    6196:	1f 90       	pop	r1
    6198:	18 95       	reti

0000619a <__vector_12>:
    619a:	1f 92       	push	r1
    619c:	0f 92       	push	r0
    619e:	0f b6       	in	r0, 0x3f	; 63
    61a0:	0f 92       	push	r0
    61a2:	00 90 5b 00 	lds	r0, 0x005B
    61a6:	0f 92       	push	r0
    61a8:	11 24       	eor	r1, r1
    61aa:	2f 93       	push	r18
    61ac:	3f 93       	push	r19
    61ae:	4f 93       	push	r20
    61b0:	5f 93       	push	r21
    61b2:	6f 93       	push	r22
    61b4:	7f 93       	push	r23
    61b6:	8f 93       	push	r24
    61b8:	9f 93       	push	r25
    61ba:	af 93       	push	r26
    61bc:	bf 93       	push	r27
    61be:	ef 93       	push	r30
    61c0:	ff 93       	push	r31
    61c2:	df 93       	push	r29
    61c4:	cf 93       	push	r28
    61c6:	cd b7       	in	r28, 0x3d	; 61
    61c8:	de b7       	in	r29, 0x3e	; 62
    61ca:	1b df       	rcall	.-458    	; 0x6002 <fillDebaunsingData>
    61cc:	80 91 3e 03 	lds	r24, 0x033E
    61d0:	90 91 3f 03 	lds	r25, 0x033F
    61d4:	a0 91 40 03 	lds	r26, 0x0340
    61d8:	b0 91 41 03 	lds	r27, 0x0341
    61dc:	01 96       	adiw	r24, 0x01	; 1
    61de:	a1 1d       	adc	r26, r1
    61e0:	b1 1d       	adc	r27, r1
    61e2:	80 93 3e 03 	sts	0x033E, r24
    61e6:	90 93 3f 03 	sts	0x033F, r25
    61ea:	a0 93 40 03 	sts	0x0340, r26
    61ee:	b0 93 41 03 	sts	0x0341, r27
    61f2:	cf 91       	pop	r28
    61f4:	df 91       	pop	r29
    61f6:	ff 91       	pop	r31
    61f8:	ef 91       	pop	r30
    61fa:	bf 91       	pop	r27
    61fc:	af 91       	pop	r26
    61fe:	9f 91       	pop	r25
    6200:	8f 91       	pop	r24
    6202:	7f 91       	pop	r23
    6204:	6f 91       	pop	r22
    6206:	5f 91       	pop	r21
    6208:	4f 91       	pop	r20
    620a:	3f 91       	pop	r19
    620c:	2f 91       	pop	r18
    620e:	0f 90       	pop	r0
    6210:	00 92 5b 00 	sts	0x005B, r0
    6214:	0f 90       	pop	r0
    6216:	0f be       	out	0x3f, r0	; 63
    6218:	0f 90       	pop	r0
    621a:	1f 90       	pop	r1
    621c:	18 95       	reti

0000621e <systemInit>:
    621e:	df 93       	push	r29
    6220:	cf 93       	push	r28
    6222:	cd b7       	in	r28, 0x3d	; 61
    6224:	de b7       	in	r29, 0x3e	; 62
    6226:	e3 e3       	ldi	r30, 0x33	; 51
    6228:	f0 e0       	ldi	r31, 0x00	; 0
    622a:	8f ef       	ldi	r24, 0xFF	; 255
    622c:	80 83       	st	Z, r24
    622e:	88 ee       	ldi	r24, 0xE8	; 232
    6230:	93 e0       	ldi	r25, 0x03	; 3
    6232:	26 df       	rcall	.-436    	; 0x6080 <Timer_Init>
    6234:	84 e0       	ldi	r24, 0x04	; 4
    6236:	0e 94 e0 10 	call	0x21c0	; 0x21c0 <CAN_Init>
    623a:	82 e2       	ldi	r24, 0x22	; 34
    623c:	90 e0       	ldi	r25, 0x00	; 0
    623e:	64 e0       	ldi	r22, 0x04	; 4
    6240:	e5 dd       	rcall	.-1078   	; 0x5e0c <GPIO_PinRegister>
    6242:	80 93 54 04 	sts	0x0454, r24
    6246:	82 e2       	ldi	r24, 0x22	; 34
    6248:	90 e0       	ldi	r25, 0x00	; 0
    624a:	65 e0       	ldi	r22, 0x05	; 5
    624c:	df dd       	rcall	.-1090   	; 0x5e0c <GPIO_PinRegister>
    624e:	80 93 57 04 	sts	0x0457, r24
    6252:	82 e2       	ldi	r24, 0x22	; 34
    6254:	90 e0       	ldi	r25, 0x00	; 0
    6256:	60 e0       	ldi	r22, 0x00	; 0
    6258:	d9 dd       	rcall	.-1102   	; 0x5e0c <GPIO_PinRegister>
    625a:	80 93 4e 04 	sts	0x044E, r24
    625e:	82 e2       	ldi	r24, 0x22	; 34
    6260:	90 e0       	ldi	r25, 0x00	; 0
    6262:	61 e0       	ldi	r22, 0x01	; 1
    6264:	d3 dd       	rcall	.-1114   	; 0x5e0c <GPIO_PinRegister>
    6266:	80 93 53 04 	sts	0x0453, r24
    626a:	81 e3       	ldi	r24, 0x31	; 49
    626c:	90 e0       	ldi	r25, 0x00	; 0
    626e:	61 e0       	ldi	r22, 0x01	; 1
    6270:	cd dd       	rcall	.-1126   	; 0x5e0c <GPIO_PinRegister>
    6272:	80 93 58 04 	sts	0x0458, r24
    6276:	82 e2       	ldi	r24, 0x22	; 34
    6278:	90 e0       	ldi	r25, 0x00	; 0
    627a:	67 e0       	ldi	r22, 0x07	; 7
    627c:	c7 dd       	rcall	.-1138   	; 0x5e0c <GPIO_PinRegister>
    627e:	80 93 4d 04 	sts	0x044D, r24
    6282:	82 e2       	ldi	r24, 0x22	; 34
    6284:	90 e0       	ldi	r25, 0x00	; 0
    6286:	66 e0       	ldi	r22, 0x06	; 6
    6288:	c1 dd       	rcall	.-1150   	; 0x5e0c <GPIO_PinRegister>
    628a:	80 93 52 04 	sts	0x0452, r24
    628e:	82 e2       	ldi	r24, 0x22	; 34
    6290:	90 e0       	ldi	r25, 0x00	; 0
    6292:	62 e0       	ldi	r22, 0x02	; 2
    6294:	bb dd       	rcall	.-1162   	; 0x5e0c <GPIO_PinRegister>
    6296:	80 93 4c 04 	sts	0x044C, r24
    629a:	82 e2       	ldi	r24, 0x22	; 34
    629c:	90 e0       	ldi	r25, 0x00	; 0
    629e:	63 e0       	ldi	r22, 0x03	; 3
    62a0:	b5 dd       	rcall	.-1174   	; 0x5e0c <GPIO_PinRegister>
    62a2:	80 93 55 04 	sts	0x0455, r24
    62a6:	81 e3       	ldi	r24, 0x31	; 49
    62a8:	90 e0       	ldi	r25, 0x00	; 0
    62aa:	60 e0       	ldi	r22, 0x00	; 0
    62ac:	af dd       	rcall	.-1186   	; 0x5e0c <GPIO_PinRegister>
    62ae:	80 93 4b 04 	sts	0x044B, r24
    62b2:	81 e3       	ldi	r24, 0x31	; 49
    62b4:	90 e0       	ldi	r25, 0x00	; 0
    62b6:	62 e0       	ldi	r22, 0x02	; 2
    62b8:	a9 dd       	rcall	.-1198   	; 0x5e0c <GPIO_PinRegister>
    62ba:	80 93 4f 04 	sts	0x044F, r24
    62be:	81 e3       	ldi	r24, 0x31	; 49
    62c0:	90 e0       	ldi	r25, 0x00	; 0
    62c2:	64 e0       	ldi	r22, 0x04	; 4
    62c4:	a3 dd       	rcall	.-1210   	; 0x5e0c <GPIO_PinRegister>
    62c6:	80 93 51 04 	sts	0x0451, r24
    62ca:	4b d0       	rcall	.+150    	; 0x6362 <jumperCheck>
    62cc:	81 30       	cpi	r24, 0x01	; 1
    62ce:	e9 f3       	breq	.-6      	; 0x62ca <systemInit+0xac>
    62d0:	10 92 3e 03 	sts	0x033E, r1
    62d4:	10 92 3f 03 	sts	0x033F, r1
    62d8:	10 92 40 03 	sts	0x0340, r1
    62dc:	10 92 41 03 	sts	0x0341, r1
    62e0:	19 df       	rcall	.-462    	; 0x6114 <Timer_0_Init>
    62e2:	84 e6       	ldi	r24, 0x64	; 100
    62e4:	90 e0       	ldi	r25, 0x00	; 0
    62e6:	0e 94 5c 0e 	call	0x1cb8	; 0x1cb8 <servo_init>
    62ea:	10 92 50 04 	sts	0x0450, r1
    62ee:	10 92 59 04 	sts	0x0459, r1
    62f2:	10 92 4a 04 	sts	0x044A, r1
    62f6:	cf 91       	pop	r28
    62f8:	df 91       	pop	r29
    62fa:	08 95       	ret

000062fc <getSystemTime>:
    62fc:	df 93       	push	r29
    62fe:	cf 93       	push	r28
    6300:	cd b7       	in	r28, 0x3d	; 61
    6302:	de b7       	in	r29, 0x3e	; 62
    6304:	80 91 3e 03 	lds	r24, 0x033E
    6308:	90 91 3f 03 	lds	r25, 0x033F
    630c:	a0 91 40 03 	lds	r26, 0x0340
    6310:	b0 91 41 03 	lds	r27, 0x0341
    6314:	bc 01       	movw	r22, r24
    6316:	cd 01       	movw	r24, r26
    6318:	cf 91       	pop	r28
    631a:	df 91       	pop	r29
    631c:	08 95       	ret

0000631e <checkLiftSensor>:
    631e:	df 93       	push	r29
    6320:	cf 93       	push	r28
    6322:	00 d0       	rcall	.+0      	; 0x6324 <checkLiftSensor+0x6>
    6324:	cd b7       	in	r28, 0x3d	; 61
    6326:	de b7       	in	r29, 0x3e	; 62
    6328:	89 83       	std	Y+1, r24	; 0x01
    632a:	89 81       	ldd	r24, Y+1	; 0x01
    632c:	81 30       	cpi	r24, 0x01	; 1
    632e:	39 f4       	brne	.+14     	; 0x633e <checkLiftSensor+0x20>
    6330:	80 91 4d 04 	lds	r24, 0x044D
    6334:	81 30       	cpi	r24, 0x01	; 1
    6336:	69 f4       	brne	.+26     	; 0x6352 <checkLiftSensor+0x34>
    6338:	81 e0       	ldi	r24, 0x01	; 1
    633a:	8a 83       	std	Y+2, r24	; 0x02
    633c:	0c c0       	rjmp	.+24     	; 0x6356 <checkLiftSensor+0x38>
    633e:	89 81       	ldd	r24, Y+1	; 0x01
    6340:	8f 3f       	cpi	r24, 0xFF	; 255
    6342:	39 f4       	brne	.+14     	; 0x6352 <checkLiftSensor+0x34>
    6344:	80 91 52 04 	lds	r24, 0x0452
    6348:	81 30       	cpi	r24, 0x01	; 1
    634a:	19 f4       	brne	.+6      	; 0x6352 <checkLiftSensor+0x34>
    634c:	81 e0       	ldi	r24, 0x01	; 1
    634e:	8a 83       	std	Y+2, r24	; 0x02
    6350:	02 c0       	rjmp	.+4      	; 0x6356 <checkLiftSensor+0x38>
    6352:	8f ef       	ldi	r24, 0xFF	; 255
    6354:	8a 83       	std	Y+2, r24	; 0x02
    6356:	8a 81       	ldd	r24, Y+2	; 0x02
    6358:	0f 90       	pop	r0
    635a:	0f 90       	pop	r0
    635c:	cf 91       	pop	r28
    635e:	df 91       	pop	r29
    6360:	08 95       	ret

00006362 <jumperCheck>:
    6362:	df 93       	push	r29
    6364:	cf 93       	push	r28
    6366:	0f 92       	push	r0
    6368:	cd b7       	in	r28, 0x3d	; 61
    636a:	de b7       	in	r29, 0x3e	; 62
    636c:	80 91 4f 04 	lds	r24, 0x044F
    6370:	e2 dd       	rcall	.-1084   	; 0x5f36 <GPIO_PinRead>
    6372:	88 23       	and	r24, r24
    6374:	19 f4       	brne	.+6      	; 0x637c <jumperCheck+0x1a>
    6376:	81 e0       	ldi	r24, 0x01	; 1
    6378:	89 83       	std	Y+1, r24	; 0x01
    637a:	01 c0       	rjmp	.+2      	; 0x637e <jumperCheck+0x1c>
    637c:	19 82       	std	Y+1, r1	; 0x01
    637e:	89 81       	ldd	r24, Y+1	; 0x01
    6380:	0f 90       	pop	r0
    6382:	cf 91       	pop	r28
    6384:	df 91       	pop	r29
    6386:	08 95       	ret

00006388 <sidesSwitchCheck>:
    6388:	df 93       	push	r29
    638a:	cf 93       	push	r28
    638c:	0f 92       	push	r0
    638e:	cd b7       	in	r28, 0x3d	; 61
    6390:	de b7       	in	r29, 0x3e	; 62
    6392:	80 91 51 04 	lds	r24, 0x0451
    6396:	cf dd       	rcall	.-1122   	; 0x5f36 <GPIO_PinRead>
    6398:	88 23       	and	r24, r24
    639a:	19 f4       	brne	.+6      	; 0x63a2 <sidesSwitchCheck+0x1a>
    639c:	81 e0       	ldi	r24, 0x01	; 1
    639e:	89 83       	std	Y+1, r24	; 0x01
    63a0:	01 c0       	rjmp	.+2      	; 0x63a4 <sidesSwitchCheck+0x1c>
    63a2:	19 82       	std	Y+1, r1	; 0x01
    63a4:	89 81       	ldd	r24, Y+1	; 0x01
    63a6:	0f 90       	pop	r0
    63a8:	cf 91       	pop	r28
    63aa:	df 91       	pop	r29
    63ac:	08 95       	ret

000063ae <__vector_23>:
    63ae:	1f 92       	push	r1
    63b0:	0f 92       	push	r0
    63b2:	00 90 5f 00 	lds	r0, 0x005F
    63b6:	0f 92       	push	r0
    63b8:	11 24       	eor	r1, r1
    63ba:	00 90 5b 00 	lds	r0, 0x005B
    63be:	0f 92       	push	r0
    63c0:	2f 93       	push	r18
    63c2:	3f 93       	push	r19
    63c4:	8f 93       	push	r24
    63c6:	9f 93       	push	r25
    63c8:	ef 93       	push	r30
    63ca:	ff 93       	push	r31
    63cc:	cf 93       	push	r28
    63ce:	df 93       	push	r29
    63d0:	cd b7       	in	r28, 0x3d	; 61
    63d2:	de b7       	in	r29, 0x3e	; 62
    63d4:	80 91 82 03 	lds	r24, 0x0382
    63d8:	88 23       	and	r24, r24
    63da:	d1 f0       	breq	.+52     	; 0x6410 <__vector_23+0x62>
    63dc:	80 91 82 03 	lds	r24, 0x0382
    63e0:	81 50       	subi	r24, 0x01	; 1
    63e2:	80 93 82 03 	sts	0x0382, r24
    63e6:	86 ec       	ldi	r24, 0xC6	; 198
    63e8:	90 e0       	ldi	r25, 0x00	; 0
    63ea:	20 91 83 03 	lds	r18, 0x0383
    63ee:	22 2f       	mov	r18, r18
    63f0:	30 e0       	ldi	r19, 0x00	; 0
    63f2:	2e 5b       	subi	r18, 0xBE	; 190
    63f4:	3c 4f       	sbci	r19, 0xFC	; 252
    63f6:	f9 01       	movw	r30, r18
    63f8:	20 81       	ld	r18, Z
    63fa:	fc 01       	movw	r30, r24
    63fc:	20 83       	st	Z, r18
    63fe:	80 91 83 03 	lds	r24, 0x0383
    6402:	8f 5f       	subi	r24, 0xFF	; 255
    6404:	80 93 83 03 	sts	0x0383, r24
    6408:	80 34       	cpi	r24, 0x40	; 64
    640a:	11 f4       	brne	.+4      	; 0x6410 <__vector_23+0x62>
    640c:	10 92 83 03 	sts	0x0383, r1
    6410:	df 91       	pop	r29
    6412:	cf 91       	pop	r28
    6414:	ff 91       	pop	r31
    6416:	ef 91       	pop	r30
    6418:	9f 91       	pop	r25
    641a:	8f 91       	pop	r24
    641c:	3f 91       	pop	r19
    641e:	2f 91       	pop	r18
    6420:	0f 90       	pop	r0
    6422:	00 92 5b 00 	sts	0x005B, r0
    6426:	0f 90       	pop	r0
    6428:	00 92 5f 00 	sts	0x005F, r0
    642c:	0f 90       	pop	r0
    642e:	1f 90       	pop	r1
    6430:	18 95       	reti

00006432 <__vector_21>:
    6432:	1f 92       	push	r1
    6434:	0f 92       	push	r0
    6436:	00 90 5f 00 	lds	r0, 0x005F
    643a:	0f 92       	push	r0
    643c:	11 24       	eor	r1, r1
    643e:	00 90 5b 00 	lds	r0, 0x005B
    6442:	0f 92       	push	r0
    6444:	2f 93       	push	r18
    6446:	3f 93       	push	r19
    6448:	8f 93       	push	r24
    644a:	9f 93       	push	r25
    644c:	ef 93       	push	r30
    644e:	ff 93       	push	r31
    6450:	cf 93       	push	r28
    6452:	df 93       	push	r29
    6454:	1f 92       	push	r1
    6456:	cd b7       	in	r28, 0x3d	; 61
    6458:	de b7       	in	r29, 0x3e	; 62
    645a:	80 ec       	ldi	r24, 0xC0	; 192
    645c:	90 e0       	ldi	r25, 0x00	; 0
    645e:	fc 01       	movw	r30, r24
    6460:	80 81       	ld	r24, Z
    6462:	89 83       	std	Y+1, r24	; 0x01
    6464:	89 81       	ldd	r24, Y+1	; 0x01
    6466:	88 2f       	mov	r24, r24
    6468:	90 e0       	ldi	r25, 0x00	; 0
    646a:	8c 71       	andi	r24, 0x1C	; 28
    646c:	99 27       	eor	r25, r25
    646e:	00 97       	sbiw	r24, 0x00	; 0
    6470:	d1 f4       	brne	.+52     	; 0x64a6 <__vector_21+0x74>
    6472:	80 91 c4 03 	lds	r24, 0x03C4
    6476:	88 2f       	mov	r24, r24
    6478:	90 e0       	ldi	r25, 0x00	; 0
    647a:	26 ec       	ldi	r18, 0xC6	; 198
    647c:	30 e0       	ldi	r19, 0x00	; 0
    647e:	f9 01       	movw	r30, r18
    6480:	20 81       	ld	r18, Z
    6482:	8c 57       	subi	r24, 0x7C	; 124
    6484:	9c 4f       	sbci	r25, 0xFC	; 252
    6486:	fc 01       	movw	r30, r24
    6488:	20 83       	st	Z, r18
    648a:	80 91 c4 03 	lds	r24, 0x03C4
    648e:	8f 5f       	subi	r24, 0xFF	; 255
    6490:	80 93 c4 03 	sts	0x03C4, r24
    6494:	80 34       	cpi	r24, 0x40	; 64
    6496:	11 f4       	brne	.+4      	; 0x649c <__vector_21+0x6a>
    6498:	10 92 c4 03 	sts	0x03C4, r1
    649c:	80 91 c5 03 	lds	r24, 0x03C5
    64a0:	8f 5f       	subi	r24, 0xFF	; 255
    64a2:	80 93 c5 03 	sts	0x03C5, r24
    64a6:	0f 90       	pop	r0
    64a8:	df 91       	pop	r29
    64aa:	cf 91       	pop	r28
    64ac:	ff 91       	pop	r31
    64ae:	ef 91       	pop	r30
    64b0:	9f 91       	pop	r25
    64b2:	8f 91       	pop	r24
    64b4:	3f 91       	pop	r19
    64b6:	2f 91       	pop	r18
    64b8:	0f 90       	pop	r0
    64ba:	00 92 5b 00 	sts	0x005B, r0
    64be:	0f 90       	pop	r0
    64c0:	00 92 5f 00 	sts	0x005F, r0
    64c4:	0f 90       	pop	r0
    64c6:	1f 90       	pop	r1
    64c8:	18 95       	reti

000064ca <__vector_34>:
    64ca:	1f 92       	push	r1
    64cc:	0f 92       	push	r0
    64ce:	00 90 5f 00 	lds	r0, 0x005F
    64d2:	0f 92       	push	r0
    64d4:	11 24       	eor	r1, r1
    64d6:	00 90 5b 00 	lds	r0, 0x005B
    64da:	0f 92       	push	r0
    64dc:	2f 93       	push	r18
    64de:	3f 93       	push	r19
    64e0:	8f 93       	push	r24
    64e2:	9f 93       	push	r25
    64e4:	ef 93       	push	r30
    64e6:	ff 93       	push	r31
    64e8:	cf 93       	push	r28
    64ea:	df 93       	push	r29
    64ec:	cd b7       	in	r28, 0x3d	; 61
    64ee:	de b7       	in	r29, 0x3e	; 62
    64f0:	80 91 06 04 	lds	r24, 0x0406
    64f4:	88 23       	and	r24, r24
    64f6:	d1 f0       	breq	.+52     	; 0x652c <__vector_34+0x62>
    64f8:	80 91 06 04 	lds	r24, 0x0406
    64fc:	81 50       	subi	r24, 0x01	; 1
    64fe:	80 93 06 04 	sts	0x0406, r24
    6502:	8e ec       	ldi	r24, 0xCE	; 206
    6504:	90 e0       	ldi	r25, 0x00	; 0
    6506:	20 91 07 04 	lds	r18, 0x0407
    650a:	22 2f       	mov	r18, r18
    650c:	30 e0       	ldi	r19, 0x00	; 0
    650e:	2a 53       	subi	r18, 0x3A	; 58
    6510:	3c 4f       	sbci	r19, 0xFC	; 252
    6512:	f9 01       	movw	r30, r18
    6514:	20 81       	ld	r18, Z
    6516:	fc 01       	movw	r30, r24
    6518:	20 83       	st	Z, r18
    651a:	80 91 07 04 	lds	r24, 0x0407
    651e:	8f 5f       	subi	r24, 0xFF	; 255
    6520:	80 93 07 04 	sts	0x0407, r24
    6524:	80 34       	cpi	r24, 0x40	; 64
    6526:	11 f4       	brne	.+4      	; 0x652c <__vector_34+0x62>
    6528:	10 92 07 04 	sts	0x0407, r1
    652c:	df 91       	pop	r29
    652e:	cf 91       	pop	r28
    6530:	ff 91       	pop	r31
    6532:	ef 91       	pop	r30
    6534:	9f 91       	pop	r25
    6536:	8f 91       	pop	r24
    6538:	3f 91       	pop	r19
    653a:	2f 91       	pop	r18
    653c:	0f 90       	pop	r0
    653e:	00 92 5b 00 	sts	0x005B, r0
    6542:	0f 90       	pop	r0
    6544:	00 92 5f 00 	sts	0x005F, r0
    6548:	0f 90       	pop	r0
    654a:	1f 90       	pop	r1
    654c:	18 95       	reti

0000654e <__vector_32>:
    654e:	1f 92       	push	r1
    6550:	0f 92       	push	r0
    6552:	00 90 5f 00 	lds	r0, 0x005F
    6556:	0f 92       	push	r0
    6558:	11 24       	eor	r1, r1
    655a:	00 90 5b 00 	lds	r0, 0x005B
    655e:	0f 92       	push	r0
    6560:	2f 93       	push	r18
    6562:	3f 93       	push	r19
    6564:	8f 93       	push	r24
    6566:	9f 93       	push	r25
    6568:	ef 93       	push	r30
    656a:	ff 93       	push	r31
    656c:	cf 93       	push	r28
    656e:	df 93       	push	r29
    6570:	1f 92       	push	r1
    6572:	cd b7       	in	r28, 0x3d	; 61
    6574:	de b7       	in	r29, 0x3e	; 62
    6576:	88 ec       	ldi	r24, 0xC8	; 200
    6578:	90 e0       	ldi	r25, 0x00	; 0
    657a:	fc 01       	movw	r30, r24
    657c:	80 81       	ld	r24, Z
    657e:	89 83       	std	Y+1, r24	; 0x01
    6580:	89 81       	ldd	r24, Y+1	; 0x01
    6582:	88 2f       	mov	r24, r24
    6584:	90 e0       	ldi	r25, 0x00	; 0
    6586:	8c 71       	andi	r24, 0x1C	; 28
    6588:	99 27       	eor	r25, r25
    658a:	00 97       	sbiw	r24, 0x00	; 0
    658c:	d1 f4       	brne	.+52     	; 0x65c2 <__vector_32+0x74>
    658e:	80 91 48 04 	lds	r24, 0x0448
    6592:	88 2f       	mov	r24, r24
    6594:	90 e0       	ldi	r25, 0x00	; 0
    6596:	2e ec       	ldi	r18, 0xCE	; 206
    6598:	30 e0       	ldi	r19, 0x00	; 0
    659a:	f9 01       	movw	r30, r18
    659c:	20 81       	ld	r18, Z
    659e:	88 5f       	subi	r24, 0xF8	; 248
    65a0:	9b 4f       	sbci	r25, 0xFB	; 251
    65a2:	fc 01       	movw	r30, r24
    65a4:	20 83       	st	Z, r18
    65a6:	80 91 48 04 	lds	r24, 0x0448
    65aa:	8f 5f       	subi	r24, 0xFF	; 255
    65ac:	80 93 48 04 	sts	0x0448, r24
    65b0:	80 34       	cpi	r24, 0x40	; 64
    65b2:	11 f4       	brne	.+4      	; 0x65b8 <__vector_32+0x6a>
    65b4:	10 92 48 04 	sts	0x0448, r1
    65b8:	80 91 49 04 	lds	r24, 0x0449
    65bc:	8f 5f       	subi	r24, 0xFF	; 255
    65be:	80 93 49 04 	sts	0x0449, r24
    65c2:	0f 90       	pop	r0
    65c4:	df 91       	pop	r29
    65c6:	cf 91       	pop	r28
    65c8:	ff 91       	pop	r31
    65ca:	ef 91       	pop	r30
    65cc:	9f 91       	pop	r25
    65ce:	8f 91       	pop	r24
    65d0:	3f 91       	pop	r19
    65d2:	2f 91       	pop	r18
    65d4:	0f 90       	pop	r0
    65d6:	00 92 5b 00 	sts	0x005B, r0
    65da:	0f 90       	pop	r0
    65dc:	00 92 5f 00 	sts	0x005F, r0
    65e0:	0f 90       	pop	r0
    65e2:	1f 90       	pop	r1
    65e4:	18 95       	reti

000065e6 <correctRightStand>:
    65e6:	df 93       	push	r29
    65e8:	cf 93       	push	r28
    65ea:	00 d0       	rcall	.+0      	; 0x65ec <correctRightStand+0x6>
    65ec:	00 d0       	rcall	.+0      	; 0x65ee <correctRightStand+0x8>
    65ee:	cd b7       	in	r28, 0x3d	; 61
    65f0:	de b7       	in	r29, 0x3e	; 62
    65f2:	69 83       	std	Y+1, r22	; 0x01
    65f4:	7a 83       	std	Y+2, r23	; 0x02
    65f6:	8b 83       	std	Y+3, r24	; 0x03
    65f8:	9c 83       	std	Y+4, r25	; 0x04
    65fa:	10 92 4a 04 	sts	0x044A, r1
    65fe:	80 91 4a 04 	lds	r24, 0x044A
    6602:	88 23       	and	r24, r24
    6604:	39 f4       	brne	.+14     	; 0x6614 <correctRightStand+0x2e>
    6606:	8f ef       	ldi	r24, 0xFF	; 255
    6608:	61 e0       	ldi	r22, 0x01	; 1
    660a:	0e 94 14 0e 	call	0x1c28	; 0x1c28 <liftMove>
    660e:	81 e0       	ldi	r24, 0x01	; 1
    6610:	80 93 4a 04 	sts	0x044A, r24
    6614:	80 e0       	ldi	r24, 0x00	; 0
    6616:	0f 90       	pop	r0
    6618:	0f 90       	pop	r0
    661a:	0f 90       	pop	r0
    661c:	0f 90       	pop	r0
    661e:	cf 91       	pop	r28
    6620:	df 91       	pop	r29
    6622:	08 95       	ret

00006624 <releaseRightStand>:
    6624:	df 93       	push	r29
    6626:	cf 93       	push	r28
    6628:	00 d0       	rcall	.+0      	; 0x662a <releaseRightStand+0x6>
    662a:	00 d0       	rcall	.+0      	; 0x662c <releaseRightStand+0x8>
    662c:	cd b7       	in	r28, 0x3d	; 61
    662e:	de b7       	in	r29, 0x3e	; 62
    6630:	69 83       	std	Y+1, r22	; 0x01
    6632:	7a 83       	std	Y+2, r23	; 0x02
    6634:	8b 83       	std	Y+3, r24	; 0x03
    6636:	9c 83       	std	Y+4, r25	; 0x04
    6638:	10 92 4a 04 	sts	0x044A, r1
    663c:	80 91 4a 04 	lds	r24, 0x044A
    6640:	88 23       	and	r24, r24
    6642:	31 f4       	brne	.+12     	; 0x6650 <releaseRightStand+0x2c>
    6644:	8f ef       	ldi	r24, 0xFF	; 255
    6646:	0e 94 ee 0b 	call	0x17dc	; 0x17dc <rightDiafram>
    664a:	81 e0       	ldi	r24, 0x01	; 1
    664c:	80 93 4a 04 	sts	0x044A, r24
    6650:	80 e0       	ldi	r24, 0x00	; 0
    6652:	0f 90       	pop	r0
    6654:	0f 90       	pop	r0
    6656:	0f 90       	pop	r0
    6658:	0f 90       	pop	r0
    665a:	cf 91       	pop	r28
    665c:	df 91       	pop	r29
    665e:	08 95       	ret

00006660 <releaseCup>:
    6660:	df 93       	push	r29
    6662:	cf 93       	push	r28
    6664:	00 d0       	rcall	.+0      	; 0x6666 <releaseCup+0x6>
    6666:	00 d0       	rcall	.+0      	; 0x6668 <releaseCup+0x8>
    6668:	cd b7       	in	r28, 0x3d	; 61
    666a:	de b7       	in	r29, 0x3e	; 62
    666c:	69 83       	std	Y+1, r22	; 0x01
    666e:	7a 83       	std	Y+2, r23	; 0x02
    6670:	8b 83       	std	Y+3, r24	; 0x03
    6672:	9c 83       	std	Y+4, r25	; 0x04
    6674:	81 e0       	ldi	r24, 0x01	; 1
    6676:	6f ef       	ldi	r22, 0xFF	; 255
    6678:	0e 94 01 08 	call	0x1002	; 0x1002 <colectThePopcorn>
    667c:	80 e0       	ldi	r24, 0x00	; 0
    667e:	0f 90       	pop	r0
    6680:	0f 90       	pop	r0
    6682:	0f 90       	pop	r0
    6684:	0f 90       	pop	r0
    6686:	cf 91       	pop	r28
    6688:	df 91       	pop	r29
    668a:	08 95       	ret

0000668c <popcornColectionYellowSide>:
    668c:	df 93       	push	r29
    668e:	cf 93       	push	r28
    6690:	00 d0       	rcall	.+0      	; 0x6692 <popcornColectionYellowSide+0x6>
    6692:	00 d0       	rcall	.+0      	; 0x6694 <popcornColectionYellowSide+0x8>
    6694:	cd b7       	in	r28, 0x3d	; 61
    6696:	de b7       	in	r29, 0x3e	; 62
    6698:	69 83       	std	Y+1, r22	; 0x01
    669a:	7a 83       	std	Y+2, r23	; 0x02
    669c:	8b 83       	std	Y+3, r24	; 0x03
    669e:	9c 83       	std	Y+4, r25	; 0x04
    66a0:	80 91 59 04 	lds	r24, 0x0459
    66a4:	88 23       	and	r24, r24
    66a6:	39 f4       	brne	.+14     	; 0x66b6 <popcornColectionYellowSide+0x2a>
    66a8:	81 e0       	ldi	r24, 0x01	; 1
    66aa:	61 e0       	ldi	r22, 0x01	; 1
    66ac:	0e 94 01 08 	call	0x1002	; 0x1002 <colectThePopcorn>
    66b0:	81 e0       	ldi	r24, 0x01	; 1
    66b2:	80 93 59 04 	sts	0x0459, r24
    66b6:	80 e0       	ldi	r24, 0x00	; 0
    66b8:	0f 90       	pop	r0
    66ba:	0f 90       	pop	r0
    66bc:	0f 90       	pop	r0
    66be:	0f 90       	pop	r0
    66c0:	cf 91       	pop	r28
    66c2:	df 91       	pop	r29
    66c4:	08 95       	ret

000066c6 <yellowSide>:
    66c6:	ef 92       	push	r14
    66c8:	ff 92       	push	r15
    66ca:	0f 93       	push	r16
    66cc:	1f 93       	push	r17
    66ce:	df 93       	push	r29
    66d0:	cf 93       	push	r28
    66d2:	cd b7       	in	r28, 0x3d	; 61
    66d4:	de b7       	in	r29, 0x3e	; 62
    66d6:	c6 50       	subi	r28, 0x06	; 6
    66d8:	d1 40       	sbci	r29, 0x01	; 1
    66da:	0f b6       	in	r0, 0x3f	; 63
    66dc:	f8 94       	cli
    66de:	de bf       	out	0x3e, r29	; 62
    66e0:	0f be       	out	0x3f, r0	; 63
    66e2:	cd bf       	out	0x3d, r28	; 61
    66e4:	fe 01       	movw	r30, r28
    66e6:	e0 50       	subi	r30, 0x00	; 0
    66e8:	ff 4f       	sbci	r31, 0xFF	; 255
    66ea:	10 82       	st	Z, r1
    66ec:	fe 01       	movw	r30, r28
    66ee:	e1 50       	subi	r30, 0x01	; 1
    66f0:	ff 4f       	sbci	r31, 0xFF	; 255
    66f2:	10 82       	st	Z, r1
    66f4:	fe 01       	movw	r30, r28
    66f6:	e3 50       	subi	r30, 0x03	; 3
    66f8:	ff 4f       	sbci	r31, 0xFF	; 255
    66fa:	81 e0       	ldi	r24, 0x01	; 1
    66fc:	80 83       	st	Z, r24
    66fe:	fe 01       	movw	r30, r28
    6700:	ef 5f       	subi	r30, 0xFF	; 255
    6702:	fe 4f       	sbci	r31, 0xFE	; 254
    6704:	8e e5       	ldi	r24, 0x5E	; 94
    6706:	90 e0       	ldi	r25, 0x00	; 0
    6708:	91 83       	std	Z+1, r25	; 0x01
    670a:	80 83       	st	Z, r24
    670c:	fe 01       	movw	r30, r28
    670e:	ef 5f       	subi	r30, 0xFF	; 255
    6710:	fe 4f       	sbci	r31, 0xFE	; 254
    6712:	8b e2       	ldi	r24, 0x2B	; 43
    6714:	94 e0       	ldi	r25, 0x04	; 4
    6716:	93 83       	std	Z+3, r25	; 0x03
    6718:	82 83       	std	Z+2, r24	; 0x02
    671a:	fe 01       	movw	r30, r28
    671c:	ef 5f       	subi	r30, 0xFF	; 255
    671e:	fe 4f       	sbci	r31, 0xFE	; 254
    6720:	15 82       	std	Z+5, r1	; 0x05
    6722:	14 82       	std	Z+4, r1	; 0x04
    6724:	fe 01       	movw	r30, r28
    6726:	ef 5f       	subi	r30, 0xFF	; 255
    6728:	fe 4f       	sbci	r31, 0xFE	; 254
    672a:	40 81       	ld	r20, Z
    672c:	51 81       	ldd	r21, Z+1	; 0x01
    672e:	62 81       	ldd	r22, Z+2	; 0x02
    6730:	73 81       	ldd	r23, Z+3	; 0x03
    6732:	84 81       	ldd	r24, Z+4	; 0x04
    6734:	95 81       	ldd	r25, Z+5	; 0x05
    6736:	0e 94 d9 29 	call	0x53b2	; 0x53b2 <setPosition>
    673a:	fe 01       	movw	r30, r28
    673c:	e3 50       	subi	r30, 0x03	; 3
    673e:	ff 4f       	sbci	r31, 0xFF	; 255
    6740:	80 81       	ld	r24, Z
    6742:	88 2f       	mov	r24, r24
    6744:	90 e0       	ldi	r25, 0x00	; 0
    6746:	81 30       	cpi	r24, 0x01	; 1
    6748:	91 05       	cpc	r25, r1
    674a:	b9 f7       	brne	.-18     	; 0x673a <yellowSide+0x74>
    674c:	fe 01       	movw	r30, r28
    674e:	e0 50       	subi	r30, 0x00	; 0
    6750:	ff 4f       	sbci	r31, 0xFF	; 255
    6752:	de 01       	movw	r26, r28
    6754:	a1 50       	subi	r26, 0x01	; 1
    6756:	bf 4f       	sbci	r27, 0xFF	; 255
    6758:	8c 91       	ld	r24, X
    675a:	80 83       	st	Z, r24
    675c:	0c 94 95 40 	jmp	0x812a	; 0x812a <yellowSide+0x1a64>
    6760:	fe 01       	movw	r30, r28
    6762:	e0 50       	subi	r30, 0x00	; 0
    6764:	ff 4f       	sbci	r31, 0xFF	; 255
    6766:	80 81       	ld	r24, Z
    6768:	48 2f       	mov	r20, r24
    676a:	50 e0       	ldi	r21, 0x00	; 0
    676c:	fe 01       	movw	r30, r28
    676e:	e0 50       	subi	r30, 0x00	; 0
    6770:	ff 4f       	sbci	r31, 0xFF	; 255
    6772:	80 81       	ld	r24, Z
    6774:	88 2f       	mov	r24, r24
    6776:	90 e0       	ldi	r25, 0x00	; 0
    6778:	88 0f       	add	r24, r24
    677a:	99 1f       	adc	r25, r25
    677c:	9c 01       	movw	r18, r24
    677e:	22 0f       	add	r18, r18
    6780:	33 1f       	adc	r19, r19
    6782:	22 0f       	add	r18, r18
    6784:	33 1f       	adc	r19, r19
    6786:	82 0f       	add	r24, r18
    6788:	93 1f       	adc	r25, r19
    678a:	fc 01       	movw	r30, r24
    678c:	e6 58       	subi	r30, 0x86	; 134
    678e:	fd 4f       	sbci	r31, 0xFD	; 253
    6790:	10 81       	ld	r17, Z
    6792:	fe 01       	movw	r30, r28
    6794:	e0 50       	subi	r30, 0x00	; 0
    6796:	ff 4f       	sbci	r31, 0xFF	; 255
    6798:	80 81       	ld	r24, Z
    679a:	88 2f       	mov	r24, r24
    679c:	90 e0       	ldi	r25, 0x00	; 0
    679e:	88 0f       	add	r24, r24
    67a0:	99 1f       	adc	r25, r25
    67a2:	9c 01       	movw	r18, r24
    67a4:	22 0f       	add	r18, r18
    67a6:	33 1f       	adc	r19, r19
    67a8:	22 0f       	add	r18, r18
    67aa:	33 1f       	adc	r19, r19
    67ac:	82 0f       	add	r24, r18
    67ae:	93 1f       	adc	r25, r19
    67b0:	fc 01       	movw	r30, r24
    67b2:	e5 58       	subi	r30, 0x85	; 133
    67b4:	fd 4f       	sbci	r31, 0xFD	; 253
    67b6:	00 81       	ld	r16, Z
    67b8:	fe 01       	movw	r30, r28
    67ba:	e0 50       	subi	r30, 0x00	; 0
    67bc:	ff 4f       	sbci	r31, 0xFF	; 255
    67be:	80 81       	ld	r24, Z
    67c0:	88 2f       	mov	r24, r24
    67c2:	90 e0       	ldi	r25, 0x00	; 0
    67c4:	88 0f       	add	r24, r24
    67c6:	99 1f       	adc	r25, r25
    67c8:	9c 01       	movw	r18, r24
    67ca:	22 0f       	add	r18, r18
    67cc:	33 1f       	adc	r19, r19
    67ce:	22 0f       	add	r18, r18
    67d0:	33 1f       	adc	r19, r19
    67d2:	82 0f       	add	r24, r18
    67d4:	93 1f       	adc	r25, r19
    67d6:	fc 01       	movw	r30, r24
    67d8:	e4 58       	subi	r30, 0x84	; 132
    67da:	fd 4f       	sbci	r31, 0xFD	; 253
    67dc:	a0 81       	ld	r26, Z
    67de:	b1 81       	ldd	r27, Z+1	; 0x01
    67e0:	ca 01       	movw	r24, r20
    67e2:	88 0f       	add	r24, r24
    67e4:	99 1f       	adc	r25, r25
    67e6:	9c 01       	movw	r18, r24
    67e8:	22 0f       	add	r18, r18
    67ea:	33 1f       	adc	r19, r19
    67ec:	22 0f       	add	r18, r18
    67ee:	33 1f       	adc	r19, r19
    67f0:	82 0f       	add	r24, r18
    67f2:	93 1f       	adc	r25, r19
    67f4:	fc 01       	movw	r30, r24
    67f6:	ec 58       	subi	r30, 0x8C	; 140
    67f8:	fd 4f       	sbci	r31, 0xFD	; 253
    67fa:	40 81       	ld	r20, Z
    67fc:	51 81       	ldd	r21, Z+1	; 0x01
    67fe:	62 81       	ldd	r22, Z+2	; 0x02
    6800:	73 81       	ldd	r23, Z+3	; 0x03
    6802:	84 81       	ldd	r24, Z+4	; 0x04
    6804:	95 81       	ldd	r25, Z+5	; 0x05
    6806:	21 2f       	mov	r18, r17
    6808:	7d 01       	movw	r14, r26
    680a:	0e 94 36 27 	call	0x4e6c	; 0x4e6c <gotoXY>
    680e:	fe 01       	movw	r30, r28
    6810:	e2 50       	subi	r30, 0x02	; 2
    6812:	ff 4f       	sbci	r31, 0xFF	; 255
    6814:	80 83       	st	Z, r24
    6816:	fe 01       	movw	r30, r28
    6818:	e0 50       	subi	r30, 0x00	; 0
    681a:	ff 4f       	sbci	r31, 0xFF	; 255
    681c:	80 81       	ld	r24, Z
    681e:	88 23       	and	r24, r24
    6820:	11 f4       	brne	.+4      	; 0x6826 <yellowSide+0x160>
    6822:	0c 94 8c 40 	jmp	0x8118	; 0x8118 <yellowSide+0x1a52>
    6826:	fe 01       	movw	r30, r28
    6828:	e0 50       	subi	r30, 0x00	; 0
    682a:	ff 4f       	sbci	r31, 0xFF	; 255
    682c:	80 81       	ld	r24, Z
    682e:	81 30       	cpi	r24, 0x01	; 1
    6830:	09 f0       	breq	.+2      	; 0x6834 <yellowSide+0x16e>
    6832:	bd c0       	rjmp	.+378    	; 0x69ae <yellowSide+0x2e8>
    6834:	8f ef       	ldi	r24, 0xFF	; 255
    6836:	6f ef       	ldi	r22, 0xFF	; 255
    6838:	0e 94 14 0e 	call	0x1c28	; 0x1c28 <liftMove>
    683c:	fe 01       	movw	r30, r28
    683e:	e7 50       	subi	r30, 0x07	; 7
    6840:	ff 4f       	sbci	r31, 0xFF	; 255
    6842:	80 e0       	ldi	r24, 0x00	; 0
    6844:	90 e0       	ldi	r25, 0x00	; 0
    6846:	aa ef       	ldi	r26, 0xFA	; 250
    6848:	b3 e4       	ldi	r27, 0x43	; 67
    684a:	80 83       	st	Z, r24
    684c:	91 83       	std	Z+1, r25	; 0x01
    684e:	a2 83       	std	Z+2, r26	; 0x02
    6850:	b3 83       	std	Z+3, r27	; 0x03
    6852:	8e 01       	movw	r16, r28
    6854:	0b 50       	subi	r16, 0x0B	; 11
    6856:	1f 4f       	sbci	r17, 0xFF	; 255
    6858:	fe 01       	movw	r30, r28
    685a:	e7 50       	subi	r30, 0x07	; 7
    685c:	ff 4f       	sbci	r31, 0xFF	; 255
    685e:	60 81       	ld	r22, Z
    6860:	71 81       	ldd	r23, Z+1	; 0x01
    6862:	82 81       	ldd	r24, Z+2	; 0x02
    6864:	93 81       	ldd	r25, Z+3	; 0x03
    6866:	20 e0       	ldi	r18, 0x00	; 0
    6868:	30 e4       	ldi	r19, 0x40	; 64
    686a:	4c e1       	ldi	r20, 0x1C	; 28
    686c:	55 e4       	ldi	r21, 0x45	; 69
    686e:	0e 94 90 42 	call	0x8520	; 0x8520 <__mulsf3>
    6872:	dc 01       	movw	r26, r24
    6874:	cb 01       	movw	r24, r22
    6876:	f8 01       	movw	r30, r16
    6878:	80 83       	st	Z, r24
    687a:	91 83       	std	Z+1, r25	; 0x01
    687c:	a2 83       	std	Z+2, r26	; 0x02
    687e:	b3 83       	std	Z+3, r27	; 0x03
    6880:	fe 01       	movw	r30, r28
    6882:	eb 50       	subi	r30, 0x0B	; 11
    6884:	ff 4f       	sbci	r31, 0xFF	; 255
    6886:	60 81       	ld	r22, Z
    6888:	71 81       	ldd	r23, Z+1	; 0x01
    688a:	82 81       	ldd	r24, Z+2	; 0x02
    688c:	93 81       	ldd	r25, Z+3	; 0x03
    688e:	20 e0       	ldi	r18, 0x00	; 0
    6890:	30 e0       	ldi	r19, 0x00	; 0
    6892:	40 e8       	ldi	r20, 0x80	; 128
    6894:	5f e3       	ldi	r21, 0x3F	; 63
    6896:	0e 94 04 41 	call	0x8208	; 0x8208 <__cmpsf2>
    689a:	88 23       	and	r24, r24
    689c:	44 f4       	brge	.+16     	; 0x68ae <yellowSide+0x1e8>
    689e:	fe 01       	movw	r30, r28
    68a0:	ed 50       	subi	r30, 0x0D	; 13
    68a2:	ff 4f       	sbci	r31, 0xFF	; 255
    68a4:	81 e0       	ldi	r24, 0x01	; 1
    68a6:	90 e0       	ldi	r25, 0x00	; 0
    68a8:	91 83       	std	Z+1, r25	; 0x01
    68aa:	80 83       	st	Z, r24
    68ac:	64 c0       	rjmp	.+200    	; 0x6976 <yellowSide+0x2b0>
    68ae:	fe 01       	movw	r30, r28
    68b0:	eb 50       	subi	r30, 0x0B	; 11
    68b2:	ff 4f       	sbci	r31, 0xFF	; 255
    68b4:	60 81       	ld	r22, Z
    68b6:	71 81       	ldd	r23, Z+1	; 0x01
    68b8:	82 81       	ldd	r24, Z+2	; 0x02
    68ba:	93 81       	ldd	r25, Z+3	; 0x03
    68bc:	20 e0       	ldi	r18, 0x00	; 0
    68be:	3f ef       	ldi	r19, 0xFF	; 255
    68c0:	4f e7       	ldi	r20, 0x7F	; 127
    68c2:	57 e4       	ldi	r21, 0x47	; 71
    68c4:	0e 94 8c 42 	call	0x8518	; 0x8518 <__gesf2>
    68c8:	18 16       	cp	r1, r24
    68ca:	0c f0       	brlt	.+2      	; 0x68ce <yellowSide+0x208>
    68cc:	43 c0       	rjmp	.+134    	; 0x6954 <yellowSide+0x28e>
    68ce:	fe 01       	movw	r30, r28
    68d0:	e7 50       	subi	r30, 0x07	; 7
    68d2:	ff 4f       	sbci	r31, 0xFF	; 255
    68d4:	60 81       	ld	r22, Z
    68d6:	71 81       	ldd	r23, Z+1	; 0x01
    68d8:	82 81       	ldd	r24, Z+2	; 0x02
    68da:	93 81       	ldd	r25, Z+3	; 0x03
    68dc:	20 e0       	ldi	r18, 0x00	; 0
    68de:	30 e0       	ldi	r19, 0x00	; 0
    68e0:	40 e2       	ldi	r20, 0x20	; 32
    68e2:	51 e4       	ldi	r21, 0x41	; 65
    68e4:	0e 94 90 42 	call	0x8520	; 0x8520 <__mulsf3>
    68e8:	dc 01       	movw	r26, r24
    68ea:	cb 01       	movw	r24, r22
    68ec:	8e 01       	movw	r16, r28
    68ee:	0d 50       	subi	r16, 0x0D	; 13
    68f0:	1f 4f       	sbci	r17, 0xFF	; 255
    68f2:	bc 01       	movw	r22, r24
    68f4:	cd 01       	movw	r24, r26
    68f6:	0e 94 70 41 	call	0x82e0	; 0x82e0 <__fixunssfsi>
    68fa:	dc 01       	movw	r26, r24
    68fc:	cb 01       	movw	r24, r22
    68fe:	f8 01       	movw	r30, r16
    6900:	91 83       	std	Z+1, r25	; 0x01
    6902:	80 83       	st	Z, r24
    6904:	1f c0       	rjmp	.+62     	; 0x6944 <yellowSide+0x27e>
    6906:	fe 01       	movw	r30, r28
    6908:	ef 50       	subi	r30, 0x0F	; 15
    690a:	ff 4f       	sbci	r31, 0xFF	; 255
    690c:	8a ef       	ldi	r24, 0xFA	; 250
    690e:	90 e0       	ldi	r25, 0x00	; 0
    6910:	91 83       	std	Z+1, r25	; 0x01
    6912:	80 83       	st	Z, r24
    6914:	fe 01       	movw	r30, r28
    6916:	ef 50       	subi	r30, 0x0F	; 15
    6918:	ff 4f       	sbci	r31, 0xFF	; 255
    691a:	80 81       	ld	r24, Z
    691c:	91 81       	ldd	r25, Z+1	; 0x01
    691e:	01 97       	sbiw	r24, 0x01	; 1
    6920:	f1 f7       	brne	.-4      	; 0x691e <yellowSide+0x258>
    6922:	fe 01       	movw	r30, r28
    6924:	ef 50       	subi	r30, 0x0F	; 15
    6926:	ff 4f       	sbci	r31, 0xFF	; 255
    6928:	91 83       	std	Z+1, r25	; 0x01
    692a:	80 83       	st	Z, r24
    692c:	de 01       	movw	r26, r28
    692e:	ad 50       	subi	r26, 0x0D	; 13
    6930:	bf 4f       	sbci	r27, 0xFF	; 255
    6932:	fe 01       	movw	r30, r28
    6934:	ed 50       	subi	r30, 0x0D	; 13
    6936:	ff 4f       	sbci	r31, 0xFF	; 255
    6938:	80 81       	ld	r24, Z
    693a:	91 81       	ldd	r25, Z+1	; 0x01
    693c:	01 97       	sbiw	r24, 0x01	; 1
    693e:	11 96       	adiw	r26, 0x01	; 1
    6940:	9c 93       	st	X, r25
    6942:	8e 93       	st	-X, r24
    6944:	fe 01       	movw	r30, r28
    6946:	ed 50       	subi	r30, 0x0D	; 13
    6948:	ff 4f       	sbci	r31, 0xFF	; 255
    694a:	80 81       	ld	r24, Z
    694c:	91 81       	ldd	r25, Z+1	; 0x01
    694e:	00 97       	sbiw	r24, 0x00	; 0
    6950:	d1 f6       	brne	.-76     	; 0x6906 <yellowSide+0x240>
    6952:	27 c0       	rjmp	.+78     	; 0x69a2 <yellowSide+0x2dc>
    6954:	8e 01       	movw	r16, r28
    6956:	0d 50       	subi	r16, 0x0D	; 13
    6958:	1f 4f       	sbci	r17, 0xFF	; 255
    695a:	fe 01       	movw	r30, r28
    695c:	eb 50       	subi	r30, 0x0B	; 11
    695e:	ff 4f       	sbci	r31, 0xFF	; 255
    6960:	60 81       	ld	r22, Z
    6962:	71 81       	ldd	r23, Z+1	; 0x01
    6964:	82 81       	ldd	r24, Z+2	; 0x02
    6966:	93 81       	ldd	r25, Z+3	; 0x03
    6968:	0e 94 70 41 	call	0x82e0	; 0x82e0 <__fixunssfsi>
    696c:	dc 01       	movw	r26, r24
    696e:	cb 01       	movw	r24, r22
    6970:	f8 01       	movw	r30, r16
    6972:	91 83       	std	Z+1, r25	; 0x01
    6974:	80 83       	st	Z, r24
    6976:	de 01       	movw	r26, r28
    6978:	a1 51       	subi	r26, 0x11	; 17
    697a:	bf 4f       	sbci	r27, 0xFF	; 255
    697c:	fe 01       	movw	r30, r28
    697e:	ed 50       	subi	r30, 0x0D	; 13
    6980:	ff 4f       	sbci	r31, 0xFF	; 255
    6982:	80 81       	ld	r24, Z
    6984:	91 81       	ldd	r25, Z+1	; 0x01
    6986:	8d 93       	st	X+, r24
    6988:	9c 93       	st	X, r25
    698a:	fe 01       	movw	r30, r28
    698c:	e1 51       	subi	r30, 0x11	; 17
    698e:	ff 4f       	sbci	r31, 0xFF	; 255
    6990:	80 81       	ld	r24, Z
    6992:	91 81       	ldd	r25, Z+1	; 0x01
    6994:	01 97       	sbiw	r24, 0x01	; 1
    6996:	f1 f7       	brne	.-4      	; 0x6994 <yellowSide+0x2ce>
    6998:	fe 01       	movw	r30, r28
    699a:	e1 51       	subi	r30, 0x11	; 17
    699c:	ff 4f       	sbci	r31, 0xFF	; 255
    699e:	91 83       	std	Z+1, r25	; 0x01
    69a0:	80 83       	st	Z, r24
    69a2:	81 e0       	ldi	r24, 0x01	; 1
    69a4:	6f ef       	ldi	r22, 0xFF	; 255
    69a6:	0e 94 14 0e 	call	0x1c28	; 0x1c28 <liftMove>
    69aa:	0c 94 8c 40 	jmp	0x8118	; 0x8118 <yellowSide+0x1a52>
    69ae:	fe 01       	movw	r30, r28
    69b0:	e0 50       	subi	r30, 0x00	; 0
    69b2:	ff 4f       	sbci	r31, 0xFF	; 255
    69b4:	80 81       	ld	r24, Z
    69b6:	82 30       	cpi	r24, 0x02	; 2
    69b8:	09 f0       	breq	.+2      	; 0x69bc <yellowSide+0x2f6>
    69ba:	73 c1       	rjmp	.+742    	; 0x6ca2 <yellowSide+0x5dc>
    69bc:	83 e7       	ldi	r24, 0x73	; 115
    69be:	0e 94 b1 23 	call	0x4762	; 0x4762 <stop>
    69c2:	fe 01       	movw	r30, r28
    69c4:	e5 51       	subi	r30, 0x15	; 21
    69c6:	ff 4f       	sbci	r31, 0xFF	; 255
    69c8:	80 e0       	ldi	r24, 0x00	; 0
    69ca:	90 e0       	ldi	r25, 0x00	; 0
    69cc:	a8 e4       	ldi	r26, 0x48	; 72
    69ce:	b2 e4       	ldi	r27, 0x42	; 66
    69d0:	80 83       	st	Z, r24
    69d2:	91 83       	std	Z+1, r25	; 0x01
    69d4:	a2 83       	std	Z+2, r26	; 0x02
    69d6:	b3 83       	std	Z+3, r27	; 0x03
    69d8:	8e 01       	movw	r16, r28
    69da:	09 51       	subi	r16, 0x19	; 25
    69dc:	1f 4f       	sbci	r17, 0xFF	; 255
    69de:	fe 01       	movw	r30, r28
    69e0:	e5 51       	subi	r30, 0x15	; 21
    69e2:	ff 4f       	sbci	r31, 0xFF	; 255
    69e4:	60 81       	ld	r22, Z
    69e6:	71 81       	ldd	r23, Z+1	; 0x01
    69e8:	82 81       	ldd	r24, Z+2	; 0x02
    69ea:	93 81       	ldd	r25, Z+3	; 0x03
    69ec:	20 e0       	ldi	r18, 0x00	; 0
    69ee:	30 e4       	ldi	r19, 0x40	; 64
    69f0:	4c e1       	ldi	r20, 0x1C	; 28
    69f2:	55 e4       	ldi	r21, 0x45	; 69
    69f4:	0e 94 90 42 	call	0x8520	; 0x8520 <__mulsf3>
    69f8:	dc 01       	movw	r26, r24
    69fa:	cb 01       	movw	r24, r22
    69fc:	f8 01       	movw	r30, r16
    69fe:	80 83       	st	Z, r24
    6a00:	91 83       	std	Z+1, r25	; 0x01
    6a02:	a2 83       	std	Z+2, r26	; 0x02
    6a04:	b3 83       	std	Z+3, r27	; 0x03
    6a06:	fe 01       	movw	r30, r28
    6a08:	e9 51       	subi	r30, 0x19	; 25
    6a0a:	ff 4f       	sbci	r31, 0xFF	; 255
    6a0c:	60 81       	ld	r22, Z
    6a0e:	71 81       	ldd	r23, Z+1	; 0x01
    6a10:	82 81       	ldd	r24, Z+2	; 0x02
    6a12:	93 81       	ldd	r25, Z+3	; 0x03
    6a14:	20 e0       	ldi	r18, 0x00	; 0
    6a16:	30 e0       	ldi	r19, 0x00	; 0
    6a18:	40 e8       	ldi	r20, 0x80	; 128
    6a1a:	5f e3       	ldi	r21, 0x3F	; 63
    6a1c:	0e 94 04 41 	call	0x8208	; 0x8208 <__cmpsf2>
    6a20:	88 23       	and	r24, r24
    6a22:	44 f4       	brge	.+16     	; 0x6a34 <yellowSide+0x36e>
    6a24:	fe 01       	movw	r30, r28
    6a26:	eb 51       	subi	r30, 0x1B	; 27
    6a28:	ff 4f       	sbci	r31, 0xFF	; 255
    6a2a:	81 e0       	ldi	r24, 0x01	; 1
    6a2c:	90 e0       	ldi	r25, 0x00	; 0
    6a2e:	91 83       	std	Z+1, r25	; 0x01
    6a30:	80 83       	st	Z, r24
    6a32:	64 c0       	rjmp	.+200    	; 0x6afc <yellowSide+0x436>
    6a34:	fe 01       	movw	r30, r28
    6a36:	e9 51       	subi	r30, 0x19	; 25
    6a38:	ff 4f       	sbci	r31, 0xFF	; 255
    6a3a:	60 81       	ld	r22, Z
    6a3c:	71 81       	ldd	r23, Z+1	; 0x01
    6a3e:	82 81       	ldd	r24, Z+2	; 0x02
    6a40:	93 81       	ldd	r25, Z+3	; 0x03
    6a42:	20 e0       	ldi	r18, 0x00	; 0
    6a44:	3f ef       	ldi	r19, 0xFF	; 255
    6a46:	4f e7       	ldi	r20, 0x7F	; 127
    6a48:	57 e4       	ldi	r21, 0x47	; 71
    6a4a:	0e 94 8c 42 	call	0x8518	; 0x8518 <__gesf2>
    6a4e:	18 16       	cp	r1, r24
    6a50:	0c f0       	brlt	.+2      	; 0x6a54 <yellowSide+0x38e>
    6a52:	43 c0       	rjmp	.+134    	; 0x6ada <yellowSide+0x414>
    6a54:	fe 01       	movw	r30, r28
    6a56:	e5 51       	subi	r30, 0x15	; 21
    6a58:	ff 4f       	sbci	r31, 0xFF	; 255
    6a5a:	60 81       	ld	r22, Z
    6a5c:	71 81       	ldd	r23, Z+1	; 0x01
    6a5e:	82 81       	ldd	r24, Z+2	; 0x02
    6a60:	93 81       	ldd	r25, Z+3	; 0x03
    6a62:	20 e0       	ldi	r18, 0x00	; 0
    6a64:	30 e0       	ldi	r19, 0x00	; 0
    6a66:	40 e2       	ldi	r20, 0x20	; 32
    6a68:	51 e4       	ldi	r21, 0x41	; 65
    6a6a:	0e 94 90 42 	call	0x8520	; 0x8520 <__mulsf3>
    6a6e:	dc 01       	movw	r26, r24
    6a70:	cb 01       	movw	r24, r22
    6a72:	8e 01       	movw	r16, r28
    6a74:	0b 51       	subi	r16, 0x1B	; 27
    6a76:	1f 4f       	sbci	r17, 0xFF	; 255
    6a78:	bc 01       	movw	r22, r24
    6a7a:	cd 01       	movw	r24, r26
    6a7c:	0e 94 70 41 	call	0x82e0	; 0x82e0 <__fixunssfsi>
    6a80:	dc 01       	movw	r26, r24
    6a82:	cb 01       	movw	r24, r22
    6a84:	f8 01       	movw	r30, r16
    6a86:	91 83       	std	Z+1, r25	; 0x01
    6a88:	80 83       	st	Z, r24
    6a8a:	1f c0       	rjmp	.+62     	; 0x6aca <yellowSide+0x404>
    6a8c:	fe 01       	movw	r30, r28
    6a8e:	ed 51       	subi	r30, 0x1D	; 29
    6a90:	ff 4f       	sbci	r31, 0xFF	; 255
    6a92:	8a ef       	ldi	r24, 0xFA	; 250
    6a94:	90 e0       	ldi	r25, 0x00	; 0
    6a96:	91 83       	std	Z+1, r25	; 0x01
    6a98:	80 83       	st	Z, r24
    6a9a:	fe 01       	movw	r30, r28
    6a9c:	ed 51       	subi	r30, 0x1D	; 29
    6a9e:	ff 4f       	sbci	r31, 0xFF	; 255
    6aa0:	80 81       	ld	r24, Z
    6aa2:	91 81       	ldd	r25, Z+1	; 0x01
    6aa4:	01 97       	sbiw	r24, 0x01	; 1
    6aa6:	f1 f7       	brne	.-4      	; 0x6aa4 <yellowSide+0x3de>
    6aa8:	fe 01       	movw	r30, r28
    6aaa:	ed 51       	subi	r30, 0x1D	; 29
    6aac:	ff 4f       	sbci	r31, 0xFF	; 255
    6aae:	91 83       	std	Z+1, r25	; 0x01
    6ab0:	80 83       	st	Z, r24
    6ab2:	de 01       	movw	r26, r28
    6ab4:	ab 51       	subi	r26, 0x1B	; 27
    6ab6:	bf 4f       	sbci	r27, 0xFF	; 255
    6ab8:	fe 01       	movw	r30, r28
    6aba:	eb 51       	subi	r30, 0x1B	; 27
    6abc:	ff 4f       	sbci	r31, 0xFF	; 255
    6abe:	80 81       	ld	r24, Z
    6ac0:	91 81       	ldd	r25, Z+1	; 0x01
    6ac2:	01 97       	sbiw	r24, 0x01	; 1
    6ac4:	11 96       	adiw	r26, 0x01	; 1
    6ac6:	9c 93       	st	X, r25
    6ac8:	8e 93       	st	-X, r24
    6aca:	fe 01       	movw	r30, r28
    6acc:	eb 51       	subi	r30, 0x1B	; 27
    6ace:	ff 4f       	sbci	r31, 0xFF	; 255
    6ad0:	80 81       	ld	r24, Z
    6ad2:	91 81       	ldd	r25, Z+1	; 0x01
    6ad4:	00 97       	sbiw	r24, 0x00	; 0
    6ad6:	d1 f6       	brne	.-76     	; 0x6a8c <yellowSide+0x3c6>
    6ad8:	27 c0       	rjmp	.+78     	; 0x6b28 <yellowSide+0x462>
    6ada:	8e 01       	movw	r16, r28
    6adc:	0b 51       	subi	r16, 0x1B	; 27
    6ade:	1f 4f       	sbci	r17, 0xFF	; 255
    6ae0:	fe 01       	movw	r30, r28
    6ae2:	e9 51       	subi	r30, 0x19	; 25
    6ae4:	ff 4f       	sbci	r31, 0xFF	; 255
    6ae6:	60 81       	ld	r22, Z
    6ae8:	71 81       	ldd	r23, Z+1	; 0x01
    6aea:	82 81       	ldd	r24, Z+2	; 0x02
    6aec:	93 81       	ldd	r25, Z+3	; 0x03
    6aee:	0e 94 70 41 	call	0x82e0	; 0x82e0 <__fixunssfsi>
    6af2:	dc 01       	movw	r26, r24
    6af4:	cb 01       	movw	r24, r22
    6af6:	f8 01       	movw	r30, r16
    6af8:	91 83       	std	Z+1, r25	; 0x01
    6afa:	80 83       	st	Z, r24
    6afc:	de 01       	movw	r26, r28
    6afe:	af 51       	subi	r26, 0x1F	; 31
    6b00:	bf 4f       	sbci	r27, 0xFF	; 255
    6b02:	fe 01       	movw	r30, r28
    6b04:	eb 51       	subi	r30, 0x1B	; 27
    6b06:	ff 4f       	sbci	r31, 0xFF	; 255
    6b08:	80 81       	ld	r24, Z
    6b0a:	91 81       	ldd	r25, Z+1	; 0x01
    6b0c:	8d 93       	st	X+, r24
    6b0e:	9c 93       	st	X, r25
    6b10:	fe 01       	movw	r30, r28
    6b12:	ef 51       	subi	r30, 0x1F	; 31
    6b14:	ff 4f       	sbci	r31, 0xFF	; 255
    6b16:	80 81       	ld	r24, Z
    6b18:	91 81       	ldd	r25, Z+1	; 0x01
    6b1a:	01 97       	sbiw	r24, 0x01	; 1
    6b1c:	f1 f7       	brne	.-4      	; 0x6b1a <yellowSide+0x454>
    6b1e:	fe 01       	movw	r30, r28
    6b20:	ef 51       	subi	r30, 0x1F	; 31
    6b22:	ff 4f       	sbci	r31, 0xFF	; 255
    6b24:	91 83       	std	Z+1, r25	; 0x01
    6b26:	80 83       	st	Z, r24
    6b28:	8f ef       	ldi	r24, 0xFF	; 255
    6b2a:	6f ef       	ldi	r22, 0xFF	; 255
    6b2c:	0e 94 14 0e 	call	0x1c28	; 0x1c28 <liftMove>
    6b30:	fe 01       	movw	r30, r28
    6b32:	e3 52       	subi	r30, 0x23	; 35
    6b34:	ff 4f       	sbci	r31, 0xFF	; 255
    6b36:	80 e0       	ldi	r24, 0x00	; 0
    6b38:	90 e0       	ldi	r25, 0x00	; 0
    6b3a:	aa ef       	ldi	r26, 0xFA	; 250
    6b3c:	b3 e4       	ldi	r27, 0x43	; 67
    6b3e:	80 83       	st	Z, r24
    6b40:	91 83       	std	Z+1, r25	; 0x01
    6b42:	a2 83       	std	Z+2, r26	; 0x02
    6b44:	b3 83       	std	Z+3, r27	; 0x03
    6b46:	8e 01       	movw	r16, r28
    6b48:	07 52       	subi	r16, 0x27	; 39
    6b4a:	1f 4f       	sbci	r17, 0xFF	; 255
    6b4c:	fe 01       	movw	r30, r28
    6b4e:	e3 52       	subi	r30, 0x23	; 35
    6b50:	ff 4f       	sbci	r31, 0xFF	; 255
    6b52:	60 81       	ld	r22, Z
    6b54:	71 81       	ldd	r23, Z+1	; 0x01
    6b56:	82 81       	ldd	r24, Z+2	; 0x02
    6b58:	93 81       	ldd	r25, Z+3	; 0x03
    6b5a:	20 e0       	ldi	r18, 0x00	; 0
    6b5c:	30 e4       	ldi	r19, 0x40	; 64
    6b5e:	4c e1       	ldi	r20, 0x1C	; 28
    6b60:	55 e4       	ldi	r21, 0x45	; 69
    6b62:	0e 94 90 42 	call	0x8520	; 0x8520 <__mulsf3>
    6b66:	dc 01       	movw	r26, r24
    6b68:	cb 01       	movw	r24, r22
    6b6a:	f8 01       	movw	r30, r16
    6b6c:	80 83       	st	Z, r24
    6b6e:	91 83       	std	Z+1, r25	; 0x01
    6b70:	a2 83       	std	Z+2, r26	; 0x02
    6b72:	b3 83       	std	Z+3, r27	; 0x03
    6b74:	fe 01       	movw	r30, r28
    6b76:	e7 52       	subi	r30, 0x27	; 39
    6b78:	ff 4f       	sbci	r31, 0xFF	; 255
    6b7a:	60 81       	ld	r22, Z
    6b7c:	71 81       	ldd	r23, Z+1	; 0x01
    6b7e:	82 81       	ldd	r24, Z+2	; 0x02
    6b80:	93 81       	ldd	r25, Z+3	; 0x03
    6b82:	20 e0       	ldi	r18, 0x00	; 0
    6b84:	30 e0       	ldi	r19, 0x00	; 0
    6b86:	40 e8       	ldi	r20, 0x80	; 128
    6b88:	5f e3       	ldi	r21, 0x3F	; 63
    6b8a:	0e 94 04 41 	call	0x8208	; 0x8208 <__cmpsf2>
    6b8e:	88 23       	and	r24, r24
    6b90:	44 f4       	brge	.+16     	; 0x6ba2 <yellowSide+0x4dc>
    6b92:	fe 01       	movw	r30, r28
    6b94:	e9 52       	subi	r30, 0x29	; 41
    6b96:	ff 4f       	sbci	r31, 0xFF	; 255
    6b98:	81 e0       	ldi	r24, 0x01	; 1
    6b9a:	90 e0       	ldi	r25, 0x00	; 0
    6b9c:	91 83       	std	Z+1, r25	; 0x01
    6b9e:	80 83       	st	Z, r24
    6ba0:	64 c0       	rjmp	.+200    	; 0x6c6a <yellowSide+0x5a4>
    6ba2:	fe 01       	movw	r30, r28
    6ba4:	e7 52       	subi	r30, 0x27	; 39
    6ba6:	ff 4f       	sbci	r31, 0xFF	; 255
    6ba8:	60 81       	ld	r22, Z
    6baa:	71 81       	ldd	r23, Z+1	; 0x01
    6bac:	82 81       	ldd	r24, Z+2	; 0x02
    6bae:	93 81       	ldd	r25, Z+3	; 0x03
    6bb0:	20 e0       	ldi	r18, 0x00	; 0
    6bb2:	3f ef       	ldi	r19, 0xFF	; 255
    6bb4:	4f e7       	ldi	r20, 0x7F	; 127
    6bb6:	57 e4       	ldi	r21, 0x47	; 71
    6bb8:	0e 94 8c 42 	call	0x8518	; 0x8518 <__gesf2>
    6bbc:	18 16       	cp	r1, r24
    6bbe:	0c f0       	brlt	.+2      	; 0x6bc2 <yellowSide+0x4fc>
    6bc0:	43 c0       	rjmp	.+134    	; 0x6c48 <yellowSide+0x582>
    6bc2:	fe 01       	movw	r30, r28
    6bc4:	e3 52       	subi	r30, 0x23	; 35
    6bc6:	ff 4f       	sbci	r31, 0xFF	; 255
    6bc8:	60 81       	ld	r22, Z
    6bca:	71 81       	ldd	r23, Z+1	; 0x01
    6bcc:	82 81       	ldd	r24, Z+2	; 0x02
    6bce:	93 81       	ldd	r25, Z+3	; 0x03
    6bd0:	20 e0       	ldi	r18, 0x00	; 0
    6bd2:	30 e0       	ldi	r19, 0x00	; 0
    6bd4:	40 e2       	ldi	r20, 0x20	; 32
    6bd6:	51 e4       	ldi	r21, 0x41	; 65
    6bd8:	0e 94 90 42 	call	0x8520	; 0x8520 <__mulsf3>
    6bdc:	dc 01       	movw	r26, r24
    6bde:	cb 01       	movw	r24, r22
    6be0:	8e 01       	movw	r16, r28
    6be2:	09 52       	subi	r16, 0x29	; 41
    6be4:	1f 4f       	sbci	r17, 0xFF	; 255
    6be6:	bc 01       	movw	r22, r24
    6be8:	cd 01       	movw	r24, r26
    6bea:	0e 94 70 41 	call	0x82e0	; 0x82e0 <__fixunssfsi>
    6bee:	dc 01       	movw	r26, r24
    6bf0:	cb 01       	movw	r24, r22
    6bf2:	f8 01       	movw	r30, r16
    6bf4:	91 83       	std	Z+1, r25	; 0x01
    6bf6:	80 83       	st	Z, r24
    6bf8:	1f c0       	rjmp	.+62     	; 0x6c38 <yellowSide+0x572>
    6bfa:	fe 01       	movw	r30, r28
    6bfc:	eb 52       	subi	r30, 0x2B	; 43
    6bfe:	ff 4f       	sbci	r31, 0xFF	; 255
    6c00:	8a ef       	ldi	r24, 0xFA	; 250
    6c02:	90 e0       	ldi	r25, 0x00	; 0
    6c04:	91 83       	std	Z+1, r25	; 0x01
    6c06:	80 83       	st	Z, r24
    6c08:	fe 01       	movw	r30, r28
    6c0a:	eb 52       	subi	r30, 0x2B	; 43
    6c0c:	ff 4f       	sbci	r31, 0xFF	; 255
    6c0e:	80 81       	ld	r24, Z
    6c10:	91 81       	ldd	r25, Z+1	; 0x01
    6c12:	01 97       	sbiw	r24, 0x01	; 1
    6c14:	f1 f7       	brne	.-4      	; 0x6c12 <yellowSide+0x54c>
    6c16:	fe 01       	movw	r30, r28
    6c18:	eb 52       	subi	r30, 0x2B	; 43
    6c1a:	ff 4f       	sbci	r31, 0xFF	; 255
    6c1c:	91 83       	std	Z+1, r25	; 0x01
    6c1e:	80 83       	st	Z, r24
    6c20:	de 01       	movw	r26, r28
    6c22:	a9 52       	subi	r26, 0x29	; 41
    6c24:	bf 4f       	sbci	r27, 0xFF	; 255
    6c26:	fe 01       	movw	r30, r28
    6c28:	e9 52       	subi	r30, 0x29	; 41
    6c2a:	ff 4f       	sbci	r31, 0xFF	; 255
    6c2c:	80 81       	ld	r24, Z
    6c2e:	91 81       	ldd	r25, Z+1	; 0x01
    6c30:	01 97       	sbiw	r24, 0x01	; 1
    6c32:	11 96       	adiw	r26, 0x01	; 1
    6c34:	9c 93       	st	X, r25
    6c36:	8e 93       	st	-X, r24
    6c38:	fe 01       	movw	r30, r28
    6c3a:	e9 52       	subi	r30, 0x29	; 41
    6c3c:	ff 4f       	sbci	r31, 0xFF	; 255
    6c3e:	80 81       	ld	r24, Z
    6c40:	91 81       	ldd	r25, Z+1	; 0x01
    6c42:	00 97       	sbiw	r24, 0x00	; 0
    6c44:	d1 f6       	brne	.-76     	; 0x6bfa <yellowSide+0x534>
    6c46:	27 c0       	rjmp	.+78     	; 0x6c96 <yellowSide+0x5d0>
    6c48:	8e 01       	movw	r16, r28
    6c4a:	09 52       	subi	r16, 0x29	; 41
    6c4c:	1f 4f       	sbci	r17, 0xFF	; 255
    6c4e:	fe 01       	movw	r30, r28
    6c50:	e7 52       	subi	r30, 0x27	; 39
    6c52:	ff 4f       	sbci	r31, 0xFF	; 255
    6c54:	60 81       	ld	r22, Z
    6c56:	71 81       	ldd	r23, Z+1	; 0x01
    6c58:	82 81       	ldd	r24, Z+2	; 0x02
    6c5a:	93 81       	ldd	r25, Z+3	; 0x03
    6c5c:	0e 94 70 41 	call	0x82e0	; 0x82e0 <__fixunssfsi>
    6c60:	dc 01       	movw	r26, r24
    6c62:	cb 01       	movw	r24, r22
    6c64:	f8 01       	movw	r30, r16
    6c66:	91 83       	std	Z+1, r25	; 0x01
    6c68:	80 83       	st	Z, r24
    6c6a:	de 01       	movw	r26, r28
    6c6c:	ad 52       	subi	r26, 0x2D	; 45
    6c6e:	bf 4f       	sbci	r27, 0xFF	; 255
    6c70:	fe 01       	movw	r30, r28
    6c72:	e9 52       	subi	r30, 0x29	; 41
    6c74:	ff 4f       	sbci	r31, 0xFF	; 255
    6c76:	80 81       	ld	r24, Z
    6c78:	91 81       	ldd	r25, Z+1	; 0x01
    6c7a:	8d 93       	st	X+, r24
    6c7c:	9c 93       	st	X, r25
    6c7e:	fe 01       	movw	r30, r28
    6c80:	ed 52       	subi	r30, 0x2D	; 45
    6c82:	ff 4f       	sbci	r31, 0xFF	; 255
    6c84:	80 81       	ld	r24, Z
    6c86:	91 81       	ldd	r25, Z+1	; 0x01
    6c88:	01 97       	sbiw	r24, 0x01	; 1
    6c8a:	f1 f7       	brne	.-4      	; 0x6c88 <yellowSide+0x5c2>
    6c8c:	fe 01       	movw	r30, r28
    6c8e:	ed 52       	subi	r30, 0x2D	; 45
    6c90:	ff 4f       	sbci	r31, 0xFF	; 255
    6c92:	91 83       	std	Z+1, r25	; 0x01
    6c94:	80 83       	st	Z, r24
    6c96:	81 e0       	ldi	r24, 0x01	; 1
    6c98:	6f ef       	ldi	r22, 0xFF	; 255
    6c9a:	0e 94 14 0e 	call	0x1c28	; 0x1c28 <liftMove>
    6c9e:	0c 94 8c 40 	jmp	0x8118	; 0x8118 <yellowSide+0x1a52>
    6ca2:	fe 01       	movw	r30, r28
    6ca4:	e0 50       	subi	r30, 0x00	; 0
    6ca6:	ff 4f       	sbci	r31, 0xFF	; 255
    6ca8:	80 81       	ld	r24, Z
    6caa:	83 30       	cpi	r24, 0x03	; 3
    6cac:	11 f4       	brne	.+4      	; 0x6cb2 <yellowSide+0x5ec>
    6cae:	0c 94 8c 40 	jmp	0x8118	; 0x8118 <yellowSide+0x1a52>
    6cb2:	fe 01       	movw	r30, r28
    6cb4:	e0 50       	subi	r30, 0x00	; 0
    6cb6:	ff 4f       	sbci	r31, 0xFF	; 255
    6cb8:	80 81       	ld	r24, Z
    6cba:	84 30       	cpi	r24, 0x04	; 4
    6cbc:	09 f0       	breq	.+2      	; 0x6cc0 <yellowSide+0x5fa>
    6cbe:	e1 c3       	rjmp	.+1986   	; 0x7482 <yellowSide+0xdbc>
    6cc0:	83 e7       	ldi	r24, 0x73	; 115
    6cc2:	0e 94 b1 23 	call	0x4762	; 0x4762 <stop>
    6cc6:	fe 01       	movw	r30, r28
    6cc8:	e1 53       	subi	r30, 0x31	; 49
    6cca:	ff 4f       	sbci	r31, 0xFF	; 255
    6ccc:	80 e0       	ldi	r24, 0x00	; 0
    6cce:	90 e0       	ldi	r25, 0x00	; 0
    6cd0:	a8 e4       	ldi	r26, 0x48	; 72
    6cd2:	b2 e4       	ldi	r27, 0x42	; 66
    6cd4:	80 83       	st	Z, r24
    6cd6:	91 83       	std	Z+1, r25	; 0x01
    6cd8:	a2 83       	std	Z+2, r26	; 0x02
    6cda:	b3 83       	std	Z+3, r27	; 0x03
    6cdc:	8e 01       	movw	r16, r28
    6cde:	05 53       	subi	r16, 0x35	; 53
    6ce0:	1f 4f       	sbci	r17, 0xFF	; 255
    6ce2:	fe 01       	movw	r30, r28
    6ce4:	e1 53       	subi	r30, 0x31	; 49
    6ce6:	ff 4f       	sbci	r31, 0xFF	; 255
    6ce8:	60 81       	ld	r22, Z
    6cea:	71 81       	ldd	r23, Z+1	; 0x01
    6cec:	82 81       	ldd	r24, Z+2	; 0x02
    6cee:	93 81       	ldd	r25, Z+3	; 0x03
    6cf0:	20 e0       	ldi	r18, 0x00	; 0
    6cf2:	30 e4       	ldi	r19, 0x40	; 64
    6cf4:	4c e1       	ldi	r20, 0x1C	; 28
    6cf6:	55 e4       	ldi	r21, 0x45	; 69
    6cf8:	0e 94 90 42 	call	0x8520	; 0x8520 <__mulsf3>
    6cfc:	dc 01       	movw	r26, r24
    6cfe:	cb 01       	movw	r24, r22
    6d00:	f8 01       	movw	r30, r16
    6d02:	80 83       	st	Z, r24
    6d04:	91 83       	std	Z+1, r25	; 0x01
    6d06:	a2 83       	std	Z+2, r26	; 0x02
    6d08:	b3 83       	std	Z+3, r27	; 0x03
    6d0a:	fe 01       	movw	r30, r28
    6d0c:	e5 53       	subi	r30, 0x35	; 53
    6d0e:	ff 4f       	sbci	r31, 0xFF	; 255
    6d10:	60 81       	ld	r22, Z
    6d12:	71 81       	ldd	r23, Z+1	; 0x01
    6d14:	82 81       	ldd	r24, Z+2	; 0x02
    6d16:	93 81       	ldd	r25, Z+3	; 0x03
    6d18:	20 e0       	ldi	r18, 0x00	; 0
    6d1a:	30 e0       	ldi	r19, 0x00	; 0
    6d1c:	40 e8       	ldi	r20, 0x80	; 128
    6d1e:	5f e3       	ldi	r21, 0x3F	; 63
    6d20:	0e 94 04 41 	call	0x8208	; 0x8208 <__cmpsf2>
    6d24:	88 23       	and	r24, r24
    6d26:	44 f4       	brge	.+16     	; 0x6d38 <yellowSide+0x672>
    6d28:	fe 01       	movw	r30, r28
    6d2a:	e7 53       	subi	r30, 0x37	; 55
    6d2c:	ff 4f       	sbci	r31, 0xFF	; 255
    6d2e:	81 e0       	ldi	r24, 0x01	; 1
    6d30:	90 e0       	ldi	r25, 0x00	; 0
    6d32:	91 83       	std	Z+1, r25	; 0x01
    6d34:	80 83       	st	Z, r24
    6d36:	64 c0       	rjmp	.+200    	; 0x6e00 <yellowSide+0x73a>
    6d38:	fe 01       	movw	r30, r28
    6d3a:	e5 53       	subi	r30, 0x35	; 53
    6d3c:	ff 4f       	sbci	r31, 0xFF	; 255
    6d3e:	60 81       	ld	r22, Z
    6d40:	71 81       	ldd	r23, Z+1	; 0x01
    6d42:	82 81       	ldd	r24, Z+2	; 0x02
    6d44:	93 81       	ldd	r25, Z+3	; 0x03
    6d46:	20 e0       	ldi	r18, 0x00	; 0
    6d48:	3f ef       	ldi	r19, 0xFF	; 255
    6d4a:	4f e7       	ldi	r20, 0x7F	; 127
    6d4c:	57 e4       	ldi	r21, 0x47	; 71
    6d4e:	0e 94 8c 42 	call	0x8518	; 0x8518 <__gesf2>
    6d52:	18 16       	cp	r1, r24
    6d54:	0c f0       	brlt	.+2      	; 0x6d58 <yellowSide+0x692>
    6d56:	43 c0       	rjmp	.+134    	; 0x6dde <yellowSide+0x718>
    6d58:	fe 01       	movw	r30, r28
    6d5a:	e1 53       	subi	r30, 0x31	; 49
    6d5c:	ff 4f       	sbci	r31, 0xFF	; 255
    6d5e:	60 81       	ld	r22, Z
    6d60:	71 81       	ldd	r23, Z+1	; 0x01
    6d62:	82 81       	ldd	r24, Z+2	; 0x02
    6d64:	93 81       	ldd	r25, Z+3	; 0x03
    6d66:	20 e0       	ldi	r18, 0x00	; 0
    6d68:	30 e0       	ldi	r19, 0x00	; 0
    6d6a:	40 e2       	ldi	r20, 0x20	; 32
    6d6c:	51 e4       	ldi	r21, 0x41	; 65
    6d6e:	0e 94 90 42 	call	0x8520	; 0x8520 <__mulsf3>
    6d72:	dc 01       	movw	r26, r24
    6d74:	cb 01       	movw	r24, r22
    6d76:	8e 01       	movw	r16, r28
    6d78:	07 53       	subi	r16, 0x37	; 55
    6d7a:	1f 4f       	sbci	r17, 0xFF	; 255
    6d7c:	bc 01       	movw	r22, r24
    6d7e:	cd 01       	movw	r24, r26
    6d80:	0e 94 70 41 	call	0x82e0	; 0x82e0 <__fixunssfsi>
    6d84:	dc 01       	movw	r26, r24
    6d86:	cb 01       	movw	r24, r22
    6d88:	f8 01       	movw	r30, r16
    6d8a:	91 83       	std	Z+1, r25	; 0x01
    6d8c:	80 83       	st	Z, r24
    6d8e:	1f c0       	rjmp	.+62     	; 0x6dce <yellowSide+0x708>
    6d90:	fe 01       	movw	r30, r28
    6d92:	e9 53       	subi	r30, 0x39	; 57
    6d94:	ff 4f       	sbci	r31, 0xFF	; 255
    6d96:	8a ef       	ldi	r24, 0xFA	; 250
    6d98:	90 e0       	ldi	r25, 0x00	; 0
    6d9a:	91 83       	std	Z+1, r25	; 0x01
    6d9c:	80 83       	st	Z, r24
    6d9e:	fe 01       	movw	r30, r28
    6da0:	e9 53       	subi	r30, 0x39	; 57
    6da2:	ff 4f       	sbci	r31, 0xFF	; 255
    6da4:	80 81       	ld	r24, Z
    6da6:	91 81       	ldd	r25, Z+1	; 0x01
    6da8:	01 97       	sbiw	r24, 0x01	; 1
    6daa:	f1 f7       	brne	.-4      	; 0x6da8 <yellowSide+0x6e2>
    6dac:	fe 01       	movw	r30, r28
    6dae:	e9 53       	subi	r30, 0x39	; 57
    6db0:	ff 4f       	sbci	r31, 0xFF	; 255
    6db2:	91 83       	std	Z+1, r25	; 0x01
    6db4:	80 83       	st	Z, r24
    6db6:	de 01       	movw	r26, r28
    6db8:	a7 53       	subi	r26, 0x37	; 55
    6dba:	bf 4f       	sbci	r27, 0xFF	; 255
    6dbc:	fe 01       	movw	r30, r28
    6dbe:	e7 53       	subi	r30, 0x37	; 55
    6dc0:	ff 4f       	sbci	r31, 0xFF	; 255
    6dc2:	80 81       	ld	r24, Z
    6dc4:	91 81       	ldd	r25, Z+1	; 0x01
    6dc6:	01 97       	sbiw	r24, 0x01	; 1
    6dc8:	11 96       	adiw	r26, 0x01	; 1
    6dca:	9c 93       	st	X, r25
    6dcc:	8e 93       	st	-X, r24
    6dce:	fe 01       	movw	r30, r28
    6dd0:	e7 53       	subi	r30, 0x37	; 55
    6dd2:	ff 4f       	sbci	r31, 0xFF	; 255
    6dd4:	80 81       	ld	r24, Z
    6dd6:	91 81       	ldd	r25, Z+1	; 0x01
    6dd8:	00 97       	sbiw	r24, 0x00	; 0
    6dda:	d1 f6       	brne	.-76     	; 0x6d90 <yellowSide+0x6ca>
    6ddc:	27 c0       	rjmp	.+78     	; 0x6e2c <yellowSide+0x766>
    6dde:	8e 01       	movw	r16, r28
    6de0:	07 53       	subi	r16, 0x37	; 55
    6de2:	1f 4f       	sbci	r17, 0xFF	; 255
    6de4:	fe 01       	movw	r30, r28
    6de6:	e5 53       	subi	r30, 0x35	; 53
    6de8:	ff 4f       	sbci	r31, 0xFF	; 255
    6dea:	60 81       	ld	r22, Z
    6dec:	71 81       	ldd	r23, Z+1	; 0x01
    6dee:	82 81       	ldd	r24, Z+2	; 0x02
    6df0:	93 81       	ldd	r25, Z+3	; 0x03
    6df2:	0e 94 70 41 	call	0x82e0	; 0x82e0 <__fixunssfsi>
    6df6:	dc 01       	movw	r26, r24
    6df8:	cb 01       	movw	r24, r22
    6dfa:	f8 01       	movw	r30, r16
    6dfc:	91 83       	std	Z+1, r25	; 0x01
    6dfe:	80 83       	st	Z, r24
    6e00:	de 01       	movw	r26, r28
    6e02:	ab 53       	subi	r26, 0x3B	; 59
    6e04:	bf 4f       	sbci	r27, 0xFF	; 255
    6e06:	fe 01       	movw	r30, r28
    6e08:	e7 53       	subi	r30, 0x37	; 55
    6e0a:	ff 4f       	sbci	r31, 0xFF	; 255
    6e0c:	80 81       	ld	r24, Z
    6e0e:	91 81       	ldd	r25, Z+1	; 0x01
    6e10:	8d 93       	st	X+, r24
    6e12:	9c 93       	st	X, r25
    6e14:	fe 01       	movw	r30, r28
    6e16:	eb 53       	subi	r30, 0x3B	; 59
    6e18:	ff 4f       	sbci	r31, 0xFF	; 255
    6e1a:	80 81       	ld	r24, Z
    6e1c:	91 81       	ldd	r25, Z+1	; 0x01
    6e1e:	01 97       	sbiw	r24, 0x01	; 1
    6e20:	f1 f7       	brne	.-4      	; 0x6e1e <yellowSide+0x758>
    6e22:	fe 01       	movw	r30, r28
    6e24:	eb 53       	subi	r30, 0x3B	; 59
    6e26:	ff 4f       	sbci	r31, 0xFF	; 255
    6e28:	91 83       	std	Z+1, r25	; 0x01
    6e2a:	80 83       	st	Z, r24
    6e2c:	8f ef       	ldi	r24, 0xFF	; 255
    6e2e:	6f ef       	ldi	r22, 0xFF	; 255
    6e30:	0e 94 14 0e 	call	0x1c28	; 0x1c28 <liftMove>
    6e34:	fe 01       	movw	r30, r28
    6e36:	ef 53       	subi	r30, 0x3F	; 63
    6e38:	ff 4f       	sbci	r31, 0xFF	; 255
    6e3a:	80 e0       	ldi	r24, 0x00	; 0
    6e3c:	90 e0       	ldi	r25, 0x00	; 0
    6e3e:	aa ef       	ldi	r26, 0xFA	; 250
    6e40:	b3 e4       	ldi	r27, 0x43	; 67
    6e42:	80 83       	st	Z, r24
    6e44:	91 83       	std	Z+1, r25	; 0x01
    6e46:	a2 83       	std	Z+2, r26	; 0x02
    6e48:	b3 83       	std	Z+3, r27	; 0x03
    6e4a:	8e 01       	movw	r16, r28
    6e4c:	03 54       	subi	r16, 0x43	; 67
    6e4e:	1f 4f       	sbci	r17, 0xFF	; 255
    6e50:	fe 01       	movw	r30, r28
    6e52:	ef 53       	subi	r30, 0x3F	; 63
    6e54:	ff 4f       	sbci	r31, 0xFF	; 255
    6e56:	60 81       	ld	r22, Z
    6e58:	71 81       	ldd	r23, Z+1	; 0x01
    6e5a:	82 81       	ldd	r24, Z+2	; 0x02
    6e5c:	93 81       	ldd	r25, Z+3	; 0x03
    6e5e:	20 e0       	ldi	r18, 0x00	; 0
    6e60:	30 e4       	ldi	r19, 0x40	; 64
    6e62:	4c e1       	ldi	r20, 0x1C	; 28
    6e64:	55 e4       	ldi	r21, 0x45	; 69
    6e66:	0e 94 90 42 	call	0x8520	; 0x8520 <__mulsf3>
    6e6a:	dc 01       	movw	r26, r24
    6e6c:	cb 01       	movw	r24, r22
    6e6e:	f8 01       	movw	r30, r16
    6e70:	80 83       	st	Z, r24
    6e72:	91 83       	std	Z+1, r25	; 0x01
    6e74:	a2 83       	std	Z+2, r26	; 0x02
    6e76:	b3 83       	std	Z+3, r27	; 0x03
    6e78:	fe 01       	movw	r30, r28
    6e7a:	e3 54       	subi	r30, 0x43	; 67
    6e7c:	ff 4f       	sbci	r31, 0xFF	; 255
    6e7e:	60 81       	ld	r22, Z
    6e80:	71 81       	ldd	r23, Z+1	; 0x01
    6e82:	82 81       	ldd	r24, Z+2	; 0x02
    6e84:	93 81       	ldd	r25, Z+3	; 0x03
    6e86:	20 e0       	ldi	r18, 0x00	; 0
    6e88:	30 e0       	ldi	r19, 0x00	; 0
    6e8a:	40 e8       	ldi	r20, 0x80	; 128
    6e8c:	5f e3       	ldi	r21, 0x3F	; 63
    6e8e:	0e 94 04 41 	call	0x8208	; 0x8208 <__cmpsf2>
    6e92:	88 23       	and	r24, r24
    6e94:	44 f4       	brge	.+16     	; 0x6ea6 <yellowSide+0x7e0>
    6e96:	fe 01       	movw	r30, r28
    6e98:	e5 54       	subi	r30, 0x45	; 69
    6e9a:	ff 4f       	sbci	r31, 0xFF	; 255
    6e9c:	81 e0       	ldi	r24, 0x01	; 1
    6e9e:	90 e0       	ldi	r25, 0x00	; 0
    6ea0:	91 83       	std	Z+1, r25	; 0x01
    6ea2:	80 83       	st	Z, r24
    6ea4:	64 c0       	rjmp	.+200    	; 0x6f6e <yellowSide+0x8a8>
    6ea6:	fe 01       	movw	r30, r28
    6ea8:	e3 54       	subi	r30, 0x43	; 67
    6eaa:	ff 4f       	sbci	r31, 0xFF	; 255
    6eac:	60 81       	ld	r22, Z
    6eae:	71 81       	ldd	r23, Z+1	; 0x01
    6eb0:	82 81       	ldd	r24, Z+2	; 0x02
    6eb2:	93 81       	ldd	r25, Z+3	; 0x03
    6eb4:	20 e0       	ldi	r18, 0x00	; 0
    6eb6:	3f ef       	ldi	r19, 0xFF	; 255
    6eb8:	4f e7       	ldi	r20, 0x7F	; 127
    6eba:	57 e4       	ldi	r21, 0x47	; 71
    6ebc:	0e 94 8c 42 	call	0x8518	; 0x8518 <__gesf2>
    6ec0:	18 16       	cp	r1, r24
    6ec2:	0c f0       	brlt	.+2      	; 0x6ec6 <yellowSide+0x800>
    6ec4:	43 c0       	rjmp	.+134    	; 0x6f4c <yellowSide+0x886>
    6ec6:	fe 01       	movw	r30, r28
    6ec8:	ef 53       	subi	r30, 0x3F	; 63
    6eca:	ff 4f       	sbci	r31, 0xFF	; 255
    6ecc:	60 81       	ld	r22, Z
    6ece:	71 81       	ldd	r23, Z+1	; 0x01
    6ed0:	82 81       	ldd	r24, Z+2	; 0x02
    6ed2:	93 81       	ldd	r25, Z+3	; 0x03
    6ed4:	20 e0       	ldi	r18, 0x00	; 0
    6ed6:	30 e0       	ldi	r19, 0x00	; 0
    6ed8:	40 e2       	ldi	r20, 0x20	; 32
    6eda:	51 e4       	ldi	r21, 0x41	; 65
    6edc:	0e 94 90 42 	call	0x8520	; 0x8520 <__mulsf3>
    6ee0:	dc 01       	movw	r26, r24
    6ee2:	cb 01       	movw	r24, r22
    6ee4:	8e 01       	movw	r16, r28
    6ee6:	05 54       	subi	r16, 0x45	; 69
    6ee8:	1f 4f       	sbci	r17, 0xFF	; 255
    6eea:	bc 01       	movw	r22, r24
    6eec:	cd 01       	movw	r24, r26
    6eee:	0e 94 70 41 	call	0x82e0	; 0x82e0 <__fixunssfsi>
    6ef2:	dc 01       	movw	r26, r24
    6ef4:	cb 01       	movw	r24, r22
    6ef6:	f8 01       	movw	r30, r16
    6ef8:	91 83       	std	Z+1, r25	; 0x01
    6efa:	80 83       	st	Z, r24
    6efc:	1f c0       	rjmp	.+62     	; 0x6f3c <yellowSide+0x876>
    6efe:	fe 01       	movw	r30, r28
    6f00:	e7 54       	subi	r30, 0x47	; 71
    6f02:	ff 4f       	sbci	r31, 0xFF	; 255
    6f04:	8a ef       	ldi	r24, 0xFA	; 250
    6f06:	90 e0       	ldi	r25, 0x00	; 0
    6f08:	91 83       	std	Z+1, r25	; 0x01
    6f0a:	80 83       	st	Z, r24
    6f0c:	fe 01       	movw	r30, r28
    6f0e:	e7 54       	subi	r30, 0x47	; 71
    6f10:	ff 4f       	sbci	r31, 0xFF	; 255
    6f12:	80 81       	ld	r24, Z
    6f14:	91 81       	ldd	r25, Z+1	; 0x01
    6f16:	01 97       	sbiw	r24, 0x01	; 1
    6f18:	f1 f7       	brne	.-4      	; 0x6f16 <yellowSide+0x850>
    6f1a:	fe 01       	movw	r30, r28
    6f1c:	e7 54       	subi	r30, 0x47	; 71
    6f1e:	ff 4f       	sbci	r31, 0xFF	; 255
    6f20:	91 83       	std	Z+1, r25	; 0x01
    6f22:	80 83       	st	Z, r24
    6f24:	de 01       	movw	r26, r28
    6f26:	a5 54       	subi	r26, 0x45	; 69
    6f28:	bf 4f       	sbci	r27, 0xFF	; 255
    6f2a:	fe 01       	movw	r30, r28
    6f2c:	e5 54       	subi	r30, 0x45	; 69
    6f2e:	ff 4f       	sbci	r31, 0xFF	; 255
    6f30:	80 81       	ld	r24, Z
    6f32:	91 81       	ldd	r25, Z+1	; 0x01
    6f34:	01 97       	sbiw	r24, 0x01	; 1
    6f36:	11 96       	adiw	r26, 0x01	; 1
    6f38:	9c 93       	st	X, r25
    6f3a:	8e 93       	st	-X, r24
    6f3c:	fe 01       	movw	r30, r28
    6f3e:	e5 54       	subi	r30, 0x45	; 69
    6f40:	ff 4f       	sbci	r31, 0xFF	; 255
    6f42:	80 81       	ld	r24, Z
    6f44:	91 81       	ldd	r25, Z+1	; 0x01
    6f46:	00 97       	sbiw	r24, 0x00	; 0
    6f48:	d1 f6       	brne	.-76     	; 0x6efe <yellowSide+0x838>
    6f4a:	27 c0       	rjmp	.+78     	; 0x6f9a <yellowSide+0x8d4>
    6f4c:	8e 01       	movw	r16, r28
    6f4e:	05 54       	subi	r16, 0x45	; 69
    6f50:	1f 4f       	sbci	r17, 0xFF	; 255
    6f52:	fe 01       	movw	r30, r28
    6f54:	e3 54       	subi	r30, 0x43	; 67
    6f56:	ff 4f       	sbci	r31, 0xFF	; 255
    6f58:	60 81       	ld	r22, Z
    6f5a:	71 81       	ldd	r23, Z+1	; 0x01
    6f5c:	82 81       	ldd	r24, Z+2	; 0x02
    6f5e:	93 81       	ldd	r25, Z+3	; 0x03
    6f60:	0e 94 70 41 	call	0x82e0	; 0x82e0 <__fixunssfsi>
    6f64:	dc 01       	movw	r26, r24
    6f66:	cb 01       	movw	r24, r22
    6f68:	f8 01       	movw	r30, r16
    6f6a:	91 83       	std	Z+1, r25	; 0x01
    6f6c:	80 83       	st	Z, r24
    6f6e:	de 01       	movw	r26, r28
    6f70:	a9 54       	subi	r26, 0x49	; 73
    6f72:	bf 4f       	sbci	r27, 0xFF	; 255
    6f74:	fe 01       	movw	r30, r28
    6f76:	e5 54       	subi	r30, 0x45	; 69
    6f78:	ff 4f       	sbci	r31, 0xFF	; 255
    6f7a:	80 81       	ld	r24, Z
    6f7c:	91 81       	ldd	r25, Z+1	; 0x01
    6f7e:	8d 93       	st	X+, r24
    6f80:	9c 93       	st	X, r25
    6f82:	fe 01       	movw	r30, r28
    6f84:	e9 54       	subi	r30, 0x49	; 73
    6f86:	ff 4f       	sbci	r31, 0xFF	; 255
    6f88:	80 81       	ld	r24, Z
    6f8a:	91 81       	ldd	r25, Z+1	; 0x01
    6f8c:	01 97       	sbiw	r24, 0x01	; 1
    6f8e:	f1 f7       	brne	.-4      	; 0x6f8c <yellowSide+0x8c6>
    6f90:	fe 01       	movw	r30, r28
    6f92:	e9 54       	subi	r30, 0x49	; 73
    6f94:	ff 4f       	sbci	r31, 0xFF	; 255
    6f96:	91 83       	std	Z+1, r25	; 0x01
    6f98:	80 83       	st	Z, r24
    6f9a:	81 e0       	ldi	r24, 0x01	; 1
    6f9c:	6f ef       	ldi	r22, 0xFF	; 255
    6f9e:	0e 94 14 0e 	call	0x1c28	; 0x1c28 <liftMove>
    6fa2:	26 e4       	ldi	r18, 0x46	; 70
    6fa4:	33 e3       	ldi	r19, 0x33	; 51
    6fa6:	86 ea       	ldi	r24, 0xA6	; 166
    6fa8:	9f ef       	ldi	r25, 0xFF	; 255
    6faa:	62 e3       	ldi	r22, 0x32	; 50
    6fac:	a9 01       	movw	r20, r18
    6fae:	0e 94 9a 2b 	call	0x5734	; 0x5734 <rotate>
    6fb2:	80 e5       	ldi	r24, 0x50	; 80
    6fb4:	90 e0       	ldi	r25, 0x00	; 0
    6fb6:	62 e3       	ldi	r22, 0x32	; 50
    6fb8:	40 e0       	ldi	r20, 0x00	; 0
    6fba:	50 e0       	ldi	r21, 0x00	; 0
    6fbc:	0e 94 cd 24 	call	0x499a	; 0x499a <moveOnDirection>
    6fc0:	81 e0       	ldi	r24, 0x01	; 1
    6fc2:	6f ef       	ldi	r22, 0xFF	; 255
    6fc4:	0e 94 01 08 	call	0x1002	; 0x1002 <colectThePopcorn>
    6fc8:	84 e6       	ldi	r24, 0x64	; 100
    6fca:	90 e0       	ldi	r25, 0x00	; 0
    6fcc:	62 e3       	ldi	r22, 0x32	; 50
    6fce:	40 e0       	ldi	r20, 0x00	; 0
    6fd0:	50 e0       	ldi	r21, 0x00	; 0
    6fd2:	0e 94 9a 2b 	call	0x5734	; 0x5734 <rotate>
    6fd6:	80 eb       	ldi	r24, 0xB0	; 176
    6fd8:	9f ef       	ldi	r25, 0xFF	; 255
    6fda:	62 e3       	ldi	r22, 0x32	; 50
    6fdc:	40 e0       	ldi	r20, 0x00	; 0
    6fde:	50 e0       	ldi	r21, 0x00	; 0
    6fe0:	0e 94 cd 24 	call	0x499a	; 0x499a <moveOnDirection>
    6fe4:	81 ef       	ldi	r24, 0xF1	; 241
    6fe6:	9f ef       	ldi	r25, 0xFF	; 255
    6fe8:	62 e3       	ldi	r22, 0x32	; 50
    6fea:	40 e0       	ldi	r20, 0x00	; 0
    6fec:	50 e0       	ldi	r21, 0x00	; 0
    6fee:	0e 94 9a 2b 	call	0x5734	; 0x5734 <rotate>
    6ff2:	8c e2       	ldi	r24, 0x2C	; 44
    6ff4:	91 e0       	ldi	r25, 0x01	; 1
    6ff6:	66 e9       	ldi	r22, 0x96	; 150
    6ff8:	40 e0       	ldi	r20, 0x00	; 0
    6ffa:	50 e0       	ldi	r21, 0x00	; 0
    6ffc:	0e 94 cd 24 	call	0x499a	; 0x499a <moveOnDirection>
    7000:	8e e6       	ldi	r24, 0x6E	; 110
    7002:	90 e0       	ldi	r25, 0x00	; 0
    7004:	6e e1       	ldi	r22, 0x1E	; 30
    7006:	40 e0       	ldi	r20, 0x00	; 0
    7008:	50 e0       	ldi	r21, 0x00	; 0
    700a:	0e 94 cd 24 	call	0x499a	; 0x499a <moveOnDirection>
    700e:	fe 01       	movw	r30, r28
    7010:	ed 54       	subi	r30, 0x4D	; 77
    7012:	ff 4f       	sbci	r31, 0xFF	; 255
    7014:	80 e0       	ldi	r24, 0x00	; 0
    7016:	90 e0       	ldi	r25, 0x00	; 0
    7018:	a8 e4       	ldi	r26, 0x48	; 72
    701a:	b2 e4       	ldi	r27, 0x42	; 66
    701c:	80 83       	st	Z, r24
    701e:	91 83       	std	Z+1, r25	; 0x01
    7020:	a2 83       	std	Z+2, r26	; 0x02
    7022:	b3 83       	std	Z+3, r27	; 0x03
    7024:	8e 01       	movw	r16, r28
    7026:	01 55       	subi	r16, 0x51	; 81
    7028:	1f 4f       	sbci	r17, 0xFF	; 255
    702a:	fe 01       	movw	r30, r28
    702c:	ed 54       	subi	r30, 0x4D	; 77
    702e:	ff 4f       	sbci	r31, 0xFF	; 255
    7030:	60 81       	ld	r22, Z
    7032:	71 81       	ldd	r23, Z+1	; 0x01
    7034:	82 81       	ldd	r24, Z+2	; 0x02
    7036:	93 81       	ldd	r25, Z+3	; 0x03
    7038:	20 e0       	ldi	r18, 0x00	; 0
    703a:	30 e4       	ldi	r19, 0x40	; 64
    703c:	4c e1       	ldi	r20, 0x1C	; 28
    703e:	55 e4       	ldi	r21, 0x45	; 69
    7040:	0e 94 90 42 	call	0x8520	; 0x8520 <__mulsf3>
    7044:	dc 01       	movw	r26, r24
    7046:	cb 01       	movw	r24, r22
    7048:	f8 01       	movw	r30, r16
    704a:	80 83       	st	Z, r24
    704c:	91 83       	std	Z+1, r25	; 0x01
    704e:	a2 83       	std	Z+2, r26	; 0x02
    7050:	b3 83       	std	Z+3, r27	; 0x03
    7052:	fe 01       	movw	r30, r28
    7054:	e1 55       	subi	r30, 0x51	; 81
    7056:	ff 4f       	sbci	r31, 0xFF	; 255
    7058:	60 81       	ld	r22, Z
    705a:	71 81       	ldd	r23, Z+1	; 0x01
    705c:	82 81       	ldd	r24, Z+2	; 0x02
    705e:	93 81       	ldd	r25, Z+3	; 0x03
    7060:	20 e0       	ldi	r18, 0x00	; 0
    7062:	30 e0       	ldi	r19, 0x00	; 0
    7064:	40 e8       	ldi	r20, 0x80	; 128
    7066:	5f e3       	ldi	r21, 0x3F	; 63
    7068:	0e 94 04 41 	call	0x8208	; 0x8208 <__cmpsf2>
    706c:	88 23       	and	r24, r24
    706e:	44 f4       	brge	.+16     	; 0x7080 <yellowSide+0x9ba>
    7070:	fe 01       	movw	r30, r28
    7072:	e3 55       	subi	r30, 0x53	; 83
    7074:	ff 4f       	sbci	r31, 0xFF	; 255
    7076:	81 e0       	ldi	r24, 0x01	; 1
    7078:	90 e0       	ldi	r25, 0x00	; 0
    707a:	91 83       	std	Z+1, r25	; 0x01
    707c:	80 83       	st	Z, r24
    707e:	64 c0       	rjmp	.+200    	; 0x7148 <yellowSide+0xa82>
    7080:	fe 01       	movw	r30, r28
    7082:	e1 55       	subi	r30, 0x51	; 81
    7084:	ff 4f       	sbci	r31, 0xFF	; 255
    7086:	60 81       	ld	r22, Z
    7088:	71 81       	ldd	r23, Z+1	; 0x01
    708a:	82 81       	ldd	r24, Z+2	; 0x02
    708c:	93 81       	ldd	r25, Z+3	; 0x03
    708e:	20 e0       	ldi	r18, 0x00	; 0
    7090:	3f ef       	ldi	r19, 0xFF	; 255
    7092:	4f e7       	ldi	r20, 0x7F	; 127
    7094:	57 e4       	ldi	r21, 0x47	; 71
    7096:	0e 94 8c 42 	call	0x8518	; 0x8518 <__gesf2>
    709a:	18 16       	cp	r1, r24
    709c:	0c f0       	brlt	.+2      	; 0x70a0 <yellowSide+0x9da>
    709e:	43 c0       	rjmp	.+134    	; 0x7126 <yellowSide+0xa60>
    70a0:	fe 01       	movw	r30, r28
    70a2:	ed 54       	subi	r30, 0x4D	; 77
    70a4:	ff 4f       	sbci	r31, 0xFF	; 255
    70a6:	60 81       	ld	r22, Z
    70a8:	71 81       	ldd	r23, Z+1	; 0x01
    70aa:	82 81       	ldd	r24, Z+2	; 0x02
    70ac:	93 81       	ldd	r25, Z+3	; 0x03
    70ae:	20 e0       	ldi	r18, 0x00	; 0
    70b0:	30 e0       	ldi	r19, 0x00	; 0
    70b2:	40 e2       	ldi	r20, 0x20	; 32
    70b4:	51 e4       	ldi	r21, 0x41	; 65
    70b6:	0e 94 90 42 	call	0x8520	; 0x8520 <__mulsf3>
    70ba:	dc 01       	movw	r26, r24
    70bc:	cb 01       	movw	r24, r22
    70be:	8e 01       	movw	r16, r28
    70c0:	03 55       	subi	r16, 0x53	; 83
    70c2:	1f 4f       	sbci	r17, 0xFF	; 255
    70c4:	bc 01       	movw	r22, r24
    70c6:	cd 01       	movw	r24, r26
    70c8:	0e 94 70 41 	call	0x82e0	; 0x82e0 <__fixunssfsi>
    70cc:	dc 01       	movw	r26, r24
    70ce:	cb 01       	movw	r24, r22
    70d0:	f8 01       	movw	r30, r16
    70d2:	91 83       	std	Z+1, r25	; 0x01
    70d4:	80 83       	st	Z, r24
    70d6:	1f c0       	rjmp	.+62     	; 0x7116 <yellowSide+0xa50>
    70d8:	fe 01       	movw	r30, r28
    70da:	e5 55       	subi	r30, 0x55	; 85
    70dc:	ff 4f       	sbci	r31, 0xFF	; 255
    70de:	8a ef       	ldi	r24, 0xFA	; 250
    70e0:	90 e0       	ldi	r25, 0x00	; 0
    70e2:	91 83       	std	Z+1, r25	; 0x01
    70e4:	80 83       	st	Z, r24
    70e6:	fe 01       	movw	r30, r28
    70e8:	e5 55       	subi	r30, 0x55	; 85
    70ea:	ff 4f       	sbci	r31, 0xFF	; 255
    70ec:	80 81       	ld	r24, Z
    70ee:	91 81       	ldd	r25, Z+1	; 0x01
    70f0:	01 97       	sbiw	r24, 0x01	; 1
    70f2:	f1 f7       	brne	.-4      	; 0x70f0 <yellowSide+0xa2a>
    70f4:	fe 01       	movw	r30, r28
    70f6:	e5 55       	subi	r30, 0x55	; 85
    70f8:	ff 4f       	sbci	r31, 0xFF	; 255
    70fa:	91 83       	std	Z+1, r25	; 0x01
    70fc:	80 83       	st	Z, r24
    70fe:	de 01       	movw	r26, r28
    7100:	a3 55       	subi	r26, 0x53	; 83
    7102:	bf 4f       	sbci	r27, 0xFF	; 255
    7104:	fe 01       	movw	r30, r28
    7106:	e3 55       	subi	r30, 0x53	; 83
    7108:	ff 4f       	sbci	r31, 0xFF	; 255
    710a:	80 81       	ld	r24, Z
    710c:	91 81       	ldd	r25, Z+1	; 0x01
    710e:	01 97       	sbiw	r24, 0x01	; 1
    7110:	11 96       	adiw	r26, 0x01	; 1
    7112:	9c 93       	st	X, r25
    7114:	8e 93       	st	-X, r24
    7116:	fe 01       	movw	r30, r28
    7118:	e3 55       	subi	r30, 0x53	; 83
    711a:	ff 4f       	sbci	r31, 0xFF	; 255
    711c:	80 81       	ld	r24, Z
    711e:	91 81       	ldd	r25, Z+1	; 0x01
    7120:	00 97       	sbiw	r24, 0x00	; 0
    7122:	d1 f6       	brne	.-76     	; 0x70d8 <yellowSide+0xa12>
    7124:	27 c0       	rjmp	.+78     	; 0x7174 <yellowSide+0xaae>
    7126:	8e 01       	movw	r16, r28
    7128:	03 55       	subi	r16, 0x53	; 83
    712a:	1f 4f       	sbci	r17, 0xFF	; 255
    712c:	fe 01       	movw	r30, r28
    712e:	e1 55       	subi	r30, 0x51	; 81
    7130:	ff 4f       	sbci	r31, 0xFF	; 255
    7132:	60 81       	ld	r22, Z
    7134:	71 81       	ldd	r23, Z+1	; 0x01
    7136:	82 81       	ldd	r24, Z+2	; 0x02
    7138:	93 81       	ldd	r25, Z+3	; 0x03
    713a:	0e 94 70 41 	call	0x82e0	; 0x82e0 <__fixunssfsi>
    713e:	dc 01       	movw	r26, r24
    7140:	cb 01       	movw	r24, r22
    7142:	f8 01       	movw	r30, r16
    7144:	91 83       	std	Z+1, r25	; 0x01
    7146:	80 83       	st	Z, r24
    7148:	de 01       	movw	r26, r28
    714a:	a7 55       	subi	r26, 0x57	; 87
    714c:	bf 4f       	sbci	r27, 0xFF	; 255
    714e:	fe 01       	movw	r30, r28
    7150:	e3 55       	subi	r30, 0x53	; 83
    7152:	ff 4f       	sbci	r31, 0xFF	; 255
    7154:	80 81       	ld	r24, Z
    7156:	91 81       	ldd	r25, Z+1	; 0x01
    7158:	8d 93       	st	X+, r24
    715a:	9c 93       	st	X, r25
    715c:	fe 01       	movw	r30, r28
    715e:	e7 55       	subi	r30, 0x57	; 87
    7160:	ff 4f       	sbci	r31, 0xFF	; 255
    7162:	80 81       	ld	r24, Z
    7164:	91 81       	ldd	r25, Z+1	; 0x01
    7166:	01 97       	sbiw	r24, 0x01	; 1
    7168:	f1 f7       	brne	.-4      	; 0x7166 <yellowSide+0xaa0>
    716a:	fe 01       	movw	r30, r28
    716c:	e7 55       	subi	r30, 0x57	; 87
    716e:	ff 4f       	sbci	r31, 0xFF	; 255
    7170:	91 83       	std	Z+1, r25	; 0x01
    7172:	80 83       	st	Z, r24
    7174:	8f ef       	ldi	r24, 0xFF	; 255
    7176:	62 e0       	ldi	r22, 0x02	; 2
    7178:	0e 94 14 0e 	call	0x1c28	; 0x1c28 <liftMove>
    717c:	fe 01       	movw	r30, r28
    717e:	eb 55       	subi	r30, 0x5B	; 91
    7180:	ff 4f       	sbci	r31, 0xFF	; 255
    7182:	80 e0       	ldi	r24, 0x00	; 0
    7184:	90 e0       	ldi	r25, 0x00	; 0
    7186:	aa ef       	ldi	r26, 0xFA	; 250
    7188:	b3 e4       	ldi	r27, 0x43	; 67
    718a:	80 83       	st	Z, r24
    718c:	91 83       	std	Z+1, r25	; 0x01
    718e:	a2 83       	std	Z+2, r26	; 0x02
    7190:	b3 83       	std	Z+3, r27	; 0x03
    7192:	8e 01       	movw	r16, r28
    7194:	0f 55       	subi	r16, 0x5F	; 95
    7196:	1f 4f       	sbci	r17, 0xFF	; 255
    7198:	fe 01       	movw	r30, r28
    719a:	eb 55       	subi	r30, 0x5B	; 91
    719c:	ff 4f       	sbci	r31, 0xFF	; 255
    719e:	60 81       	ld	r22, Z
    71a0:	71 81       	ldd	r23, Z+1	; 0x01
    71a2:	82 81       	ldd	r24, Z+2	; 0x02
    71a4:	93 81       	ldd	r25, Z+3	; 0x03
    71a6:	20 e0       	ldi	r18, 0x00	; 0
    71a8:	30 e4       	ldi	r19, 0x40	; 64
    71aa:	4c e1       	ldi	r20, 0x1C	; 28
    71ac:	55 e4       	ldi	r21, 0x45	; 69
    71ae:	0e 94 90 42 	call	0x8520	; 0x8520 <__mulsf3>
    71b2:	dc 01       	movw	r26, r24
    71b4:	cb 01       	movw	r24, r22
    71b6:	f8 01       	movw	r30, r16
    71b8:	80 83       	st	Z, r24
    71ba:	91 83       	std	Z+1, r25	; 0x01
    71bc:	a2 83       	std	Z+2, r26	; 0x02
    71be:	b3 83       	std	Z+3, r27	; 0x03
    71c0:	fe 01       	movw	r30, r28
    71c2:	ef 55       	subi	r30, 0x5F	; 95
    71c4:	ff 4f       	sbci	r31, 0xFF	; 255
    71c6:	60 81       	ld	r22, Z
    71c8:	71 81       	ldd	r23, Z+1	; 0x01
    71ca:	82 81       	ldd	r24, Z+2	; 0x02
    71cc:	93 81       	ldd	r25, Z+3	; 0x03
    71ce:	20 e0       	ldi	r18, 0x00	; 0
    71d0:	30 e0       	ldi	r19, 0x00	; 0
    71d2:	40 e8       	ldi	r20, 0x80	; 128
    71d4:	5f e3       	ldi	r21, 0x3F	; 63
    71d6:	0e 94 04 41 	call	0x8208	; 0x8208 <__cmpsf2>
    71da:	88 23       	and	r24, r24
    71dc:	44 f4       	brge	.+16     	; 0x71ee <yellowSide+0xb28>
    71de:	fe 01       	movw	r30, r28
    71e0:	e1 56       	subi	r30, 0x61	; 97
    71e2:	ff 4f       	sbci	r31, 0xFF	; 255
    71e4:	81 e0       	ldi	r24, 0x01	; 1
    71e6:	90 e0       	ldi	r25, 0x00	; 0
    71e8:	91 83       	std	Z+1, r25	; 0x01
    71ea:	80 83       	st	Z, r24
    71ec:	64 c0       	rjmp	.+200    	; 0x72b6 <yellowSide+0xbf0>
    71ee:	fe 01       	movw	r30, r28
    71f0:	ef 55       	subi	r30, 0x5F	; 95
    71f2:	ff 4f       	sbci	r31, 0xFF	; 255
    71f4:	60 81       	ld	r22, Z
    71f6:	71 81       	ldd	r23, Z+1	; 0x01
    71f8:	82 81       	ldd	r24, Z+2	; 0x02
    71fa:	93 81       	ldd	r25, Z+3	; 0x03
    71fc:	20 e0       	ldi	r18, 0x00	; 0
    71fe:	3f ef       	ldi	r19, 0xFF	; 255
    7200:	4f e7       	ldi	r20, 0x7F	; 127
    7202:	57 e4       	ldi	r21, 0x47	; 71
    7204:	0e 94 8c 42 	call	0x8518	; 0x8518 <__gesf2>
    7208:	18 16       	cp	r1, r24
    720a:	0c f0       	brlt	.+2      	; 0x720e <yellowSide+0xb48>
    720c:	43 c0       	rjmp	.+134    	; 0x7294 <yellowSide+0xbce>
    720e:	fe 01       	movw	r30, r28
    7210:	eb 55       	subi	r30, 0x5B	; 91
    7212:	ff 4f       	sbci	r31, 0xFF	; 255
    7214:	60 81       	ld	r22, Z
    7216:	71 81       	ldd	r23, Z+1	; 0x01
    7218:	82 81       	ldd	r24, Z+2	; 0x02
    721a:	93 81       	ldd	r25, Z+3	; 0x03
    721c:	20 e0       	ldi	r18, 0x00	; 0
    721e:	30 e0       	ldi	r19, 0x00	; 0
    7220:	40 e2       	ldi	r20, 0x20	; 32
    7222:	51 e4       	ldi	r21, 0x41	; 65
    7224:	0e 94 90 42 	call	0x8520	; 0x8520 <__mulsf3>
    7228:	dc 01       	movw	r26, r24
    722a:	cb 01       	movw	r24, r22
    722c:	8e 01       	movw	r16, r28
    722e:	01 56       	subi	r16, 0x61	; 97
    7230:	1f 4f       	sbci	r17, 0xFF	; 255
    7232:	bc 01       	movw	r22, r24
    7234:	cd 01       	movw	r24, r26
    7236:	0e 94 70 41 	call	0x82e0	; 0x82e0 <__fixunssfsi>
    723a:	dc 01       	movw	r26, r24
    723c:	cb 01       	movw	r24, r22
    723e:	f8 01       	movw	r30, r16
    7240:	91 83       	std	Z+1, r25	; 0x01
    7242:	80 83       	st	Z, r24
    7244:	1f c0       	rjmp	.+62     	; 0x7284 <yellowSide+0xbbe>
    7246:	fe 01       	movw	r30, r28
    7248:	e3 56       	subi	r30, 0x63	; 99
    724a:	ff 4f       	sbci	r31, 0xFF	; 255
    724c:	8a ef       	ldi	r24, 0xFA	; 250
    724e:	90 e0       	ldi	r25, 0x00	; 0
    7250:	91 83       	std	Z+1, r25	; 0x01
    7252:	80 83       	st	Z, r24
    7254:	fe 01       	movw	r30, r28
    7256:	e3 56       	subi	r30, 0x63	; 99
    7258:	ff 4f       	sbci	r31, 0xFF	; 255
    725a:	80 81       	ld	r24, Z
    725c:	91 81       	ldd	r25, Z+1	; 0x01
    725e:	01 97       	sbiw	r24, 0x01	; 1
    7260:	f1 f7       	brne	.-4      	; 0x725e <yellowSide+0xb98>
    7262:	fe 01       	movw	r30, r28
    7264:	e3 56       	subi	r30, 0x63	; 99
    7266:	ff 4f       	sbci	r31, 0xFF	; 255
    7268:	91 83       	std	Z+1, r25	; 0x01
    726a:	80 83       	st	Z, r24
    726c:	de 01       	movw	r26, r28
    726e:	a1 56       	subi	r26, 0x61	; 97
    7270:	bf 4f       	sbci	r27, 0xFF	; 255
    7272:	fe 01       	movw	r30, r28
    7274:	e1 56       	subi	r30, 0x61	; 97
    7276:	ff 4f       	sbci	r31, 0xFF	; 255
    7278:	80 81       	ld	r24, Z
    727a:	91 81       	ldd	r25, Z+1	; 0x01
    727c:	01 97       	sbiw	r24, 0x01	; 1
    727e:	11 96       	adiw	r26, 0x01	; 1
    7280:	9c 93       	st	X, r25
    7282:	8e 93       	st	-X, r24
    7284:	fe 01       	movw	r30, r28
    7286:	e1 56       	subi	r30, 0x61	; 97
    7288:	ff 4f       	sbci	r31, 0xFF	; 255
    728a:	80 81       	ld	r24, Z
    728c:	91 81       	ldd	r25, Z+1	; 0x01
    728e:	00 97       	sbiw	r24, 0x00	; 0
    7290:	d1 f6       	brne	.-76     	; 0x7246 <yellowSide+0xb80>
    7292:	27 c0       	rjmp	.+78     	; 0x72e2 <yellowSide+0xc1c>
    7294:	8e 01       	movw	r16, r28
    7296:	01 56       	subi	r16, 0x61	; 97
    7298:	1f 4f       	sbci	r17, 0xFF	; 255
    729a:	fe 01       	movw	r30, r28
    729c:	ef 55       	subi	r30, 0x5F	; 95
    729e:	ff 4f       	sbci	r31, 0xFF	; 255
    72a0:	60 81       	ld	r22, Z
    72a2:	71 81       	ldd	r23, Z+1	; 0x01
    72a4:	82 81       	ldd	r24, Z+2	; 0x02
    72a6:	93 81       	ldd	r25, Z+3	; 0x03
    72a8:	0e 94 70 41 	call	0x82e0	; 0x82e0 <__fixunssfsi>
    72ac:	dc 01       	movw	r26, r24
    72ae:	cb 01       	movw	r24, r22
    72b0:	f8 01       	movw	r30, r16
    72b2:	91 83       	std	Z+1, r25	; 0x01
    72b4:	80 83       	st	Z, r24
    72b6:	de 01       	movw	r26, r28
    72b8:	a5 56       	subi	r26, 0x65	; 101
    72ba:	bf 4f       	sbci	r27, 0xFF	; 255
    72bc:	fe 01       	movw	r30, r28
    72be:	e1 56       	subi	r30, 0x61	; 97
    72c0:	ff 4f       	sbci	r31, 0xFF	; 255
    72c2:	80 81       	ld	r24, Z
    72c4:	91 81       	ldd	r25, Z+1	; 0x01
    72c6:	8d 93       	st	X+, r24
    72c8:	9c 93       	st	X, r25
    72ca:	fe 01       	movw	r30, r28
    72cc:	e5 56       	subi	r30, 0x65	; 101
    72ce:	ff 4f       	sbci	r31, 0xFF	; 255
    72d0:	80 81       	ld	r24, Z
    72d2:	91 81       	ldd	r25, Z+1	; 0x01
    72d4:	01 97       	sbiw	r24, 0x01	; 1
    72d6:	f1 f7       	brne	.-4      	; 0x72d4 <yellowSide+0xc0e>
    72d8:	fe 01       	movw	r30, r28
    72da:	e5 56       	subi	r30, 0x65	; 101
    72dc:	ff 4f       	sbci	r31, 0xFF	; 255
    72de:	91 83       	std	Z+1, r25	; 0x01
    72e0:	80 83       	st	Z, r24
    72e2:	81 e0       	ldi	r24, 0x01	; 1
    72e4:	0e 94 db 0a 	call	0x15b6	; 0x15b6 <leftDiafram>
    72e8:	81 e0       	ldi	r24, 0x01	; 1
    72ea:	0e 94 ee 0b 	call	0x17dc	; 0x17dc <rightDiafram>
    72ee:	fe 01       	movw	r30, r28
    72f0:	e9 56       	subi	r30, 0x69	; 105
    72f2:	ff 4f       	sbci	r31, 0xFF	; 255
    72f4:	80 e0       	ldi	r24, 0x00	; 0
    72f6:	90 e0       	ldi	r25, 0x00	; 0
    72f8:	a8 e4       	ldi	r26, 0x48	; 72
    72fa:	b2 e4       	ldi	r27, 0x42	; 66
    72fc:	80 83       	st	Z, r24
    72fe:	91 83       	std	Z+1, r25	; 0x01
    7300:	a2 83       	std	Z+2, r26	; 0x02
    7302:	b3 83       	std	Z+3, r27	; 0x03
    7304:	8e 01       	movw	r16, r28
    7306:	0d 56       	subi	r16, 0x6D	; 109
    7308:	1f 4f       	sbci	r17, 0xFF	; 255
    730a:	fe 01       	movw	r30, r28
    730c:	e9 56       	subi	r30, 0x69	; 105
    730e:	ff 4f       	sbci	r31, 0xFF	; 255
    7310:	60 81       	ld	r22, Z
    7312:	71 81       	ldd	r23, Z+1	; 0x01
    7314:	82 81       	ldd	r24, Z+2	; 0x02
    7316:	93 81       	ldd	r25, Z+3	; 0x03
    7318:	20 e0       	ldi	r18, 0x00	; 0
    731a:	30 e4       	ldi	r19, 0x40	; 64
    731c:	4c e1       	ldi	r20, 0x1C	; 28
    731e:	55 e4       	ldi	r21, 0x45	; 69
    7320:	0e 94 90 42 	call	0x8520	; 0x8520 <__mulsf3>
    7324:	dc 01       	movw	r26, r24
    7326:	cb 01       	movw	r24, r22
    7328:	f8 01       	movw	r30, r16
    732a:	80 83       	st	Z, r24
    732c:	91 83       	std	Z+1, r25	; 0x01
    732e:	a2 83       	std	Z+2, r26	; 0x02
    7330:	b3 83       	std	Z+3, r27	; 0x03
    7332:	fe 01       	movw	r30, r28
    7334:	ed 56       	subi	r30, 0x6D	; 109
    7336:	ff 4f       	sbci	r31, 0xFF	; 255
    7338:	60 81       	ld	r22, Z
    733a:	71 81       	ldd	r23, Z+1	; 0x01
    733c:	82 81       	ldd	r24, Z+2	; 0x02
    733e:	93 81       	ldd	r25, Z+3	; 0x03
    7340:	20 e0       	ldi	r18, 0x00	; 0
    7342:	30 e0       	ldi	r19, 0x00	; 0
    7344:	40 e8       	ldi	r20, 0x80	; 128
    7346:	5f e3       	ldi	r21, 0x3F	; 63
    7348:	5f d7       	rcall	.+3774   	; 0x8208 <__cmpsf2>
    734a:	88 23       	and	r24, r24
    734c:	44 f4       	brge	.+16     	; 0x735e <yellowSide+0xc98>
    734e:	fe 01       	movw	r30, r28
    7350:	ef 56       	subi	r30, 0x6F	; 111
    7352:	ff 4f       	sbci	r31, 0xFF	; 255
    7354:	81 e0       	ldi	r24, 0x01	; 1
    7356:	90 e0       	ldi	r25, 0x00	; 0
    7358:	91 83       	std	Z+1, r25	; 0x01
    735a:	80 83       	st	Z, r24
    735c:	62 c0       	rjmp	.+196    	; 0x7422 <yellowSide+0xd5c>
    735e:	fe 01       	movw	r30, r28
    7360:	ed 56       	subi	r30, 0x6D	; 109
    7362:	ff 4f       	sbci	r31, 0xFF	; 255
    7364:	60 81       	ld	r22, Z
    7366:	71 81       	ldd	r23, Z+1	; 0x01
    7368:	82 81       	ldd	r24, Z+2	; 0x02
    736a:	93 81       	ldd	r25, Z+3	; 0x03
    736c:	20 e0       	ldi	r18, 0x00	; 0
    736e:	3f ef       	ldi	r19, 0xFF	; 255
    7370:	4f e7       	ldi	r20, 0x7F	; 127
    7372:	57 e4       	ldi	r21, 0x47	; 71
    7374:	0e 94 8c 42 	call	0x8518	; 0x8518 <__gesf2>
    7378:	18 16       	cp	r1, r24
    737a:	0c f0       	brlt	.+2      	; 0x737e <yellowSide+0xcb8>
    737c:	42 c0       	rjmp	.+132    	; 0x7402 <yellowSide+0xd3c>
    737e:	fe 01       	movw	r30, r28
    7380:	e9 56       	subi	r30, 0x69	; 105
    7382:	ff 4f       	sbci	r31, 0xFF	; 255
    7384:	60 81       	ld	r22, Z
    7386:	71 81       	ldd	r23, Z+1	; 0x01
    7388:	82 81       	ldd	r24, Z+2	; 0x02
    738a:	93 81       	ldd	r25, Z+3	; 0x03
    738c:	20 e0       	ldi	r18, 0x00	; 0
    738e:	30 e0       	ldi	r19, 0x00	; 0
    7390:	40 e2       	ldi	r20, 0x20	; 32
    7392:	51 e4       	ldi	r21, 0x41	; 65
    7394:	0e 94 90 42 	call	0x8520	; 0x8520 <__mulsf3>
    7398:	dc 01       	movw	r26, r24
    739a:	cb 01       	movw	r24, r22
    739c:	8e 01       	movw	r16, r28
    739e:	0f 56       	subi	r16, 0x6F	; 111
    73a0:	1f 4f       	sbci	r17, 0xFF	; 255
    73a2:	bc 01       	movw	r22, r24
    73a4:	cd 01       	movw	r24, r26
    73a6:	9c d7       	rcall	.+3896   	; 0x82e0 <__fixunssfsi>
    73a8:	dc 01       	movw	r26, r24
    73aa:	cb 01       	movw	r24, r22
    73ac:	f8 01       	movw	r30, r16
    73ae:	91 83       	std	Z+1, r25	; 0x01
    73b0:	80 83       	st	Z, r24
    73b2:	1f c0       	rjmp	.+62     	; 0x73f2 <yellowSide+0xd2c>
    73b4:	fe 01       	movw	r30, r28
    73b6:	e1 57       	subi	r30, 0x71	; 113
    73b8:	ff 4f       	sbci	r31, 0xFF	; 255
    73ba:	8a ef       	ldi	r24, 0xFA	; 250
    73bc:	90 e0       	ldi	r25, 0x00	; 0
    73be:	91 83       	std	Z+1, r25	; 0x01
    73c0:	80 83       	st	Z, r24
    73c2:	fe 01       	movw	r30, r28
    73c4:	e1 57       	subi	r30, 0x71	; 113
    73c6:	ff 4f       	sbci	r31, 0xFF	; 255
    73c8:	80 81       	ld	r24, Z
    73ca:	91 81       	ldd	r25, Z+1	; 0x01
    73cc:	01 97       	sbiw	r24, 0x01	; 1
    73ce:	f1 f7       	brne	.-4      	; 0x73cc <yellowSide+0xd06>
    73d0:	fe 01       	movw	r30, r28
    73d2:	e1 57       	subi	r30, 0x71	; 113
    73d4:	ff 4f       	sbci	r31, 0xFF	; 255
    73d6:	91 83       	std	Z+1, r25	; 0x01
    73d8:	80 83       	st	Z, r24
    73da:	de 01       	movw	r26, r28
    73dc:	af 56       	subi	r26, 0x6F	; 111
    73de:	bf 4f       	sbci	r27, 0xFF	; 255
    73e0:	fe 01       	movw	r30, r28
    73e2:	ef 56       	subi	r30, 0x6F	; 111
    73e4:	ff 4f       	sbci	r31, 0xFF	; 255
    73e6:	80 81       	ld	r24, Z
    73e8:	91 81       	ldd	r25, Z+1	; 0x01
    73ea:	01 97       	sbiw	r24, 0x01	; 1
    73ec:	11 96       	adiw	r26, 0x01	; 1
    73ee:	9c 93       	st	X, r25
    73f0:	8e 93       	st	-X, r24
    73f2:	fe 01       	movw	r30, r28
    73f4:	ef 56       	subi	r30, 0x6F	; 111
    73f6:	ff 4f       	sbci	r31, 0xFF	; 255
    73f8:	80 81       	ld	r24, Z
    73fa:	91 81       	ldd	r25, Z+1	; 0x01
    73fc:	00 97       	sbiw	r24, 0x00	; 0
    73fe:	d1 f6       	brne	.-76     	; 0x73b4 <yellowSide+0xcee>
    7400:	26 c0       	rjmp	.+76     	; 0x744e <yellowSide+0xd88>
    7402:	8e 01       	movw	r16, r28
    7404:	0f 56       	subi	r16, 0x6F	; 111
    7406:	1f 4f       	sbci	r17, 0xFF	; 255
    7408:	fe 01       	movw	r30, r28
    740a:	ed 56       	subi	r30, 0x6D	; 109
    740c:	ff 4f       	sbci	r31, 0xFF	; 255
    740e:	60 81       	ld	r22, Z
    7410:	71 81       	ldd	r23, Z+1	; 0x01
    7412:	82 81       	ldd	r24, Z+2	; 0x02
    7414:	93 81       	ldd	r25, Z+3	; 0x03
    7416:	64 d7       	rcall	.+3784   	; 0x82e0 <__fixunssfsi>
    7418:	dc 01       	movw	r26, r24
    741a:	cb 01       	movw	r24, r22
    741c:	f8 01       	movw	r30, r16
    741e:	91 83       	std	Z+1, r25	; 0x01
    7420:	80 83       	st	Z, r24
    7422:	de 01       	movw	r26, r28
    7424:	a3 57       	subi	r26, 0x73	; 115
    7426:	bf 4f       	sbci	r27, 0xFF	; 255
    7428:	fe 01       	movw	r30, r28
    742a:	ef 56       	subi	r30, 0x6F	; 111
    742c:	ff 4f       	sbci	r31, 0xFF	; 255
    742e:	80 81       	ld	r24, Z
    7430:	91 81       	ldd	r25, Z+1	; 0x01
    7432:	8d 93       	st	X+, r24
    7434:	9c 93       	st	X, r25
    7436:	fe 01       	movw	r30, r28
    7438:	e3 57       	subi	r30, 0x73	; 115
    743a:	ff 4f       	sbci	r31, 0xFF	; 255
    743c:	80 81       	ld	r24, Z
    743e:	91 81       	ldd	r25, Z+1	; 0x01
    7440:	01 97       	sbiw	r24, 0x01	; 1
    7442:	f1 f7       	brne	.-4      	; 0x7440 <yellowSide+0xd7a>
    7444:	fe 01       	movw	r30, r28
    7446:	e3 57       	subi	r30, 0x73	; 115
    7448:	ff 4f       	sbci	r31, 0xFF	; 255
    744a:	91 83       	std	Z+1, r25	; 0x01
    744c:	80 83       	st	Z, r24
    744e:	82 ee       	ldi	r24, 0xE2	; 226
    7450:	9f ef       	ldi	r25, 0xFF	; 255
    7452:	62 e3       	ldi	r22, 0x32	; 50
    7454:	40 e0       	ldi	r20, 0x00	; 0
    7456:	50 e0       	ldi	r21, 0x00	; 0
    7458:	0e 94 cd 24 	call	0x499a	; 0x499a <moveOnDirection>
    745c:	8e e1       	ldi	r24, 0x1E	; 30
    745e:	90 e0       	ldi	r25, 0x00	; 0
    7460:	62 e3       	ldi	r22, 0x32	; 50
    7462:	40 e0       	ldi	r20, 0x00	; 0
    7464:	50 e0       	ldi	r21, 0x00	; 0
    7466:	0e 94 9a 2b 	call	0x5734	; 0x5734 <rotate>
    746a:	8f ef       	ldi	r24, 0xFF	; 255
    746c:	61 e0       	ldi	r22, 0x01	; 1
    746e:	0e 94 df 06 	call	0xdbe	; 0xdbe <knockDownTheClapperboards>
    7472:	82 ee       	ldi	r24, 0xE2	; 226
    7474:	9f ef       	ldi	r25, 0xFF	; 255
    7476:	62 e3       	ldi	r22, 0x32	; 50
    7478:	40 e0       	ldi	r20, 0x00	; 0
    747a:	50 e0       	ldi	r21, 0x00	; 0
    747c:	0e 94 9a 2b 	call	0x5734	; 0x5734 <rotate>
    7480:	4b c6       	rjmp	.+3222   	; 0x8118 <yellowSide+0x1a52>
    7482:	fe 01       	movw	r30, r28
    7484:	e0 50       	subi	r30, 0x00	; 0
    7486:	ff 4f       	sbci	r31, 0xFF	; 255
    7488:	80 81       	ld	r24, Z
    748a:	85 30       	cpi	r24, 0x05	; 5
    748c:	29 f4       	brne	.+10     	; 0x7498 <yellowSide+0xdd2>
    748e:	8f ef       	ldi	r24, 0xFF	; 255
    7490:	6f ef       	ldi	r22, 0xFF	; 255
    7492:	0e 94 df 06 	call	0xdbe	; 0xdbe <knockDownTheClapperboards>
    7496:	40 c6       	rjmp	.+3200   	; 0x8118 <yellowSide+0x1a52>
    7498:	fe 01       	movw	r30, r28
    749a:	e0 50       	subi	r30, 0x00	; 0
    749c:	ff 4f       	sbci	r31, 0xFF	; 255
    749e:	80 81       	ld	r24, Z
    74a0:	86 30       	cpi	r24, 0x06	; 6
    74a2:	21 f4       	brne	.+8      	; 0x74ac <yellowSide+0xde6>
    74a4:	81 e0       	ldi	r24, 0x01	; 1
    74a6:	0e 94 ee 0b 	call	0x17dc	; 0x17dc <rightDiafram>
    74aa:	36 c6       	rjmp	.+3180   	; 0x8118 <yellowSide+0x1a52>
    74ac:	fe 01       	movw	r30, r28
    74ae:	e0 50       	subi	r30, 0x00	; 0
    74b0:	ff 4f       	sbci	r31, 0xFF	; 255
    74b2:	80 81       	ld	r24, Z
    74b4:	87 30       	cpi	r24, 0x07	; 7
    74b6:	09 f0       	breq	.+2      	; 0x74ba <yellowSide+0xdf4>
    74b8:	ed c2       	rjmp	.+1498   	; 0x7a94 <yellowSide+0x13ce>
    74ba:	8f ef       	ldi	r24, 0xFF	; 255
    74bc:	0e 94 db 0a 	call	0x15b6	; 0x15b6 <leftDiafram>
    74c0:	fe 01       	movw	r30, r28
    74c2:	e7 57       	subi	r30, 0x77	; 119
    74c4:	ff 4f       	sbci	r31, 0xFF	; 255
    74c6:	80 e0       	ldi	r24, 0x00	; 0
    74c8:	90 e4       	ldi	r25, 0x40	; 64
    74ca:	ac e9       	ldi	r26, 0x9C	; 156
    74cc:	b5 e4       	ldi	r27, 0x45	; 69
    74ce:	80 83       	st	Z, r24
    74d0:	91 83       	std	Z+1, r25	; 0x01
    74d2:	a2 83       	std	Z+2, r26	; 0x02
    74d4:	b3 83       	std	Z+3, r27	; 0x03
    74d6:	8e 01       	movw	r16, r28
    74d8:	0b 57       	subi	r16, 0x7B	; 123
    74da:	1f 4f       	sbci	r17, 0xFF	; 255
    74dc:	fe 01       	movw	r30, r28
    74de:	e7 57       	subi	r30, 0x77	; 119
    74e0:	ff 4f       	sbci	r31, 0xFF	; 255
    74e2:	60 81       	ld	r22, Z
    74e4:	71 81       	ldd	r23, Z+1	; 0x01
    74e6:	82 81       	ldd	r24, Z+2	; 0x02
    74e8:	93 81       	ldd	r25, Z+3	; 0x03
    74ea:	20 e0       	ldi	r18, 0x00	; 0
    74ec:	30 e4       	ldi	r19, 0x40	; 64
    74ee:	4c e1       	ldi	r20, 0x1C	; 28
    74f0:	55 e4       	ldi	r21, 0x45	; 69
    74f2:	0e 94 90 42 	call	0x8520	; 0x8520 <__mulsf3>
    74f6:	dc 01       	movw	r26, r24
    74f8:	cb 01       	movw	r24, r22
    74fa:	f8 01       	movw	r30, r16
    74fc:	80 83       	st	Z, r24
    74fe:	91 83       	std	Z+1, r25	; 0x01
    7500:	a2 83       	std	Z+2, r26	; 0x02
    7502:	b3 83       	std	Z+3, r27	; 0x03
    7504:	fe 01       	movw	r30, r28
    7506:	eb 57       	subi	r30, 0x7B	; 123
    7508:	ff 4f       	sbci	r31, 0xFF	; 255
    750a:	60 81       	ld	r22, Z
    750c:	71 81       	ldd	r23, Z+1	; 0x01
    750e:	82 81       	ldd	r24, Z+2	; 0x02
    7510:	93 81       	ldd	r25, Z+3	; 0x03
    7512:	20 e0       	ldi	r18, 0x00	; 0
    7514:	30 e0       	ldi	r19, 0x00	; 0
    7516:	40 e8       	ldi	r20, 0x80	; 128
    7518:	5f e3       	ldi	r21, 0x3F	; 63
    751a:	76 d6       	rcall	.+3308   	; 0x8208 <__cmpsf2>
    751c:	88 23       	and	r24, r24
    751e:	44 f4       	brge	.+16     	; 0x7530 <yellowSide+0xe6a>
    7520:	fe 01       	movw	r30, r28
    7522:	ed 57       	subi	r30, 0x7D	; 125
    7524:	ff 4f       	sbci	r31, 0xFF	; 255
    7526:	81 e0       	ldi	r24, 0x01	; 1
    7528:	90 e0       	ldi	r25, 0x00	; 0
    752a:	91 83       	std	Z+1, r25	; 0x01
    752c:	80 83       	st	Z, r24
    752e:	60 c0       	rjmp	.+192    	; 0x75f0 <yellowSide+0xf2a>
    7530:	fe 01       	movw	r30, r28
    7532:	eb 57       	subi	r30, 0x7B	; 123
    7534:	ff 4f       	sbci	r31, 0xFF	; 255
    7536:	60 81       	ld	r22, Z
    7538:	71 81       	ldd	r23, Z+1	; 0x01
    753a:	82 81       	ldd	r24, Z+2	; 0x02
    753c:	93 81       	ldd	r25, Z+3	; 0x03
    753e:	20 e0       	ldi	r18, 0x00	; 0
    7540:	3f ef       	ldi	r19, 0xFF	; 255
    7542:	4f e7       	ldi	r20, 0x7F	; 127
    7544:	57 e4       	ldi	r21, 0x47	; 71
    7546:	e8 d7       	rcall	.+4048   	; 0x8518 <__gesf2>
    7548:	18 16       	cp	r1, r24
    754a:	0c f0       	brlt	.+2      	; 0x754e <yellowSide+0xe88>
    754c:	41 c0       	rjmp	.+130    	; 0x75d0 <yellowSide+0xf0a>
    754e:	fe 01       	movw	r30, r28
    7550:	e7 57       	subi	r30, 0x77	; 119
    7552:	ff 4f       	sbci	r31, 0xFF	; 255
    7554:	60 81       	ld	r22, Z
    7556:	71 81       	ldd	r23, Z+1	; 0x01
    7558:	82 81       	ldd	r24, Z+2	; 0x02
    755a:	93 81       	ldd	r25, Z+3	; 0x03
    755c:	20 e0       	ldi	r18, 0x00	; 0
    755e:	30 e0       	ldi	r19, 0x00	; 0
    7560:	40 e2       	ldi	r20, 0x20	; 32
    7562:	51 e4       	ldi	r21, 0x41	; 65
    7564:	dd d7       	rcall	.+4026   	; 0x8520 <__mulsf3>
    7566:	dc 01       	movw	r26, r24
    7568:	cb 01       	movw	r24, r22
    756a:	8e 01       	movw	r16, r28
    756c:	0d 57       	subi	r16, 0x7D	; 125
    756e:	1f 4f       	sbci	r17, 0xFF	; 255
    7570:	bc 01       	movw	r22, r24
    7572:	cd 01       	movw	r24, r26
    7574:	b5 d6       	rcall	.+3434   	; 0x82e0 <__fixunssfsi>
    7576:	dc 01       	movw	r26, r24
    7578:	cb 01       	movw	r24, r22
    757a:	f8 01       	movw	r30, r16
    757c:	91 83       	std	Z+1, r25	; 0x01
    757e:	80 83       	st	Z, r24
    7580:	1f c0       	rjmp	.+62     	; 0x75c0 <yellowSide+0xefa>
    7582:	fe 01       	movw	r30, r28
    7584:	ef 57       	subi	r30, 0x7F	; 127
    7586:	ff 4f       	sbci	r31, 0xFF	; 255
    7588:	8a ef       	ldi	r24, 0xFA	; 250
    758a:	90 e0       	ldi	r25, 0x00	; 0
    758c:	91 83       	std	Z+1, r25	; 0x01
    758e:	80 83       	st	Z, r24
    7590:	fe 01       	movw	r30, r28
    7592:	ef 57       	subi	r30, 0x7F	; 127
    7594:	ff 4f       	sbci	r31, 0xFF	; 255
    7596:	80 81       	ld	r24, Z
    7598:	91 81       	ldd	r25, Z+1	; 0x01
    759a:	01 97       	sbiw	r24, 0x01	; 1
    759c:	f1 f7       	brne	.-4      	; 0x759a <yellowSide+0xed4>
    759e:	fe 01       	movw	r30, r28
    75a0:	ef 57       	subi	r30, 0x7F	; 127
    75a2:	ff 4f       	sbci	r31, 0xFF	; 255
    75a4:	91 83       	std	Z+1, r25	; 0x01
    75a6:	80 83       	st	Z, r24
    75a8:	de 01       	movw	r26, r28
    75aa:	ad 57       	subi	r26, 0x7D	; 125
    75ac:	bf 4f       	sbci	r27, 0xFF	; 255
    75ae:	fe 01       	movw	r30, r28
    75b0:	ed 57       	subi	r30, 0x7D	; 125
    75b2:	ff 4f       	sbci	r31, 0xFF	; 255
    75b4:	80 81       	ld	r24, Z
    75b6:	91 81       	ldd	r25, Z+1	; 0x01
    75b8:	01 97       	sbiw	r24, 0x01	; 1
    75ba:	11 96       	adiw	r26, 0x01	; 1
    75bc:	9c 93       	st	X, r25
    75be:	8e 93       	st	-X, r24
    75c0:	fe 01       	movw	r30, r28
    75c2:	ed 57       	subi	r30, 0x7D	; 125
    75c4:	ff 4f       	sbci	r31, 0xFF	; 255
    75c6:	80 81       	ld	r24, Z
    75c8:	91 81       	ldd	r25, Z+1	; 0x01
    75ca:	00 97       	sbiw	r24, 0x00	; 0
    75cc:	d1 f6       	brne	.-76     	; 0x7582 <yellowSide+0xebc>
    75ce:	26 c0       	rjmp	.+76     	; 0x761c <yellowSide+0xf56>
    75d0:	8e 01       	movw	r16, r28
    75d2:	0d 57       	subi	r16, 0x7D	; 125
    75d4:	1f 4f       	sbci	r17, 0xFF	; 255
    75d6:	fe 01       	movw	r30, r28
    75d8:	eb 57       	subi	r30, 0x7B	; 123
    75da:	ff 4f       	sbci	r31, 0xFF	; 255
    75dc:	60 81       	ld	r22, Z
    75de:	71 81       	ldd	r23, Z+1	; 0x01
    75e0:	82 81       	ldd	r24, Z+2	; 0x02
    75e2:	93 81       	ldd	r25, Z+3	; 0x03
    75e4:	7d d6       	rcall	.+3322   	; 0x82e0 <__fixunssfsi>
    75e6:	dc 01       	movw	r26, r24
    75e8:	cb 01       	movw	r24, r22
    75ea:	f8 01       	movw	r30, r16
    75ec:	91 83       	std	Z+1, r25	; 0x01
    75ee:	80 83       	st	Z, r24
    75f0:	de 01       	movw	r26, r28
    75f2:	a1 58       	subi	r26, 0x81	; 129
    75f4:	bf 4f       	sbci	r27, 0xFF	; 255
    75f6:	fe 01       	movw	r30, r28
    75f8:	ed 57       	subi	r30, 0x7D	; 125
    75fa:	ff 4f       	sbci	r31, 0xFF	; 255
    75fc:	80 81       	ld	r24, Z
    75fe:	91 81       	ldd	r25, Z+1	; 0x01
    7600:	8d 93       	st	X+, r24
    7602:	9c 93       	st	X, r25
    7604:	fe 01       	movw	r30, r28
    7606:	e1 58       	subi	r30, 0x81	; 129
    7608:	ff 4f       	sbci	r31, 0xFF	; 255
    760a:	80 81       	ld	r24, Z
    760c:	91 81       	ldd	r25, Z+1	; 0x01
    760e:	01 97       	sbiw	r24, 0x01	; 1
    7610:	f1 f7       	brne	.-4      	; 0x760e <yellowSide+0xf48>
    7612:	fe 01       	movw	r30, r28
    7614:	e1 58       	subi	r30, 0x81	; 129
    7616:	ff 4f       	sbci	r31, 0xFF	; 255
    7618:	91 83       	std	Z+1, r25	; 0x01
    761a:	80 83       	st	Z, r24
    761c:	88 e3       	ldi	r24, 0x38	; 56
    761e:	9f ef       	ldi	r25, 0xFF	; 255
    7620:	62 e3       	ldi	r22, 0x32	; 50
    7622:	40 e0       	ldi	r20, 0x00	; 0
    7624:	50 e0       	ldi	r21, 0x00	; 0
    7626:	0e 94 cd 24 	call	0x499a	; 0x499a <moveOnDirection>
    762a:	81 e0       	ldi	r24, 0x01	; 1
    762c:	61 e0       	ldi	r22, 0x01	; 1
    762e:	0e 94 14 0e 	call	0x1c28	; 0x1c28 <liftMove>
    7632:	20 e3       	ldi	r18, 0x30	; 48
    7634:	33 e3       	ldi	r19, 0x33	; 51
    7636:	86 ea       	ldi	r24, 0xA6	; 166
    7638:	9f ef       	ldi	r25, 0xFF	; 255
    763a:	62 e3       	ldi	r22, 0x32	; 50
    763c:	a9 01       	movw	r20, r18
    763e:	0e 94 9a 2b 	call	0x5734	; 0x5734 <rotate>
    7642:	fe 01       	movw	r30, r28
    7644:	e5 58       	subi	r30, 0x85	; 133
    7646:	ff 4f       	sbci	r31, 0xFF	; 255
    7648:	80 e0       	ldi	r24, 0x00	; 0
    764a:	90 e0       	ldi	r25, 0x00	; 0
    764c:	a8 e4       	ldi	r26, 0x48	; 72
    764e:	b2 e4       	ldi	r27, 0x42	; 66
    7650:	80 83       	st	Z, r24
    7652:	91 83       	std	Z+1, r25	; 0x01
    7654:	a2 83       	std	Z+2, r26	; 0x02
    7656:	b3 83       	std	Z+3, r27	; 0x03
    7658:	8e 01       	movw	r16, r28
    765a:	09 58       	subi	r16, 0x89	; 137
    765c:	1f 4f       	sbci	r17, 0xFF	; 255
    765e:	fe 01       	movw	r30, r28
    7660:	e5 58       	subi	r30, 0x85	; 133
    7662:	ff 4f       	sbci	r31, 0xFF	; 255
    7664:	60 81       	ld	r22, Z
    7666:	71 81       	ldd	r23, Z+1	; 0x01
    7668:	82 81       	ldd	r24, Z+2	; 0x02
    766a:	93 81       	ldd	r25, Z+3	; 0x03
    766c:	20 e0       	ldi	r18, 0x00	; 0
    766e:	30 e4       	ldi	r19, 0x40	; 64
    7670:	4c e1       	ldi	r20, 0x1C	; 28
    7672:	55 e4       	ldi	r21, 0x45	; 69
    7674:	55 d7       	rcall	.+3754   	; 0x8520 <__mulsf3>
    7676:	dc 01       	movw	r26, r24
    7678:	cb 01       	movw	r24, r22
    767a:	f8 01       	movw	r30, r16
    767c:	80 83       	st	Z, r24
    767e:	91 83       	std	Z+1, r25	; 0x01
    7680:	a2 83       	std	Z+2, r26	; 0x02
    7682:	b3 83       	std	Z+3, r27	; 0x03
    7684:	fe 01       	movw	r30, r28
    7686:	e9 58       	subi	r30, 0x89	; 137
    7688:	ff 4f       	sbci	r31, 0xFF	; 255
    768a:	60 81       	ld	r22, Z
    768c:	71 81       	ldd	r23, Z+1	; 0x01
    768e:	82 81       	ldd	r24, Z+2	; 0x02
    7690:	93 81       	ldd	r25, Z+3	; 0x03
    7692:	20 e0       	ldi	r18, 0x00	; 0
    7694:	30 e0       	ldi	r19, 0x00	; 0
    7696:	40 e8       	ldi	r20, 0x80	; 128
    7698:	5f e3       	ldi	r21, 0x3F	; 63
    769a:	b6 d5       	rcall	.+2924   	; 0x8208 <__cmpsf2>
    769c:	88 23       	and	r24, r24
    769e:	44 f4       	brge	.+16     	; 0x76b0 <yellowSide+0xfea>
    76a0:	fe 01       	movw	r30, r28
    76a2:	eb 58       	subi	r30, 0x8B	; 139
    76a4:	ff 4f       	sbci	r31, 0xFF	; 255
    76a6:	81 e0       	ldi	r24, 0x01	; 1
    76a8:	90 e0       	ldi	r25, 0x00	; 0
    76aa:	91 83       	std	Z+1, r25	; 0x01
    76ac:	80 83       	st	Z, r24
    76ae:	60 c0       	rjmp	.+192    	; 0x7770 <yellowSide+0x10aa>
    76b0:	fe 01       	movw	r30, r28
    76b2:	e9 58       	subi	r30, 0x89	; 137
    76b4:	ff 4f       	sbci	r31, 0xFF	; 255
    76b6:	60 81       	ld	r22, Z
    76b8:	71 81       	ldd	r23, Z+1	; 0x01
    76ba:	82 81       	ldd	r24, Z+2	; 0x02
    76bc:	93 81       	ldd	r25, Z+3	; 0x03
    76be:	20 e0       	ldi	r18, 0x00	; 0
    76c0:	3f ef       	ldi	r19, 0xFF	; 255
    76c2:	4f e7       	ldi	r20, 0x7F	; 127
    76c4:	57 e4       	ldi	r21, 0x47	; 71
    76c6:	28 d7       	rcall	.+3664   	; 0x8518 <__gesf2>
    76c8:	18 16       	cp	r1, r24
    76ca:	0c f0       	brlt	.+2      	; 0x76ce <yellowSide+0x1008>
    76cc:	41 c0       	rjmp	.+130    	; 0x7750 <yellowSide+0x108a>
    76ce:	fe 01       	movw	r30, r28
    76d0:	e5 58       	subi	r30, 0x85	; 133
    76d2:	ff 4f       	sbci	r31, 0xFF	; 255
    76d4:	60 81       	ld	r22, Z
    76d6:	71 81       	ldd	r23, Z+1	; 0x01
    76d8:	82 81       	ldd	r24, Z+2	; 0x02
    76da:	93 81       	ldd	r25, Z+3	; 0x03
    76dc:	20 e0       	ldi	r18, 0x00	; 0
    76de:	30 e0       	ldi	r19, 0x00	; 0
    76e0:	40 e2       	ldi	r20, 0x20	; 32
    76e2:	51 e4       	ldi	r21, 0x41	; 65
    76e4:	1d d7       	rcall	.+3642   	; 0x8520 <__mulsf3>
    76e6:	dc 01       	movw	r26, r24
    76e8:	cb 01       	movw	r24, r22
    76ea:	8e 01       	movw	r16, r28
    76ec:	0b 58       	subi	r16, 0x8B	; 139
    76ee:	1f 4f       	sbci	r17, 0xFF	; 255
    76f0:	bc 01       	movw	r22, r24
    76f2:	cd 01       	movw	r24, r26
    76f4:	f5 d5       	rcall	.+3050   	; 0x82e0 <__fixunssfsi>
    76f6:	dc 01       	movw	r26, r24
    76f8:	cb 01       	movw	r24, r22
    76fa:	f8 01       	movw	r30, r16
    76fc:	91 83       	std	Z+1, r25	; 0x01
    76fe:	80 83       	st	Z, r24
    7700:	1f c0       	rjmp	.+62     	; 0x7740 <yellowSide+0x107a>
    7702:	fe 01       	movw	r30, r28
    7704:	ed 58       	subi	r30, 0x8D	; 141
    7706:	ff 4f       	sbci	r31, 0xFF	; 255
    7708:	8a ef       	ldi	r24, 0xFA	; 250
    770a:	90 e0       	ldi	r25, 0x00	; 0
    770c:	91 83       	std	Z+1, r25	; 0x01
    770e:	80 83       	st	Z, r24
    7710:	fe 01       	movw	r30, r28
    7712:	ed 58       	subi	r30, 0x8D	; 141
    7714:	ff 4f       	sbci	r31, 0xFF	; 255
    7716:	80 81       	ld	r24, Z
    7718:	91 81       	ldd	r25, Z+1	; 0x01
    771a:	01 97       	sbiw	r24, 0x01	; 1
    771c:	f1 f7       	brne	.-4      	; 0x771a <yellowSide+0x1054>
    771e:	fe 01       	movw	r30, r28
    7720:	ed 58       	subi	r30, 0x8D	; 141
    7722:	ff 4f       	sbci	r31, 0xFF	; 255
    7724:	91 83       	std	Z+1, r25	; 0x01
    7726:	80 83       	st	Z, r24
    7728:	de 01       	movw	r26, r28
    772a:	ab 58       	subi	r26, 0x8B	; 139
    772c:	bf 4f       	sbci	r27, 0xFF	; 255
    772e:	fe 01       	movw	r30, r28
    7730:	eb 58       	subi	r30, 0x8B	; 139
    7732:	ff 4f       	sbci	r31, 0xFF	; 255
    7734:	80 81       	ld	r24, Z
    7736:	91 81       	ldd	r25, Z+1	; 0x01
    7738:	01 97       	sbiw	r24, 0x01	; 1
    773a:	11 96       	adiw	r26, 0x01	; 1
    773c:	9c 93       	st	X, r25
    773e:	8e 93       	st	-X, r24
    7740:	fe 01       	movw	r30, r28
    7742:	eb 58       	subi	r30, 0x8B	; 139
    7744:	ff 4f       	sbci	r31, 0xFF	; 255
    7746:	80 81       	ld	r24, Z
    7748:	91 81       	ldd	r25, Z+1	; 0x01
    774a:	00 97       	sbiw	r24, 0x00	; 0
    774c:	d1 f6       	brne	.-76     	; 0x7702 <yellowSide+0x103c>
    774e:	26 c0       	rjmp	.+76     	; 0x779c <yellowSide+0x10d6>
    7750:	8e 01       	movw	r16, r28
    7752:	0b 58       	subi	r16, 0x8B	; 139
    7754:	1f 4f       	sbci	r17, 0xFF	; 255
    7756:	fe 01       	movw	r30, r28
    7758:	e9 58       	subi	r30, 0x89	; 137
    775a:	ff 4f       	sbci	r31, 0xFF	; 255
    775c:	60 81       	ld	r22, Z
    775e:	71 81       	ldd	r23, Z+1	; 0x01
    7760:	82 81       	ldd	r24, Z+2	; 0x02
    7762:	93 81       	ldd	r25, Z+3	; 0x03
    7764:	bd d5       	rcall	.+2938   	; 0x82e0 <__fixunssfsi>
    7766:	dc 01       	movw	r26, r24
    7768:	cb 01       	movw	r24, r22
    776a:	f8 01       	movw	r30, r16
    776c:	91 83       	std	Z+1, r25	; 0x01
    776e:	80 83       	st	Z, r24
    7770:	de 01       	movw	r26, r28
    7772:	af 58       	subi	r26, 0x8F	; 143
    7774:	bf 4f       	sbci	r27, 0xFF	; 255
    7776:	fe 01       	movw	r30, r28
    7778:	eb 58       	subi	r30, 0x8B	; 139
    777a:	ff 4f       	sbci	r31, 0xFF	; 255
    777c:	80 81       	ld	r24, Z
    777e:	91 81       	ldd	r25, Z+1	; 0x01
    7780:	8d 93       	st	X+, r24
    7782:	9c 93       	st	X, r25
    7784:	fe 01       	movw	r30, r28
    7786:	ef 58       	subi	r30, 0x8F	; 143
    7788:	ff 4f       	sbci	r31, 0xFF	; 255
    778a:	80 81       	ld	r24, Z
    778c:	91 81       	ldd	r25, Z+1	; 0x01
    778e:	01 97       	sbiw	r24, 0x01	; 1
    7790:	f1 f7       	brne	.-4      	; 0x778e <yellowSide+0x10c8>
    7792:	fe 01       	movw	r30, r28
    7794:	ef 58       	subi	r30, 0x8F	; 143
    7796:	ff 4f       	sbci	r31, 0xFF	; 255
    7798:	91 83       	std	Z+1, r25	; 0x01
    779a:	80 83       	st	Z, r24
    779c:	84 e6       	ldi	r24, 0x64	; 100
    779e:	90 e0       	ldi	r25, 0x00	; 0
    77a0:	62 e3       	ldi	r22, 0x32	; 50
    77a2:	40 e0       	ldi	r20, 0x00	; 0
    77a4:	50 e0       	ldi	r21, 0x00	; 0
    77a6:	0e 94 cd 24 	call	0x499a	; 0x499a <moveOnDirection>
    77aa:	fe 01       	movw	r30, r28
    77ac:	e3 59       	subi	r30, 0x93	; 147
    77ae:	ff 4f       	sbci	r31, 0xFF	; 255
    77b0:	80 e0       	ldi	r24, 0x00	; 0
    77b2:	90 e0       	ldi	r25, 0x00	; 0
    77b4:	a8 ec       	ldi	r26, 0xC8	; 200
    77b6:	b2 e4       	ldi	r27, 0x42	; 66
    77b8:	80 83       	st	Z, r24
    77ba:	91 83       	std	Z+1, r25	; 0x01
    77bc:	a2 83       	std	Z+2, r26	; 0x02
    77be:	b3 83       	std	Z+3, r27	; 0x03
    77c0:	8e 01       	movw	r16, r28
    77c2:	07 59       	subi	r16, 0x97	; 151
    77c4:	1f 4f       	sbci	r17, 0xFF	; 255
    77c6:	fe 01       	movw	r30, r28
    77c8:	e3 59       	subi	r30, 0x93	; 147
    77ca:	ff 4f       	sbci	r31, 0xFF	; 255
    77cc:	60 81       	ld	r22, Z
    77ce:	71 81       	ldd	r23, Z+1	; 0x01
    77d0:	82 81       	ldd	r24, Z+2	; 0x02
    77d2:	93 81       	ldd	r25, Z+3	; 0x03
    77d4:	20 e0       	ldi	r18, 0x00	; 0
    77d6:	30 e4       	ldi	r19, 0x40	; 64
    77d8:	4c e1       	ldi	r20, 0x1C	; 28
    77da:	55 e4       	ldi	r21, 0x45	; 69
    77dc:	a1 d6       	rcall	.+3394   	; 0x8520 <__mulsf3>
    77de:	dc 01       	movw	r26, r24
    77e0:	cb 01       	movw	r24, r22
    77e2:	f8 01       	movw	r30, r16
    77e4:	80 83       	st	Z, r24
    77e6:	91 83       	std	Z+1, r25	; 0x01
    77e8:	a2 83       	std	Z+2, r26	; 0x02
    77ea:	b3 83       	std	Z+3, r27	; 0x03
    77ec:	fe 01       	movw	r30, r28
    77ee:	e7 59       	subi	r30, 0x97	; 151
    77f0:	ff 4f       	sbci	r31, 0xFF	; 255
    77f2:	60 81       	ld	r22, Z
    77f4:	71 81       	ldd	r23, Z+1	; 0x01
    77f6:	82 81       	ldd	r24, Z+2	; 0x02
    77f8:	93 81       	ldd	r25, Z+3	; 0x03
    77fa:	20 e0       	ldi	r18, 0x00	; 0
    77fc:	30 e0       	ldi	r19, 0x00	; 0
    77fe:	40 e8       	ldi	r20, 0x80	; 128
    7800:	5f e3       	ldi	r21, 0x3F	; 63
    7802:	02 d5       	rcall	.+2564   	; 0x8208 <__cmpsf2>
    7804:	88 23       	and	r24, r24
    7806:	44 f4       	brge	.+16     	; 0x7818 <yellowSide+0x1152>
    7808:	fe 01       	movw	r30, r28
    780a:	e9 59       	subi	r30, 0x99	; 153
    780c:	ff 4f       	sbci	r31, 0xFF	; 255
    780e:	81 e0       	ldi	r24, 0x01	; 1
    7810:	90 e0       	ldi	r25, 0x00	; 0
    7812:	91 83       	std	Z+1, r25	; 0x01
    7814:	80 83       	st	Z, r24
    7816:	60 c0       	rjmp	.+192    	; 0x78d8 <yellowSide+0x1212>
    7818:	fe 01       	movw	r30, r28
    781a:	e7 59       	subi	r30, 0x97	; 151
    781c:	ff 4f       	sbci	r31, 0xFF	; 255
    781e:	60 81       	ld	r22, Z
    7820:	71 81       	ldd	r23, Z+1	; 0x01
    7822:	82 81       	ldd	r24, Z+2	; 0x02
    7824:	93 81       	ldd	r25, Z+3	; 0x03
    7826:	20 e0       	ldi	r18, 0x00	; 0
    7828:	3f ef       	ldi	r19, 0xFF	; 255
    782a:	4f e7       	ldi	r20, 0x7F	; 127
    782c:	57 e4       	ldi	r21, 0x47	; 71
    782e:	74 d6       	rcall	.+3304   	; 0x8518 <__gesf2>
    7830:	18 16       	cp	r1, r24
    7832:	0c f0       	brlt	.+2      	; 0x7836 <yellowSide+0x1170>
    7834:	41 c0       	rjmp	.+130    	; 0x78b8 <yellowSide+0x11f2>
    7836:	fe 01       	movw	r30, r28
    7838:	e3 59       	subi	r30, 0x93	; 147
    783a:	ff 4f       	sbci	r31, 0xFF	; 255
    783c:	60 81       	ld	r22, Z
    783e:	71 81       	ldd	r23, Z+1	; 0x01
    7840:	82 81       	ldd	r24, Z+2	; 0x02
    7842:	93 81       	ldd	r25, Z+3	; 0x03
    7844:	20 e0       	ldi	r18, 0x00	; 0
    7846:	30 e0       	ldi	r19, 0x00	; 0
    7848:	40 e2       	ldi	r20, 0x20	; 32
    784a:	51 e4       	ldi	r21, 0x41	; 65
    784c:	69 d6       	rcall	.+3282   	; 0x8520 <__mulsf3>
    784e:	dc 01       	movw	r26, r24
    7850:	cb 01       	movw	r24, r22
    7852:	8e 01       	movw	r16, r28
    7854:	09 59       	subi	r16, 0x99	; 153
    7856:	1f 4f       	sbci	r17, 0xFF	; 255
    7858:	bc 01       	movw	r22, r24
    785a:	cd 01       	movw	r24, r26
    785c:	41 d5       	rcall	.+2690   	; 0x82e0 <__fixunssfsi>
    785e:	dc 01       	movw	r26, r24
    7860:	cb 01       	movw	r24, r22
    7862:	f8 01       	movw	r30, r16
    7864:	91 83       	std	Z+1, r25	; 0x01
    7866:	80 83       	st	Z, r24
    7868:	1f c0       	rjmp	.+62     	; 0x78a8 <yellowSide+0x11e2>
    786a:	fe 01       	movw	r30, r28
    786c:	eb 59       	subi	r30, 0x9B	; 155
    786e:	ff 4f       	sbci	r31, 0xFF	; 255
    7870:	8a ef       	ldi	r24, 0xFA	; 250
    7872:	90 e0       	ldi	r25, 0x00	; 0
    7874:	91 83       	std	Z+1, r25	; 0x01
    7876:	80 83       	st	Z, r24
    7878:	fe 01       	movw	r30, r28
    787a:	eb 59       	subi	r30, 0x9B	; 155
    787c:	ff 4f       	sbci	r31, 0xFF	; 255
    787e:	80 81       	ld	r24, Z
    7880:	91 81       	ldd	r25, Z+1	; 0x01
    7882:	01 97       	sbiw	r24, 0x01	; 1
    7884:	f1 f7       	brne	.-4      	; 0x7882 <yellowSide+0x11bc>
    7886:	fe 01       	movw	r30, r28
    7888:	eb 59       	subi	r30, 0x9B	; 155
    788a:	ff 4f       	sbci	r31, 0xFF	; 255
    788c:	91 83       	std	Z+1, r25	; 0x01
    788e:	80 83       	st	Z, r24
    7890:	de 01       	movw	r26, r28
    7892:	a9 59       	subi	r26, 0x99	; 153
    7894:	bf 4f       	sbci	r27, 0xFF	; 255
    7896:	fe 01       	movw	r30, r28
    7898:	e9 59       	subi	r30, 0x99	; 153
    789a:	ff 4f       	sbci	r31, 0xFF	; 255
    789c:	80 81       	ld	r24, Z
    789e:	91 81       	ldd	r25, Z+1	; 0x01
    78a0:	01 97       	sbiw	r24, 0x01	; 1
    78a2:	11 96       	adiw	r26, 0x01	; 1
    78a4:	9c 93       	st	X, r25
    78a6:	8e 93       	st	-X, r24
    78a8:	fe 01       	movw	r30, r28
    78aa:	e9 59       	subi	r30, 0x99	; 153
    78ac:	ff 4f       	sbci	r31, 0xFF	; 255
    78ae:	80 81       	ld	r24, Z
    78b0:	91 81       	ldd	r25, Z+1	; 0x01
    78b2:	00 97       	sbiw	r24, 0x00	; 0
    78b4:	d1 f6       	brne	.-76     	; 0x786a <yellowSide+0x11a4>
    78b6:	26 c0       	rjmp	.+76     	; 0x7904 <yellowSide+0x123e>
    78b8:	8e 01       	movw	r16, r28
    78ba:	09 59       	subi	r16, 0x99	; 153
    78bc:	1f 4f       	sbci	r17, 0xFF	; 255
    78be:	fe 01       	movw	r30, r28
    78c0:	e7 59       	subi	r30, 0x97	; 151
    78c2:	ff 4f       	sbci	r31, 0xFF	; 255
    78c4:	60 81       	ld	r22, Z
    78c6:	71 81       	ldd	r23, Z+1	; 0x01
    78c8:	82 81       	ldd	r24, Z+2	; 0x02
    78ca:	93 81       	ldd	r25, Z+3	; 0x03
    78cc:	09 d5       	rcall	.+2578   	; 0x82e0 <__fixunssfsi>
    78ce:	dc 01       	movw	r26, r24
    78d0:	cb 01       	movw	r24, r22
    78d2:	f8 01       	movw	r30, r16
    78d4:	91 83       	std	Z+1, r25	; 0x01
    78d6:	80 83       	st	Z, r24
    78d8:	de 01       	movw	r26, r28
    78da:	ad 59       	subi	r26, 0x9D	; 157
    78dc:	bf 4f       	sbci	r27, 0xFF	; 255
    78de:	fe 01       	movw	r30, r28
    78e0:	e9 59       	subi	r30, 0x99	; 153
    78e2:	ff 4f       	sbci	r31, 0xFF	; 255
    78e4:	80 81       	ld	r24, Z
    78e6:	91 81       	ldd	r25, Z+1	; 0x01
    78e8:	8d 93       	st	X+, r24
    78ea:	9c 93       	st	X, r25
    78ec:	fe 01       	movw	r30, r28
    78ee:	ed 59       	subi	r30, 0x9D	; 157
    78f0:	ff 4f       	sbci	r31, 0xFF	; 255
    78f2:	80 81       	ld	r24, Z
    78f4:	91 81       	ldd	r25, Z+1	; 0x01
    78f6:	01 97       	sbiw	r24, 0x01	; 1
    78f8:	f1 f7       	brne	.-4      	; 0x78f6 <yellowSide+0x1230>
    78fa:	fe 01       	movw	r30, r28
    78fc:	ed 59       	subi	r30, 0x9D	; 157
    78fe:	ff 4f       	sbci	r31, 0xFF	; 255
    7900:	91 83       	std	Z+1, r25	; 0x01
    7902:	80 83       	st	Z, r24
    7904:	81 e0       	ldi	r24, 0x01	; 1
    7906:	61 e0       	ldi	r22, 0x01	; 1
    7908:	0e 94 01 08 	call	0x1002	; 0x1002 <colectThePopcorn>
    790c:	fe 01       	movw	r30, r28
    790e:	e1 5a       	subi	r30, 0xA1	; 161
    7910:	ff 4f       	sbci	r31, 0xFF	; 255
    7912:	80 e0       	ldi	r24, 0x00	; 0
    7914:	90 e0       	ldi	r25, 0x00	; 0
    7916:	a8 ec       	ldi	r26, 0xC8	; 200
    7918:	b2 e4       	ldi	r27, 0x42	; 66
    791a:	80 83       	st	Z, r24
    791c:	91 83       	std	Z+1, r25	; 0x01
    791e:	a2 83       	std	Z+2, r26	; 0x02
    7920:	b3 83       	std	Z+3, r27	; 0x03
    7922:	8e 01       	movw	r16, r28
    7924:	05 5a       	subi	r16, 0xA5	; 165
    7926:	1f 4f       	sbci	r17, 0xFF	; 255
    7928:	fe 01       	movw	r30, r28
    792a:	e1 5a       	subi	r30, 0xA1	; 161
    792c:	ff 4f       	sbci	r31, 0xFF	; 255
    792e:	60 81       	ld	r22, Z
    7930:	71 81       	ldd	r23, Z+1	; 0x01
    7932:	82 81       	ldd	r24, Z+2	; 0x02
    7934:	93 81       	ldd	r25, Z+3	; 0x03
    7936:	20 e0       	ldi	r18, 0x00	; 0
    7938:	30 e4       	ldi	r19, 0x40	; 64
    793a:	4c e1       	ldi	r20, 0x1C	; 28
    793c:	55 e4       	ldi	r21, 0x45	; 69
    793e:	f0 d5       	rcall	.+3040   	; 0x8520 <__mulsf3>
    7940:	dc 01       	movw	r26, r24
    7942:	cb 01       	movw	r24, r22
    7944:	f8 01       	movw	r30, r16
    7946:	80 83       	st	Z, r24
    7948:	91 83       	std	Z+1, r25	; 0x01
    794a:	a2 83       	std	Z+2, r26	; 0x02
    794c:	b3 83       	std	Z+3, r27	; 0x03
    794e:	fe 01       	movw	r30, r28
    7950:	e5 5a       	subi	r30, 0xA5	; 165
    7952:	ff 4f       	sbci	r31, 0xFF	; 255
    7954:	60 81       	ld	r22, Z
    7956:	71 81       	ldd	r23, Z+1	; 0x01
    7958:	82 81       	ldd	r24, Z+2	; 0x02
    795a:	93 81       	ldd	r25, Z+3	; 0x03
    795c:	20 e0       	ldi	r18, 0x00	; 0
    795e:	30 e0       	ldi	r19, 0x00	; 0
    7960:	40 e8       	ldi	r20, 0x80	; 128
    7962:	5f e3       	ldi	r21, 0x3F	; 63
    7964:	51 d4       	rcall	.+2210   	; 0x8208 <__cmpsf2>
    7966:	88 23       	and	r24, r24
    7968:	44 f4       	brge	.+16     	; 0x797a <yellowSide+0x12b4>
    796a:	fe 01       	movw	r30, r28
    796c:	e7 5a       	subi	r30, 0xA7	; 167
    796e:	ff 4f       	sbci	r31, 0xFF	; 255
    7970:	81 e0       	ldi	r24, 0x01	; 1
    7972:	90 e0       	ldi	r25, 0x00	; 0
    7974:	91 83       	std	Z+1, r25	; 0x01
    7976:	80 83       	st	Z, r24
    7978:	60 c0       	rjmp	.+192    	; 0x7a3a <yellowSide+0x1374>
    797a:	fe 01       	movw	r30, r28
    797c:	e5 5a       	subi	r30, 0xA5	; 165
    797e:	ff 4f       	sbci	r31, 0xFF	; 255
    7980:	60 81       	ld	r22, Z
    7982:	71 81       	ldd	r23, Z+1	; 0x01
    7984:	82 81       	ldd	r24, Z+2	; 0x02
    7986:	93 81       	ldd	r25, Z+3	; 0x03
    7988:	20 e0       	ldi	r18, 0x00	; 0
    798a:	3f ef       	ldi	r19, 0xFF	; 255
    798c:	4f e7       	ldi	r20, 0x7F	; 127
    798e:	57 e4       	ldi	r21, 0x47	; 71
    7990:	c3 d5       	rcall	.+2950   	; 0x8518 <__gesf2>
    7992:	18 16       	cp	r1, r24
    7994:	0c f0       	brlt	.+2      	; 0x7998 <yellowSide+0x12d2>
    7996:	41 c0       	rjmp	.+130    	; 0x7a1a <yellowSide+0x1354>
    7998:	fe 01       	movw	r30, r28
    799a:	e1 5a       	subi	r30, 0xA1	; 161
    799c:	ff 4f       	sbci	r31, 0xFF	; 255
    799e:	60 81       	ld	r22, Z
    79a0:	71 81       	ldd	r23, Z+1	; 0x01
    79a2:	82 81       	ldd	r24, Z+2	; 0x02
    79a4:	93 81       	ldd	r25, Z+3	; 0x03
    79a6:	20 e0       	ldi	r18, 0x00	; 0
    79a8:	30 e0       	ldi	r19, 0x00	; 0
    79aa:	40 e2       	ldi	r20, 0x20	; 32
    79ac:	51 e4       	ldi	r21, 0x41	; 65
    79ae:	b8 d5       	rcall	.+2928   	; 0x8520 <__mulsf3>
    79b0:	dc 01       	movw	r26, r24
    79b2:	cb 01       	movw	r24, r22
    79b4:	8e 01       	movw	r16, r28
    79b6:	07 5a       	subi	r16, 0xA7	; 167
    79b8:	1f 4f       	sbci	r17, 0xFF	; 255
    79ba:	bc 01       	movw	r22, r24
    79bc:	cd 01       	movw	r24, r26
    79be:	90 d4       	rcall	.+2336   	; 0x82e0 <__fixunssfsi>
    79c0:	dc 01       	movw	r26, r24
    79c2:	cb 01       	movw	r24, r22
    79c4:	f8 01       	movw	r30, r16
    79c6:	91 83       	std	Z+1, r25	; 0x01
    79c8:	80 83       	st	Z, r24
    79ca:	1f c0       	rjmp	.+62     	; 0x7a0a <yellowSide+0x1344>
    79cc:	fe 01       	movw	r30, r28
    79ce:	e9 5a       	subi	r30, 0xA9	; 169
    79d0:	ff 4f       	sbci	r31, 0xFF	; 255
    79d2:	8a ef       	ldi	r24, 0xFA	; 250
    79d4:	90 e0       	ldi	r25, 0x00	; 0
    79d6:	91 83       	std	Z+1, r25	; 0x01
    79d8:	80 83       	st	Z, r24
    79da:	fe 01       	movw	r30, r28
    79dc:	e9 5a       	subi	r30, 0xA9	; 169
    79de:	ff 4f       	sbci	r31, 0xFF	; 255
    79e0:	80 81       	ld	r24, Z
    79e2:	91 81       	ldd	r25, Z+1	; 0x01
    79e4:	01 97       	sbiw	r24, 0x01	; 1
    79e6:	f1 f7       	brne	.-4      	; 0x79e4 <yellowSide+0x131e>
    79e8:	fe 01       	movw	r30, r28
    79ea:	e9 5a       	subi	r30, 0xA9	; 169
    79ec:	ff 4f       	sbci	r31, 0xFF	; 255
    79ee:	91 83       	std	Z+1, r25	; 0x01
    79f0:	80 83       	st	Z, r24
    79f2:	de 01       	movw	r26, r28
    79f4:	a7 5a       	subi	r26, 0xA7	; 167
    79f6:	bf 4f       	sbci	r27, 0xFF	; 255
    79f8:	fe 01       	movw	r30, r28
    79fa:	e7 5a       	subi	r30, 0xA7	; 167
    79fc:	ff 4f       	sbci	r31, 0xFF	; 255
    79fe:	80 81       	ld	r24, Z
    7a00:	91 81       	ldd	r25, Z+1	; 0x01
    7a02:	01 97       	sbiw	r24, 0x01	; 1
    7a04:	11 96       	adiw	r26, 0x01	; 1
    7a06:	9c 93       	st	X, r25
    7a08:	8e 93       	st	-X, r24
    7a0a:	fe 01       	movw	r30, r28
    7a0c:	e7 5a       	subi	r30, 0xA7	; 167
    7a0e:	ff 4f       	sbci	r31, 0xFF	; 255
    7a10:	80 81       	ld	r24, Z
    7a12:	91 81       	ldd	r25, Z+1	; 0x01
    7a14:	00 97       	sbiw	r24, 0x00	; 0
    7a16:	d1 f6       	brne	.-76     	; 0x79cc <yellowSide+0x1306>
    7a18:	26 c0       	rjmp	.+76     	; 0x7a66 <yellowSide+0x13a0>
    7a1a:	8e 01       	movw	r16, r28
    7a1c:	07 5a       	subi	r16, 0xA7	; 167
    7a1e:	1f 4f       	sbci	r17, 0xFF	; 255
    7a20:	fe 01       	movw	r30, r28
    7a22:	e5 5a       	subi	r30, 0xA5	; 165
    7a24:	ff 4f       	sbci	r31, 0xFF	; 255
    7a26:	60 81       	ld	r22, Z
    7a28:	71 81       	ldd	r23, Z+1	; 0x01
    7a2a:	82 81       	ldd	r24, Z+2	; 0x02
    7a2c:	93 81       	ldd	r25, Z+3	; 0x03
    7a2e:	58 d4       	rcall	.+2224   	; 0x82e0 <__fixunssfsi>
    7a30:	dc 01       	movw	r26, r24
    7a32:	cb 01       	movw	r24, r22
    7a34:	f8 01       	movw	r30, r16
    7a36:	91 83       	std	Z+1, r25	; 0x01
    7a38:	80 83       	st	Z, r24
    7a3a:	de 01       	movw	r26, r28
    7a3c:	ab 5a       	subi	r26, 0xAB	; 171
    7a3e:	bf 4f       	sbci	r27, 0xFF	; 255
    7a40:	fe 01       	movw	r30, r28
    7a42:	e7 5a       	subi	r30, 0xA7	; 167
    7a44:	ff 4f       	sbci	r31, 0xFF	; 255
    7a46:	80 81       	ld	r24, Z
    7a48:	91 81       	ldd	r25, Z+1	; 0x01
    7a4a:	8d 93       	st	X+, r24
    7a4c:	9c 93       	st	X, r25
    7a4e:	fe 01       	movw	r30, r28
    7a50:	eb 5a       	subi	r30, 0xAB	; 171
    7a52:	ff 4f       	sbci	r31, 0xFF	; 255
    7a54:	80 81       	ld	r24, Z
    7a56:	91 81       	ldd	r25, Z+1	; 0x01
    7a58:	01 97       	sbiw	r24, 0x01	; 1
    7a5a:	f1 f7       	brne	.-4      	; 0x7a58 <yellowSide+0x1392>
    7a5c:	fe 01       	movw	r30, r28
    7a5e:	eb 5a       	subi	r30, 0xAB	; 171
    7a60:	ff 4f       	sbci	r31, 0xFF	; 255
    7a62:	91 83       	std	Z+1, r25	; 0x01
    7a64:	80 83       	st	Z, r24
    7a66:	8a e1       	ldi	r24, 0x1A	; 26
    7a68:	9f ef       	ldi	r25, 0xFF	; 255
    7a6a:	66 e9       	ldi	r22, 0x96	; 150
    7a6c:	40 e0       	ldi	r20, 0x00	; 0
    7a6e:	50 e0       	ldi	r21, 0x00	; 0
    7a70:	0e 94 cd 24 	call	0x499a	; 0x499a <moveOnDirection>
    7a74:	81 e0       	ldi	r24, 0x01	; 1
    7a76:	62 e0       	ldi	r22, 0x02	; 2
    7a78:	0e 94 01 08 	call	0x1002	; 0x1002 <colectThePopcorn>
    7a7c:	81 e0       	ldi	r24, 0x01	; 1
    7a7e:	61 e0       	ldi	r22, 0x01	; 1
    7a80:	0e 94 14 0e 	call	0x1c28	; 0x1c28 <liftMove>
    7a84:	84 eb       	ldi	r24, 0xB4	; 180
    7a86:	90 e0       	ldi	r25, 0x00	; 0
    7a88:	66 e9       	ldi	r22, 0x96	; 150
    7a8a:	40 e0       	ldi	r20, 0x00	; 0
    7a8c:	50 e0       	ldi	r21, 0x00	; 0
    7a8e:	0e 94 9a 2b 	call	0x5734	; 0x5734 <rotate>
    7a92:	42 c3       	rjmp	.+1668   	; 0x8118 <yellowSide+0x1a52>
    7a94:	fe 01       	movw	r30, r28
    7a96:	e0 50       	subi	r30, 0x00	; 0
    7a98:	ff 4f       	sbci	r31, 0xFF	; 255
    7a9a:	80 81       	ld	r24, Z
    7a9c:	88 30       	cpi	r24, 0x08	; 8
    7a9e:	09 f0       	breq	.+2      	; 0x7aa2 <yellowSide+0x13dc>
    7aa0:	22 c2       	rjmp	.+1092   	; 0x7ee6 <yellowSide+0x1820>
    7aa2:	8f ef       	ldi	r24, 0xFF	; 255
    7aa4:	61 e0       	ldi	r22, 0x01	; 1
    7aa6:	0e 94 14 0e 	call	0x1c28	; 0x1c28 <liftMove>
    7aaa:	fe 01       	movw	r30, r28
    7aac:	ef 5a       	subi	r30, 0xAF	; 175
    7aae:	ff 4f       	sbci	r31, 0xFF	; 255
    7ab0:	80 e0       	ldi	r24, 0x00	; 0
    7ab2:	90 e0       	ldi	r25, 0x00	; 0
    7ab4:	aa ef       	ldi	r26, 0xFA	; 250
    7ab6:	b3 e4       	ldi	r27, 0x43	; 67
    7ab8:	80 83       	st	Z, r24
    7aba:	91 83       	std	Z+1, r25	; 0x01
    7abc:	a2 83       	std	Z+2, r26	; 0x02
    7abe:	b3 83       	std	Z+3, r27	; 0x03
    7ac0:	8e 01       	movw	r16, r28
    7ac2:	03 5b       	subi	r16, 0xB3	; 179
    7ac4:	1f 4f       	sbci	r17, 0xFF	; 255
    7ac6:	fe 01       	movw	r30, r28
    7ac8:	ef 5a       	subi	r30, 0xAF	; 175
    7aca:	ff 4f       	sbci	r31, 0xFF	; 255
    7acc:	60 81       	ld	r22, Z
    7ace:	71 81       	ldd	r23, Z+1	; 0x01
    7ad0:	82 81       	ldd	r24, Z+2	; 0x02
    7ad2:	93 81       	ldd	r25, Z+3	; 0x03
    7ad4:	20 e0       	ldi	r18, 0x00	; 0
    7ad6:	30 e4       	ldi	r19, 0x40	; 64
    7ad8:	4c e1       	ldi	r20, 0x1C	; 28
    7ada:	55 e4       	ldi	r21, 0x45	; 69
    7adc:	21 d5       	rcall	.+2626   	; 0x8520 <__mulsf3>
    7ade:	dc 01       	movw	r26, r24
    7ae0:	cb 01       	movw	r24, r22
    7ae2:	f8 01       	movw	r30, r16
    7ae4:	80 83       	st	Z, r24
    7ae6:	91 83       	std	Z+1, r25	; 0x01
    7ae8:	a2 83       	std	Z+2, r26	; 0x02
    7aea:	b3 83       	std	Z+3, r27	; 0x03
    7aec:	fe 01       	movw	r30, r28
    7aee:	e3 5b       	subi	r30, 0xB3	; 179
    7af0:	ff 4f       	sbci	r31, 0xFF	; 255
    7af2:	60 81       	ld	r22, Z
    7af4:	71 81       	ldd	r23, Z+1	; 0x01
    7af6:	82 81       	ldd	r24, Z+2	; 0x02
    7af8:	93 81       	ldd	r25, Z+3	; 0x03
    7afa:	20 e0       	ldi	r18, 0x00	; 0
    7afc:	30 e0       	ldi	r19, 0x00	; 0
    7afe:	40 e8       	ldi	r20, 0x80	; 128
    7b00:	5f e3       	ldi	r21, 0x3F	; 63
    7b02:	82 d3       	rcall	.+1796   	; 0x8208 <__cmpsf2>
    7b04:	88 23       	and	r24, r24
    7b06:	44 f4       	brge	.+16     	; 0x7b18 <yellowSide+0x1452>
    7b08:	fe 01       	movw	r30, r28
    7b0a:	e5 5b       	subi	r30, 0xB5	; 181
    7b0c:	ff 4f       	sbci	r31, 0xFF	; 255
    7b0e:	81 e0       	ldi	r24, 0x01	; 1
    7b10:	90 e0       	ldi	r25, 0x00	; 0
    7b12:	91 83       	std	Z+1, r25	; 0x01
    7b14:	80 83       	st	Z, r24
    7b16:	60 c0       	rjmp	.+192    	; 0x7bd8 <yellowSide+0x1512>
    7b18:	fe 01       	movw	r30, r28
    7b1a:	e3 5b       	subi	r30, 0xB3	; 179
    7b1c:	ff 4f       	sbci	r31, 0xFF	; 255
    7b1e:	60 81       	ld	r22, Z
    7b20:	71 81       	ldd	r23, Z+1	; 0x01
    7b22:	82 81       	ldd	r24, Z+2	; 0x02
    7b24:	93 81       	ldd	r25, Z+3	; 0x03
    7b26:	20 e0       	ldi	r18, 0x00	; 0
    7b28:	3f ef       	ldi	r19, 0xFF	; 255
    7b2a:	4f e7       	ldi	r20, 0x7F	; 127
    7b2c:	57 e4       	ldi	r21, 0x47	; 71
    7b2e:	f4 d4       	rcall	.+2536   	; 0x8518 <__gesf2>
    7b30:	18 16       	cp	r1, r24
    7b32:	0c f0       	brlt	.+2      	; 0x7b36 <yellowSide+0x1470>
    7b34:	41 c0       	rjmp	.+130    	; 0x7bb8 <yellowSide+0x14f2>
    7b36:	fe 01       	movw	r30, r28
    7b38:	ef 5a       	subi	r30, 0xAF	; 175
    7b3a:	ff 4f       	sbci	r31, 0xFF	; 255
    7b3c:	60 81       	ld	r22, Z
    7b3e:	71 81       	ldd	r23, Z+1	; 0x01
    7b40:	82 81       	ldd	r24, Z+2	; 0x02
    7b42:	93 81       	ldd	r25, Z+3	; 0x03
    7b44:	20 e0       	ldi	r18, 0x00	; 0
    7b46:	30 e0       	ldi	r19, 0x00	; 0
    7b48:	40 e2       	ldi	r20, 0x20	; 32
    7b4a:	51 e4       	ldi	r21, 0x41	; 65
    7b4c:	e9 d4       	rcall	.+2514   	; 0x8520 <__mulsf3>
    7b4e:	dc 01       	movw	r26, r24
    7b50:	cb 01       	movw	r24, r22
    7b52:	8e 01       	movw	r16, r28
    7b54:	05 5b       	subi	r16, 0xB5	; 181
    7b56:	1f 4f       	sbci	r17, 0xFF	; 255
    7b58:	bc 01       	movw	r22, r24
    7b5a:	cd 01       	movw	r24, r26
    7b5c:	c1 d3       	rcall	.+1922   	; 0x82e0 <__fixunssfsi>
    7b5e:	dc 01       	movw	r26, r24
    7b60:	cb 01       	movw	r24, r22
    7b62:	f8 01       	movw	r30, r16
    7b64:	91 83       	std	Z+1, r25	; 0x01
    7b66:	80 83       	st	Z, r24
    7b68:	1f c0       	rjmp	.+62     	; 0x7ba8 <yellowSide+0x14e2>
    7b6a:	fe 01       	movw	r30, r28
    7b6c:	e7 5b       	subi	r30, 0xB7	; 183
    7b6e:	ff 4f       	sbci	r31, 0xFF	; 255
    7b70:	8a ef       	ldi	r24, 0xFA	; 250
    7b72:	90 e0       	ldi	r25, 0x00	; 0
    7b74:	91 83       	std	Z+1, r25	; 0x01
    7b76:	80 83       	st	Z, r24
    7b78:	fe 01       	movw	r30, r28
    7b7a:	e7 5b       	subi	r30, 0xB7	; 183
    7b7c:	ff 4f       	sbci	r31, 0xFF	; 255
    7b7e:	80 81       	ld	r24, Z
    7b80:	91 81       	ldd	r25, Z+1	; 0x01
    7b82:	01 97       	sbiw	r24, 0x01	; 1
    7b84:	f1 f7       	brne	.-4      	; 0x7b82 <yellowSide+0x14bc>
    7b86:	fe 01       	movw	r30, r28
    7b88:	e7 5b       	subi	r30, 0xB7	; 183
    7b8a:	ff 4f       	sbci	r31, 0xFF	; 255
    7b8c:	91 83       	std	Z+1, r25	; 0x01
    7b8e:	80 83       	st	Z, r24
    7b90:	de 01       	movw	r26, r28
    7b92:	a5 5b       	subi	r26, 0xB5	; 181
    7b94:	bf 4f       	sbci	r27, 0xFF	; 255
    7b96:	fe 01       	movw	r30, r28
    7b98:	e5 5b       	subi	r30, 0xB5	; 181
    7b9a:	ff 4f       	sbci	r31, 0xFF	; 255
    7b9c:	80 81       	ld	r24, Z
    7b9e:	91 81       	ldd	r25, Z+1	; 0x01
    7ba0:	01 97       	sbiw	r24, 0x01	; 1
    7ba2:	11 96       	adiw	r26, 0x01	; 1
    7ba4:	9c 93       	st	X, r25
    7ba6:	8e 93       	st	-X, r24
    7ba8:	fe 01       	movw	r30, r28
    7baa:	e5 5b       	subi	r30, 0xB5	; 181
    7bac:	ff 4f       	sbci	r31, 0xFF	; 255
    7bae:	80 81       	ld	r24, Z
    7bb0:	91 81       	ldd	r25, Z+1	; 0x01
    7bb2:	00 97       	sbiw	r24, 0x00	; 0
    7bb4:	d1 f6       	brne	.-76     	; 0x7b6a <yellowSide+0x14a4>
    7bb6:	26 c0       	rjmp	.+76     	; 0x7c04 <yellowSide+0x153e>
    7bb8:	8e 01       	movw	r16, r28
    7bba:	05 5b       	subi	r16, 0xB5	; 181
    7bbc:	1f 4f       	sbci	r17, 0xFF	; 255
    7bbe:	fe 01       	movw	r30, r28
    7bc0:	e3 5b       	subi	r30, 0xB3	; 179
    7bc2:	ff 4f       	sbci	r31, 0xFF	; 255
    7bc4:	60 81       	ld	r22, Z
    7bc6:	71 81       	ldd	r23, Z+1	; 0x01
    7bc8:	82 81       	ldd	r24, Z+2	; 0x02
    7bca:	93 81       	ldd	r25, Z+3	; 0x03
    7bcc:	89 d3       	rcall	.+1810   	; 0x82e0 <__fixunssfsi>
    7bce:	dc 01       	movw	r26, r24
    7bd0:	cb 01       	movw	r24, r22
    7bd2:	f8 01       	movw	r30, r16
    7bd4:	91 83       	std	Z+1, r25	; 0x01
    7bd6:	80 83       	st	Z, r24
    7bd8:	de 01       	movw	r26, r28
    7bda:	a9 5b       	subi	r26, 0xB9	; 185
    7bdc:	bf 4f       	sbci	r27, 0xFF	; 255
    7bde:	fe 01       	movw	r30, r28
    7be0:	e5 5b       	subi	r30, 0xB5	; 181
    7be2:	ff 4f       	sbci	r31, 0xFF	; 255
    7be4:	80 81       	ld	r24, Z
    7be6:	91 81       	ldd	r25, Z+1	; 0x01
    7be8:	8d 93       	st	X+, r24
    7bea:	9c 93       	st	X, r25
    7bec:	fe 01       	movw	r30, r28
    7bee:	e9 5b       	subi	r30, 0xB9	; 185
    7bf0:	ff 4f       	sbci	r31, 0xFF	; 255
    7bf2:	80 81       	ld	r24, Z
    7bf4:	91 81       	ldd	r25, Z+1	; 0x01
    7bf6:	01 97       	sbiw	r24, 0x01	; 1
    7bf8:	f1 f7       	brne	.-4      	; 0x7bf6 <yellowSide+0x1530>
    7bfa:	fe 01       	movw	r30, r28
    7bfc:	e9 5b       	subi	r30, 0xB9	; 185
    7bfe:	ff 4f       	sbci	r31, 0xFF	; 255
    7c00:	91 83       	std	Z+1, r25	; 0x01
    7c02:	80 83       	st	Z, r24
    7c04:	81 e0       	ldi	r24, 0x01	; 1
    7c06:	61 e0       	ldi	r22, 0x01	; 1
    7c08:	0e 94 14 0e 	call	0x1c28	; 0x1c28 <liftMove>
    7c0c:	fe 01       	movw	r30, r28
    7c0e:	ed 5b       	subi	r30, 0xBD	; 189
    7c10:	ff 4f       	sbci	r31, 0xFF	; 255
    7c12:	80 e0       	ldi	r24, 0x00	; 0
    7c14:	90 e0       	ldi	r25, 0x00	; 0
    7c16:	aa ef       	ldi	r26, 0xFA	; 250
    7c18:	b3 e4       	ldi	r27, 0x43	; 67
    7c1a:	80 83       	st	Z, r24
    7c1c:	91 83       	std	Z+1, r25	; 0x01
    7c1e:	a2 83       	std	Z+2, r26	; 0x02
    7c20:	b3 83       	std	Z+3, r27	; 0x03
    7c22:	8e 01       	movw	r16, r28
    7c24:	01 5c       	subi	r16, 0xC1	; 193
    7c26:	1f 4f       	sbci	r17, 0xFF	; 255
    7c28:	fe 01       	movw	r30, r28
    7c2a:	ed 5b       	subi	r30, 0xBD	; 189
    7c2c:	ff 4f       	sbci	r31, 0xFF	; 255
    7c2e:	60 81       	ld	r22, Z
    7c30:	71 81       	ldd	r23, Z+1	; 0x01
    7c32:	82 81       	ldd	r24, Z+2	; 0x02
    7c34:	93 81       	ldd	r25, Z+3	; 0x03
    7c36:	20 e0       	ldi	r18, 0x00	; 0
    7c38:	30 e4       	ldi	r19, 0x40	; 64
    7c3a:	4c e1       	ldi	r20, 0x1C	; 28
    7c3c:	55 e4       	ldi	r21, 0x45	; 69
    7c3e:	70 d4       	rcall	.+2272   	; 0x8520 <__mulsf3>
    7c40:	dc 01       	movw	r26, r24
    7c42:	cb 01       	movw	r24, r22
    7c44:	f8 01       	movw	r30, r16
    7c46:	80 83       	st	Z, r24
    7c48:	91 83       	std	Z+1, r25	; 0x01
    7c4a:	a2 83       	std	Z+2, r26	; 0x02
    7c4c:	b3 83       	std	Z+3, r27	; 0x03
    7c4e:	fe 01       	movw	r30, r28
    7c50:	ff 96       	adiw	r30, 0x3f	; 63
    7c52:	60 81       	ld	r22, Z
    7c54:	71 81       	ldd	r23, Z+1	; 0x01
    7c56:	82 81       	ldd	r24, Z+2	; 0x02
    7c58:	93 81       	ldd	r25, Z+3	; 0x03
    7c5a:	20 e0       	ldi	r18, 0x00	; 0
    7c5c:	30 e0       	ldi	r19, 0x00	; 0
    7c5e:	40 e8       	ldi	r20, 0x80	; 128
    7c60:	5f e3       	ldi	r21, 0x3F	; 63
    7c62:	d2 d2       	rcall	.+1444   	; 0x8208 <__cmpsf2>
    7c64:	88 23       	and	r24, r24
    7c66:	2c f4       	brge	.+10     	; 0x7c72 <yellowSide+0x15ac>
    7c68:	81 e0       	ldi	r24, 0x01	; 1
    7c6a:	90 e0       	ldi	r25, 0x00	; 0
    7c6c:	9e af       	std	Y+62, r25	; 0x3e
    7c6e:	8d af       	std	Y+61, r24	; 0x3d
    7c70:	42 c0       	rjmp	.+132    	; 0x7cf6 <yellowSide+0x1630>
    7c72:	fe 01       	movw	r30, r28
    7c74:	ff 96       	adiw	r30, 0x3f	; 63
    7c76:	60 81       	ld	r22, Z
    7c78:	71 81       	ldd	r23, Z+1	; 0x01
    7c7a:	82 81       	ldd	r24, Z+2	; 0x02
    7c7c:	93 81       	ldd	r25, Z+3	; 0x03
    7c7e:	20 e0       	ldi	r18, 0x00	; 0
    7c80:	3f ef       	ldi	r19, 0xFF	; 255
    7c82:	4f e7       	ldi	r20, 0x7F	; 127
    7c84:	57 e4       	ldi	r21, 0x47	; 71
    7c86:	48 d4       	rcall	.+2192   	; 0x8518 <__gesf2>
    7c88:	18 16       	cp	r1, r24
    7c8a:	54 f5       	brge	.+84     	; 0x7ce0 <yellowSide+0x161a>
    7c8c:	fe 01       	movw	r30, r28
    7c8e:	ed 5b       	subi	r30, 0xBD	; 189
    7c90:	ff 4f       	sbci	r31, 0xFF	; 255
    7c92:	60 81       	ld	r22, Z
    7c94:	71 81       	ldd	r23, Z+1	; 0x01
    7c96:	82 81       	ldd	r24, Z+2	; 0x02
    7c98:	93 81       	ldd	r25, Z+3	; 0x03
    7c9a:	20 e0       	ldi	r18, 0x00	; 0
    7c9c:	30 e0       	ldi	r19, 0x00	; 0
    7c9e:	40 e2       	ldi	r20, 0x20	; 32
    7ca0:	51 e4       	ldi	r21, 0x41	; 65
    7ca2:	3e d4       	rcall	.+2172   	; 0x8520 <__mulsf3>
    7ca4:	dc 01       	movw	r26, r24
    7ca6:	cb 01       	movw	r24, r22
    7ca8:	bc 01       	movw	r22, r24
    7caa:	cd 01       	movw	r24, r26
    7cac:	19 d3       	rcall	.+1586   	; 0x82e0 <__fixunssfsi>
    7cae:	dc 01       	movw	r26, r24
    7cb0:	cb 01       	movw	r24, r22
    7cb2:	9e af       	std	Y+62, r25	; 0x3e
    7cb4:	8d af       	std	Y+61, r24	; 0x3d
    7cb6:	0f c0       	rjmp	.+30     	; 0x7cd6 <yellowSide+0x1610>
    7cb8:	8a ef       	ldi	r24, 0xFA	; 250
    7cba:	90 e0       	ldi	r25, 0x00	; 0
    7cbc:	9c af       	std	Y+60, r25	; 0x3c
    7cbe:	8b af       	std	Y+59, r24	; 0x3b
    7cc0:	8b ad       	ldd	r24, Y+59	; 0x3b
    7cc2:	9c ad       	ldd	r25, Y+60	; 0x3c
    7cc4:	01 97       	sbiw	r24, 0x01	; 1
    7cc6:	f1 f7       	brne	.-4      	; 0x7cc4 <yellowSide+0x15fe>
    7cc8:	9c af       	std	Y+60, r25	; 0x3c
    7cca:	8b af       	std	Y+59, r24	; 0x3b
    7ccc:	8d ad       	ldd	r24, Y+61	; 0x3d
    7cce:	9e ad       	ldd	r25, Y+62	; 0x3e
    7cd0:	01 97       	sbiw	r24, 0x01	; 1
    7cd2:	9e af       	std	Y+62, r25	; 0x3e
    7cd4:	8d af       	std	Y+61, r24	; 0x3d
    7cd6:	8d ad       	ldd	r24, Y+61	; 0x3d
    7cd8:	9e ad       	ldd	r25, Y+62	; 0x3e
    7cda:	00 97       	sbiw	r24, 0x00	; 0
    7cdc:	69 f7       	brne	.-38     	; 0x7cb8 <yellowSide+0x15f2>
    7cde:	15 c0       	rjmp	.+42     	; 0x7d0a <yellowSide+0x1644>
    7ce0:	fe 01       	movw	r30, r28
    7ce2:	ff 96       	adiw	r30, 0x3f	; 63
    7ce4:	60 81       	ld	r22, Z
    7ce6:	71 81       	ldd	r23, Z+1	; 0x01
    7ce8:	82 81       	ldd	r24, Z+2	; 0x02
    7cea:	93 81       	ldd	r25, Z+3	; 0x03
    7cec:	f9 d2       	rcall	.+1522   	; 0x82e0 <__fixunssfsi>
    7cee:	dc 01       	movw	r26, r24
    7cf0:	cb 01       	movw	r24, r22
    7cf2:	9e af       	std	Y+62, r25	; 0x3e
    7cf4:	8d af       	std	Y+61, r24	; 0x3d
    7cf6:	8d ad       	ldd	r24, Y+61	; 0x3d
    7cf8:	9e ad       	ldd	r25, Y+62	; 0x3e
    7cfa:	9a af       	std	Y+58, r25	; 0x3a
    7cfc:	89 af       	std	Y+57, r24	; 0x39
    7cfe:	89 ad       	ldd	r24, Y+57	; 0x39
    7d00:	9a ad       	ldd	r25, Y+58	; 0x3a
    7d02:	01 97       	sbiw	r24, 0x01	; 1
    7d04:	f1 f7       	brne	.-4      	; 0x7d02 <yellowSide+0x163c>
    7d06:	9a af       	std	Y+58, r25	; 0x3a
    7d08:	89 af       	std	Y+57, r24	; 0x39
    7d0a:	86 e4       	ldi	r24, 0x46	; 70
    7d0c:	90 e0       	ldi	r25, 0x00	; 0
    7d0e:	62 e3       	ldi	r22, 0x32	; 50
    7d10:	40 e0       	ldi	r20, 0x00	; 0
    7d12:	50 e0       	ldi	r21, 0x00	; 0
    7d14:	0e 94 cd 24 	call	0x499a	; 0x499a <moveOnDirection>
    7d18:	8f ef       	ldi	r24, 0xFF	; 255
    7d1a:	61 e0       	ldi	r22, 0x01	; 1
    7d1c:	0e 94 14 0e 	call	0x1c28	; 0x1c28 <liftMove>
    7d20:	80 e0       	ldi	r24, 0x00	; 0
    7d22:	90 e0       	ldi	r25, 0x00	; 0
    7d24:	aa ef       	ldi	r26, 0xFA	; 250
    7d26:	b3 e4       	ldi	r27, 0x43	; 67
    7d28:	8d ab       	std	Y+53, r24	; 0x35
    7d2a:	9e ab       	std	Y+54, r25	; 0x36
    7d2c:	af ab       	std	Y+55, r26	; 0x37
    7d2e:	b8 af       	std	Y+56, r27	; 0x38
    7d30:	6d a9       	ldd	r22, Y+53	; 0x35
    7d32:	7e a9       	ldd	r23, Y+54	; 0x36
    7d34:	8f a9       	ldd	r24, Y+55	; 0x37
    7d36:	98 ad       	ldd	r25, Y+56	; 0x38
    7d38:	20 e0       	ldi	r18, 0x00	; 0
    7d3a:	30 e4       	ldi	r19, 0x40	; 64
    7d3c:	4c e1       	ldi	r20, 0x1C	; 28
    7d3e:	55 e4       	ldi	r21, 0x45	; 69
    7d40:	ef d3       	rcall	.+2014   	; 0x8520 <__mulsf3>
    7d42:	dc 01       	movw	r26, r24
    7d44:	cb 01       	movw	r24, r22
    7d46:	89 ab       	std	Y+49, r24	; 0x31
    7d48:	9a ab       	std	Y+50, r25	; 0x32
    7d4a:	ab ab       	std	Y+51, r26	; 0x33
    7d4c:	bc ab       	std	Y+52, r27	; 0x34
    7d4e:	69 a9       	ldd	r22, Y+49	; 0x31
    7d50:	7a a9       	ldd	r23, Y+50	; 0x32
    7d52:	8b a9       	ldd	r24, Y+51	; 0x33
    7d54:	9c a9       	ldd	r25, Y+52	; 0x34
    7d56:	20 e0       	ldi	r18, 0x00	; 0
    7d58:	30 e0       	ldi	r19, 0x00	; 0
    7d5a:	40 e8       	ldi	r20, 0x80	; 128
    7d5c:	5f e3       	ldi	r21, 0x3F	; 63
    7d5e:	54 d2       	rcall	.+1192   	; 0x8208 <__cmpsf2>
    7d60:	88 23       	and	r24, r24
    7d62:	2c f4       	brge	.+10     	; 0x7d6e <yellowSide+0x16a8>
    7d64:	81 e0       	ldi	r24, 0x01	; 1
    7d66:	90 e0       	ldi	r25, 0x00	; 0
    7d68:	98 ab       	std	Y+48, r25	; 0x30
    7d6a:	8f a7       	std	Y+47, r24	; 0x2f
    7d6c:	3b c0       	rjmp	.+118    	; 0x7de4 <yellowSide+0x171e>
    7d6e:	69 a9       	ldd	r22, Y+49	; 0x31
    7d70:	7a a9       	ldd	r23, Y+50	; 0x32
    7d72:	8b a9       	ldd	r24, Y+51	; 0x33
    7d74:	9c a9       	ldd	r25, Y+52	; 0x34
    7d76:	20 e0       	ldi	r18, 0x00	; 0
    7d78:	3f ef       	ldi	r19, 0xFF	; 255
    7d7a:	4f e7       	ldi	r20, 0x7F	; 127
    7d7c:	57 e4       	ldi	r21, 0x47	; 71
    7d7e:	cc d3       	rcall	.+1944   	; 0x8518 <__gesf2>
    7d80:	18 16       	cp	r1, r24
    7d82:	3c f5       	brge	.+78     	; 0x7dd2 <yellowSide+0x170c>
    7d84:	6d a9       	ldd	r22, Y+53	; 0x35
    7d86:	7e a9       	ldd	r23, Y+54	; 0x36
    7d88:	8f a9       	ldd	r24, Y+55	; 0x37
    7d8a:	98 ad       	ldd	r25, Y+56	; 0x38
    7d8c:	20 e0       	ldi	r18, 0x00	; 0
    7d8e:	30 e0       	ldi	r19, 0x00	; 0
    7d90:	40 e2       	ldi	r20, 0x20	; 32
    7d92:	51 e4       	ldi	r21, 0x41	; 65
    7d94:	c5 d3       	rcall	.+1930   	; 0x8520 <__mulsf3>
    7d96:	dc 01       	movw	r26, r24
    7d98:	cb 01       	movw	r24, r22
    7d9a:	bc 01       	movw	r22, r24
    7d9c:	cd 01       	movw	r24, r26
    7d9e:	a0 d2       	rcall	.+1344   	; 0x82e0 <__fixunssfsi>
    7da0:	dc 01       	movw	r26, r24
    7da2:	cb 01       	movw	r24, r22
    7da4:	98 ab       	std	Y+48, r25	; 0x30
    7da6:	8f a7       	std	Y+47, r24	; 0x2f
    7da8:	0f c0       	rjmp	.+30     	; 0x7dc8 <yellowSide+0x1702>
    7daa:	8a ef       	ldi	r24, 0xFA	; 250
    7dac:	90 e0       	ldi	r25, 0x00	; 0
    7dae:	9e a7       	std	Y+46, r25	; 0x2e
    7db0:	8d a7       	std	Y+45, r24	; 0x2d
    7db2:	8d a5       	ldd	r24, Y+45	; 0x2d
    7db4:	9e a5       	ldd	r25, Y+46	; 0x2e
    7db6:	01 97       	sbiw	r24, 0x01	; 1
    7db8:	f1 f7       	brne	.-4      	; 0x7db6 <yellowSide+0x16f0>
    7dba:	9e a7       	std	Y+46, r25	; 0x2e
    7dbc:	8d a7       	std	Y+45, r24	; 0x2d
    7dbe:	8f a5       	ldd	r24, Y+47	; 0x2f
    7dc0:	98 a9       	ldd	r25, Y+48	; 0x30
    7dc2:	01 97       	sbiw	r24, 0x01	; 1
    7dc4:	98 ab       	std	Y+48, r25	; 0x30
    7dc6:	8f a7       	std	Y+47, r24	; 0x2f
    7dc8:	8f a5       	ldd	r24, Y+47	; 0x2f
    7dca:	98 a9       	ldd	r25, Y+48	; 0x30
    7dcc:	00 97       	sbiw	r24, 0x00	; 0
    7dce:	69 f7       	brne	.-38     	; 0x7daa <yellowSide+0x16e4>
    7dd0:	13 c0       	rjmp	.+38     	; 0x7df8 <yellowSide+0x1732>
    7dd2:	69 a9       	ldd	r22, Y+49	; 0x31
    7dd4:	7a a9       	ldd	r23, Y+50	; 0x32
    7dd6:	8b a9       	ldd	r24, Y+51	; 0x33
    7dd8:	9c a9       	ldd	r25, Y+52	; 0x34
    7dda:	82 d2       	rcall	.+1284   	; 0x82e0 <__fixunssfsi>
    7ddc:	dc 01       	movw	r26, r24
    7dde:	cb 01       	movw	r24, r22
    7de0:	98 ab       	std	Y+48, r25	; 0x30
    7de2:	8f a7       	std	Y+47, r24	; 0x2f
    7de4:	8f a5       	ldd	r24, Y+47	; 0x2f
    7de6:	98 a9       	ldd	r25, Y+48	; 0x30
    7de8:	9c a7       	std	Y+44, r25	; 0x2c
    7dea:	8b a7       	std	Y+43, r24	; 0x2b
    7dec:	8b a5       	ldd	r24, Y+43	; 0x2b
    7dee:	9c a5       	ldd	r25, Y+44	; 0x2c
    7df0:	01 97       	sbiw	r24, 0x01	; 1
    7df2:	f1 f7       	brne	.-4      	; 0x7df0 <yellowSide+0x172a>
    7df4:	9c a7       	std	Y+44, r25	; 0x2c
    7df6:	8b a7       	std	Y+43, r24	; 0x2b
    7df8:	81 e0       	ldi	r24, 0x01	; 1
    7dfa:	0e 94 ee 0b 	call	0x17dc	; 0x17dc <rightDiafram>
    7dfe:	80 e0       	ldi	r24, 0x00	; 0
    7e00:	90 e0       	ldi	r25, 0x00	; 0
    7e02:	aa ef       	ldi	r26, 0xFA	; 250
    7e04:	b3 e4       	ldi	r27, 0x43	; 67
    7e06:	8f a3       	std	Y+39, r24	; 0x27
    7e08:	98 a7       	std	Y+40, r25	; 0x28
    7e0a:	a9 a7       	std	Y+41, r26	; 0x29
    7e0c:	ba a7       	std	Y+42, r27	; 0x2a
    7e0e:	6f a1       	ldd	r22, Y+39	; 0x27
    7e10:	78 a5       	ldd	r23, Y+40	; 0x28
    7e12:	89 a5       	ldd	r24, Y+41	; 0x29
    7e14:	9a a5       	ldd	r25, Y+42	; 0x2a
    7e16:	20 e0       	ldi	r18, 0x00	; 0
    7e18:	30 e4       	ldi	r19, 0x40	; 64
    7e1a:	4c e1       	ldi	r20, 0x1C	; 28
    7e1c:	55 e4       	ldi	r21, 0x45	; 69
    7e1e:	80 d3       	rcall	.+1792   	; 0x8520 <__mulsf3>
    7e20:	dc 01       	movw	r26, r24
    7e22:	cb 01       	movw	r24, r22
    7e24:	8b a3       	std	Y+35, r24	; 0x23
    7e26:	9c a3       	std	Y+36, r25	; 0x24
    7e28:	ad a3       	std	Y+37, r26	; 0x25
    7e2a:	be a3       	std	Y+38, r27	; 0x26
    7e2c:	6b a1       	ldd	r22, Y+35	; 0x23
    7e2e:	7c a1       	ldd	r23, Y+36	; 0x24
    7e30:	8d a1       	ldd	r24, Y+37	; 0x25
    7e32:	9e a1       	ldd	r25, Y+38	; 0x26
    7e34:	20 e0       	ldi	r18, 0x00	; 0
    7e36:	30 e0       	ldi	r19, 0x00	; 0
    7e38:	40 e8       	ldi	r20, 0x80	; 128
    7e3a:	5f e3       	ldi	r21, 0x3F	; 63
    7e3c:	e5 d1       	rcall	.+970    	; 0x8208 <__cmpsf2>
    7e3e:	88 23       	and	r24, r24
    7e40:	2c f4       	brge	.+10     	; 0x7e4c <yellowSide+0x1786>
    7e42:	81 e0       	ldi	r24, 0x01	; 1
    7e44:	90 e0       	ldi	r25, 0x00	; 0
    7e46:	9a a3       	std	Y+34, r25	; 0x22
    7e48:	89 a3       	std	Y+33, r24	; 0x21
    7e4a:	3b c0       	rjmp	.+118    	; 0x7ec2 <yellowSide+0x17fc>
    7e4c:	6b a1       	ldd	r22, Y+35	; 0x23
    7e4e:	7c a1       	ldd	r23, Y+36	; 0x24
    7e50:	8d a1       	ldd	r24, Y+37	; 0x25
    7e52:	9e a1       	ldd	r25, Y+38	; 0x26
    7e54:	20 e0       	ldi	r18, 0x00	; 0
    7e56:	3f ef       	ldi	r19, 0xFF	; 255
    7e58:	4f e7       	ldi	r20, 0x7F	; 127
    7e5a:	57 e4       	ldi	r21, 0x47	; 71
    7e5c:	5d d3       	rcall	.+1722   	; 0x8518 <__gesf2>
    7e5e:	18 16       	cp	r1, r24
    7e60:	3c f5       	brge	.+78     	; 0x7eb0 <yellowSide+0x17ea>
    7e62:	6f a1       	ldd	r22, Y+39	; 0x27
    7e64:	78 a5       	ldd	r23, Y+40	; 0x28
    7e66:	89 a5       	ldd	r24, Y+41	; 0x29
    7e68:	9a a5       	ldd	r25, Y+42	; 0x2a
    7e6a:	20 e0       	ldi	r18, 0x00	; 0
    7e6c:	30 e0       	ldi	r19, 0x00	; 0
    7e6e:	40 e2       	ldi	r20, 0x20	; 32
    7e70:	51 e4       	ldi	r21, 0x41	; 65
    7e72:	56 d3       	rcall	.+1708   	; 0x8520 <__mulsf3>
    7e74:	dc 01       	movw	r26, r24
    7e76:	cb 01       	movw	r24, r22
    7e78:	bc 01       	movw	r22, r24
    7e7a:	cd 01       	movw	r24, r26
    7e7c:	31 d2       	rcall	.+1122   	; 0x82e0 <__fixunssfsi>
    7e7e:	dc 01       	movw	r26, r24
    7e80:	cb 01       	movw	r24, r22
    7e82:	9a a3       	std	Y+34, r25	; 0x22
    7e84:	89 a3       	std	Y+33, r24	; 0x21
    7e86:	0f c0       	rjmp	.+30     	; 0x7ea6 <yellowSide+0x17e0>
    7e88:	8a ef       	ldi	r24, 0xFA	; 250
    7e8a:	90 e0       	ldi	r25, 0x00	; 0
    7e8c:	98 a3       	std	Y+32, r25	; 0x20
    7e8e:	8f 8f       	std	Y+31, r24	; 0x1f
    7e90:	8f 8d       	ldd	r24, Y+31	; 0x1f
    7e92:	98 a1       	ldd	r25, Y+32	; 0x20
    7e94:	01 97       	sbiw	r24, 0x01	; 1
    7e96:	f1 f7       	brne	.-4      	; 0x7e94 <yellowSide+0x17ce>
    7e98:	98 a3       	std	Y+32, r25	; 0x20
    7e9a:	8f 8f       	std	Y+31, r24	; 0x1f
    7e9c:	89 a1       	ldd	r24, Y+33	; 0x21
    7e9e:	9a a1       	ldd	r25, Y+34	; 0x22
    7ea0:	01 97       	sbiw	r24, 0x01	; 1
    7ea2:	9a a3       	std	Y+34, r25	; 0x22
    7ea4:	89 a3       	std	Y+33, r24	; 0x21
    7ea6:	89 a1       	ldd	r24, Y+33	; 0x21
    7ea8:	9a a1       	ldd	r25, Y+34	; 0x22
    7eaa:	00 97       	sbiw	r24, 0x00	; 0
    7eac:	69 f7       	brne	.-38     	; 0x7e88 <yellowSide+0x17c2>
    7eae:	13 c0       	rjmp	.+38     	; 0x7ed6 <yellowSide+0x1810>
    7eb0:	6b a1       	ldd	r22, Y+35	; 0x23
    7eb2:	7c a1       	ldd	r23, Y+36	; 0x24
    7eb4:	8d a1       	ldd	r24, Y+37	; 0x25
    7eb6:	9e a1       	ldd	r25, Y+38	; 0x26
    7eb8:	13 d2       	rcall	.+1062   	; 0x82e0 <__fixunssfsi>
    7eba:	dc 01       	movw	r26, r24
    7ebc:	cb 01       	movw	r24, r22
    7ebe:	9a a3       	std	Y+34, r25	; 0x22
    7ec0:	89 a3       	std	Y+33, r24	; 0x21
    7ec2:	89 a1       	ldd	r24, Y+33	; 0x21
    7ec4:	9a a1       	ldd	r25, Y+34	; 0x22
    7ec6:	9e 8f       	std	Y+30, r25	; 0x1e
    7ec8:	8d 8f       	std	Y+29, r24	; 0x1d
    7eca:	8d 8d       	ldd	r24, Y+29	; 0x1d
    7ecc:	9e 8d       	ldd	r25, Y+30	; 0x1e
    7ece:	01 97       	sbiw	r24, 0x01	; 1
    7ed0:	f1 f7       	brne	.-4      	; 0x7ece <yellowSide+0x1808>
    7ed2:	9e 8f       	std	Y+30, r25	; 0x1e
    7ed4:	8d 8f       	std	Y+29, r24	; 0x1d
    7ed6:	8e ed       	ldi	r24, 0xDE	; 222
    7ed8:	9e ef       	ldi	r25, 0xFE	; 254
    7eda:	66 e9       	ldi	r22, 0x96	; 150
    7edc:	40 e0       	ldi	r20, 0x00	; 0
    7ede:	50 e0       	ldi	r21, 0x00	; 0
    7ee0:	0e 94 cd 24 	call	0x499a	; 0x499a <moveOnDirection>
    7ee4:	19 c1       	rjmp	.+562    	; 0x8118 <yellowSide+0x1a52>
    7ee6:	fe 01       	movw	r30, r28
    7ee8:	e0 50       	subi	r30, 0x00	; 0
    7eea:	ff 4f       	sbci	r31, 0xFF	; 255
    7eec:	80 81       	ld	r24, Z
    7eee:	89 30       	cpi	r24, 0x09	; 9
    7ef0:	09 f0       	breq	.+2      	; 0x7ef4 <yellowSide+0x182e>
    7ef2:	86 c0       	rjmp	.+268    	; 0x8000 <yellowSide+0x193a>
    7ef4:	81 e0       	ldi	r24, 0x01	; 1
    7ef6:	61 e0       	ldi	r22, 0x01	; 1
    7ef8:	0e 94 14 0e 	call	0x1c28	; 0x1c28 <liftMove>
    7efc:	81 ef       	ldi	r24, 0xF1	; 241
    7efe:	9f ef       	ldi	r25, 0xFF	; 255
    7f00:	62 e3       	ldi	r22, 0x32	; 50
    7f02:	40 e0       	ldi	r20, 0x00	; 0
    7f04:	50 e0       	ldi	r21, 0x00	; 0
    7f06:	0e 94 9a 2b 	call	0x5734	; 0x5734 <rotate>
    7f0a:	8a ea       	ldi	r24, 0xAA	; 170
    7f0c:	90 e0       	ldi	r25, 0x00	; 0
    7f0e:	62 e3       	ldi	r22, 0x32	; 50
    7f10:	40 e0       	ldi	r20, 0x00	; 0
    7f12:	50 e0       	ldi	r21, 0x00	; 0
    7f14:	0e 94 cd 24 	call	0x499a	; 0x499a <moveOnDirection>
    7f18:	8f ef       	ldi	r24, 0xFF	; 255
    7f1a:	61 e0       	ldi	r22, 0x01	; 1
    7f1c:	0e 94 14 0e 	call	0x1c28	; 0x1c28 <liftMove>
    7f20:	80 e0       	ldi	r24, 0x00	; 0
    7f22:	90 e0       	ldi	r25, 0x00	; 0
    7f24:	aa ef       	ldi	r26, 0xFA	; 250
    7f26:	b3 e4       	ldi	r27, 0x43	; 67
    7f28:	89 8f       	std	Y+25, r24	; 0x19
    7f2a:	9a 8f       	std	Y+26, r25	; 0x1a
    7f2c:	ab 8f       	std	Y+27, r26	; 0x1b
    7f2e:	bc 8f       	std	Y+28, r27	; 0x1c
    7f30:	69 8d       	ldd	r22, Y+25	; 0x19
    7f32:	7a 8d       	ldd	r23, Y+26	; 0x1a
    7f34:	8b 8d       	ldd	r24, Y+27	; 0x1b
    7f36:	9c 8d       	ldd	r25, Y+28	; 0x1c
    7f38:	20 e0       	ldi	r18, 0x00	; 0
    7f3a:	30 e4       	ldi	r19, 0x40	; 64
    7f3c:	4c e1       	ldi	r20, 0x1C	; 28
    7f3e:	55 e4       	ldi	r21, 0x45	; 69
    7f40:	ef d2       	rcall	.+1502   	; 0x8520 <__mulsf3>
    7f42:	dc 01       	movw	r26, r24
    7f44:	cb 01       	movw	r24, r22
    7f46:	8d 8b       	std	Y+21, r24	; 0x15
    7f48:	9e 8b       	std	Y+22, r25	; 0x16
    7f4a:	af 8b       	std	Y+23, r26	; 0x17
    7f4c:	b8 8f       	std	Y+24, r27	; 0x18
    7f4e:	6d 89       	ldd	r22, Y+21	; 0x15
    7f50:	7e 89       	ldd	r23, Y+22	; 0x16
    7f52:	8f 89       	ldd	r24, Y+23	; 0x17
    7f54:	98 8d       	ldd	r25, Y+24	; 0x18
    7f56:	20 e0       	ldi	r18, 0x00	; 0
    7f58:	30 e0       	ldi	r19, 0x00	; 0
    7f5a:	40 e8       	ldi	r20, 0x80	; 128
    7f5c:	5f e3       	ldi	r21, 0x3F	; 63
    7f5e:	54 d1       	rcall	.+680    	; 0x8208 <__cmpsf2>
    7f60:	88 23       	and	r24, r24
    7f62:	2c f4       	brge	.+10     	; 0x7f6e <yellowSide+0x18a8>
    7f64:	81 e0       	ldi	r24, 0x01	; 1
    7f66:	90 e0       	ldi	r25, 0x00	; 0
    7f68:	9c 8b       	std	Y+20, r25	; 0x14
    7f6a:	8b 8b       	std	Y+19, r24	; 0x13
    7f6c:	3b c0       	rjmp	.+118    	; 0x7fe4 <yellowSide+0x191e>
    7f6e:	6d 89       	ldd	r22, Y+21	; 0x15
    7f70:	7e 89       	ldd	r23, Y+22	; 0x16
    7f72:	8f 89       	ldd	r24, Y+23	; 0x17
    7f74:	98 8d       	ldd	r25, Y+24	; 0x18
    7f76:	20 e0       	ldi	r18, 0x00	; 0
    7f78:	3f ef       	ldi	r19, 0xFF	; 255
    7f7a:	4f e7       	ldi	r20, 0x7F	; 127
    7f7c:	57 e4       	ldi	r21, 0x47	; 71
    7f7e:	cc d2       	rcall	.+1432   	; 0x8518 <__gesf2>
    7f80:	18 16       	cp	r1, r24
    7f82:	3c f5       	brge	.+78     	; 0x7fd2 <yellowSide+0x190c>
    7f84:	69 8d       	ldd	r22, Y+25	; 0x19
    7f86:	7a 8d       	ldd	r23, Y+26	; 0x1a
    7f88:	8b 8d       	ldd	r24, Y+27	; 0x1b
    7f8a:	9c 8d       	ldd	r25, Y+28	; 0x1c
    7f8c:	20 e0       	ldi	r18, 0x00	; 0
    7f8e:	30 e0       	ldi	r19, 0x00	; 0
    7f90:	40 e2       	ldi	r20, 0x20	; 32
    7f92:	51 e4       	ldi	r21, 0x41	; 65
    7f94:	c5 d2       	rcall	.+1418   	; 0x8520 <__mulsf3>
    7f96:	dc 01       	movw	r26, r24
    7f98:	cb 01       	movw	r24, r22
    7f9a:	bc 01       	movw	r22, r24
    7f9c:	cd 01       	movw	r24, r26
    7f9e:	a0 d1       	rcall	.+832    	; 0x82e0 <__fixunssfsi>
    7fa0:	dc 01       	movw	r26, r24
    7fa2:	cb 01       	movw	r24, r22
    7fa4:	9c 8b       	std	Y+20, r25	; 0x14
    7fa6:	8b 8b       	std	Y+19, r24	; 0x13
    7fa8:	0f c0       	rjmp	.+30     	; 0x7fc8 <yellowSide+0x1902>
    7faa:	8a ef       	ldi	r24, 0xFA	; 250
    7fac:	90 e0       	ldi	r25, 0x00	; 0
    7fae:	9a 8b       	std	Y+18, r25	; 0x12
    7fb0:	89 8b       	std	Y+17, r24	; 0x11
    7fb2:	89 89       	ldd	r24, Y+17	; 0x11
    7fb4:	9a 89       	ldd	r25, Y+18	; 0x12
    7fb6:	01 97       	sbiw	r24, 0x01	; 1
    7fb8:	f1 f7       	brne	.-4      	; 0x7fb6 <yellowSide+0x18f0>
    7fba:	9a 8b       	std	Y+18, r25	; 0x12
    7fbc:	89 8b       	std	Y+17, r24	; 0x11
    7fbe:	8b 89       	ldd	r24, Y+19	; 0x13
    7fc0:	9c 89       	ldd	r25, Y+20	; 0x14
    7fc2:	01 97       	sbiw	r24, 0x01	; 1
    7fc4:	9c 8b       	std	Y+20, r25	; 0x14
    7fc6:	8b 8b       	std	Y+19, r24	; 0x13
    7fc8:	8b 89       	ldd	r24, Y+19	; 0x13
    7fca:	9c 89       	ldd	r25, Y+20	; 0x14
    7fcc:	00 97       	sbiw	r24, 0x00	; 0
    7fce:	69 f7       	brne	.-38     	; 0x7faa <yellowSide+0x18e4>
    7fd0:	13 c0       	rjmp	.+38     	; 0x7ff8 <yellowSide+0x1932>
    7fd2:	6d 89       	ldd	r22, Y+21	; 0x15
    7fd4:	7e 89       	ldd	r23, Y+22	; 0x16
    7fd6:	8f 89       	ldd	r24, Y+23	; 0x17
    7fd8:	98 8d       	ldd	r25, Y+24	; 0x18
    7fda:	82 d1       	rcall	.+772    	; 0x82e0 <__fixunssfsi>
    7fdc:	dc 01       	movw	r26, r24
    7fde:	cb 01       	movw	r24, r22
    7fe0:	9c 8b       	std	Y+20, r25	; 0x14
    7fe2:	8b 8b       	std	Y+19, r24	; 0x13
    7fe4:	8b 89       	ldd	r24, Y+19	; 0x13
    7fe6:	9c 89       	ldd	r25, Y+20	; 0x14
    7fe8:	98 8b       	std	Y+16, r25	; 0x10
    7fea:	8f 87       	std	Y+15, r24	; 0x0f
    7fec:	8f 85       	ldd	r24, Y+15	; 0x0f
    7fee:	98 89       	ldd	r25, Y+16	; 0x10
    7ff0:	01 97       	sbiw	r24, 0x01	; 1
    7ff2:	f1 f7       	brne	.-4      	; 0x7ff0 <yellowSide+0x192a>
    7ff4:	98 8b       	std	Y+16, r25	; 0x10
    7ff6:	8f 87       	std	Y+15, r24	; 0x0f
    7ff8:	81 e0       	ldi	r24, 0x01	; 1
    7ffa:	0e 94 ee 0b 	call	0x17dc	; 0x17dc <rightDiafram>
    7ffe:	8c c0       	rjmp	.+280    	; 0x8118 <yellowSide+0x1a52>
    8000:	fe 01       	movw	r30, r28
    8002:	e0 50       	subi	r30, 0x00	; 0
    8004:	ff 4f       	sbci	r31, 0xFF	; 255
    8006:	80 81       	ld	r24, Z
    8008:	8a 30       	cpi	r24, 0x0A	; 10
    800a:	09 f0       	breq	.+2      	; 0x800e <yellowSide+0x1948>
    800c:	85 c0       	rjmp	.+266    	; 0x8118 <yellowSide+0x1a52>
    800e:	8c e9       	ldi	r24, 0x9C	; 156
    8010:	9f ef       	ldi	r25, 0xFF	; 255
    8012:	62 e3       	ldi	r22, 0x32	; 50
    8014:	40 e0       	ldi	r20, 0x00	; 0
    8016:	50 e0       	ldi	r21, 0x00	; 0
    8018:	0e 94 9a 2b 	call	0x5734	; 0x5734 <rotate>
    801c:	8c e7       	ldi	r24, 0x7C	; 124
    801e:	91 e0       	ldi	r25, 0x01	; 1
    8020:	62 e3       	ldi	r22, 0x32	; 50
    8022:	40 e0       	ldi	r20, 0x00	; 0
    8024:	50 e0       	ldi	r21, 0x00	; 0
    8026:	0e 94 cd 24 	call	0x499a	; 0x499a <moveOnDirection>
    802a:	8f ef       	ldi	r24, 0xFF	; 255
    802c:	0e 94 ee 0b 	call	0x17dc	; 0x17dc <rightDiafram>
    8030:	80 e0       	ldi	r24, 0x00	; 0
    8032:	90 e4       	ldi	r25, 0x40	; 64
    8034:	ac e9       	ldi	r26, 0x9C	; 156
    8036:	b5 e4       	ldi	r27, 0x45	; 69
    8038:	8b 87       	std	Y+11, r24	; 0x0b
    803a:	9c 87       	std	Y+12, r25	; 0x0c
    803c:	ad 87       	std	Y+13, r26	; 0x0d
    803e:	be 87       	std	Y+14, r27	; 0x0e
    8040:	6b 85       	ldd	r22, Y+11	; 0x0b
    8042:	7c 85       	ldd	r23, Y+12	; 0x0c
    8044:	8d 85       	ldd	r24, Y+13	; 0x0d
    8046:	9e 85       	ldd	r25, Y+14	; 0x0e
    8048:	20 e0       	ldi	r18, 0x00	; 0
    804a:	30 e4       	ldi	r19, 0x40	; 64
    804c:	4c e1       	ldi	r20, 0x1C	; 28
    804e:	55 e4       	ldi	r21, 0x45	; 69
    8050:	67 d2       	rcall	.+1230   	; 0x8520 <__mulsf3>
    8052:	dc 01       	movw	r26, r24
    8054:	cb 01       	movw	r24, r22
    8056:	8f 83       	std	Y+7, r24	; 0x07
    8058:	98 87       	std	Y+8, r25	; 0x08
    805a:	a9 87       	std	Y+9, r26	; 0x09
    805c:	ba 87       	std	Y+10, r27	; 0x0a
    805e:	6f 81       	ldd	r22, Y+7	; 0x07
    8060:	78 85       	ldd	r23, Y+8	; 0x08
    8062:	89 85       	ldd	r24, Y+9	; 0x09
    8064:	9a 85       	ldd	r25, Y+10	; 0x0a
    8066:	20 e0       	ldi	r18, 0x00	; 0
    8068:	30 e0       	ldi	r19, 0x00	; 0
    806a:	40 e8       	ldi	r20, 0x80	; 128
    806c:	5f e3       	ldi	r21, 0x3F	; 63
    806e:	cc d0       	rcall	.+408    	; 0x8208 <__cmpsf2>
    8070:	88 23       	and	r24, r24
    8072:	2c f4       	brge	.+10     	; 0x807e <yellowSide+0x19b8>
    8074:	81 e0       	ldi	r24, 0x01	; 1
    8076:	90 e0       	ldi	r25, 0x00	; 0
    8078:	9e 83       	std	Y+6, r25	; 0x06
    807a:	8d 83       	std	Y+5, r24	; 0x05
    807c:	3b c0       	rjmp	.+118    	; 0x80f4 <yellowSide+0x1a2e>
    807e:	6f 81       	ldd	r22, Y+7	; 0x07
    8080:	78 85       	ldd	r23, Y+8	; 0x08
    8082:	89 85       	ldd	r24, Y+9	; 0x09
    8084:	9a 85       	ldd	r25, Y+10	; 0x0a
    8086:	20 e0       	ldi	r18, 0x00	; 0
    8088:	3f ef       	ldi	r19, 0xFF	; 255
    808a:	4f e7       	ldi	r20, 0x7F	; 127
    808c:	57 e4       	ldi	r21, 0x47	; 71
    808e:	44 d2       	rcall	.+1160   	; 0x8518 <__gesf2>
    8090:	18 16       	cp	r1, r24
    8092:	3c f5       	brge	.+78     	; 0x80e2 <yellowSide+0x1a1c>
    8094:	6b 85       	ldd	r22, Y+11	; 0x0b
    8096:	7c 85       	ldd	r23, Y+12	; 0x0c
    8098:	8d 85       	ldd	r24, Y+13	; 0x0d
    809a:	9e 85       	ldd	r25, Y+14	; 0x0e
    809c:	20 e0       	ldi	r18, 0x00	; 0
    809e:	30 e0       	ldi	r19, 0x00	; 0
    80a0:	40 e2       	ldi	r20, 0x20	; 32
    80a2:	51 e4       	ldi	r21, 0x41	; 65
    80a4:	3d d2       	rcall	.+1146   	; 0x8520 <__mulsf3>
    80a6:	dc 01       	movw	r26, r24
    80a8:	cb 01       	movw	r24, r22
    80aa:	bc 01       	movw	r22, r24
    80ac:	cd 01       	movw	r24, r26
    80ae:	18 d1       	rcall	.+560    	; 0x82e0 <__fixunssfsi>
    80b0:	dc 01       	movw	r26, r24
    80b2:	cb 01       	movw	r24, r22
    80b4:	9e 83       	std	Y+6, r25	; 0x06
    80b6:	8d 83       	std	Y+5, r24	; 0x05
    80b8:	0f c0       	rjmp	.+30     	; 0x80d8 <yellowSide+0x1a12>
    80ba:	8a ef       	ldi	r24, 0xFA	; 250
    80bc:	90 e0       	ldi	r25, 0x00	; 0
    80be:	9c 83       	std	Y+4, r25	; 0x04
    80c0:	8b 83       	std	Y+3, r24	; 0x03
    80c2:	8b 81       	ldd	r24, Y+3	; 0x03
    80c4:	9c 81       	ldd	r25, Y+4	; 0x04
    80c6:	01 97       	sbiw	r24, 0x01	; 1
    80c8:	f1 f7       	brne	.-4      	; 0x80c6 <yellowSide+0x1a00>
    80ca:	9c 83       	std	Y+4, r25	; 0x04
    80cc:	8b 83       	std	Y+3, r24	; 0x03
    80ce:	8d 81       	ldd	r24, Y+5	; 0x05
    80d0:	9e 81       	ldd	r25, Y+6	; 0x06
    80d2:	01 97       	sbiw	r24, 0x01	; 1
    80d4:	9e 83       	std	Y+6, r25	; 0x06
    80d6:	8d 83       	std	Y+5, r24	; 0x05
    80d8:	8d 81       	ldd	r24, Y+5	; 0x05
    80da:	9e 81       	ldd	r25, Y+6	; 0x06
    80dc:	00 97       	sbiw	r24, 0x00	; 0
    80de:	69 f7       	brne	.-38     	; 0x80ba <yellowSide+0x19f4>
    80e0:	13 c0       	rjmp	.+38     	; 0x8108 <yellowSide+0x1a42>
    80e2:	6f 81       	ldd	r22, Y+7	; 0x07
    80e4:	78 85       	ldd	r23, Y+8	; 0x08
    80e6:	89 85       	ldd	r24, Y+9	; 0x09
    80e8:	9a 85       	ldd	r25, Y+10	; 0x0a
    80ea:	fa d0       	rcall	.+500    	; 0x82e0 <__fixunssfsi>
    80ec:	dc 01       	movw	r26, r24
    80ee:	cb 01       	movw	r24, r22
    80f0:	9e 83       	std	Y+6, r25	; 0x06
    80f2:	8d 83       	std	Y+5, r24	; 0x05
    80f4:	8d 81       	ldd	r24, Y+5	; 0x05
    80f6:	9e 81       	ldd	r25, Y+6	; 0x06
    80f8:	9a 83       	std	Y+2, r25	; 0x02
    80fa:	89 83       	std	Y+1, r24	; 0x01
    80fc:	89 81       	ldd	r24, Y+1	; 0x01
    80fe:	9a 81       	ldd	r25, Y+2	; 0x02
    8100:	01 97       	sbiw	r24, 0x01	; 1
    8102:	f1 f7       	brne	.-4      	; 0x8100 <yellowSide+0x1a3a>
    8104:	9a 83       	std	Y+2, r25	; 0x02
    8106:	89 83       	std	Y+1, r24	; 0x01
    8108:	84 ed       	ldi	r24, 0xD4	; 212
    810a:	9e ef       	ldi	r25, 0xFE	; 254
    810c:	62 e3       	ldi	r22, 0x32	; 50
    810e:	40 e0       	ldi	r20, 0x00	; 0
    8110:	50 e0       	ldi	r21, 0x00	; 0
    8112:	0e 94 cd 24 	call	0x499a	; 0x499a <moveOnDirection>
    8116:	ff cf       	rjmp	.-2      	; 0x8116 <yellowSide+0x1a50>
    8118:	de 01       	movw	r26, r28
    811a:	a0 50       	subi	r26, 0x00	; 0
    811c:	bf 4f       	sbci	r27, 0xFF	; 255
    811e:	fe 01       	movw	r30, r28
    8120:	e0 50       	subi	r30, 0x00	; 0
    8122:	ff 4f       	sbci	r31, 0xFF	; 255
    8124:	80 81       	ld	r24, Z
    8126:	8f 5f       	subi	r24, 0xFF	; 255
    8128:	8c 93       	st	X, r24
    812a:	fe 01       	movw	r30, r28
    812c:	e0 50       	subi	r30, 0x00	; 0
    812e:	ff 4f       	sbci	r31, 0xFF	; 255
    8130:	80 81       	ld	r24, Z
    8132:	8b 30       	cpi	r24, 0x0B	; 11
    8134:	10 f4       	brcc	.+4      	; 0x813a <yellowSide+0x1a74>
    8136:	0c 94 b0 33 	jmp	0x6760	; 0x6760 <yellowSide+0x9a>
    813a:	0c 94 9d 33 	jmp	0x673a	; 0x673a <yellowSide+0x74>

0000813e <__subsf3>:
    813e:	50 58       	subi	r21, 0x80	; 128

00008140 <__addsf3>:
    8140:	bb 27       	eor	r27, r27
    8142:	aa 27       	eor	r26, r26
    8144:	0e d0       	rcall	.+28     	; 0x8162 <__addsf3x>
    8146:	ae c1       	rjmp	.+860    	; 0x84a4 <__fp_round>
    8148:	9f d1       	rcall	.+830    	; 0x8488 <__fp_pscA>
    814a:	30 f0       	brcs	.+12     	; 0x8158 <__addsf3+0x18>
    814c:	a4 d1       	rcall	.+840    	; 0x8496 <__fp_pscB>
    814e:	20 f0       	brcs	.+8      	; 0x8158 <__addsf3+0x18>
    8150:	31 f4       	brne	.+12     	; 0x815e <__addsf3+0x1e>
    8152:	9f 3f       	cpi	r25, 0xFF	; 255
    8154:	11 f4       	brne	.+4      	; 0x815a <__addsf3+0x1a>
    8156:	1e f4       	brtc	.+6      	; 0x815e <__addsf3+0x1e>
    8158:	94 c1       	rjmp	.+808    	; 0x8482 <__fp_nan>
    815a:	0e f4       	brtc	.+2      	; 0x815e <__addsf3+0x1e>
    815c:	e0 95       	com	r30
    815e:	e7 fb       	bst	r30, 7
    8160:	8a c1       	rjmp	.+788    	; 0x8476 <__fp_inf>

00008162 <__addsf3x>:
    8162:	e9 2f       	mov	r30, r25
    8164:	b0 d1       	rcall	.+864    	; 0x84c6 <__fp_split3>
    8166:	80 f3       	brcs	.-32     	; 0x8148 <__addsf3+0x8>
    8168:	ba 17       	cp	r27, r26
    816a:	62 07       	cpc	r22, r18
    816c:	73 07       	cpc	r23, r19
    816e:	84 07       	cpc	r24, r20
    8170:	95 07       	cpc	r25, r21
    8172:	18 f0       	brcs	.+6      	; 0x817a <__addsf3x+0x18>
    8174:	71 f4       	brne	.+28     	; 0x8192 <__addsf3x+0x30>
    8176:	9e f5       	brtc	.+102    	; 0x81de <__addsf3x+0x7c>
    8178:	c8 c1       	rjmp	.+912    	; 0x850a <__fp_zero>
    817a:	0e f4       	brtc	.+2      	; 0x817e <__addsf3x+0x1c>
    817c:	e0 95       	com	r30
    817e:	0b 2e       	mov	r0, r27
    8180:	ba 2f       	mov	r27, r26
    8182:	a0 2d       	mov	r26, r0
    8184:	0b 01       	movw	r0, r22
    8186:	b9 01       	movw	r22, r18
    8188:	90 01       	movw	r18, r0
    818a:	0c 01       	movw	r0, r24
    818c:	ca 01       	movw	r24, r20
    818e:	a0 01       	movw	r20, r0
    8190:	11 24       	eor	r1, r1
    8192:	ff 27       	eor	r31, r31
    8194:	59 1b       	sub	r21, r25
    8196:	99 f0       	breq	.+38     	; 0x81be <__addsf3x+0x5c>
    8198:	59 3f       	cpi	r21, 0xF9	; 249
    819a:	50 f4       	brcc	.+20     	; 0x81b0 <__addsf3x+0x4e>
    819c:	50 3e       	cpi	r21, 0xE0	; 224
    819e:	68 f1       	brcs	.+90     	; 0x81fa <__addsf3x+0x98>
    81a0:	1a 16       	cp	r1, r26
    81a2:	f0 40       	sbci	r31, 0x00	; 0
    81a4:	a2 2f       	mov	r26, r18
    81a6:	23 2f       	mov	r18, r19
    81a8:	34 2f       	mov	r19, r20
    81aa:	44 27       	eor	r20, r20
    81ac:	58 5f       	subi	r21, 0xF8	; 248
    81ae:	f3 cf       	rjmp	.-26     	; 0x8196 <__addsf3x+0x34>
    81b0:	46 95       	lsr	r20
    81b2:	37 95       	ror	r19
    81b4:	27 95       	ror	r18
    81b6:	a7 95       	ror	r26
    81b8:	f0 40       	sbci	r31, 0x00	; 0
    81ba:	53 95       	inc	r21
    81bc:	c9 f7       	brne	.-14     	; 0x81b0 <__addsf3x+0x4e>
    81be:	7e f4       	brtc	.+30     	; 0x81de <__addsf3x+0x7c>
    81c0:	1f 16       	cp	r1, r31
    81c2:	ba 0b       	sbc	r27, r26
    81c4:	62 0b       	sbc	r22, r18
    81c6:	73 0b       	sbc	r23, r19
    81c8:	84 0b       	sbc	r24, r20
    81ca:	ba f0       	brmi	.+46     	; 0x81fa <__addsf3x+0x98>
    81cc:	91 50       	subi	r25, 0x01	; 1
    81ce:	a1 f0       	breq	.+40     	; 0x81f8 <__addsf3x+0x96>
    81d0:	ff 0f       	add	r31, r31
    81d2:	bb 1f       	adc	r27, r27
    81d4:	66 1f       	adc	r22, r22
    81d6:	77 1f       	adc	r23, r23
    81d8:	88 1f       	adc	r24, r24
    81da:	c2 f7       	brpl	.-16     	; 0x81cc <__addsf3x+0x6a>
    81dc:	0e c0       	rjmp	.+28     	; 0x81fa <__addsf3x+0x98>
    81de:	ba 0f       	add	r27, r26
    81e0:	62 1f       	adc	r22, r18
    81e2:	73 1f       	adc	r23, r19
    81e4:	84 1f       	adc	r24, r20
    81e6:	48 f4       	brcc	.+18     	; 0x81fa <__addsf3x+0x98>
    81e8:	87 95       	ror	r24
    81ea:	77 95       	ror	r23
    81ec:	67 95       	ror	r22
    81ee:	b7 95       	ror	r27
    81f0:	f7 95       	ror	r31
    81f2:	9e 3f       	cpi	r25, 0xFE	; 254
    81f4:	08 f0       	brcs	.+2      	; 0x81f8 <__addsf3x+0x96>
    81f6:	b3 cf       	rjmp	.-154    	; 0x815e <__addsf3+0x1e>
    81f8:	93 95       	inc	r25
    81fa:	88 0f       	add	r24, r24
    81fc:	08 f0       	brcs	.+2      	; 0x8200 <__addsf3x+0x9e>
    81fe:	99 27       	eor	r25, r25
    8200:	ee 0f       	add	r30, r30
    8202:	97 95       	ror	r25
    8204:	87 95       	ror	r24
    8206:	08 95       	ret

00008208 <__cmpsf2>:
    8208:	12 d1       	rcall	.+548    	; 0x842e <__fp_cmp>
    820a:	08 f4       	brcc	.+2      	; 0x820e <__cmpsf2+0x6>
    820c:	81 e0       	ldi	r24, 0x01	; 1
    820e:	08 95       	ret

00008210 <__divsf3>:
    8210:	0c d0       	rcall	.+24     	; 0x822a <__divsf3x>
    8212:	48 c1       	rjmp	.+656    	; 0x84a4 <__fp_round>
    8214:	40 d1       	rcall	.+640    	; 0x8496 <__fp_pscB>
    8216:	40 f0       	brcs	.+16     	; 0x8228 <__divsf3+0x18>
    8218:	37 d1       	rcall	.+622    	; 0x8488 <__fp_pscA>
    821a:	30 f0       	brcs	.+12     	; 0x8228 <__divsf3+0x18>
    821c:	21 f4       	brne	.+8      	; 0x8226 <__divsf3+0x16>
    821e:	5f 3f       	cpi	r21, 0xFF	; 255
    8220:	19 f0       	breq	.+6      	; 0x8228 <__divsf3+0x18>
    8222:	29 c1       	rjmp	.+594    	; 0x8476 <__fp_inf>
    8224:	51 11       	cpse	r21, r1
    8226:	72 c1       	rjmp	.+740    	; 0x850c <__fp_szero>
    8228:	2c c1       	rjmp	.+600    	; 0x8482 <__fp_nan>

0000822a <__divsf3x>:
    822a:	4d d1       	rcall	.+666    	; 0x84c6 <__fp_split3>
    822c:	98 f3       	brcs	.-26     	; 0x8214 <__divsf3+0x4>

0000822e <__divsf3_pse>:
    822e:	99 23       	and	r25, r25
    8230:	c9 f3       	breq	.-14     	; 0x8224 <__divsf3+0x14>
    8232:	55 23       	and	r21, r21
    8234:	b1 f3       	breq	.-20     	; 0x8222 <__divsf3+0x12>
    8236:	95 1b       	sub	r25, r21
    8238:	55 0b       	sbc	r21, r21
    823a:	bb 27       	eor	r27, r27
    823c:	aa 27       	eor	r26, r26
    823e:	62 17       	cp	r22, r18
    8240:	73 07       	cpc	r23, r19
    8242:	84 07       	cpc	r24, r20
    8244:	38 f0       	brcs	.+14     	; 0x8254 <__divsf3_pse+0x26>
    8246:	9f 5f       	subi	r25, 0xFF	; 255
    8248:	5f 4f       	sbci	r21, 0xFF	; 255
    824a:	22 0f       	add	r18, r18
    824c:	33 1f       	adc	r19, r19
    824e:	44 1f       	adc	r20, r20
    8250:	aa 1f       	adc	r26, r26
    8252:	a9 f3       	breq	.-22     	; 0x823e <__divsf3_pse+0x10>
    8254:	33 d0       	rcall	.+102    	; 0x82bc <__divsf3_pse+0x8e>
    8256:	0e 2e       	mov	r0, r30
    8258:	3a f0       	brmi	.+14     	; 0x8268 <__divsf3_pse+0x3a>
    825a:	e0 e8       	ldi	r30, 0x80	; 128
    825c:	30 d0       	rcall	.+96     	; 0x82be <__divsf3_pse+0x90>
    825e:	91 50       	subi	r25, 0x01	; 1
    8260:	50 40       	sbci	r21, 0x00	; 0
    8262:	e6 95       	lsr	r30
    8264:	00 1c       	adc	r0, r0
    8266:	ca f7       	brpl	.-14     	; 0x825a <__divsf3_pse+0x2c>
    8268:	29 d0       	rcall	.+82     	; 0x82bc <__divsf3_pse+0x8e>
    826a:	fe 2f       	mov	r31, r30
    826c:	27 d0       	rcall	.+78     	; 0x82bc <__divsf3_pse+0x8e>
    826e:	66 0f       	add	r22, r22
    8270:	77 1f       	adc	r23, r23
    8272:	88 1f       	adc	r24, r24
    8274:	bb 1f       	adc	r27, r27
    8276:	26 17       	cp	r18, r22
    8278:	37 07       	cpc	r19, r23
    827a:	48 07       	cpc	r20, r24
    827c:	ab 07       	cpc	r26, r27
    827e:	b0 e8       	ldi	r27, 0x80	; 128
    8280:	09 f0       	breq	.+2      	; 0x8284 <__divsf3_pse+0x56>
    8282:	bb 0b       	sbc	r27, r27
    8284:	80 2d       	mov	r24, r0
    8286:	bf 01       	movw	r22, r30
    8288:	ff 27       	eor	r31, r31
    828a:	93 58       	subi	r25, 0x83	; 131
    828c:	5f 4f       	sbci	r21, 0xFF	; 255
    828e:	2a f0       	brmi	.+10     	; 0x829a <__divsf3_pse+0x6c>
    8290:	9e 3f       	cpi	r25, 0xFE	; 254
    8292:	51 05       	cpc	r21, r1
    8294:	68 f0       	brcs	.+26     	; 0x82b0 <__divsf3_pse+0x82>
    8296:	ef c0       	rjmp	.+478    	; 0x8476 <__fp_inf>
    8298:	39 c1       	rjmp	.+626    	; 0x850c <__fp_szero>
    829a:	5f 3f       	cpi	r21, 0xFF	; 255
    829c:	ec f3       	brlt	.-6      	; 0x8298 <__divsf3_pse+0x6a>
    829e:	98 3e       	cpi	r25, 0xE8	; 232
    82a0:	dc f3       	brlt	.-10     	; 0x8298 <__divsf3_pse+0x6a>
    82a2:	86 95       	lsr	r24
    82a4:	77 95       	ror	r23
    82a6:	67 95       	ror	r22
    82a8:	b7 95       	ror	r27
    82aa:	f7 95       	ror	r31
    82ac:	9f 5f       	subi	r25, 0xFF	; 255
    82ae:	c9 f7       	brne	.-14     	; 0x82a2 <__divsf3_pse+0x74>
    82b0:	88 0f       	add	r24, r24
    82b2:	91 1d       	adc	r25, r1
    82b4:	96 95       	lsr	r25
    82b6:	87 95       	ror	r24
    82b8:	97 f9       	bld	r25, 7
    82ba:	08 95       	ret
    82bc:	e1 e0       	ldi	r30, 0x01	; 1
    82be:	66 0f       	add	r22, r22
    82c0:	77 1f       	adc	r23, r23
    82c2:	88 1f       	adc	r24, r24
    82c4:	bb 1f       	adc	r27, r27
    82c6:	62 17       	cp	r22, r18
    82c8:	73 07       	cpc	r23, r19
    82ca:	84 07       	cpc	r24, r20
    82cc:	ba 07       	cpc	r27, r26
    82ce:	20 f0       	brcs	.+8      	; 0x82d8 <__divsf3_pse+0xaa>
    82d0:	62 1b       	sub	r22, r18
    82d2:	73 0b       	sbc	r23, r19
    82d4:	84 0b       	sbc	r24, r20
    82d6:	ba 0b       	sbc	r27, r26
    82d8:	ee 1f       	adc	r30, r30
    82da:	88 f7       	brcc	.-30     	; 0x82be <__divsf3_pse+0x90>
    82dc:	e0 95       	com	r30
    82de:	08 95       	ret

000082e0 <__fixunssfsi>:
    82e0:	fa d0       	rcall	.+500    	; 0x84d6 <__fp_splitA>
    82e2:	88 f0       	brcs	.+34     	; 0x8306 <__fixunssfsi+0x26>
    82e4:	9f 57       	subi	r25, 0x7F	; 127
    82e6:	90 f0       	brcs	.+36     	; 0x830c <__fixunssfsi+0x2c>
    82e8:	b9 2f       	mov	r27, r25
    82ea:	99 27       	eor	r25, r25
    82ec:	b7 51       	subi	r27, 0x17	; 23
    82ee:	a0 f0       	brcs	.+40     	; 0x8318 <__fixunssfsi+0x38>
    82f0:	d1 f0       	breq	.+52     	; 0x8326 <__fixunssfsi+0x46>
    82f2:	66 0f       	add	r22, r22
    82f4:	77 1f       	adc	r23, r23
    82f6:	88 1f       	adc	r24, r24
    82f8:	99 1f       	adc	r25, r25
    82fa:	1a f0       	brmi	.+6      	; 0x8302 <__fixunssfsi+0x22>
    82fc:	ba 95       	dec	r27
    82fe:	c9 f7       	brne	.-14     	; 0x82f2 <__fixunssfsi+0x12>
    8300:	12 c0       	rjmp	.+36     	; 0x8326 <__fixunssfsi+0x46>
    8302:	b1 30       	cpi	r27, 0x01	; 1
    8304:	81 f0       	breq	.+32     	; 0x8326 <__fixunssfsi+0x46>
    8306:	01 d1       	rcall	.+514    	; 0x850a <__fp_zero>
    8308:	b1 e0       	ldi	r27, 0x01	; 1
    830a:	08 95       	ret
    830c:	fe c0       	rjmp	.+508    	; 0x850a <__fp_zero>
    830e:	67 2f       	mov	r22, r23
    8310:	78 2f       	mov	r23, r24
    8312:	88 27       	eor	r24, r24
    8314:	b8 5f       	subi	r27, 0xF8	; 248
    8316:	39 f0       	breq	.+14     	; 0x8326 <__fixunssfsi+0x46>
    8318:	b9 3f       	cpi	r27, 0xF9	; 249
    831a:	cc f3       	brlt	.-14     	; 0x830e <__fixunssfsi+0x2e>
    831c:	86 95       	lsr	r24
    831e:	77 95       	ror	r23
    8320:	67 95       	ror	r22
    8322:	b3 95       	inc	r27
    8324:	d9 f7       	brne	.-10     	; 0x831c <__fixunssfsi+0x3c>
    8326:	3e f4       	brtc	.+14     	; 0x8336 <__fixunssfsi+0x56>
    8328:	90 95       	com	r25
    832a:	80 95       	com	r24
    832c:	70 95       	com	r23
    832e:	61 95       	neg	r22
    8330:	7f 4f       	sbci	r23, 0xFF	; 255
    8332:	8f 4f       	sbci	r24, 0xFF	; 255
    8334:	9f 4f       	sbci	r25, 0xFF	; 255
    8336:	08 95       	ret

00008338 <__floatunsisf>:
    8338:	e8 94       	clt
    833a:	09 c0       	rjmp	.+18     	; 0x834e <__floatsisf+0x12>

0000833c <__floatsisf>:
    833c:	97 fb       	bst	r25, 7
    833e:	3e f4       	brtc	.+14     	; 0x834e <__floatsisf+0x12>
    8340:	90 95       	com	r25
    8342:	80 95       	com	r24
    8344:	70 95       	com	r23
    8346:	61 95       	neg	r22
    8348:	7f 4f       	sbci	r23, 0xFF	; 255
    834a:	8f 4f       	sbci	r24, 0xFF	; 255
    834c:	9f 4f       	sbci	r25, 0xFF	; 255
    834e:	99 23       	and	r25, r25
    8350:	a9 f0       	breq	.+42     	; 0x837c <__floatsisf+0x40>
    8352:	f9 2f       	mov	r31, r25
    8354:	96 e9       	ldi	r25, 0x96	; 150
    8356:	bb 27       	eor	r27, r27
    8358:	93 95       	inc	r25
    835a:	f6 95       	lsr	r31
    835c:	87 95       	ror	r24
    835e:	77 95       	ror	r23
    8360:	67 95       	ror	r22
    8362:	b7 95       	ror	r27
    8364:	f1 11       	cpse	r31, r1
    8366:	f8 cf       	rjmp	.-16     	; 0x8358 <__floatsisf+0x1c>
    8368:	fa f4       	brpl	.+62     	; 0x83a8 <__floatsisf+0x6c>
    836a:	bb 0f       	add	r27, r27
    836c:	11 f4       	brne	.+4      	; 0x8372 <__floatsisf+0x36>
    836e:	60 ff       	sbrs	r22, 0
    8370:	1b c0       	rjmp	.+54     	; 0x83a8 <__floatsisf+0x6c>
    8372:	6f 5f       	subi	r22, 0xFF	; 255
    8374:	7f 4f       	sbci	r23, 0xFF	; 255
    8376:	8f 4f       	sbci	r24, 0xFF	; 255
    8378:	9f 4f       	sbci	r25, 0xFF	; 255
    837a:	16 c0       	rjmp	.+44     	; 0x83a8 <__floatsisf+0x6c>
    837c:	88 23       	and	r24, r24
    837e:	11 f0       	breq	.+4      	; 0x8384 <__floatsisf+0x48>
    8380:	96 e9       	ldi	r25, 0x96	; 150
    8382:	11 c0       	rjmp	.+34     	; 0x83a6 <__floatsisf+0x6a>
    8384:	77 23       	and	r23, r23
    8386:	21 f0       	breq	.+8      	; 0x8390 <__floatsisf+0x54>
    8388:	9e e8       	ldi	r25, 0x8E	; 142
    838a:	87 2f       	mov	r24, r23
    838c:	76 2f       	mov	r23, r22
    838e:	05 c0       	rjmp	.+10     	; 0x839a <__floatsisf+0x5e>
    8390:	66 23       	and	r22, r22
    8392:	71 f0       	breq	.+28     	; 0x83b0 <__floatsisf+0x74>
    8394:	96 e8       	ldi	r25, 0x86	; 134
    8396:	86 2f       	mov	r24, r22
    8398:	70 e0       	ldi	r23, 0x00	; 0
    839a:	60 e0       	ldi	r22, 0x00	; 0
    839c:	2a f0       	brmi	.+10     	; 0x83a8 <__floatsisf+0x6c>
    839e:	9a 95       	dec	r25
    83a0:	66 0f       	add	r22, r22
    83a2:	77 1f       	adc	r23, r23
    83a4:	88 1f       	adc	r24, r24
    83a6:	da f7       	brpl	.-10     	; 0x839e <__floatsisf+0x62>
    83a8:	88 0f       	add	r24, r24
    83aa:	96 95       	lsr	r25
    83ac:	87 95       	ror	r24
    83ae:	97 f9       	bld	r25, 7
    83b0:	08 95       	ret

000083b2 <__floatundisf>:
    83b2:	e8 94       	clt

000083b4 <__fp_di2sf>:
    83b4:	f9 2f       	mov	r31, r25
    83b6:	96 eb       	ldi	r25, 0xB6	; 182
    83b8:	ff 23       	and	r31, r31
    83ba:	81 f0       	breq	.+32     	; 0x83dc <__fp_di2sf+0x28>
    83bc:	12 16       	cp	r1, r18
    83be:	13 06       	cpc	r1, r19
    83c0:	14 06       	cpc	r1, r20
    83c2:	44 0b       	sbc	r20, r20
    83c4:	93 95       	inc	r25
    83c6:	f6 95       	lsr	r31
    83c8:	87 95       	ror	r24
    83ca:	77 95       	ror	r23
    83cc:	67 95       	ror	r22
    83ce:	57 95       	ror	r21
    83d0:	40 40       	sbci	r20, 0x00	; 0
    83d2:	ff 23       	and	r31, r31
    83d4:	b9 f7       	brne	.-18     	; 0x83c4 <__fp_di2sf+0x10>
    83d6:	1b c0       	rjmp	.+54     	; 0x840e <__fp_di2sf+0x5a>
    83d8:	99 27       	eor	r25, r25
    83da:	08 95       	ret
    83dc:	88 23       	and	r24, r24
    83de:	51 f4       	brne	.+20     	; 0x83f4 <__fp_di2sf+0x40>
    83e0:	98 50       	subi	r25, 0x08	; 8
    83e2:	d2 f7       	brpl	.-12     	; 0x83d8 <__fp_di2sf+0x24>
    83e4:	87 2b       	or	r24, r23
    83e6:	76 2f       	mov	r23, r22
    83e8:	65 2f       	mov	r22, r21
    83ea:	54 2f       	mov	r21, r20
    83ec:	43 2f       	mov	r20, r19
    83ee:	32 2f       	mov	r19, r18
    83f0:	20 e0       	ldi	r18, 0x00	; 0
    83f2:	b1 f3       	breq	.-20     	; 0x83e0 <__fp_di2sf+0x2c>
    83f4:	12 16       	cp	r1, r18
    83f6:	13 06       	cpc	r1, r19
    83f8:	14 06       	cpc	r1, r20
    83fa:	44 0b       	sbc	r20, r20
    83fc:	88 23       	and	r24, r24
    83fe:	3a f0       	brmi	.+14     	; 0x840e <__fp_di2sf+0x5a>
    8400:	9a 95       	dec	r25
    8402:	44 0f       	add	r20, r20
    8404:	55 1f       	adc	r21, r21
    8406:	66 1f       	adc	r22, r22
    8408:	77 1f       	adc	r23, r23
    840a:	88 1f       	adc	r24, r24
    840c:	ca f7       	brpl	.-14     	; 0x8400 <__fp_di2sf+0x4c>
    840e:	55 23       	and	r21, r21
    8410:	4a f4       	brpl	.+18     	; 0x8424 <__fp_di2sf+0x70>
    8412:	44 0f       	add	r20, r20
    8414:	55 1f       	adc	r21, r21
    8416:	11 f4       	brne	.+4      	; 0x841c <__fp_di2sf+0x68>
    8418:	60 ff       	sbrs	r22, 0
    841a:	04 c0       	rjmp	.+8      	; 0x8424 <__fp_di2sf+0x70>
    841c:	6f 5f       	subi	r22, 0xFF	; 255
    841e:	7f 4f       	sbci	r23, 0xFF	; 255
    8420:	8f 4f       	sbci	r24, 0xFF	; 255
    8422:	9f 4f       	sbci	r25, 0xFF	; 255
    8424:	88 0f       	add	r24, r24
    8426:	96 95       	lsr	r25
    8428:	87 95       	ror	r24
    842a:	97 f9       	bld	r25, 7
    842c:	08 95       	ret

0000842e <__fp_cmp>:
    842e:	99 0f       	add	r25, r25
    8430:	00 08       	sbc	r0, r0
    8432:	55 0f       	add	r21, r21
    8434:	aa 0b       	sbc	r26, r26
    8436:	e0 e8       	ldi	r30, 0x80	; 128
    8438:	fe ef       	ldi	r31, 0xFE	; 254
    843a:	16 16       	cp	r1, r22
    843c:	17 06       	cpc	r1, r23
    843e:	e8 07       	cpc	r30, r24
    8440:	f9 07       	cpc	r31, r25
    8442:	c0 f0       	brcs	.+48     	; 0x8474 <__fp_cmp+0x46>
    8444:	12 16       	cp	r1, r18
    8446:	13 06       	cpc	r1, r19
    8448:	e4 07       	cpc	r30, r20
    844a:	f5 07       	cpc	r31, r21
    844c:	98 f0       	brcs	.+38     	; 0x8474 <__fp_cmp+0x46>
    844e:	62 1b       	sub	r22, r18
    8450:	73 0b       	sbc	r23, r19
    8452:	84 0b       	sbc	r24, r20
    8454:	95 0b       	sbc	r25, r21
    8456:	39 f4       	brne	.+14     	; 0x8466 <__fp_cmp+0x38>
    8458:	0a 26       	eor	r0, r26
    845a:	61 f0       	breq	.+24     	; 0x8474 <__fp_cmp+0x46>
    845c:	23 2b       	or	r18, r19
    845e:	24 2b       	or	r18, r20
    8460:	25 2b       	or	r18, r21
    8462:	21 f4       	brne	.+8      	; 0x846c <__fp_cmp+0x3e>
    8464:	08 95       	ret
    8466:	0a 26       	eor	r0, r26
    8468:	09 f4       	brne	.+2      	; 0x846c <__fp_cmp+0x3e>
    846a:	a1 40       	sbci	r26, 0x01	; 1
    846c:	a6 95       	lsr	r26
    846e:	8f ef       	ldi	r24, 0xFF	; 255
    8470:	81 1d       	adc	r24, r1
    8472:	81 1d       	adc	r24, r1
    8474:	08 95       	ret

00008476 <__fp_inf>:
    8476:	97 f9       	bld	r25, 7
    8478:	9f 67       	ori	r25, 0x7F	; 127
    847a:	80 e8       	ldi	r24, 0x80	; 128
    847c:	70 e0       	ldi	r23, 0x00	; 0
    847e:	60 e0       	ldi	r22, 0x00	; 0
    8480:	08 95       	ret

00008482 <__fp_nan>:
    8482:	9f ef       	ldi	r25, 0xFF	; 255
    8484:	80 ec       	ldi	r24, 0xC0	; 192
    8486:	08 95       	ret

00008488 <__fp_pscA>:
    8488:	00 24       	eor	r0, r0
    848a:	0a 94       	dec	r0
    848c:	16 16       	cp	r1, r22
    848e:	17 06       	cpc	r1, r23
    8490:	18 06       	cpc	r1, r24
    8492:	09 06       	cpc	r0, r25
    8494:	08 95       	ret

00008496 <__fp_pscB>:
    8496:	00 24       	eor	r0, r0
    8498:	0a 94       	dec	r0
    849a:	12 16       	cp	r1, r18
    849c:	13 06       	cpc	r1, r19
    849e:	14 06       	cpc	r1, r20
    84a0:	05 06       	cpc	r0, r21
    84a2:	08 95       	ret

000084a4 <__fp_round>:
    84a4:	09 2e       	mov	r0, r25
    84a6:	03 94       	inc	r0
    84a8:	00 0c       	add	r0, r0
    84aa:	11 f4       	brne	.+4      	; 0x84b0 <__fp_round+0xc>
    84ac:	88 23       	and	r24, r24
    84ae:	52 f0       	brmi	.+20     	; 0x84c4 <__fp_round+0x20>
    84b0:	bb 0f       	add	r27, r27
    84b2:	40 f4       	brcc	.+16     	; 0x84c4 <__fp_round+0x20>
    84b4:	bf 2b       	or	r27, r31
    84b6:	11 f4       	brne	.+4      	; 0x84bc <__fp_round+0x18>
    84b8:	60 ff       	sbrs	r22, 0
    84ba:	04 c0       	rjmp	.+8      	; 0x84c4 <__fp_round+0x20>
    84bc:	6f 5f       	subi	r22, 0xFF	; 255
    84be:	7f 4f       	sbci	r23, 0xFF	; 255
    84c0:	8f 4f       	sbci	r24, 0xFF	; 255
    84c2:	9f 4f       	sbci	r25, 0xFF	; 255
    84c4:	08 95       	ret

000084c6 <__fp_split3>:
    84c6:	57 fd       	sbrc	r21, 7
    84c8:	90 58       	subi	r25, 0x80	; 128
    84ca:	44 0f       	add	r20, r20
    84cc:	55 1f       	adc	r21, r21
    84ce:	59 f0       	breq	.+22     	; 0x84e6 <__fp_splitA+0x10>
    84d0:	5f 3f       	cpi	r21, 0xFF	; 255
    84d2:	71 f0       	breq	.+28     	; 0x84f0 <__fp_splitA+0x1a>
    84d4:	47 95       	ror	r20

000084d6 <__fp_splitA>:
    84d6:	88 0f       	add	r24, r24
    84d8:	97 fb       	bst	r25, 7
    84da:	99 1f       	adc	r25, r25
    84dc:	61 f0       	breq	.+24     	; 0x84f6 <__fp_splitA+0x20>
    84de:	9f 3f       	cpi	r25, 0xFF	; 255
    84e0:	79 f0       	breq	.+30     	; 0x8500 <__fp_splitA+0x2a>
    84e2:	87 95       	ror	r24
    84e4:	08 95       	ret
    84e6:	12 16       	cp	r1, r18
    84e8:	13 06       	cpc	r1, r19
    84ea:	14 06       	cpc	r1, r20
    84ec:	55 1f       	adc	r21, r21
    84ee:	f2 cf       	rjmp	.-28     	; 0x84d4 <__fp_split3+0xe>
    84f0:	46 95       	lsr	r20
    84f2:	f1 df       	rcall	.-30     	; 0x84d6 <__fp_splitA>
    84f4:	08 c0       	rjmp	.+16     	; 0x8506 <__fp_splitA+0x30>
    84f6:	16 16       	cp	r1, r22
    84f8:	17 06       	cpc	r1, r23
    84fa:	18 06       	cpc	r1, r24
    84fc:	99 1f       	adc	r25, r25
    84fe:	f1 cf       	rjmp	.-30     	; 0x84e2 <__fp_splitA+0xc>
    8500:	86 95       	lsr	r24
    8502:	71 05       	cpc	r23, r1
    8504:	61 05       	cpc	r22, r1
    8506:	08 94       	sec
    8508:	08 95       	ret

0000850a <__fp_zero>:
    850a:	e8 94       	clt

0000850c <__fp_szero>:
    850c:	bb 27       	eor	r27, r27
    850e:	66 27       	eor	r22, r22
    8510:	77 27       	eor	r23, r23
    8512:	cb 01       	movw	r24, r22
    8514:	97 f9       	bld	r25, 7
    8516:	08 95       	ret

00008518 <__gesf2>:
    8518:	8a df       	rcall	.-236    	; 0x842e <__fp_cmp>
    851a:	08 f4       	brcc	.+2      	; 0x851e <__gesf2+0x6>
    851c:	8f ef       	ldi	r24, 0xFF	; 255
    851e:	08 95       	ret

00008520 <__mulsf3>:
    8520:	0b d0       	rcall	.+22     	; 0x8538 <__mulsf3x>
    8522:	c0 cf       	rjmp	.-128    	; 0x84a4 <__fp_round>
    8524:	b1 df       	rcall	.-158    	; 0x8488 <__fp_pscA>
    8526:	28 f0       	brcs	.+10     	; 0x8532 <__mulsf3+0x12>
    8528:	b6 df       	rcall	.-148    	; 0x8496 <__fp_pscB>
    852a:	18 f0       	brcs	.+6      	; 0x8532 <__mulsf3+0x12>
    852c:	95 23       	and	r25, r21
    852e:	09 f0       	breq	.+2      	; 0x8532 <__mulsf3+0x12>
    8530:	a2 cf       	rjmp	.-188    	; 0x8476 <__fp_inf>
    8532:	a7 cf       	rjmp	.-178    	; 0x8482 <__fp_nan>
    8534:	11 24       	eor	r1, r1
    8536:	ea cf       	rjmp	.-44     	; 0x850c <__fp_szero>

00008538 <__mulsf3x>:
    8538:	c6 df       	rcall	.-116    	; 0x84c6 <__fp_split3>
    853a:	a0 f3       	brcs	.-24     	; 0x8524 <__mulsf3+0x4>

0000853c <__mulsf3_pse>:
    853c:	95 9f       	mul	r25, r21
    853e:	d1 f3       	breq	.-12     	; 0x8534 <__mulsf3+0x14>
    8540:	95 0f       	add	r25, r21
    8542:	50 e0       	ldi	r21, 0x00	; 0
    8544:	55 1f       	adc	r21, r21
    8546:	62 9f       	mul	r22, r18
    8548:	f0 01       	movw	r30, r0
    854a:	72 9f       	mul	r23, r18
    854c:	bb 27       	eor	r27, r27
    854e:	f0 0d       	add	r31, r0
    8550:	b1 1d       	adc	r27, r1
    8552:	63 9f       	mul	r22, r19
    8554:	aa 27       	eor	r26, r26
    8556:	f0 0d       	add	r31, r0
    8558:	b1 1d       	adc	r27, r1
    855a:	aa 1f       	adc	r26, r26
    855c:	64 9f       	mul	r22, r20
    855e:	66 27       	eor	r22, r22
    8560:	b0 0d       	add	r27, r0
    8562:	a1 1d       	adc	r26, r1
    8564:	66 1f       	adc	r22, r22
    8566:	82 9f       	mul	r24, r18
    8568:	22 27       	eor	r18, r18
    856a:	b0 0d       	add	r27, r0
    856c:	a1 1d       	adc	r26, r1
    856e:	62 1f       	adc	r22, r18
    8570:	73 9f       	mul	r23, r19
    8572:	b0 0d       	add	r27, r0
    8574:	a1 1d       	adc	r26, r1
    8576:	62 1f       	adc	r22, r18
    8578:	83 9f       	mul	r24, r19
    857a:	a0 0d       	add	r26, r0
    857c:	61 1d       	adc	r22, r1
    857e:	22 1f       	adc	r18, r18
    8580:	74 9f       	mul	r23, r20
    8582:	33 27       	eor	r19, r19
    8584:	a0 0d       	add	r26, r0
    8586:	61 1d       	adc	r22, r1
    8588:	23 1f       	adc	r18, r19
    858a:	84 9f       	mul	r24, r20
    858c:	60 0d       	add	r22, r0
    858e:	21 1d       	adc	r18, r1
    8590:	82 2f       	mov	r24, r18
    8592:	76 2f       	mov	r23, r22
    8594:	6a 2f       	mov	r22, r26
    8596:	11 24       	eor	r1, r1
    8598:	9f 57       	subi	r25, 0x7F	; 127
    859a:	50 40       	sbci	r21, 0x00	; 0
    859c:	8a f0       	brmi	.+34     	; 0x85c0 <__mulsf3_pse+0x84>
    859e:	e1 f0       	breq	.+56     	; 0x85d8 <__mulsf3_pse+0x9c>
    85a0:	88 23       	and	r24, r24
    85a2:	4a f0       	brmi	.+18     	; 0x85b6 <__mulsf3_pse+0x7a>
    85a4:	ee 0f       	add	r30, r30
    85a6:	ff 1f       	adc	r31, r31
    85a8:	bb 1f       	adc	r27, r27
    85aa:	66 1f       	adc	r22, r22
    85ac:	77 1f       	adc	r23, r23
    85ae:	88 1f       	adc	r24, r24
    85b0:	91 50       	subi	r25, 0x01	; 1
    85b2:	50 40       	sbci	r21, 0x00	; 0
    85b4:	a9 f7       	brne	.-22     	; 0x85a0 <__mulsf3_pse+0x64>
    85b6:	9e 3f       	cpi	r25, 0xFE	; 254
    85b8:	51 05       	cpc	r21, r1
    85ba:	70 f0       	brcs	.+28     	; 0x85d8 <__mulsf3_pse+0x9c>
    85bc:	5c cf       	rjmp	.-328    	; 0x8476 <__fp_inf>
    85be:	a6 cf       	rjmp	.-180    	; 0x850c <__fp_szero>
    85c0:	5f 3f       	cpi	r21, 0xFF	; 255
    85c2:	ec f3       	brlt	.-6      	; 0x85be <__mulsf3_pse+0x82>
    85c4:	98 3e       	cpi	r25, 0xE8	; 232
    85c6:	dc f3       	brlt	.-10     	; 0x85be <__mulsf3_pse+0x82>
    85c8:	86 95       	lsr	r24
    85ca:	77 95       	ror	r23
    85cc:	67 95       	ror	r22
    85ce:	b7 95       	ror	r27
    85d0:	f7 95       	ror	r31
    85d2:	e7 95       	ror	r30
    85d4:	9f 5f       	subi	r25, 0xFF	; 255
    85d6:	c1 f7       	brne	.-16     	; 0x85c8 <__mulsf3_pse+0x8c>
    85d8:	fe 2b       	or	r31, r30
    85da:	88 0f       	add	r24, r24
    85dc:	91 1d       	adc	r25, r1
    85de:	96 95       	lsr	r25
    85e0:	87 95       	ror	r24
    85e2:	97 f9       	bld	r25, 7
    85e4:	08 95       	ret

000085e6 <__udivmodsi4>:
    85e6:	a1 e2       	ldi	r26, 0x21	; 33
    85e8:	1a 2e       	mov	r1, r26
    85ea:	aa 1b       	sub	r26, r26
    85ec:	bb 1b       	sub	r27, r27
    85ee:	fd 01       	movw	r30, r26
    85f0:	0d c0       	rjmp	.+26     	; 0x860c <__udivmodsi4_ep>

000085f2 <__udivmodsi4_loop>:
    85f2:	aa 1f       	adc	r26, r26
    85f4:	bb 1f       	adc	r27, r27
    85f6:	ee 1f       	adc	r30, r30
    85f8:	ff 1f       	adc	r31, r31
    85fa:	a2 17       	cp	r26, r18
    85fc:	b3 07       	cpc	r27, r19
    85fe:	e4 07       	cpc	r30, r20
    8600:	f5 07       	cpc	r31, r21
    8602:	20 f0       	brcs	.+8      	; 0x860c <__udivmodsi4_ep>
    8604:	a2 1b       	sub	r26, r18
    8606:	b3 0b       	sbc	r27, r19
    8608:	e4 0b       	sbc	r30, r20
    860a:	f5 0b       	sbc	r31, r21

0000860c <__udivmodsi4_ep>:
    860c:	66 1f       	adc	r22, r22
    860e:	77 1f       	adc	r23, r23
    8610:	88 1f       	adc	r24, r24
    8612:	99 1f       	adc	r25, r25
    8614:	1a 94       	dec	r1
    8616:	69 f7       	brne	.-38     	; 0x85f2 <__udivmodsi4_loop>
    8618:	60 95       	com	r22
    861a:	70 95       	com	r23
    861c:	80 95       	com	r24
    861e:	90 95       	com	r25
    8620:	9b 01       	movw	r18, r22
    8622:	ac 01       	movw	r20, r24
    8624:	bd 01       	movw	r22, r26
    8626:	cf 01       	movw	r24, r30
    8628:	08 95       	ret

0000862a <__mulsi3>:
    862a:	62 9f       	mul	r22, r18
    862c:	d0 01       	movw	r26, r0
    862e:	73 9f       	mul	r23, r19
    8630:	f0 01       	movw	r30, r0
    8632:	82 9f       	mul	r24, r18
    8634:	e0 0d       	add	r30, r0
    8636:	f1 1d       	adc	r31, r1
    8638:	64 9f       	mul	r22, r20
    863a:	e0 0d       	add	r30, r0
    863c:	f1 1d       	adc	r31, r1
    863e:	92 9f       	mul	r25, r18
    8640:	f0 0d       	add	r31, r0
    8642:	83 9f       	mul	r24, r19
    8644:	f0 0d       	add	r31, r0
    8646:	74 9f       	mul	r23, r20
    8648:	f0 0d       	add	r31, r0
    864a:	65 9f       	mul	r22, r21
    864c:	f0 0d       	add	r31, r0
    864e:	99 27       	eor	r25, r25
    8650:	72 9f       	mul	r23, r18
    8652:	b0 0d       	add	r27, r0
    8654:	e1 1d       	adc	r30, r1
    8656:	f9 1f       	adc	r31, r25
    8658:	63 9f       	mul	r22, r19
    865a:	b0 0d       	add	r27, r0
    865c:	e1 1d       	adc	r30, r1
    865e:	f9 1f       	adc	r31, r25
    8660:	bd 01       	movw	r22, r26
    8662:	cf 01       	movw	r24, r30
    8664:	11 24       	eor	r1, r1
    8666:	08 95       	ret

00008668 <__prologue_saves__>:
    8668:	2f 92       	push	r2
    866a:	3f 92       	push	r3
    866c:	4f 92       	push	r4
    866e:	5f 92       	push	r5
    8670:	6f 92       	push	r6
    8672:	7f 92       	push	r7
    8674:	8f 92       	push	r8
    8676:	9f 92       	push	r9
    8678:	af 92       	push	r10
    867a:	bf 92       	push	r11
    867c:	cf 92       	push	r12
    867e:	df 92       	push	r13
    8680:	ef 92       	push	r14
    8682:	ff 92       	push	r15
    8684:	0f 93       	push	r16
    8686:	1f 93       	push	r17
    8688:	cf 93       	push	r28
    868a:	df 93       	push	r29
    868c:	cd b7       	in	r28, 0x3d	; 61
    868e:	de b7       	in	r29, 0x3e	; 62
    8690:	ca 1b       	sub	r28, r26
    8692:	db 0b       	sbc	r29, r27
    8694:	0f b6       	in	r0, 0x3f	; 63
    8696:	f8 94       	cli
    8698:	de bf       	out	0x3e, r29	; 62
    869a:	0f be       	out	0x3f, r0	; 63
    869c:	cd bf       	out	0x3d, r28	; 61
    869e:	09 94       	ijmp

000086a0 <__epilogue_restores__>:
    86a0:	2a 88       	ldd	r2, Y+18	; 0x12
    86a2:	39 88       	ldd	r3, Y+17	; 0x11
    86a4:	48 88       	ldd	r4, Y+16	; 0x10
    86a6:	5f 84       	ldd	r5, Y+15	; 0x0f
    86a8:	6e 84       	ldd	r6, Y+14	; 0x0e
    86aa:	7d 84       	ldd	r7, Y+13	; 0x0d
    86ac:	8c 84       	ldd	r8, Y+12	; 0x0c
    86ae:	9b 84       	ldd	r9, Y+11	; 0x0b
    86b0:	aa 84       	ldd	r10, Y+10	; 0x0a
    86b2:	b9 84       	ldd	r11, Y+9	; 0x09
    86b4:	c8 84       	ldd	r12, Y+8	; 0x08
    86b6:	df 80       	ldd	r13, Y+7	; 0x07
    86b8:	ee 80       	ldd	r14, Y+6	; 0x06
    86ba:	fd 80       	ldd	r15, Y+5	; 0x05
    86bc:	0c 81       	ldd	r16, Y+4	; 0x04
    86be:	1b 81       	ldd	r17, Y+3	; 0x03
    86c0:	aa 81       	ldd	r26, Y+2	; 0x02
    86c2:	b9 81       	ldd	r27, Y+1	; 0x01
    86c4:	ce 0f       	add	r28, r30
    86c6:	d1 1d       	adc	r29, r1
    86c8:	0f b6       	in	r0, 0x3f	; 63
    86ca:	f8 94       	cli
    86cc:	de bf       	out	0x3e, r29	; 62
    86ce:	0f be       	out	0x3f, r0	; 63
    86d0:	cd bf       	out	0x3d, r28	; 61
    86d2:	ed 01       	movw	r28, r26
    86d4:	08 95       	ret

000086d6 <calloc>:
    86d6:	0f 93       	push	r16
    86d8:	1f 93       	push	r17
    86da:	cf 93       	push	r28
    86dc:	df 93       	push	r29
    86de:	68 9f       	mul	r22, r24
    86e0:	80 01       	movw	r16, r0
    86e2:	69 9f       	mul	r22, r25
    86e4:	10 0d       	add	r17, r0
    86e6:	78 9f       	mul	r23, r24
    86e8:	10 0d       	add	r17, r0
    86ea:	11 24       	eor	r1, r1
    86ec:	c8 01       	movw	r24, r16
    86ee:	0d d0       	rcall	.+26     	; 0x870a <malloc>
    86f0:	ec 01       	movw	r28, r24
    86f2:	00 97       	sbiw	r24, 0x00	; 0
    86f4:	21 f0       	breq	.+8      	; 0x86fe <calloc+0x28>
    86f6:	60 e0       	ldi	r22, 0x00	; 0
    86f8:	70 e0       	ldi	r23, 0x00	; 0
    86fa:	a8 01       	movw	r20, r16
    86fc:	0b d1       	rcall	.+534    	; 0x8914 <memset>
    86fe:	ce 01       	movw	r24, r28
    8700:	df 91       	pop	r29
    8702:	cf 91       	pop	r28
    8704:	1f 91       	pop	r17
    8706:	0f 91       	pop	r16
    8708:	08 95       	ret

0000870a <malloc>:
    870a:	cf 93       	push	r28
    870c:	df 93       	push	r29
    870e:	bc 01       	movw	r22, r24
    8710:	82 30       	cpi	r24, 0x02	; 2
    8712:	91 05       	cpc	r25, r1
    8714:	10 f4       	brcc	.+4      	; 0x871a <malloc+0x10>
    8716:	62 e0       	ldi	r22, 0x02	; 2
    8718:	70 e0       	ldi	r23, 0x00	; 0
    871a:	a0 91 62 04 	lds	r26, 0x0462
    871e:	b0 91 63 04 	lds	r27, 0x0463
    8722:	ed 01       	movw	r28, r26
    8724:	e0 e0       	ldi	r30, 0x00	; 0
    8726:	f0 e0       	ldi	r31, 0x00	; 0
    8728:	40 e0       	ldi	r20, 0x00	; 0
    872a:	50 e0       	ldi	r21, 0x00	; 0
    872c:	21 c0       	rjmp	.+66     	; 0x8770 <malloc+0x66>
    872e:	88 81       	ld	r24, Y
    8730:	99 81       	ldd	r25, Y+1	; 0x01
    8732:	86 17       	cp	r24, r22
    8734:	97 07       	cpc	r25, r23
    8736:	69 f4       	brne	.+26     	; 0x8752 <malloc+0x48>
    8738:	8a 81       	ldd	r24, Y+2	; 0x02
    873a:	9b 81       	ldd	r25, Y+3	; 0x03
    873c:	30 97       	sbiw	r30, 0x00	; 0
    873e:	19 f0       	breq	.+6      	; 0x8746 <malloc+0x3c>
    8740:	93 83       	std	Z+3, r25	; 0x03
    8742:	82 83       	std	Z+2, r24	; 0x02
    8744:	04 c0       	rjmp	.+8      	; 0x874e <malloc+0x44>
    8746:	90 93 63 04 	sts	0x0463, r25
    874a:	80 93 62 04 	sts	0x0462, r24
    874e:	fe 01       	movw	r30, r28
    8750:	34 c0       	rjmp	.+104    	; 0x87ba <malloc+0xb0>
    8752:	68 17       	cp	r22, r24
    8754:	79 07       	cpc	r23, r25
    8756:	38 f4       	brcc	.+14     	; 0x8766 <malloc+0x5c>
    8758:	41 15       	cp	r20, r1
    875a:	51 05       	cpc	r21, r1
    875c:	19 f0       	breq	.+6      	; 0x8764 <malloc+0x5a>
    875e:	84 17       	cp	r24, r20
    8760:	95 07       	cpc	r25, r21
    8762:	08 f4       	brcc	.+2      	; 0x8766 <malloc+0x5c>
    8764:	ac 01       	movw	r20, r24
    8766:	fe 01       	movw	r30, r28
    8768:	8a 81       	ldd	r24, Y+2	; 0x02
    876a:	9b 81       	ldd	r25, Y+3	; 0x03
    876c:	9c 01       	movw	r18, r24
    876e:	e9 01       	movw	r28, r18
    8770:	20 97       	sbiw	r28, 0x00	; 0
    8772:	e9 f6       	brne	.-70     	; 0x872e <malloc+0x24>
    8774:	41 15       	cp	r20, r1
    8776:	51 05       	cpc	r21, r1
    8778:	a9 f1       	breq	.+106    	; 0x87e4 <malloc+0xda>
    877a:	ca 01       	movw	r24, r20
    877c:	86 1b       	sub	r24, r22
    877e:	97 0b       	sbc	r25, r23
    8780:	04 97       	sbiw	r24, 0x04	; 4
    8782:	08 f4       	brcc	.+2      	; 0x8786 <malloc+0x7c>
    8784:	ba 01       	movw	r22, r20
    8786:	e0 e0       	ldi	r30, 0x00	; 0
    8788:	f0 e0       	ldi	r31, 0x00	; 0
    878a:	2a c0       	rjmp	.+84     	; 0x87e0 <malloc+0xd6>
    878c:	8d 91       	ld	r24, X+
    878e:	9c 91       	ld	r25, X
    8790:	11 97       	sbiw	r26, 0x01	; 1
    8792:	84 17       	cp	r24, r20
    8794:	95 07       	cpc	r25, r21
    8796:	f9 f4       	brne	.+62     	; 0x87d6 <malloc+0xcc>
    8798:	64 17       	cp	r22, r20
    879a:	75 07       	cpc	r23, r21
    879c:	81 f4       	brne	.+32     	; 0x87be <malloc+0xb4>
    879e:	12 96       	adiw	r26, 0x02	; 2
    87a0:	8d 91       	ld	r24, X+
    87a2:	9c 91       	ld	r25, X
    87a4:	13 97       	sbiw	r26, 0x03	; 3
    87a6:	30 97       	sbiw	r30, 0x00	; 0
    87a8:	19 f0       	breq	.+6      	; 0x87b0 <malloc+0xa6>
    87aa:	93 83       	std	Z+3, r25	; 0x03
    87ac:	82 83       	std	Z+2, r24	; 0x02
    87ae:	04 c0       	rjmp	.+8      	; 0x87b8 <malloc+0xae>
    87b0:	90 93 63 04 	sts	0x0463, r25
    87b4:	80 93 62 04 	sts	0x0462, r24
    87b8:	fd 01       	movw	r30, r26
    87ba:	32 96       	adiw	r30, 0x02	; 2
    87bc:	4f c0       	rjmp	.+158    	; 0x885c <malloc+0x152>
    87be:	ca 01       	movw	r24, r20
    87c0:	86 1b       	sub	r24, r22
    87c2:	97 0b       	sbc	r25, r23
    87c4:	fd 01       	movw	r30, r26
    87c6:	e8 0f       	add	r30, r24
    87c8:	f9 1f       	adc	r31, r25
    87ca:	61 93       	st	Z+, r22
    87cc:	71 93       	st	Z+, r23
    87ce:	02 97       	sbiw	r24, 0x02	; 2
    87d0:	8d 93       	st	X+, r24
    87d2:	9c 93       	st	X, r25
    87d4:	43 c0       	rjmp	.+134    	; 0x885c <malloc+0x152>
    87d6:	fd 01       	movw	r30, r26
    87d8:	82 81       	ldd	r24, Z+2	; 0x02
    87da:	93 81       	ldd	r25, Z+3	; 0x03
    87dc:	9c 01       	movw	r18, r24
    87de:	d9 01       	movw	r26, r18
    87e0:	10 97       	sbiw	r26, 0x00	; 0
    87e2:	a1 f6       	brne	.-88     	; 0x878c <malloc+0x82>
    87e4:	80 91 60 04 	lds	r24, 0x0460
    87e8:	90 91 61 04 	lds	r25, 0x0461
    87ec:	89 2b       	or	r24, r25
    87ee:	41 f4       	brne	.+16     	; 0x8800 <malloc+0xf6>
    87f0:	80 91 02 02 	lds	r24, 0x0202
    87f4:	90 91 03 02 	lds	r25, 0x0203
    87f8:	90 93 61 04 	sts	0x0461, r25
    87fc:	80 93 60 04 	sts	0x0460, r24
    8800:	40 91 04 02 	lds	r20, 0x0204
    8804:	50 91 05 02 	lds	r21, 0x0205
    8808:	41 15       	cp	r20, r1
    880a:	51 05       	cpc	r21, r1
    880c:	41 f4       	brne	.+16     	; 0x881e <malloc+0x114>
    880e:	4d b7       	in	r20, 0x3d	; 61
    8810:	5e b7       	in	r21, 0x3e	; 62
    8812:	80 91 00 02 	lds	r24, 0x0200
    8816:	90 91 01 02 	lds	r25, 0x0201
    881a:	48 1b       	sub	r20, r24
    881c:	59 0b       	sbc	r21, r25
    881e:	20 91 60 04 	lds	r18, 0x0460
    8822:	30 91 61 04 	lds	r19, 0x0461
    8826:	24 17       	cp	r18, r20
    8828:	35 07       	cpc	r19, r21
    882a:	b0 f4       	brcc	.+44     	; 0x8858 <malloc+0x14e>
    882c:	ca 01       	movw	r24, r20
    882e:	82 1b       	sub	r24, r18
    8830:	93 0b       	sbc	r25, r19
    8832:	86 17       	cp	r24, r22
    8834:	97 07       	cpc	r25, r23
    8836:	80 f0       	brcs	.+32     	; 0x8858 <malloc+0x14e>
    8838:	ab 01       	movw	r20, r22
    883a:	4e 5f       	subi	r20, 0xFE	; 254
    883c:	5f 4f       	sbci	r21, 0xFF	; 255
    883e:	84 17       	cp	r24, r20
    8840:	95 07       	cpc	r25, r21
    8842:	50 f0       	brcs	.+20     	; 0x8858 <malloc+0x14e>
    8844:	42 0f       	add	r20, r18
    8846:	53 1f       	adc	r21, r19
    8848:	50 93 61 04 	sts	0x0461, r21
    884c:	40 93 60 04 	sts	0x0460, r20
    8850:	f9 01       	movw	r30, r18
    8852:	61 93       	st	Z+, r22
    8854:	71 93       	st	Z+, r23
    8856:	02 c0       	rjmp	.+4      	; 0x885c <malloc+0x152>
    8858:	e0 e0       	ldi	r30, 0x00	; 0
    885a:	f0 e0       	ldi	r31, 0x00	; 0
    885c:	cf 01       	movw	r24, r30
    885e:	df 91       	pop	r29
    8860:	cf 91       	pop	r28
    8862:	08 95       	ret

00008864 <free>:
    8864:	cf 93       	push	r28
    8866:	df 93       	push	r29
    8868:	00 97       	sbiw	r24, 0x00	; 0
    886a:	09 f4       	brne	.+2      	; 0x886e <free+0xa>
    886c:	50 c0       	rjmp	.+160    	; 0x890e <free+0xaa>
    886e:	ec 01       	movw	r28, r24
    8870:	22 97       	sbiw	r28, 0x02	; 2
    8872:	1b 82       	std	Y+3, r1	; 0x03
    8874:	1a 82       	std	Y+2, r1	; 0x02
    8876:	a0 91 62 04 	lds	r26, 0x0462
    887a:	b0 91 63 04 	lds	r27, 0x0463
    887e:	10 97       	sbiw	r26, 0x00	; 0
    8880:	09 f1       	breq	.+66     	; 0x88c4 <free+0x60>
    8882:	40 e0       	ldi	r20, 0x00	; 0
    8884:	50 e0       	ldi	r21, 0x00	; 0
    8886:	ac 17       	cp	r26, r28
    8888:	bd 07       	cpc	r27, r29
    888a:	08 f1       	brcs	.+66     	; 0x88ce <free+0x6a>
    888c:	bb 83       	std	Y+3, r27	; 0x03
    888e:	aa 83       	std	Y+2, r26	; 0x02
    8890:	fe 01       	movw	r30, r28
    8892:	21 91       	ld	r18, Z+
    8894:	31 91       	ld	r19, Z+
    8896:	e2 0f       	add	r30, r18
    8898:	f3 1f       	adc	r31, r19
    889a:	ae 17       	cp	r26, r30
    889c:	bf 07       	cpc	r27, r31
    889e:	79 f4       	brne	.+30     	; 0x88be <free+0x5a>
    88a0:	8d 91       	ld	r24, X+
    88a2:	9c 91       	ld	r25, X
    88a4:	11 97       	sbiw	r26, 0x01	; 1
    88a6:	28 0f       	add	r18, r24
    88a8:	39 1f       	adc	r19, r25
    88aa:	2e 5f       	subi	r18, 0xFE	; 254
    88ac:	3f 4f       	sbci	r19, 0xFF	; 255
    88ae:	39 83       	std	Y+1, r19	; 0x01
    88b0:	28 83       	st	Y, r18
    88b2:	12 96       	adiw	r26, 0x02	; 2
    88b4:	8d 91       	ld	r24, X+
    88b6:	9c 91       	ld	r25, X
    88b8:	13 97       	sbiw	r26, 0x03	; 3
    88ba:	9b 83       	std	Y+3, r25	; 0x03
    88bc:	8a 83       	std	Y+2, r24	; 0x02
    88be:	41 15       	cp	r20, r1
    88c0:	51 05       	cpc	r21, r1
    88c2:	71 f4       	brne	.+28     	; 0x88e0 <free+0x7c>
    88c4:	d0 93 63 04 	sts	0x0463, r29
    88c8:	c0 93 62 04 	sts	0x0462, r28
    88cc:	20 c0       	rjmp	.+64     	; 0x890e <free+0xaa>
    88ce:	12 96       	adiw	r26, 0x02	; 2
    88d0:	8d 91       	ld	r24, X+
    88d2:	9c 91       	ld	r25, X
    88d4:	13 97       	sbiw	r26, 0x03	; 3
    88d6:	ad 01       	movw	r20, r26
    88d8:	00 97       	sbiw	r24, 0x00	; 0
    88da:	11 f0       	breq	.+4      	; 0x88e0 <free+0x7c>
    88dc:	dc 01       	movw	r26, r24
    88de:	d3 cf       	rjmp	.-90     	; 0x8886 <free+0x22>
    88e0:	fa 01       	movw	r30, r20
    88e2:	d3 83       	std	Z+3, r29	; 0x03
    88e4:	c2 83       	std	Z+2, r28	; 0x02
    88e6:	21 91       	ld	r18, Z+
    88e8:	31 91       	ld	r19, Z+
    88ea:	e2 0f       	add	r30, r18
    88ec:	f3 1f       	adc	r31, r19
    88ee:	ce 17       	cp	r28, r30
    88f0:	df 07       	cpc	r29, r31
    88f2:	69 f4       	brne	.+26     	; 0x890e <free+0xaa>
    88f4:	88 81       	ld	r24, Y
    88f6:	99 81       	ldd	r25, Y+1	; 0x01
    88f8:	28 0f       	add	r18, r24
    88fa:	39 1f       	adc	r19, r25
    88fc:	2e 5f       	subi	r18, 0xFE	; 254
    88fe:	3f 4f       	sbci	r19, 0xFF	; 255
    8900:	fa 01       	movw	r30, r20
    8902:	31 83       	std	Z+1, r19	; 0x01
    8904:	20 83       	st	Z, r18
    8906:	8a 81       	ldd	r24, Y+2	; 0x02
    8908:	9b 81       	ldd	r25, Y+3	; 0x03
    890a:	93 83       	std	Z+3, r25	; 0x03
    890c:	82 83       	std	Z+2, r24	; 0x02
    890e:	df 91       	pop	r29
    8910:	cf 91       	pop	r28
    8912:	08 95       	ret

00008914 <memset>:
    8914:	dc 01       	movw	r26, r24
    8916:	01 c0       	rjmp	.+2      	; 0x891a <memset+0x6>
    8918:	6d 93       	st	X+, r22
    891a:	41 50       	subi	r20, 0x01	; 1
    891c:	50 40       	sbci	r21, 0x00	; 0
    891e:	e0 f7       	brcc	.-8      	; 0x8918 <memset+0x4>
    8920:	08 95       	ret

00008922 <vfprintf>:
    8922:	2f 92       	push	r2
    8924:	3f 92       	push	r3
    8926:	4f 92       	push	r4
    8928:	5f 92       	push	r5
    892a:	6f 92       	push	r6
    892c:	7f 92       	push	r7
    892e:	8f 92       	push	r8
    8930:	9f 92       	push	r9
    8932:	af 92       	push	r10
    8934:	bf 92       	push	r11
    8936:	cf 92       	push	r12
    8938:	df 92       	push	r13
    893a:	ef 92       	push	r14
    893c:	ff 92       	push	r15
    893e:	0f 93       	push	r16
    8940:	1f 93       	push	r17
    8942:	df 93       	push	r29
    8944:	cf 93       	push	r28
    8946:	cd b7       	in	r28, 0x3d	; 61
    8948:	de b7       	in	r29, 0x3e	; 62
    894a:	2b 97       	sbiw	r28, 0x0b	; 11
    894c:	0f b6       	in	r0, 0x3f	; 63
    894e:	f8 94       	cli
    8950:	de bf       	out	0x3e, r29	; 62
    8952:	0f be       	out	0x3f, r0	; 63
    8954:	cd bf       	out	0x3d, r28	; 61
    8956:	3c 01       	movw	r6, r24
    8958:	2b 01       	movw	r4, r22
    895a:	5a 01       	movw	r10, r20
    895c:	fc 01       	movw	r30, r24
    895e:	17 82       	std	Z+7, r1	; 0x07
    8960:	16 82       	std	Z+6, r1	; 0x06
    8962:	83 81       	ldd	r24, Z+3	; 0x03
    8964:	81 fd       	sbrc	r24, 1
    8966:	03 c0       	rjmp	.+6      	; 0x896e <vfprintf+0x4c>
    8968:	6f ef       	ldi	r22, 0xFF	; 255
    896a:	7f ef       	ldi	r23, 0xFF	; 255
    896c:	b9 c1       	rjmp	.+882    	; 0x8ce0 <vfprintf+0x3be>
    896e:	9a e0       	ldi	r25, 0x0A	; 10
    8970:	89 2e       	mov	r8, r25
    8972:	1e 01       	movw	r2, r28
    8974:	08 94       	sec
    8976:	21 1c       	adc	r2, r1
    8978:	31 1c       	adc	r3, r1
    897a:	f3 01       	movw	r30, r6
    897c:	23 81       	ldd	r18, Z+3	; 0x03
    897e:	f2 01       	movw	r30, r4
    8980:	23 fd       	sbrc	r18, 3
    8982:	85 91       	lpm	r24, Z+
    8984:	23 ff       	sbrs	r18, 3
    8986:	81 91       	ld	r24, Z+
    8988:	2f 01       	movw	r4, r30
    898a:	88 23       	and	r24, r24
    898c:	09 f4       	brne	.+2      	; 0x8990 <vfprintf+0x6e>
    898e:	a5 c1       	rjmp	.+842    	; 0x8cda <vfprintf+0x3b8>
    8990:	85 32       	cpi	r24, 0x25	; 37
    8992:	39 f4       	brne	.+14     	; 0x89a2 <vfprintf+0x80>
    8994:	23 fd       	sbrc	r18, 3
    8996:	85 91       	lpm	r24, Z+
    8998:	23 ff       	sbrs	r18, 3
    899a:	81 91       	ld	r24, Z+
    899c:	2f 01       	movw	r4, r30
    899e:	85 32       	cpi	r24, 0x25	; 37
    89a0:	21 f4       	brne	.+8      	; 0x89aa <vfprintf+0x88>
    89a2:	90 e0       	ldi	r25, 0x00	; 0
    89a4:	b3 01       	movw	r22, r6
    89a6:	cc d1       	rcall	.+920    	; 0x8d40 <fputc>
    89a8:	e8 cf       	rjmp	.-48     	; 0x897a <vfprintf+0x58>
    89aa:	98 2f       	mov	r25, r24
    89ac:	ff 24       	eor	r15, r15
    89ae:	ee 24       	eor	r14, r14
    89b0:	99 24       	eor	r9, r9
    89b2:	ff e1       	ldi	r31, 0x1F	; 31
    89b4:	ff 15       	cp	r31, r15
    89b6:	d0 f0       	brcs	.+52     	; 0x89ec <vfprintf+0xca>
    89b8:	9b 32       	cpi	r25, 0x2B	; 43
    89ba:	69 f0       	breq	.+26     	; 0x89d6 <vfprintf+0xb4>
    89bc:	9c 32       	cpi	r25, 0x2C	; 44
    89be:	28 f4       	brcc	.+10     	; 0x89ca <vfprintf+0xa8>
    89c0:	90 32       	cpi	r25, 0x20	; 32
    89c2:	59 f0       	breq	.+22     	; 0x89da <vfprintf+0xb8>
    89c4:	93 32       	cpi	r25, 0x23	; 35
    89c6:	91 f4       	brne	.+36     	; 0x89ec <vfprintf+0xca>
    89c8:	0e c0       	rjmp	.+28     	; 0x89e6 <vfprintf+0xc4>
    89ca:	9d 32       	cpi	r25, 0x2D	; 45
    89cc:	49 f0       	breq	.+18     	; 0x89e0 <vfprintf+0xbe>
    89ce:	90 33       	cpi	r25, 0x30	; 48
    89d0:	69 f4       	brne	.+26     	; 0x89ec <vfprintf+0xca>
    89d2:	41 e0       	ldi	r20, 0x01	; 1
    89d4:	24 c0       	rjmp	.+72     	; 0x8a1e <vfprintf+0xfc>
    89d6:	52 e0       	ldi	r21, 0x02	; 2
    89d8:	f5 2a       	or	r15, r21
    89da:	84 e0       	ldi	r24, 0x04	; 4
    89dc:	f8 2a       	or	r15, r24
    89de:	28 c0       	rjmp	.+80     	; 0x8a30 <vfprintf+0x10e>
    89e0:	98 e0       	ldi	r25, 0x08	; 8
    89e2:	f9 2a       	or	r15, r25
    89e4:	25 c0       	rjmp	.+74     	; 0x8a30 <vfprintf+0x10e>
    89e6:	e0 e1       	ldi	r30, 0x10	; 16
    89e8:	fe 2a       	or	r15, r30
    89ea:	22 c0       	rjmp	.+68     	; 0x8a30 <vfprintf+0x10e>
    89ec:	f7 fc       	sbrc	r15, 7
    89ee:	29 c0       	rjmp	.+82     	; 0x8a42 <vfprintf+0x120>
    89f0:	89 2f       	mov	r24, r25
    89f2:	80 53       	subi	r24, 0x30	; 48
    89f4:	8a 30       	cpi	r24, 0x0A	; 10
    89f6:	70 f4       	brcc	.+28     	; 0x8a14 <vfprintf+0xf2>
    89f8:	f6 fe       	sbrs	r15, 6
    89fa:	05 c0       	rjmp	.+10     	; 0x8a06 <vfprintf+0xe4>
    89fc:	98 9c       	mul	r9, r8
    89fe:	90 2c       	mov	r9, r0
    8a00:	11 24       	eor	r1, r1
    8a02:	98 0e       	add	r9, r24
    8a04:	15 c0       	rjmp	.+42     	; 0x8a30 <vfprintf+0x10e>
    8a06:	e8 9c       	mul	r14, r8
    8a08:	e0 2c       	mov	r14, r0
    8a0a:	11 24       	eor	r1, r1
    8a0c:	e8 0e       	add	r14, r24
    8a0e:	f0 e2       	ldi	r31, 0x20	; 32
    8a10:	ff 2a       	or	r15, r31
    8a12:	0e c0       	rjmp	.+28     	; 0x8a30 <vfprintf+0x10e>
    8a14:	9e 32       	cpi	r25, 0x2E	; 46
    8a16:	29 f4       	brne	.+10     	; 0x8a22 <vfprintf+0x100>
    8a18:	f6 fc       	sbrc	r15, 6
    8a1a:	5f c1       	rjmp	.+702    	; 0x8cda <vfprintf+0x3b8>
    8a1c:	40 e4       	ldi	r20, 0x40	; 64
    8a1e:	f4 2a       	or	r15, r20
    8a20:	07 c0       	rjmp	.+14     	; 0x8a30 <vfprintf+0x10e>
    8a22:	9c 36       	cpi	r25, 0x6C	; 108
    8a24:	19 f4       	brne	.+6      	; 0x8a2c <vfprintf+0x10a>
    8a26:	50 e8       	ldi	r21, 0x80	; 128
    8a28:	f5 2a       	or	r15, r21
    8a2a:	02 c0       	rjmp	.+4      	; 0x8a30 <vfprintf+0x10e>
    8a2c:	98 36       	cpi	r25, 0x68	; 104
    8a2e:	49 f4       	brne	.+18     	; 0x8a42 <vfprintf+0x120>
    8a30:	f2 01       	movw	r30, r4
    8a32:	23 fd       	sbrc	r18, 3
    8a34:	95 91       	lpm	r25, Z+
    8a36:	23 ff       	sbrs	r18, 3
    8a38:	91 91       	ld	r25, Z+
    8a3a:	2f 01       	movw	r4, r30
    8a3c:	99 23       	and	r25, r25
    8a3e:	09 f0       	breq	.+2      	; 0x8a42 <vfprintf+0x120>
    8a40:	b8 cf       	rjmp	.-144    	; 0x89b2 <vfprintf+0x90>
    8a42:	89 2f       	mov	r24, r25
    8a44:	85 54       	subi	r24, 0x45	; 69
    8a46:	83 30       	cpi	r24, 0x03	; 3
    8a48:	18 f0       	brcs	.+6      	; 0x8a50 <vfprintf+0x12e>
    8a4a:	80 52       	subi	r24, 0x20	; 32
    8a4c:	83 30       	cpi	r24, 0x03	; 3
    8a4e:	38 f4       	brcc	.+14     	; 0x8a5e <vfprintf+0x13c>
    8a50:	44 e0       	ldi	r20, 0x04	; 4
    8a52:	50 e0       	ldi	r21, 0x00	; 0
    8a54:	a4 0e       	add	r10, r20
    8a56:	b5 1e       	adc	r11, r21
    8a58:	5f e3       	ldi	r21, 0x3F	; 63
    8a5a:	59 83       	std	Y+1, r21	; 0x01
    8a5c:	0f c0       	rjmp	.+30     	; 0x8a7c <vfprintf+0x15a>
    8a5e:	93 36       	cpi	r25, 0x63	; 99
    8a60:	31 f0       	breq	.+12     	; 0x8a6e <vfprintf+0x14c>
    8a62:	93 37       	cpi	r25, 0x73	; 115
    8a64:	79 f0       	breq	.+30     	; 0x8a84 <vfprintf+0x162>
    8a66:	93 35       	cpi	r25, 0x53	; 83
    8a68:	09 f0       	breq	.+2      	; 0x8a6c <vfprintf+0x14a>
    8a6a:	52 c0       	rjmp	.+164    	; 0x8b10 <vfprintf+0x1ee>
    8a6c:	1f c0       	rjmp	.+62     	; 0x8aac <vfprintf+0x18a>
    8a6e:	f5 01       	movw	r30, r10
    8a70:	80 81       	ld	r24, Z
    8a72:	89 83       	std	Y+1, r24	; 0x01
    8a74:	42 e0       	ldi	r20, 0x02	; 2
    8a76:	50 e0       	ldi	r21, 0x00	; 0
    8a78:	a4 0e       	add	r10, r20
    8a7a:	b5 1e       	adc	r11, r21
    8a7c:	61 01       	movw	r12, r2
    8a7e:	01 e0       	ldi	r16, 0x01	; 1
    8a80:	10 e0       	ldi	r17, 0x00	; 0
    8a82:	11 c0       	rjmp	.+34     	; 0x8aa6 <vfprintf+0x184>
    8a84:	f5 01       	movw	r30, r10
    8a86:	c0 80       	ld	r12, Z
    8a88:	d1 80       	ldd	r13, Z+1	; 0x01
    8a8a:	f6 fc       	sbrc	r15, 6
    8a8c:	03 c0       	rjmp	.+6      	; 0x8a94 <vfprintf+0x172>
    8a8e:	6f ef       	ldi	r22, 0xFF	; 255
    8a90:	7f ef       	ldi	r23, 0xFF	; 255
    8a92:	02 c0       	rjmp	.+4      	; 0x8a98 <vfprintf+0x176>
    8a94:	69 2d       	mov	r22, r9
    8a96:	70 e0       	ldi	r23, 0x00	; 0
    8a98:	42 e0       	ldi	r20, 0x02	; 2
    8a9a:	50 e0       	ldi	r21, 0x00	; 0
    8a9c:	a4 0e       	add	r10, r20
    8a9e:	b5 1e       	adc	r11, r21
    8aa0:	c6 01       	movw	r24, r12
    8aa2:	43 d1       	rcall	.+646    	; 0x8d2a <strnlen>
    8aa4:	8c 01       	movw	r16, r24
    8aa6:	5f e7       	ldi	r21, 0x7F	; 127
    8aa8:	f5 22       	and	r15, r21
    8aaa:	13 c0       	rjmp	.+38     	; 0x8ad2 <vfprintf+0x1b0>
    8aac:	f5 01       	movw	r30, r10
    8aae:	c0 80       	ld	r12, Z
    8ab0:	d1 80       	ldd	r13, Z+1	; 0x01
    8ab2:	f6 fc       	sbrc	r15, 6
    8ab4:	03 c0       	rjmp	.+6      	; 0x8abc <vfprintf+0x19a>
    8ab6:	6f ef       	ldi	r22, 0xFF	; 255
    8ab8:	7f ef       	ldi	r23, 0xFF	; 255
    8aba:	02 c0       	rjmp	.+4      	; 0x8ac0 <vfprintf+0x19e>
    8abc:	69 2d       	mov	r22, r9
    8abe:	70 e0       	ldi	r23, 0x00	; 0
    8ac0:	42 e0       	ldi	r20, 0x02	; 2
    8ac2:	50 e0       	ldi	r21, 0x00	; 0
    8ac4:	a4 0e       	add	r10, r20
    8ac6:	b5 1e       	adc	r11, r21
    8ac8:	c6 01       	movw	r24, r12
    8aca:	24 d1       	rcall	.+584    	; 0x8d14 <strnlen_P>
    8acc:	8c 01       	movw	r16, r24
    8ace:	50 e8       	ldi	r21, 0x80	; 128
    8ad0:	f5 2a       	or	r15, r21
    8ad2:	f3 fe       	sbrs	r15, 3
    8ad4:	06 c0       	rjmp	.+12     	; 0x8ae2 <vfprintf+0x1c0>
    8ad6:	18 c0       	rjmp	.+48     	; 0x8b08 <vfprintf+0x1e6>
    8ad8:	80 e2       	ldi	r24, 0x20	; 32
    8ada:	90 e0       	ldi	r25, 0x00	; 0
    8adc:	b3 01       	movw	r22, r6
    8ade:	30 d1       	rcall	.+608    	; 0x8d40 <fputc>
    8ae0:	ea 94       	dec	r14
    8ae2:	8e 2d       	mov	r24, r14
    8ae4:	90 e0       	ldi	r25, 0x00	; 0
    8ae6:	08 17       	cp	r16, r24
    8ae8:	19 07       	cpc	r17, r25
    8aea:	b0 f3       	brcs	.-20     	; 0x8ad8 <vfprintf+0x1b6>
    8aec:	0d c0       	rjmp	.+26     	; 0x8b08 <vfprintf+0x1e6>
    8aee:	f6 01       	movw	r30, r12
    8af0:	f7 fc       	sbrc	r15, 7
    8af2:	85 91       	lpm	r24, Z+
    8af4:	f7 fe       	sbrs	r15, 7
    8af6:	81 91       	ld	r24, Z+
    8af8:	6f 01       	movw	r12, r30
    8afa:	90 e0       	ldi	r25, 0x00	; 0
    8afc:	b3 01       	movw	r22, r6
    8afe:	20 d1       	rcall	.+576    	; 0x8d40 <fputc>
    8b00:	e1 10       	cpse	r14, r1
    8b02:	ea 94       	dec	r14
    8b04:	01 50       	subi	r16, 0x01	; 1
    8b06:	10 40       	sbci	r17, 0x00	; 0
    8b08:	01 15       	cp	r16, r1
    8b0a:	11 05       	cpc	r17, r1
    8b0c:	81 f7       	brne	.-32     	; 0x8aee <vfprintf+0x1cc>
    8b0e:	e2 c0       	rjmp	.+452    	; 0x8cd4 <vfprintf+0x3b2>
    8b10:	94 36       	cpi	r25, 0x64	; 100
    8b12:	11 f0       	breq	.+4      	; 0x8b18 <vfprintf+0x1f6>
    8b14:	99 36       	cpi	r25, 0x69	; 105
    8b16:	61 f5       	brne	.+88     	; 0x8b70 <vfprintf+0x24e>
    8b18:	f7 fe       	sbrs	r15, 7
    8b1a:	08 c0       	rjmp	.+16     	; 0x8b2c <vfprintf+0x20a>
    8b1c:	f5 01       	movw	r30, r10
    8b1e:	20 81       	ld	r18, Z
    8b20:	31 81       	ldd	r19, Z+1	; 0x01
    8b22:	42 81       	ldd	r20, Z+2	; 0x02
    8b24:	53 81       	ldd	r21, Z+3	; 0x03
    8b26:	84 e0       	ldi	r24, 0x04	; 4
    8b28:	90 e0       	ldi	r25, 0x00	; 0
    8b2a:	0a c0       	rjmp	.+20     	; 0x8b40 <vfprintf+0x21e>
    8b2c:	f5 01       	movw	r30, r10
    8b2e:	80 81       	ld	r24, Z
    8b30:	91 81       	ldd	r25, Z+1	; 0x01
    8b32:	9c 01       	movw	r18, r24
    8b34:	44 27       	eor	r20, r20
    8b36:	37 fd       	sbrc	r19, 7
    8b38:	40 95       	com	r20
    8b3a:	54 2f       	mov	r21, r20
    8b3c:	82 e0       	ldi	r24, 0x02	; 2
    8b3e:	90 e0       	ldi	r25, 0x00	; 0
    8b40:	a8 0e       	add	r10, r24
    8b42:	b9 1e       	adc	r11, r25
    8b44:	9f e6       	ldi	r25, 0x6F	; 111
    8b46:	f9 22       	and	r15, r25
    8b48:	57 ff       	sbrs	r21, 7
    8b4a:	09 c0       	rjmp	.+18     	; 0x8b5e <vfprintf+0x23c>
    8b4c:	50 95       	com	r21
    8b4e:	40 95       	com	r20
    8b50:	30 95       	com	r19
    8b52:	21 95       	neg	r18
    8b54:	3f 4f       	sbci	r19, 0xFF	; 255
    8b56:	4f 4f       	sbci	r20, 0xFF	; 255
    8b58:	5f 4f       	sbci	r21, 0xFF	; 255
    8b5a:	e0 e8       	ldi	r30, 0x80	; 128
    8b5c:	fe 2a       	or	r15, r30
    8b5e:	ca 01       	movw	r24, r20
    8b60:	b9 01       	movw	r22, r18
    8b62:	a1 01       	movw	r20, r2
    8b64:	2a e0       	ldi	r18, 0x0A	; 10
    8b66:	30 e0       	ldi	r19, 0x00	; 0
    8b68:	17 d1       	rcall	.+558    	; 0x8d98 <__ultoa_invert>
    8b6a:	d8 2e       	mov	r13, r24
    8b6c:	d2 18       	sub	r13, r2
    8b6e:	3f c0       	rjmp	.+126    	; 0x8bee <vfprintf+0x2cc>
    8b70:	95 37       	cpi	r25, 0x75	; 117
    8b72:	29 f4       	brne	.+10     	; 0x8b7e <vfprintf+0x25c>
    8b74:	1f 2d       	mov	r17, r15
    8b76:	1f 7e       	andi	r17, 0xEF	; 239
    8b78:	2a e0       	ldi	r18, 0x0A	; 10
    8b7a:	30 e0       	ldi	r19, 0x00	; 0
    8b7c:	1d c0       	rjmp	.+58     	; 0x8bb8 <vfprintf+0x296>
    8b7e:	1f 2d       	mov	r17, r15
    8b80:	19 7f       	andi	r17, 0xF9	; 249
    8b82:	9f 36       	cpi	r25, 0x6F	; 111
    8b84:	61 f0       	breq	.+24     	; 0x8b9e <vfprintf+0x27c>
    8b86:	90 37       	cpi	r25, 0x70	; 112
    8b88:	20 f4       	brcc	.+8      	; 0x8b92 <vfprintf+0x270>
    8b8a:	98 35       	cpi	r25, 0x58	; 88
    8b8c:	09 f0       	breq	.+2      	; 0x8b90 <vfprintf+0x26e>
    8b8e:	a5 c0       	rjmp	.+330    	; 0x8cda <vfprintf+0x3b8>
    8b90:	0f c0       	rjmp	.+30     	; 0x8bb0 <vfprintf+0x28e>
    8b92:	90 37       	cpi	r25, 0x70	; 112
    8b94:	39 f0       	breq	.+14     	; 0x8ba4 <vfprintf+0x282>
    8b96:	98 37       	cpi	r25, 0x78	; 120
    8b98:	09 f0       	breq	.+2      	; 0x8b9c <vfprintf+0x27a>
    8b9a:	9f c0       	rjmp	.+318    	; 0x8cda <vfprintf+0x3b8>
    8b9c:	04 c0       	rjmp	.+8      	; 0x8ba6 <vfprintf+0x284>
    8b9e:	28 e0       	ldi	r18, 0x08	; 8
    8ba0:	30 e0       	ldi	r19, 0x00	; 0
    8ba2:	0a c0       	rjmp	.+20     	; 0x8bb8 <vfprintf+0x296>
    8ba4:	10 61       	ori	r17, 0x10	; 16
    8ba6:	14 fd       	sbrc	r17, 4
    8ba8:	14 60       	ori	r17, 0x04	; 4
    8baa:	20 e1       	ldi	r18, 0x10	; 16
    8bac:	30 e0       	ldi	r19, 0x00	; 0
    8bae:	04 c0       	rjmp	.+8      	; 0x8bb8 <vfprintf+0x296>
    8bb0:	14 fd       	sbrc	r17, 4
    8bb2:	16 60       	ori	r17, 0x06	; 6
    8bb4:	20 e1       	ldi	r18, 0x10	; 16
    8bb6:	32 e0       	ldi	r19, 0x02	; 2
    8bb8:	17 ff       	sbrs	r17, 7
    8bba:	08 c0       	rjmp	.+16     	; 0x8bcc <vfprintf+0x2aa>
    8bbc:	f5 01       	movw	r30, r10
    8bbe:	60 81       	ld	r22, Z
    8bc0:	71 81       	ldd	r23, Z+1	; 0x01
    8bc2:	82 81       	ldd	r24, Z+2	; 0x02
    8bc4:	93 81       	ldd	r25, Z+3	; 0x03
    8bc6:	44 e0       	ldi	r20, 0x04	; 4
    8bc8:	50 e0       	ldi	r21, 0x00	; 0
    8bca:	08 c0       	rjmp	.+16     	; 0x8bdc <vfprintf+0x2ba>
    8bcc:	f5 01       	movw	r30, r10
    8bce:	80 81       	ld	r24, Z
    8bd0:	91 81       	ldd	r25, Z+1	; 0x01
    8bd2:	bc 01       	movw	r22, r24
    8bd4:	80 e0       	ldi	r24, 0x00	; 0
    8bd6:	90 e0       	ldi	r25, 0x00	; 0
    8bd8:	42 e0       	ldi	r20, 0x02	; 2
    8bda:	50 e0       	ldi	r21, 0x00	; 0
    8bdc:	a4 0e       	add	r10, r20
    8bde:	b5 1e       	adc	r11, r21
    8be0:	a1 01       	movw	r20, r2
    8be2:	da d0       	rcall	.+436    	; 0x8d98 <__ultoa_invert>
    8be4:	d8 2e       	mov	r13, r24
    8be6:	d2 18       	sub	r13, r2
    8be8:	8f e7       	ldi	r24, 0x7F	; 127
    8bea:	f8 2e       	mov	r15, r24
    8bec:	f1 22       	and	r15, r17
    8bee:	f6 fe       	sbrs	r15, 6
    8bf0:	0b c0       	rjmp	.+22     	; 0x8c08 <vfprintf+0x2e6>
    8bf2:	5e ef       	ldi	r21, 0xFE	; 254
    8bf4:	f5 22       	and	r15, r21
    8bf6:	d9 14       	cp	r13, r9
    8bf8:	38 f4       	brcc	.+14     	; 0x8c08 <vfprintf+0x2e6>
    8bfa:	f4 fe       	sbrs	r15, 4
    8bfc:	07 c0       	rjmp	.+14     	; 0x8c0c <vfprintf+0x2ea>
    8bfe:	f2 fc       	sbrc	r15, 2
    8c00:	05 c0       	rjmp	.+10     	; 0x8c0c <vfprintf+0x2ea>
    8c02:	8f ee       	ldi	r24, 0xEF	; 239
    8c04:	f8 22       	and	r15, r24
    8c06:	02 c0       	rjmp	.+4      	; 0x8c0c <vfprintf+0x2ea>
    8c08:	1d 2d       	mov	r17, r13
    8c0a:	01 c0       	rjmp	.+2      	; 0x8c0e <vfprintf+0x2ec>
    8c0c:	19 2d       	mov	r17, r9
    8c0e:	f4 fe       	sbrs	r15, 4
    8c10:	0d c0       	rjmp	.+26     	; 0x8c2c <vfprintf+0x30a>
    8c12:	fe 01       	movw	r30, r28
    8c14:	ed 0d       	add	r30, r13
    8c16:	f1 1d       	adc	r31, r1
    8c18:	80 81       	ld	r24, Z
    8c1a:	80 33       	cpi	r24, 0x30	; 48
    8c1c:	19 f4       	brne	.+6      	; 0x8c24 <vfprintf+0x302>
    8c1e:	99 ee       	ldi	r25, 0xE9	; 233
    8c20:	f9 22       	and	r15, r25
    8c22:	08 c0       	rjmp	.+16     	; 0x8c34 <vfprintf+0x312>
    8c24:	1f 5f       	subi	r17, 0xFF	; 255
    8c26:	f2 fe       	sbrs	r15, 2
    8c28:	05 c0       	rjmp	.+10     	; 0x8c34 <vfprintf+0x312>
    8c2a:	03 c0       	rjmp	.+6      	; 0x8c32 <vfprintf+0x310>
    8c2c:	8f 2d       	mov	r24, r15
    8c2e:	86 78       	andi	r24, 0x86	; 134
    8c30:	09 f0       	breq	.+2      	; 0x8c34 <vfprintf+0x312>
    8c32:	1f 5f       	subi	r17, 0xFF	; 255
    8c34:	0f 2d       	mov	r16, r15
    8c36:	f3 fc       	sbrc	r15, 3
    8c38:	13 c0       	rjmp	.+38     	; 0x8c60 <vfprintf+0x33e>
    8c3a:	f0 fe       	sbrs	r15, 0
    8c3c:	0e c0       	rjmp	.+28     	; 0x8c5a <vfprintf+0x338>
    8c3e:	1e 15       	cp	r17, r14
    8c40:	10 f0       	brcs	.+4      	; 0x8c46 <vfprintf+0x324>
    8c42:	9d 2c       	mov	r9, r13
    8c44:	0a c0       	rjmp	.+20     	; 0x8c5a <vfprintf+0x338>
    8c46:	9d 2c       	mov	r9, r13
    8c48:	9e 0c       	add	r9, r14
    8c4a:	91 1a       	sub	r9, r17
    8c4c:	1e 2d       	mov	r17, r14
    8c4e:	05 c0       	rjmp	.+10     	; 0x8c5a <vfprintf+0x338>
    8c50:	80 e2       	ldi	r24, 0x20	; 32
    8c52:	90 e0       	ldi	r25, 0x00	; 0
    8c54:	b3 01       	movw	r22, r6
    8c56:	74 d0       	rcall	.+232    	; 0x8d40 <fputc>
    8c58:	1f 5f       	subi	r17, 0xFF	; 255
    8c5a:	1e 15       	cp	r17, r14
    8c5c:	c8 f3       	brcs	.-14     	; 0x8c50 <vfprintf+0x32e>
    8c5e:	04 c0       	rjmp	.+8      	; 0x8c68 <vfprintf+0x346>
    8c60:	1e 15       	cp	r17, r14
    8c62:	10 f4       	brcc	.+4      	; 0x8c68 <vfprintf+0x346>
    8c64:	e1 1a       	sub	r14, r17
    8c66:	01 c0       	rjmp	.+2      	; 0x8c6a <vfprintf+0x348>
    8c68:	ee 24       	eor	r14, r14
    8c6a:	04 ff       	sbrs	r16, 4
    8c6c:	0e c0       	rjmp	.+28     	; 0x8c8a <vfprintf+0x368>
    8c6e:	80 e3       	ldi	r24, 0x30	; 48
    8c70:	90 e0       	ldi	r25, 0x00	; 0
    8c72:	b3 01       	movw	r22, r6
    8c74:	65 d0       	rcall	.+202    	; 0x8d40 <fputc>
    8c76:	02 ff       	sbrs	r16, 2
    8c78:	1b c0       	rjmp	.+54     	; 0x8cb0 <vfprintf+0x38e>
    8c7a:	01 fd       	sbrc	r16, 1
    8c7c:	03 c0       	rjmp	.+6      	; 0x8c84 <vfprintf+0x362>
    8c7e:	88 e7       	ldi	r24, 0x78	; 120
    8c80:	90 e0       	ldi	r25, 0x00	; 0
    8c82:	0e c0       	rjmp	.+28     	; 0x8ca0 <vfprintf+0x37e>
    8c84:	88 e5       	ldi	r24, 0x58	; 88
    8c86:	90 e0       	ldi	r25, 0x00	; 0
    8c88:	0b c0       	rjmp	.+22     	; 0x8ca0 <vfprintf+0x37e>
    8c8a:	80 2f       	mov	r24, r16
    8c8c:	86 78       	andi	r24, 0x86	; 134
    8c8e:	81 f0       	breq	.+32     	; 0x8cb0 <vfprintf+0x38e>
    8c90:	01 ff       	sbrs	r16, 1
    8c92:	02 c0       	rjmp	.+4      	; 0x8c98 <vfprintf+0x376>
    8c94:	8b e2       	ldi	r24, 0x2B	; 43
    8c96:	01 c0       	rjmp	.+2      	; 0x8c9a <vfprintf+0x378>
    8c98:	80 e2       	ldi	r24, 0x20	; 32
    8c9a:	f7 fc       	sbrc	r15, 7
    8c9c:	8d e2       	ldi	r24, 0x2D	; 45
    8c9e:	90 e0       	ldi	r25, 0x00	; 0
    8ca0:	b3 01       	movw	r22, r6
    8ca2:	4e d0       	rcall	.+156    	; 0x8d40 <fputc>
    8ca4:	05 c0       	rjmp	.+10     	; 0x8cb0 <vfprintf+0x38e>
    8ca6:	80 e3       	ldi	r24, 0x30	; 48
    8ca8:	90 e0       	ldi	r25, 0x00	; 0
    8caa:	b3 01       	movw	r22, r6
    8cac:	49 d0       	rcall	.+146    	; 0x8d40 <fputc>
    8cae:	9a 94       	dec	r9
    8cb0:	d9 14       	cp	r13, r9
    8cb2:	c8 f3       	brcs	.-14     	; 0x8ca6 <vfprintf+0x384>
    8cb4:	da 94       	dec	r13
    8cb6:	f1 01       	movw	r30, r2
    8cb8:	ed 0d       	add	r30, r13
    8cba:	f1 1d       	adc	r31, r1
    8cbc:	80 81       	ld	r24, Z
    8cbe:	90 e0       	ldi	r25, 0x00	; 0
    8cc0:	b3 01       	movw	r22, r6
    8cc2:	3e d0       	rcall	.+124    	; 0x8d40 <fputc>
    8cc4:	dd 20       	and	r13, r13
    8cc6:	b1 f7       	brne	.-20     	; 0x8cb4 <vfprintf+0x392>
    8cc8:	05 c0       	rjmp	.+10     	; 0x8cd4 <vfprintf+0x3b2>
    8cca:	80 e2       	ldi	r24, 0x20	; 32
    8ccc:	90 e0       	ldi	r25, 0x00	; 0
    8cce:	b3 01       	movw	r22, r6
    8cd0:	37 d0       	rcall	.+110    	; 0x8d40 <fputc>
    8cd2:	ea 94       	dec	r14
    8cd4:	ee 20       	and	r14, r14
    8cd6:	c9 f7       	brne	.-14     	; 0x8cca <vfprintf+0x3a8>
    8cd8:	50 ce       	rjmp	.-864    	; 0x897a <vfprintf+0x58>
    8cda:	f3 01       	movw	r30, r6
    8cdc:	66 81       	ldd	r22, Z+6	; 0x06
    8cde:	77 81       	ldd	r23, Z+7	; 0x07
    8ce0:	cb 01       	movw	r24, r22
    8ce2:	2b 96       	adiw	r28, 0x0b	; 11
    8ce4:	0f b6       	in	r0, 0x3f	; 63
    8ce6:	f8 94       	cli
    8ce8:	de bf       	out	0x3e, r29	; 62
    8cea:	0f be       	out	0x3f, r0	; 63
    8cec:	cd bf       	out	0x3d, r28	; 61
    8cee:	cf 91       	pop	r28
    8cf0:	df 91       	pop	r29
    8cf2:	1f 91       	pop	r17
    8cf4:	0f 91       	pop	r16
    8cf6:	ff 90       	pop	r15
    8cf8:	ef 90       	pop	r14
    8cfa:	df 90       	pop	r13
    8cfc:	cf 90       	pop	r12
    8cfe:	bf 90       	pop	r11
    8d00:	af 90       	pop	r10
    8d02:	9f 90       	pop	r9
    8d04:	8f 90       	pop	r8
    8d06:	7f 90       	pop	r7
    8d08:	6f 90       	pop	r6
    8d0a:	5f 90       	pop	r5
    8d0c:	4f 90       	pop	r4
    8d0e:	3f 90       	pop	r3
    8d10:	2f 90       	pop	r2
    8d12:	08 95       	ret

00008d14 <strnlen_P>:
    8d14:	fc 01       	movw	r30, r24
    8d16:	05 90       	lpm	r0, Z+
    8d18:	61 50       	subi	r22, 0x01	; 1
    8d1a:	70 40       	sbci	r23, 0x00	; 0
    8d1c:	01 10       	cpse	r0, r1
    8d1e:	d8 f7       	brcc	.-10     	; 0x8d16 <strnlen_P+0x2>
    8d20:	80 95       	com	r24
    8d22:	90 95       	com	r25
    8d24:	8e 0f       	add	r24, r30
    8d26:	9f 1f       	adc	r25, r31
    8d28:	08 95       	ret

00008d2a <strnlen>:
    8d2a:	fc 01       	movw	r30, r24
    8d2c:	61 50       	subi	r22, 0x01	; 1
    8d2e:	70 40       	sbci	r23, 0x00	; 0
    8d30:	01 90       	ld	r0, Z+
    8d32:	01 10       	cpse	r0, r1
    8d34:	d8 f7       	brcc	.-10     	; 0x8d2c <strnlen+0x2>
    8d36:	80 95       	com	r24
    8d38:	90 95       	com	r25
    8d3a:	8e 0f       	add	r24, r30
    8d3c:	9f 1f       	adc	r25, r31
    8d3e:	08 95       	ret

00008d40 <fputc>:
    8d40:	0f 93       	push	r16
    8d42:	1f 93       	push	r17
    8d44:	cf 93       	push	r28
    8d46:	df 93       	push	r29
    8d48:	8c 01       	movw	r16, r24
    8d4a:	eb 01       	movw	r28, r22
    8d4c:	8b 81       	ldd	r24, Y+3	; 0x03
    8d4e:	81 ff       	sbrs	r24, 1
    8d50:	1b c0       	rjmp	.+54     	; 0x8d88 <fputc+0x48>
    8d52:	82 ff       	sbrs	r24, 2
    8d54:	0d c0       	rjmp	.+26     	; 0x8d70 <fputc+0x30>
    8d56:	2e 81       	ldd	r18, Y+6	; 0x06
    8d58:	3f 81       	ldd	r19, Y+7	; 0x07
    8d5a:	8c 81       	ldd	r24, Y+4	; 0x04
    8d5c:	9d 81       	ldd	r25, Y+5	; 0x05
    8d5e:	28 17       	cp	r18, r24
    8d60:	39 07       	cpc	r19, r25
    8d62:	64 f4       	brge	.+24     	; 0x8d7c <fputc+0x3c>
    8d64:	e8 81       	ld	r30, Y
    8d66:	f9 81       	ldd	r31, Y+1	; 0x01
    8d68:	01 93       	st	Z+, r16
    8d6a:	f9 83       	std	Y+1, r31	; 0x01
    8d6c:	e8 83       	st	Y, r30
    8d6e:	06 c0       	rjmp	.+12     	; 0x8d7c <fputc+0x3c>
    8d70:	e8 85       	ldd	r30, Y+8	; 0x08
    8d72:	f9 85       	ldd	r31, Y+9	; 0x09
    8d74:	80 2f       	mov	r24, r16
    8d76:	09 95       	icall
    8d78:	89 2b       	or	r24, r25
    8d7a:	31 f4       	brne	.+12     	; 0x8d88 <fputc+0x48>
    8d7c:	8e 81       	ldd	r24, Y+6	; 0x06
    8d7e:	9f 81       	ldd	r25, Y+7	; 0x07
    8d80:	01 96       	adiw	r24, 0x01	; 1
    8d82:	9f 83       	std	Y+7, r25	; 0x07
    8d84:	8e 83       	std	Y+6, r24	; 0x06
    8d86:	02 c0       	rjmp	.+4      	; 0x8d8c <fputc+0x4c>
    8d88:	0f ef       	ldi	r16, 0xFF	; 255
    8d8a:	1f ef       	ldi	r17, 0xFF	; 255
    8d8c:	c8 01       	movw	r24, r16
    8d8e:	df 91       	pop	r29
    8d90:	cf 91       	pop	r28
    8d92:	1f 91       	pop	r17
    8d94:	0f 91       	pop	r16
    8d96:	08 95       	ret

00008d98 <__ultoa_invert>:
    8d98:	fa 01       	movw	r30, r20
    8d9a:	aa 27       	eor	r26, r26
    8d9c:	28 30       	cpi	r18, 0x08	; 8
    8d9e:	51 f1       	breq	.+84     	; 0x8df4 <__ultoa_invert+0x5c>
    8da0:	20 31       	cpi	r18, 0x10	; 16
    8da2:	81 f1       	breq	.+96     	; 0x8e04 <__ultoa_invert+0x6c>
    8da4:	e8 94       	clt
    8da6:	6f 93       	push	r22
    8da8:	6e 7f       	andi	r22, 0xFE	; 254
    8daa:	6e 5f       	subi	r22, 0xFE	; 254
    8dac:	7f 4f       	sbci	r23, 0xFF	; 255
    8dae:	8f 4f       	sbci	r24, 0xFF	; 255
    8db0:	9f 4f       	sbci	r25, 0xFF	; 255
    8db2:	af 4f       	sbci	r26, 0xFF	; 255
    8db4:	b1 e0       	ldi	r27, 0x01	; 1
    8db6:	3e d0       	rcall	.+124    	; 0x8e34 <__ultoa_invert+0x9c>
    8db8:	b4 e0       	ldi	r27, 0x04	; 4
    8dba:	3c d0       	rcall	.+120    	; 0x8e34 <__ultoa_invert+0x9c>
    8dbc:	67 0f       	add	r22, r23
    8dbe:	78 1f       	adc	r23, r24
    8dc0:	89 1f       	adc	r24, r25
    8dc2:	9a 1f       	adc	r25, r26
    8dc4:	a1 1d       	adc	r26, r1
    8dc6:	68 0f       	add	r22, r24
    8dc8:	79 1f       	adc	r23, r25
    8dca:	8a 1f       	adc	r24, r26
    8dcc:	91 1d       	adc	r25, r1
    8dce:	a1 1d       	adc	r26, r1
    8dd0:	6a 0f       	add	r22, r26
    8dd2:	71 1d       	adc	r23, r1
    8dd4:	81 1d       	adc	r24, r1
    8dd6:	91 1d       	adc	r25, r1
    8dd8:	a1 1d       	adc	r26, r1
    8dda:	20 d0       	rcall	.+64     	; 0x8e1c <__ultoa_invert+0x84>
    8ddc:	09 f4       	brne	.+2      	; 0x8de0 <__ultoa_invert+0x48>
    8dde:	68 94       	set
    8de0:	3f 91       	pop	r19
    8de2:	2a e0       	ldi	r18, 0x0A	; 10
    8de4:	26 9f       	mul	r18, r22
    8de6:	11 24       	eor	r1, r1
    8de8:	30 19       	sub	r19, r0
    8dea:	30 5d       	subi	r19, 0xD0	; 208
    8dec:	31 93       	st	Z+, r19
    8dee:	de f6       	brtc	.-74     	; 0x8da6 <__ultoa_invert+0xe>
    8df0:	cf 01       	movw	r24, r30
    8df2:	08 95       	ret
    8df4:	46 2f       	mov	r20, r22
    8df6:	47 70       	andi	r20, 0x07	; 7
    8df8:	40 5d       	subi	r20, 0xD0	; 208
    8dfa:	41 93       	st	Z+, r20
    8dfc:	b3 e0       	ldi	r27, 0x03	; 3
    8dfe:	0f d0       	rcall	.+30     	; 0x8e1e <__ultoa_invert+0x86>
    8e00:	c9 f7       	brne	.-14     	; 0x8df4 <__ultoa_invert+0x5c>
    8e02:	f6 cf       	rjmp	.-20     	; 0x8df0 <__ultoa_invert+0x58>
    8e04:	46 2f       	mov	r20, r22
    8e06:	4f 70       	andi	r20, 0x0F	; 15
    8e08:	40 5d       	subi	r20, 0xD0	; 208
    8e0a:	4a 33       	cpi	r20, 0x3A	; 58
    8e0c:	18 f0       	brcs	.+6      	; 0x8e14 <__ultoa_invert+0x7c>
    8e0e:	49 5d       	subi	r20, 0xD9	; 217
    8e10:	31 fd       	sbrc	r19, 1
    8e12:	40 52       	subi	r20, 0x20	; 32
    8e14:	41 93       	st	Z+, r20
    8e16:	02 d0       	rcall	.+4      	; 0x8e1c <__ultoa_invert+0x84>
    8e18:	a9 f7       	brne	.-22     	; 0x8e04 <__ultoa_invert+0x6c>
    8e1a:	ea cf       	rjmp	.-44     	; 0x8df0 <__ultoa_invert+0x58>
    8e1c:	b4 e0       	ldi	r27, 0x04	; 4
    8e1e:	a6 95       	lsr	r26
    8e20:	97 95       	ror	r25
    8e22:	87 95       	ror	r24
    8e24:	77 95       	ror	r23
    8e26:	67 95       	ror	r22
    8e28:	ba 95       	dec	r27
    8e2a:	c9 f7       	brne	.-14     	; 0x8e1e <__ultoa_invert+0x86>
    8e2c:	00 97       	sbiw	r24, 0x00	; 0
    8e2e:	61 05       	cpc	r22, r1
    8e30:	71 05       	cpc	r23, r1
    8e32:	08 95       	ret
    8e34:	9b 01       	movw	r18, r22
    8e36:	ac 01       	movw	r20, r24
    8e38:	0a 2e       	mov	r0, r26
    8e3a:	06 94       	lsr	r0
    8e3c:	57 95       	ror	r21
    8e3e:	47 95       	ror	r20
    8e40:	37 95       	ror	r19
    8e42:	27 95       	ror	r18
    8e44:	ba 95       	dec	r27
    8e46:	c9 f7       	brne	.-14     	; 0x8e3a <__ultoa_invert+0xa2>
    8e48:	62 0f       	add	r22, r18
    8e4a:	73 1f       	adc	r23, r19
    8e4c:	84 1f       	adc	r24, r20
    8e4e:	95 1f       	adc	r25, r21
    8e50:	a0 1d       	adc	r26, r0
    8e52:	08 95       	ret

00008e54 <_exit>:
    8e54:	f8 94       	cli

00008e56 <__stop_program>:
    8e56:	ff cf       	rjmp	.-2      	; 0x8e56 <__stop_program>
